ARM GAS  C:\Users\Ray\AppData\Local\Temp\ccjCHh8J.s 			page 1


   1              		.syntax unified
   2              		.cpu cortex-m0
   3              		.fpu softvfp
   4              		.eabi_attribute 20, 1
   5              		.eabi_attribute 21, 1
   6              		.eabi_attribute 23, 3
   7              		.eabi_attribute 24, 1
   8              		.eabi_attribute 25, 1
   9              		.eabi_attribute 26, 1
  10              		.eabi_attribute 30, 4
  11              		.eabi_attribute 34, 0
  12              		.eabi_attribute 18, 4
  13              		.thumb
  14              		.syntax unified
  15              		.file	"aes256.c"
  16              		.text
  17              	.Ltext0:
  18              		.cfi_sections	.debug_frame
  19              		.section	.text.setup_mix,"ax",%progbits
  20              		.align	1
  21              		.code	16
  22              		.thumb_func
  23              		.type	setup_mix, %function
  24              	setup_mix:
  25              	.LFB0:
  26              		.file 1 "strong-arm\\src\\aes\\aes256.c"
   1:strong-arm\src\aes/aes256.c **** /*
   2:strong-arm\src\aes/aes256.c ****  * Inspired by and copied in part from LibTomCrypt:
   3:strong-arm\src\aes/aes256.c ****  * https://github.com/libtom/libtomcrypt
   4:strong-arm\src\aes/aes256.c ****  *
   5:strong-arm\src\aes/aes256.c ****  */
   6:strong-arm\src\aes/aes256.c **** #include <string.h>
   7:strong-arm\src\aes/aes256.c **** #include <strong-arm/aes.h>
   8:strong-arm\src\aes/aes256.c **** #include "aes256_tables.h"
   9:strong-arm\src\aes/aes256.c **** 
  10:strong-arm\src\aes/aes256.c **** 
  11:strong-arm\src\aes/aes256.c **** #define ROR_C(x, n) (((x) >> (n)) | ((x) << (32 - (n))))
  12:strong-arm\src\aes/aes256.c **** 
  13:strong-arm\src\aes/aes256.c **** 
  14:strong-arm\src\aes/aes256.c **** static uint32_t setup_mix (uint32_t temp)
  15:strong-arm\src\aes/aes256.c **** {
  27              		.loc 1 15 0
  28              		.cfi_startproc
  29              		@ args = 0, pretend = 0, frame = 0
  30              		@ frame_needed = 0, uses_anonymous_args = 0
  31              	.LVL0:
  16:strong-arm\src\aes/aes256.c **** 	return (Te4[(temp >> 16) & 0xFF] & 0xFF000000) ^
  17:strong-arm\src\aes/aes256.c ****                (Te4[(temp >> 8) & 0xFF] & 0x00FF0000) ^
  18:strong-arm\src\aes/aes256.c **** 	       (Te4[temp & 0xFF] & 0x0000FF00) ^
  32              		.loc 1 18 0
  33 0000 FF23     		movs	r3, #255
  34 0002 0200     		movs	r2, r0
  15:strong-arm\src\aes/aes256.c **** 	return (Te4[(temp >> 16) & 0xFF] & 0xFF000000) ^
  35              		.loc 1 15 0
  36 0004 10B5     		push	{r4, lr}
  37              		.cfi_def_cfa_offset 8
  38              		.cfi_offset 4, -8
ARM GAS  C:\Users\Ray\AppData\Local\Temp\ccjCHh8J.s 			page 2


  39              		.cfi_offset 14, -4
  40              		.loc 1 18 0
  41 0006 1A40     		ands	r2, r3
  42 0008 0D4C     		ldr	r4, .L2
  43 000a 9200     		lsls	r2, r2, #2
  16:strong-arm\src\aes/aes256.c **** 	return (Te4[(temp >> 16) & 0xFF] & 0xFF000000) ^
  44              		.loc 1 16 0
  45 000c 1159     		ldr	r1, [r2, r4]
  46 000e FF22     		movs	r2, #255
  47 0010 1202     		lsls	r2, r2, #8
  48 0012 0A40     		ands	r2, r1
  19:strong-arm\src\aes/aes256.c **** 	       (Te4[(temp >> 24) & 0xFF] & 0x000000FF);
  49              		.loc 1 19 0
  50 0014 010E     		lsrs	r1, r0, #24
  51 0016 8900     		lsls	r1, r1, #2
  16:strong-arm\src\aes/aes256.c **** 	return (Te4[(temp >> 16) & 0xFF] & 0xFF000000) ^
  52              		.loc 1 16 0
  53 0018 0959     		ldr	r1, [r1, r4]
  20:strong-arm\src\aes/aes256.c **** }
  54              		.loc 1 20 0
  55              		@ sp needed
  16:strong-arm\src\aes/aes256.c ****                (Te4[(temp >> 8) & 0xFF] & 0x00FF0000) ^
  56              		.loc 1 16 0
  57 001a 1940     		ands	r1, r3
  58 001c 4A40     		eors	r2, r1
  59 001e 010C     		lsrs	r1, r0, #16
  17:strong-arm\src\aes/aes256.c **** 	       (Te4[temp & 0xFF] & 0x0000FF00) ^
  60              		.loc 1 17 0
  61 0020 000A     		lsrs	r0, r0, #8
  62              	.LVL1:
  16:strong-arm\src\aes/aes256.c ****                (Te4[(temp >> 8) & 0xFF] & 0x00FF0000) ^
  63              		.loc 1 16 0
  64 0022 1940     		ands	r1, r3
  17:strong-arm\src\aes/aes256.c **** 	       (Te4[temp & 0xFF] & 0x0000FF00) ^
  65              		.loc 1 17 0
  66 0024 0340     		ands	r3, r0
  67 0026 9B00     		lsls	r3, r3, #2
  16:strong-arm\src\aes/aes256.c ****                (Te4[(temp >> 8) & 0xFF] & 0x00FF0000) ^
  68              		.loc 1 16 0
  69 0028 1859     		ldr	r0, [r3, r4]
  70 002a FF23     		movs	r3, #255
  71 002c 8900     		lsls	r1, r1, #2
  72 002e 0959     		ldr	r1, [r1, r4]
  73 0030 1B04     		lsls	r3, r3, #16
  74 0032 090E     		lsrs	r1, r1, #24
  75 0034 0906     		lsls	r1, r1, #24
  76 0036 4A40     		eors	r2, r1
  77 0038 1840     		ands	r0, r3
  78 003a 5040     		eors	r0, r2
  79              		.loc 1 20 0
  80 003c 10BD     		pop	{r4, pc}
  81              	.L3:
  82 003e C046     		.align	2
  83              	.L2:
  84 0040 00000000 		.word	.LANCHOR0
  85              		.cfi_endproc
  86              	.LFE0:
ARM GAS  C:\Users\Ray\AppData\Local\Temp\ccjCHh8J.s 			page 3


  87              		.size	setup_mix, .-setup_mix
  88              		.section	.text.final_mix,"ax",%progbits
  89              		.align	1
  90              		.code	16
  91              		.thumb_func
  92              		.type	final_mix, %function
  93              	final_mix:
  94              	.LFB1:
  21:strong-arm\src\aes/aes256.c **** 
  22:strong-arm\src\aes/aes256.c **** 
  23:strong-arm\src\aes/aes256.c **** static uint32_t final_mix (uint8_t a, uint8_t b, uint8_t c, uint8_t d)
  24:strong-arm\src\aes/aes256.c **** {
  95              		.loc 1 24 0
  96              		.cfi_startproc
  97              		@ args = 0, pretend = 0, frame = 0
  98              		@ frame_needed = 0, uses_anonymous_args = 0
  99              	.LVL2:
 100 0000 30B5     		push	{r4, r5, lr}
 101              		.cfi_def_cfa_offset 12
 102              		.cfi_offset 4, -12
 103              		.cfi_offset 5, -8
 104              		.cfi_offset 14, -4
  25:strong-arm\src\aes/aes256.c **** 	return (Te4[a] & 0xFF000000) ^
  26:strong-arm\src\aes/aes256.c ****                (Te4[b] & 0x00FF0000) ^
  27:strong-arm\src\aes/aes256.c **** 	       (Te4[c] & 0x0000FF00) ^
 105              		.loc 1 27 0
 106 0002 0C4D     		ldr	r5, .L5
 107 0004 9200     		lsls	r2, r2, #2
 108              	.LVL3:
  25:strong-arm\src\aes/aes256.c **** 	return (Te4[a] & 0xFF000000) ^
 109              		.loc 1 25 0
 110 0006 5459     		ldr	r4, [r2, r5]
 111 0008 FF22     		movs	r2, #255
  28:strong-arm\src\aes/aes256.c **** 	       (Te4[d] & 0x000000FF);
 112              		.loc 1 28 0
 113 000a 9B00     		lsls	r3, r3, #2
 114              	.LVL4:
  25:strong-arm\src\aes/aes256.c **** 	return (Te4[a] & 0xFF000000) ^
 115              		.loc 1 25 0
 116 000c 5B59     		ldr	r3, [r3, r5]
 117 000e 1202     		lsls	r2, r2, #8
 118 0010 2240     		ands	r2, r4
 119 0012 DBB2     		uxtb	r3, r3
 120 0014 5A40     		eors	r2, r3
 121 0016 FF23     		movs	r3, #255
 122 0018 1400     		movs	r4, r2
  26:strong-arm\src\aes/aes256.c **** 	       (Te4[c] & 0x0000FF00) ^
 123              		.loc 1 26 0
 124 001a 8900     		lsls	r1, r1, #2
 125              	.LVL5:
  25:strong-arm\src\aes/aes256.c **** 	return (Te4[a] & 0xFF000000) ^
 126              		.loc 1 25 0
 127 001c 4A59     		ldr	r2, [r1, r5]
 128 001e 1B04     		lsls	r3, r3, #16
 129 0020 1340     		ands	r3, r2
 130 0022 2200     		movs	r2, r4
 131 0024 8000     		lsls	r0, r0, #2
ARM GAS  C:\Users\Ray\AppData\Local\Temp\ccjCHh8J.s 			page 4


 132              	.LVL6:
 133 0026 5A40     		eors	r2, r3
 134 0028 4359     		ldr	r3, [r0, r5]
  29:strong-arm\src\aes/aes256.c **** }
 135              		.loc 1 29 0
 136              		@ sp needed
  25:strong-arm\src\aes/aes256.c ****                (Te4[b] & 0x00FF0000) ^
 137              		.loc 1 25 0
 138 002a 1B0E     		lsrs	r3, r3, #24
 139 002c 1B06     		lsls	r3, r3, #24
 140 002e 5A40     		eors	r2, r3
 141 0030 1000     		movs	r0, r2
 142              		.loc 1 29 0
 143 0032 30BD     		pop	{r4, r5, pc}
 144              	.L6:
 145              		.align	2
 146              	.L5:
 147 0034 00000000 		.word	.LANCHOR0
 148              		.cfi_endproc
 149              	.LFE1:
 150              		.size	final_mix, .-final_mix
 151              		.section	.text.load_big_endian,"ax",%progbits
 152              		.align	1
 153              		.code	16
 154              		.thumb_func
 155              		.type	load_big_endian, %function
 156              	load_big_endian:
 157              	.LFB2:
  30:strong-arm\src\aes/aes256.c **** 
  31:strong-arm\src\aes/aes256.c **** 
  32:strong-arm\src\aes/aes256.c **** static uint32_t load_big_endian (uint8_t const buf[static 4])
  33:strong-arm\src\aes/aes256.c **** {
 158              		.loc 1 33 0
 159              		.cfi_startproc
 160              		@ args = 0, pretend = 0, frame = 0
 161              		@ frame_needed = 0, uses_anonymous_args = 0
 162              		@ link register save eliminated.
 163              	.LVL7:
 164              		.loc 1 33 0
 165 0000 0200     		movs	r2, r0
  34:strong-arm\src\aes/aes256.c **** 	return (buf[0] << 24) | (buf[1] << 16) | (buf[2] << 8) | buf[3];
 166              		.loc 1 34 0
 167 0002 0378     		ldrb	r3, [r0]
  35:strong-arm\src\aes/aes256.c **** }
 168              		.loc 1 35 0
 169              		@ sp needed
  34:strong-arm\src\aes/aes256.c **** 	return (buf[0] << 24) | (buf[1] << 16) | (buf[2] << 8) | buf[3];
 170              		.loc 1 34 0
 171 0004 1806     		lsls	r0, r3, #24
 172              	.LVL8:
 173 0006 5378     		ldrb	r3, [r2, #1]
 174 0008 1B04     		lsls	r3, r3, #16
 175 000a 0343     		orrs	r3, r0
 176 000c D078     		ldrb	r0, [r2, #3]
 177 000e 1843     		orrs	r0, r3
 178 0010 9378     		ldrb	r3, [r2, #2]
 179 0012 1B02     		lsls	r3, r3, #8
ARM GAS  C:\Users\Ray\AppData\Local\Temp\ccjCHh8J.s 			page 5


 180 0014 1843     		orrs	r0, r3
 181              		.loc 1 35 0
 182 0016 7047     		bx	lr
 183              		.cfi_endproc
 184              	.LFE2:
 185              		.size	load_big_endian, .-load_big_endian
 186              		.section	.text.aes256_encrypt_block,"ax",%progbits
 187              		.align	1
 188              		.global	aes256_encrypt_block
 189              		.code	16
 190              		.thumb_func
 191              		.type	aes256_encrypt_block, %function
 192              	aes256_encrypt_block:
 193              	.LFB4:
  36:strong-arm\src\aes/aes256.c **** 
  37:strong-arm\src\aes/aes256.c **** 
  38:strong-arm\src\aes/aes256.c **** static void save_big_endian (uint8_t buf[static 4], uint32_t word)
  39:strong-arm\src\aes/aes256.c **** {
  40:strong-arm\src\aes/aes256.c **** 	buf[0] = word >> 24;
  41:strong-arm\src\aes/aes256.c **** 	buf[1] = word >> 16;
  42:strong-arm\src\aes/aes256.c **** 	buf[2] = word >> 8;
  43:strong-arm\src\aes/aes256.c **** 	buf[3] = word;
  44:strong-arm\src\aes/aes256.c **** }
  45:strong-arm\src\aes/aes256.c **** 
  46:strong-arm\src\aes/aes256.c **** 
  47:strong-arm\src\aes/aes256.c **** void aes256_encrypt_block (uint8_t ciphertext[static 16], uint8_t const key[static 32], uint8_t con
  48:strong-arm\src\aes/aes256.c **** {
 194              		.loc 1 48 0
 195              		.cfi_startproc
 196              		@ args = 0, pretend = 0, frame = 272
 197              		@ frame_needed = 0, uses_anonymous_args = 0
 198              	.LVL9:
 199 0000 F0B5     		push	{r4, r5, r6, r7, lr}
 200              		.cfi_def_cfa_offset 20
 201              		.cfi_offset 4, -20
 202              		.cfi_offset 5, -16
 203              		.cfi_offset 6, -12
 204              		.cfi_offset 7, -8
 205              		.cfi_offset 14, -4
 206 0002 0D00     		movs	r5, r1
 207 0004 1600     		movs	r6, r2
 208 0006 0024     		movs	r4, #0
 209 0008 C5B0     		sub	sp, sp, #276
 210              		.cfi_def_cfa_offset 296
 211              		.loc 1 48 0
 212 000a 0190     		str	r0, [sp, #4]
 213              	.LVL10:
 214              	.L9:
 215              	.LBB13:
  49:strong-arm\src\aes/aes256.c **** 	uint32_t eK[60];
  50:strong-arm\src\aes/aes256.c **** 	uint32_t t0, t1, t2, t3;
  51:strong-arm\src\aes/aes256.c **** 
  52:strong-arm\src\aes/aes256.c **** 	/* Key Scheduling */
  53:strong-arm\src\aes/aes256.c **** 	for (int i = 0; i < 8; ++i)
  54:strong-arm\src\aes/aes256.c **** 		eK[i] = load_big_endian (key + i * 4);
 216              		.loc 1 54 0 discriminator 3
 217 000c 2819     		adds	r0, r5, r4
ARM GAS  C:\Users\Ray\AppData\Local\Temp\ccjCHh8J.s 			page 6


 218 000e FFF7FEFF 		bl	load_big_endian
 219              	.LVL11:
 220 0012 08AB     		add	r3, sp, #32
 221 0014 E050     		str	r0, [r4, r3]
 222 0016 0434     		adds	r4, r4, #4
  53:strong-arm\src\aes/aes256.c **** 		eK[i] = load_big_endian (key + i * 4);
 223              		.loc 1 53 0 discriminator 3
 224 0018 202C     		cmp	r4, #32
 225 001a F7D1     		bne	.L9
 226 001c 1C00     		movs	r4, r3
  53:strong-arm\src\aes/aes256.c **** 		eK[i] = load_big_endian (key + i * 4);
 227              		.loc 1 53 0 is_stmt 0
 228 001e 0025     		movs	r5, #0
 229              	.LVL12:
 230              	.L10:
 231              	.LBE13:
 232              	.LBB14:
  55:strong-arm\src\aes/aes256.c **** 
  56:strong-arm\src\aes/aes256.c **** 	for (int i = 0; i < 64-8; i += 8)
  57:strong-arm\src\aes/aes256.c **** 	{
  58:strong-arm\src\aes/aes256.c **** 		eK[i+8] = eK[i] ^ setup_mix (eK[i+7]) ^ rcon[i/8];
 233              		.loc 1 58 0 is_stmt 1 discriminator 1
 234 0020 2B00     		movs	r3, r5
 235 0022 E769     		ldr	r7, [r4, #28]
 236 0024 0833     		adds	r3, r3, #8
 237 0026 3800     		movs	r0, r7
 238 0028 0293     		str	r3, [sp, #8]
 239 002a FFF7FEFF 		bl	setup_mix
 240              	.LVL13:
 241 002e ED10     		asrs	r5, r5, #3
 242              	.LVL14:
 243 0030 944B     		ldr	r3, .L17
 244 0032 AD00     		lsls	r5, r5, #2
 245 0034 EB58     		ldr	r3, [r5, r3]
 246 0036 2268     		ldr	r2, [r4]
 247 0038 5340     		eors	r3, r2
 248 003a 5840     		eors	r0, r3
  59:strong-arm\src\aes/aes256.c **** 		eK[i+9] = eK[i+1] ^ eK[i+8];
 249              		.loc 1 59 0 discriminator 1
 250 003c 6368     		ldr	r3, [r4, #4]
  58:strong-arm\src\aes/aes256.c **** 		eK[i+9] = eK[i+1] ^ eK[i+8];
 251              		.loc 1 58 0 discriminator 1
 252 003e 2062     		str	r0, [r4, #32]
 253              		.loc 1 59 0 discriminator 1
 254 0040 5840     		eors	r0, r3
  60:strong-arm\src\aes/aes256.c **** 		eK[i+10] = eK[i+2] ^ eK[i+9];
 255              		.loc 1 60 0 discriminator 1
 256 0042 A368     		ldr	r3, [r4, #8]
  59:strong-arm\src\aes/aes256.c **** 		eK[i+9] = eK[i+1] ^ eK[i+8];
 257              		.loc 1 59 0 discriminator 1
 258 0044 6062     		str	r0, [r4, #36]
 259              		.loc 1 60 0 discriminator 1
 260 0046 5840     		eors	r0, r3
  61:strong-arm\src\aes/aes256.c **** 		eK[i+11] = eK[i+3] ^ eK[i+10];
 261              		.loc 1 61 0 discriminator 1
 262 0048 E368     		ldr	r3, [r4, #12]
  60:strong-arm\src\aes/aes256.c **** 		eK[i+10] = eK[i+2] ^ eK[i+9];
ARM GAS  C:\Users\Ray\AppData\Local\Temp\ccjCHh8J.s 			page 7


 263              		.loc 1 60 0 discriminator 1
 264 004a A062     		str	r0, [r4, #40]
 265              		.loc 1 61 0 discriminator 1
 266 004c 5840     		eors	r0, r3
  62:strong-arm\src\aes/aes256.c **** 
  63:strong-arm\src\aes/aes256.c **** 		if (i == 48)
 267              		.loc 1 63 0 discriminator 1
 268 004e 029B     		ldr	r3, [sp, #8]
  61:strong-arm\src\aes/aes256.c **** 		eK[i+11] = eK[i+3] ^ eK[i+10];
 269              		.loc 1 61 0 discriminator 1
 270 0050 E062     		str	r0, [r4, #44]
 271              		.loc 1 63 0 discriminator 1
 272 0052 382B     		cmp	r3, #56
 273 0054 11D0     		beq	.L16
  64:strong-arm\src\aes/aes256.c **** 			break;
  65:strong-arm\src\aes/aes256.c **** 
  66:strong-arm\src\aes/aes256.c **** 		eK[i+12] = eK[i+4] ^ setup_mix (ROR_C (eK[i+11], 8));
 274              		.loc 1 66 0 discriminator 2
 275 0056 0823     		movs	r3, #8
 276 0058 D841     		rors	r0, r0, r3
 277 005a FFF7FEFF 		bl	setup_mix
 278              	.LVL15:
 279 005e 2369     		ldr	r3, [r4, #16]
  67:strong-arm\src\aes/aes256.c **** 		eK[i+13] = eK[i+5] ^ eK[i+12];
  68:strong-arm\src\aes/aes256.c **** 		eK[i+14] = eK[i+6] ^ eK[i+13];
  69:strong-arm\src\aes/aes256.c **** 		eK[i+15] = eK[i+7] ^ eK[i+14];
 280              		.loc 1 69 0 discriminator 2
 281 0060 029D     		ldr	r5, [sp, #8]
  66:strong-arm\src\aes/aes256.c **** 		eK[i+13] = eK[i+5] ^ eK[i+12];
 282              		.loc 1 66 0 discriminator 2
 283 0062 5840     		eors	r0, r3
  67:strong-arm\src\aes/aes256.c **** 		eK[i+13] = eK[i+5] ^ eK[i+12];
 284              		.loc 1 67 0 discriminator 2
 285 0064 6369     		ldr	r3, [r4, #20]
  66:strong-arm\src\aes/aes256.c **** 		eK[i+13] = eK[i+5] ^ eK[i+12];
 286              		.loc 1 66 0 discriminator 2
 287 0066 2063     		str	r0, [r4, #48]
  67:strong-arm\src\aes/aes256.c **** 		eK[i+13] = eK[i+5] ^ eK[i+12];
 288              		.loc 1 67 0 discriminator 2
 289 0068 5840     		eors	r0, r3
  68:strong-arm\src\aes/aes256.c **** 		eK[i+15] = eK[i+7] ^ eK[i+14];
 290              		.loc 1 68 0 discriminator 2
 291 006a A369     		ldr	r3, [r4, #24]
  67:strong-arm\src\aes/aes256.c **** 		eK[i+13] = eK[i+5] ^ eK[i+12];
 292              		.loc 1 67 0 discriminator 2
 293 006c 6063     		str	r0, [r4, #52]
  68:strong-arm\src\aes/aes256.c **** 		eK[i+15] = eK[i+7] ^ eK[i+14];
 294              		.loc 1 68 0 discriminator 2
 295 006e 5840     		eors	r0, r3
 296              		.loc 1 69 0 discriminator 2
 297 0070 4740     		eors	r7, r0
  68:strong-arm\src\aes/aes256.c **** 		eK[i+15] = eK[i+7] ^ eK[i+14];
 298              		.loc 1 68 0 discriminator 2
 299 0072 A063     		str	r0, [r4, #56]
 300              		.loc 1 69 0 discriminator 2
 301 0074 E763     		str	r7, [r4, #60]
 302              	.LVL16:
ARM GAS  C:\Users\Ray\AppData\Local\Temp\ccjCHh8J.s 			page 8


 303 0076 2034     		adds	r4, r4, #32
 304 0078 D2E7     		b	.L10
 305              	.LVL17:
 306              	.L16:
 307              	.LBE14:
  70:strong-arm\src\aes/aes256.c **** 	}
  71:strong-arm\src\aes/aes256.c **** 
  72:strong-arm\src\aes/aes256.c **** 	/* Encryption */
  73:strong-arm\src\aes/aes256.c **** 	uint32_t s0 = load_big_endian (plaintext);
 308              		.loc 1 73 0
 309 007a 3000     		movs	r0, r6
 310 007c FFF7FEFF 		bl	load_big_endian
 311              	.LVL18:
 312 0080 0700     		movs	r7, r0
 313              	.LVL19:
  74:strong-arm\src\aes/aes256.c **** 	uint32_t s1 = load_big_endian (plaintext + 4);
 314              		.loc 1 74 0
 315 0082 301D     		adds	r0, r6, #4
 316              	.LVL20:
 317 0084 FFF7FEFF 		bl	load_big_endian
 318              	.LVL21:
 319 0088 0500     		movs	r5, r0
 320              	.LVL22:
  75:strong-arm\src\aes/aes256.c **** 	uint32_t s2 = load_big_endian (plaintext + 8);
 321              		.loc 1 75 0
 322 008a 3000     		movs	r0, r6
 323              	.LVL23:
 324 008c 0830     		adds	r0, r0, #8
 325 008e FFF7FEFF 		bl	load_big_endian
 326              	.LVL24:
 327 0092 0400     		movs	r4, r0
 328              	.LVL25:
  76:strong-arm\src\aes/aes256.c **** 	uint32_t s3 = load_big_endian (plaintext + 12);
 329              		.loc 1 76 0
 330 0094 3000     		movs	r0, r6
 331              	.LVL26:
 332 0096 0C30     		adds	r0, r0, #12
 333 0098 FFF7FEFF 		bl	load_big_endian
 334              	.LVL27:
  77:strong-arm\src\aes/aes256.c **** 
  78:strong-arm\src\aes/aes256.c **** 	s0 ^= eK[0];
 335              		.loc 1 78 0
 336 009c 089B     		ldr	r3, [sp, #32]
 337              	.LBB15:
  79:strong-arm\src\aes/aes256.c **** 	s1 ^= eK[1];
  80:strong-arm\src\aes/aes256.c **** 	s2 ^= eK[2];
  81:strong-arm\src\aes/aes256.c **** 	s3 ^= eK[3];
  82:strong-arm\src\aes/aes256.c **** 
  83:strong-arm\src\aes/aes256.c **** 	for (int r = 1; ; ++r)
  84:strong-arm\src\aes/aes256.c **** 	{
  85:strong-arm\src\aes/aes256.c **** 		t0 = TE0[(s0 >> 24) & 0xFF] ^
  86:strong-arm\src\aes/aes256.c **** 		     ROR_C (TE0[(s1 >> 16) & 0xFF], 8) ^
  87:strong-arm\src\aes/aes256.c **** 		     ROR_C (TE0[(s2 >> 8) & 0xFF], 16) ^
  88:strong-arm\src\aes/aes256.c **** 		     ROR_C (TE0[s3 & 0xFF], 24) ^
 338              		.loc 1 88 0
 339 009e FF21     		movs	r1, #255
 340              	.LBE15:
ARM GAS  C:\Users\Ray\AppData\Local\Temp\ccjCHh8J.s 			page 9


  78:strong-arm\src\aes/aes256.c **** 	s1 ^= eK[1];
 341              		.loc 1 78 0
 342 00a0 5F40     		eors	r7, r3
 343              	.LVL28:
  79:strong-arm\src\aes/aes256.c **** 	s1 ^= eK[1];
 344              		.loc 1 79 0
 345 00a2 099B     		ldr	r3, [sp, #36]
 346 00a4 5D40     		eors	r5, r3
 347              	.LVL29:
  80:strong-arm\src\aes/aes256.c **** 	s3 ^= eK[3];
 348              		.loc 1 80 0
 349 00a6 0A9B     		ldr	r3, [sp, #40]
 350 00a8 5C40     		eors	r4, r3
 351              	.LVL30:
  81:strong-arm\src\aes/aes256.c **** 
 352              		.loc 1 81 0
 353 00aa 0B9B     		ldr	r3, [sp, #44]
  80:strong-arm\src\aes/aes256.c **** 	s3 ^= eK[3];
 354              		.loc 1 80 0
 355 00ac 0294     		str	r4, [sp, #8]
 356              	.LVL31:
  81:strong-arm\src\aes/aes256.c **** 
 357              		.loc 1 81 0
 358 00ae 5840     		eors	r0, r3
 359              	.LVL32:
 360 00b0 0600     		movs	r6, r0
 361              	.LVL33:
 362 00b2 0CAB     		add	r3, sp, #48
 363              	.LVL34:
 364              	.L12:
 365              	.LBB16:
  85:strong-arm\src\aes/aes256.c **** 		     ROR_C (TE0[(s1 >> 16) & 0xFF], 8) ^
 366              		.loc 1 85 0
 367 00b4 734A     		ldr	r2, .L17
 368 00b6 380E     		lsrs	r0, r7, #24
 369 00b8 8000     		lsls	r0, r0, #2
 370 00ba 1018     		adds	r0, r2, r0
 371 00bc 806A     		ldr	r0, [r0, #40]
 372 00be 1C68     		ldr	r4, [r3]
 373 00c0 4440     		eors	r4, r0
 374              		.loc 1 88 0
 375 00c2 3000     		movs	r0, r6
 376 00c4 A446     		mov	ip, r4
 377 00c6 1824     		movs	r4, #24
 378 00c8 0840     		ands	r0, r1
 379 00ca 8000     		lsls	r0, r0, #2
 380 00cc 1018     		adds	r0, r2, r0
 381 00ce 806A     		ldr	r0, [r0, #40]
 382 00d0 E041     		rors	r0, r0, r4
 383 00d2 6446     		mov	r4, ip
 384 00d4 4440     		eors	r4, r0
 385 00d6 A446     		mov	ip, r4
 386 00d8 0824     		movs	r4, #8
  86:strong-arm\src\aes/aes256.c **** 		     ROR_C (TE0[(s2 >> 8) & 0xFF], 16) ^
 387              		.loc 1 86 0
 388 00da 280C     		lsrs	r0, r5, #16
 389 00dc 0840     		ands	r0, r1
ARM GAS  C:\Users\Ray\AppData\Local\Temp\ccjCHh8J.s 			page 10


 390 00de 8000     		lsls	r0, r0, #2
 391 00e0 1018     		adds	r0, r2, r0
 392 00e2 806A     		ldr	r0, [r0, #40]
 393 00e4 E041     		rors	r0, r0, r4
 394 00e6 6446     		mov	r4, ip
 395 00e8 4440     		eors	r4, r0
 396 00ea 0394     		str	r4, [sp, #12]
 397              	.LVL35:
  85:strong-arm\src\aes/aes256.c **** 		     ROR_C (TE0[(s1 >> 16) & 0xFF], 8) ^
 398              		.loc 1 85 0
 399 00ec 1024     		movs	r4, #16
  87:strong-arm\src\aes/aes256.c **** 		     ROR_C (TE0[s3 & 0xFF], 24) ^
 400              		.loc 1 87 0
 401 00ee 0298     		ldr	r0, [sp, #8]
 402 00f0 000A     		lsrs	r0, r0, #8
 403 00f2 0840     		ands	r0, r1
 404 00f4 8000     		lsls	r0, r0, #2
 405 00f6 1018     		adds	r0, r2, r0
  85:strong-arm\src\aes/aes256.c **** 		     ROR_C (TE0[(s1 >> 16) & 0xFF], 8) ^
 406              		.loc 1 85 0
 407 00f8 806A     		ldr	r0, [r0, #40]
 408 00fa E041     		rors	r0, r0, r4
 409 00fc 0690     		str	r0, [sp, #24]
  89:strong-arm\src\aes/aes256.c **** 		     eK[r*4];
  90:strong-arm\src\aes/aes256.c **** 
  91:strong-arm\src\aes/aes256.c **** 		t1 = TE0[(s1 >> 24) & 0xFF] ^
 410              		.loc 1 91 0
 411 00fe 280E     		lsrs	r0, r5, #24
 412 0100 8000     		lsls	r0, r0, #2
 413 0102 1018     		adds	r0, r2, r0
 414 0104 806A     		ldr	r0, [r0, #40]
 415 0106 5C68     		ldr	r4, [r3, #4]
 416 0108 4440     		eors	r4, r0
  92:strong-arm\src\aes/aes256.c **** 		     ROR_C (TE0[(s2 >> 16) & 0xFF], 8) ^
  93:strong-arm\src\aes/aes256.c **** 		     ROR_C (TE0[(s3 >> 8) & 0xFF], 16) ^
  94:strong-arm\src\aes/aes256.c **** 		     ROR_C (TE0[s0 & 0xFF], 24) ^
 417              		.loc 1 94 0
 418 010a 3800     		movs	r0, r7
 419 010c A446     		mov	ip, r4
 420 010e 1824     		movs	r4, #24
 421 0110 0840     		ands	r0, r1
 422 0112 8000     		lsls	r0, r0, #2
 423 0114 1018     		adds	r0, r2, r0
 424 0116 806A     		ldr	r0, [r0, #40]
 425 0118 E041     		rors	r0, r0, r4
 426 011a 6446     		mov	r4, ip
 427 011c 4440     		eors	r4, r0
 428 011e A446     		mov	ip, r4
 429 0120 0824     		movs	r4, #8
  92:strong-arm\src\aes/aes256.c **** 		     ROR_C (TE0[(s2 >> 16) & 0xFF], 8) ^
 430              		.loc 1 92 0
 431 0122 0298     		ldr	r0, [sp, #8]
 432 0124 000C     		lsrs	r0, r0, #16
 433 0126 0840     		ands	r0, r1
 434 0128 8000     		lsls	r0, r0, #2
 435 012a 1018     		adds	r0, r2, r0
 436 012c 806A     		ldr	r0, [r0, #40]
ARM GAS  C:\Users\Ray\AppData\Local\Temp\ccjCHh8J.s 			page 11


 437 012e E041     		rors	r0, r0, r4
 438 0130 6446     		mov	r4, ip
 439 0132 4440     		eors	r4, r0
 440 0134 0494     		str	r4, [sp, #16]
 441              	.LVL36:
  91:strong-arm\src\aes/aes256.c **** 		     ROR_C (TE0[(s2 >> 16) & 0xFF], 8) ^
 442              		.loc 1 91 0
 443 0136 1024     		movs	r4, #16
  93:strong-arm\src\aes/aes256.c **** 		     ROR_C (TE0[s0 & 0xFF], 24) ^
 444              		.loc 1 93 0
 445 0138 300A     		lsrs	r0, r6, #8
 446 013a 0840     		ands	r0, r1
 447 013c 8000     		lsls	r0, r0, #2
 448 013e 1018     		adds	r0, r2, r0
  91:strong-arm\src\aes/aes256.c **** 		     ROR_C (TE0[(s2 >> 16) & 0xFF], 8) ^
 449              		.loc 1 91 0
 450 0140 806A     		ldr	r0, [r0, #40]
 451 0142 E041     		rors	r0, r0, r4
 452 0144 0790     		str	r0, [sp, #28]
  95:strong-arm\src\aes/aes256.c **** 		     eK[r*4 + 1];
  96:strong-arm\src\aes/aes256.c **** 
  97:strong-arm\src\aes/aes256.c **** 		t2 = TE0[(s2 >> 24) & 0xFF] ^
 453              		.loc 1 97 0
 454 0146 0298     		ldr	r0, [sp, #8]
 455 0148 9C68     		ldr	r4, [r3, #8]
 456 014a 000E     		lsrs	r0, r0, #24
 457 014c 8000     		lsls	r0, r0, #2
 458 014e 1018     		adds	r0, r2, r0
 459 0150 806A     		ldr	r0, [r0, #40]
 460 0152 4440     		eors	r4, r0
  98:strong-arm\src\aes/aes256.c **** 		     ROR_C (TE0[(s3 >> 16) & 0xFF], 8) ^
  99:strong-arm\src\aes/aes256.c **** 		     ROR_C (TE0[(s0 >> 8) & 0xFF], 16) ^
 100:strong-arm\src\aes/aes256.c **** 		     ROR_C (TE0[s1 & 0xFF], 24) ^
 461              		.loc 1 100 0
 462 0154 2800     		movs	r0, r5
 463 0156 A446     		mov	ip, r4
 464 0158 1824     		movs	r4, #24
 465 015a 0840     		ands	r0, r1
 466 015c 8000     		lsls	r0, r0, #2
 467 015e 1018     		adds	r0, r2, r0
 468 0160 806A     		ldr	r0, [r0, #40]
 469 0162 E041     		rors	r0, r0, r4
 470 0164 6446     		mov	r4, ip
 471 0166 4440     		eors	r4, r0
 472 0168 A446     		mov	ip, r4
 473 016a 0824     		movs	r4, #8
  98:strong-arm\src\aes/aes256.c **** 		     ROR_C (TE0[(s3 >> 16) & 0xFF], 8) ^
 474              		.loc 1 98 0
 475 016c 300C     		lsrs	r0, r6, #16
 476 016e 0840     		ands	r0, r1
 477 0170 8000     		lsls	r0, r0, #2
 478 0172 1018     		adds	r0, r2, r0
 479 0174 806A     		ldr	r0, [r0, #40]
 101:strong-arm\src\aes/aes256.c **** 		     eK[r*4 + 2];
 102:strong-arm\src\aes/aes256.c **** 
 103:strong-arm\src\aes/aes256.c **** 		t3 = TE0[(s3 >> 24) & 0xFF] ^
 480              		.loc 1 103 0
ARM GAS  C:\Users\Ray\AppData\Local\Temp\ccjCHh8J.s 			page 12


 481 0176 360E     		lsrs	r6, r6, #24
 482              	.LVL37:
 483 0178 E041     		rors	r0, r0, r4
 484 017a 6446     		mov	r4, ip
 485 017c 4440     		eors	r4, r0
 486 017e 0594     		str	r4, [sp, #20]
  97:strong-arm\src\aes/aes256.c **** 		     ROR_C (TE0[(s3 >> 16) & 0xFF], 8) ^
 487              		.loc 1 97 0
 488 0180 1024     		movs	r4, #16
  99:strong-arm\src\aes/aes256.c **** 		     ROR_C (TE0[s1 & 0xFF], 24) ^
 489              		.loc 1 99 0
 490 0182 380A     		lsrs	r0, r7, #8
 491 0184 0840     		ands	r0, r1
 492 0186 8000     		lsls	r0, r0, #2
 493 0188 1018     		adds	r0, r2, r0
  97:strong-arm\src\aes/aes256.c **** 		     ROR_C (TE0[(s3 >> 16) & 0xFF], 8) ^
 494              		.loc 1 97 0
 495 018a 806A     		ldr	r0, [r0, #40]
 496              		.loc 1 103 0
 497 018c B600     		lsls	r6, r6, #2
  97:strong-arm\src\aes/aes256.c **** 		     ROR_C (TE0[(s3 >> 16) & 0xFF], 8) ^
 498              		.loc 1 97 0
 499 018e E041     		rors	r0, r0, r4
 500              		.loc 1 103 0
 501 0190 9619     		adds	r6, r2, r6
 502 0192 DC68     		ldr	r4, [r3, #12]
  97:strong-arm\src\aes/aes256.c **** 		     ROR_C (TE0[(s3 >> 16) & 0xFF], 8) ^
 503              		.loc 1 97 0
 504 0194 8446     		mov	ip, r0
 505              	.LVL38:
 506 0196 B06A     		ldr	r0, [r6, #40]
 507              	.LVL39:
 104:strong-arm\src\aes/aes256.c **** 		     ROR_C (TE0[(s0 >> 16) & 0xFF], 8) ^
 508              		.loc 1 104 0
 509 0198 3F0C     		lsrs	r7, r7, #16
 510              	.LVL40:
 511 019a 6040     		eors	r0, r4
 105:strong-arm\src\aes/aes256.c **** 		     ROR_C (TE0[(s1 >> 8) & 0xFF], 16) ^
 106:strong-arm\src\aes/aes256.c **** 		     ROR_C (TE0[s2 & 0xFF], 24) ^
 512              		.loc 1 106 0
 513 019c 029C     		ldr	r4, [sp, #8]
 104:strong-arm\src\aes/aes256.c **** 		     ROR_C (TE0[(s0 >> 16) & 0xFF], 8) ^
 514              		.loc 1 104 0
 515 019e 0F40     		ands	r7, r1
 516              		.loc 1 106 0
 517 01a0 0C40     		ands	r4, r1
 518 01a2 A400     		lsls	r4, r4, #2
 519 01a4 1419     		adds	r4, r2, r4
 520 01a6 A66A     		ldr	r6, [r4, #40]
 521 01a8 1824     		movs	r4, #24
 522 01aa E641     		rors	r6, r6, r4
 104:strong-arm\src\aes/aes256.c **** 		     ROR_C (TE0[(s0 >> 16) & 0xFF], 8) ^
 523              		.loc 1 104 0
 524 01ac BF00     		lsls	r7, r7, #2
 525 01ae 103C     		subs	r4, r4, #16
 526 01b0 D719     		adds	r7, r2, r7
 105:strong-arm\src\aes/aes256.c **** 		     ROR_C (TE0[(s1 >> 8) & 0xFF], 16) ^
ARM GAS  C:\Users\Ray\AppData\Local\Temp\ccjCHh8J.s 			page 13


 527              		.loc 1 105 0
 528 01b2 E540     		lsrs	r5, r5, r4
 529              	.LVL41:
 530 01b4 7040     		eors	r0, r6
 531 01b6 BE6A     		ldr	r6, [r7, #40]
 532 01b8 0D40     		ands	r5, r1
 533 01ba E641     		rors	r6, r6, r4
 534 01bc AD00     		lsls	r5, r5, #2
 535 01be 5219     		adds	r2, r2, r5
 536 01c0 7040     		eors	r0, r6
 103:strong-arm\src\aes/aes256.c **** 		     ROR_C (TE0[(s0 >> 16) & 0xFF], 8) ^
 537              		.loc 1 103 0
 538 01c2 966A     		ldr	r6, [r2, #40]
 539 01c4 1022     		movs	r2, #16
  85:strong-arm\src\aes/aes256.c **** 		     ROR_C (TE0[(s1 >> 16) & 0xFF], 8) ^
 540              		.loc 1 85 0
 541 01c6 039F     		ldr	r7, [sp, #12]
 103:strong-arm\src\aes/aes256.c **** 		     ROR_C (TE0[(s0 >> 16) & 0xFF], 8) ^
 542              		.loc 1 103 0
 543 01c8 D641     		rors	r6, r6, r2
 544 01ca 9B18     		adds	r3, r3, r2
  85:strong-arm\src\aes/aes256.c **** 		     ROR_C (TE0[(s1 >> 16) & 0xFF], 8) ^
 545              		.loc 1 85 0
 546 01cc 069A     		ldr	r2, [sp, #24]
  91:strong-arm\src\aes/aes256.c **** 		     ROR_C (TE0[(s2 >> 16) & 0xFF], 8) ^
 547              		.loc 1 91 0
 548 01ce 049D     		ldr	r5, [sp, #16]
  85:strong-arm\src\aes/aes256.c **** 		     ROR_C (TE0[(s1 >> 16) & 0xFF], 8) ^
 549              		.loc 1 85 0
 550 01d0 5740     		eors	r7, r2
  91:strong-arm\src\aes/aes256.c **** 		     ROR_C (TE0[(s2 >> 16) & 0xFF], 8) ^
 551              		.loc 1 91 0
 552 01d2 079A     		ldr	r2, [sp, #28]
  97:strong-arm\src\aes/aes256.c **** 		     ROR_C (TE0[(s3 >> 16) & 0xFF], 8) ^
 553              		.loc 1 97 0
 554 01d4 059C     		ldr	r4, [sp, #20]
  91:strong-arm\src\aes/aes256.c **** 		     ROR_C (TE0[(s2 >> 16) & 0xFF], 8) ^
 555              		.loc 1 91 0
 556 01d6 5540     		eors	r5, r2
  97:strong-arm\src\aes/aes256.c **** 		     ROR_C (TE0[(s3 >> 16) & 0xFF], 8) ^
 557              		.loc 1 97 0
 558 01d8 6246     		mov	r2, ip
 559 01da 5440     		eors	r4, r2
 560              	.LVL42:
 107:strong-arm\src\aes/aes256.c **** 		     eK[r*4 + 3];
 108:strong-arm\src\aes/aes256.c **** 
 109:strong-arm\src\aes/aes256.c **** 		if (r == 13)
 561              		.loc 1 109 0
 562 01dc 40AA     		add	r2, sp, #256
 103:strong-arm\src\aes/aes256.c **** 		     ROR_C (TE0[(s0 >> 16) & 0xFF], 8) ^
 563              		.loc 1 103 0
 564 01de 4640     		eors	r6, r0
 565              	.LVL43:
  97:strong-arm\src\aes/aes256.c **** 		     ROR_C (TE0[(s3 >> 16) & 0xFF], 8) ^
 566              		.loc 1 97 0
 567 01e0 0294     		str	r4, [sp, #8]
 568              	.LVL44:
ARM GAS  C:\Users\Ray\AppData\Local\Temp\ccjCHh8J.s 			page 14


 569              		.loc 1 109 0
 570 01e2 9A42     		cmp	r2, r3
 571 01e4 00D0     		beq	.LCB481
 572 01e6 65E7     		b	.L12	@long jump
 573              	.LCB481:
 574              	.LBE16:
 110:strong-arm\src\aes/aes256.c **** 			break;
 111:strong-arm\src\aes/aes256.c **** 
 112:strong-arm\src\aes/aes256.c **** 		s0 = t0; s1 = t1; s2 = t2; s3 = t3;
 113:strong-arm\src\aes/aes256.c **** 	}
 114:strong-arm\src\aes/aes256.c **** 
 115:strong-arm\src\aes/aes256.c **** 
 116:strong-arm\src\aes/aes256.c **** 	s0 = final_mix (t0 >> 24, t1 >> 16, t2 >> 8, t3) ^ eK[56];
 575              		.loc 1 116 0
 576 01e8 220A     		lsrs	r2, r4, #8
 577 01ea 290C     		lsrs	r1, r5, #16
 578 01ec F3B2     		uxtb	r3, r6
 579 01ee D2B2     		uxtb	r2, r2
 580 01f0 C9B2     		uxtb	r1, r1
 581 01f2 380E     		lsrs	r0, r7, #24
 582 01f4 FFF7FEFF 		bl	final_mix
 583              	.LVL45:
 584 01f8 409B     		ldr	r3, [sp, #256]
 585              	.LBB17:
 586              	.LBB18:
  40:strong-arm\src\aes/aes256.c **** 	buf[1] = word >> 16;
 587              		.loc 1 40 0
 588 01fa 019A     		ldr	r2, [sp, #4]
 589              	.LBE18:
 590              	.LBE17:
 591              		.loc 1 116 0
 592 01fc 5840     		eors	r0, r3
 593              	.LVL46:
 594              	.LBB21:
 595              	.LBB19:
  40:strong-arm\src\aes/aes256.c **** 	buf[1] = word >> 16;
 596              		.loc 1 40 0
 597 01fe 030E     		lsrs	r3, r0, #24
 598 0200 1370     		strb	r3, [r2]
 599              	.LBE19:
 600              	.LBE21:
 117:strong-arm\src\aes/aes256.c **** 	save_big_endian (ciphertext, s0);
 118:strong-arm\src\aes/aes256.c **** 
 119:strong-arm\src\aes/aes256.c **** 	s1 = final_mix (t1 >> 24, t2 >> 16, t3 >> 8, t0) ^ eK[57];
 601              		.loc 1 119 0
 602 0202 0299     		ldr	r1, [sp, #8]
 603              	.LBB22:
 604              	.LBB20:
  41:strong-arm\src\aes/aes256.c **** 	buf[2] = word >> 8;
 605              		.loc 1 41 0
 606 0204 030C     		lsrs	r3, r0, #16
 607 0206 5370     		strb	r3, [r2, #1]
  42:strong-arm\src\aes/aes256.c **** 	buf[3] = word;
 608              		.loc 1 42 0
 609 0208 030A     		lsrs	r3, r0, #8
 610 020a 9370     		strb	r3, [r2, #2]
  43:strong-arm\src\aes/aes256.c **** }
ARM GAS  C:\Users\Ray\AppData\Local\Temp\ccjCHh8J.s 			page 15


 611              		.loc 1 43 0
 612 020c D070     		strb	r0, [r2, #3]
 613              	.LVL47:
 614              	.LBE20:
 615              	.LBE22:
 616              		.loc 1 119 0
 617 020e 090C     		lsrs	r1, r1, #16
 618 0210 320A     		lsrs	r2, r6, #8
 619 0212 FBB2     		uxtb	r3, r7
 620 0214 D2B2     		uxtb	r2, r2
 621 0216 C9B2     		uxtb	r1, r1
 622 0218 280E     		lsrs	r0, r5, #24
 623              	.LVL48:
 624 021a FFF7FEFF 		bl	final_mix
 625              	.LVL49:
 626 021e 419B     		ldr	r3, [sp, #260]
 627              	.LBB23:
 628              	.LBB24:
  40:strong-arm\src\aes/aes256.c **** 	buf[1] = word >> 16;
 629              		.loc 1 40 0
 630 0220 019A     		ldr	r2, [sp, #4]
 631              	.LBE24:
 632              	.LBE23:
 633              		.loc 1 119 0
 634 0222 5840     		eors	r0, r3
 635              	.LVL50:
 636              	.LBB27:
 637              	.LBB25:
  40:strong-arm\src\aes/aes256.c **** 	buf[1] = word >> 16;
 638              		.loc 1 40 0
 639 0224 030E     		lsrs	r3, r0, #24
 640 0226 1371     		strb	r3, [r2, #4]
  41:strong-arm\src\aes/aes256.c **** 	buf[2] = word >> 8;
 641              		.loc 1 41 0
 642 0228 030C     		lsrs	r3, r0, #16
 643 022a 5371     		strb	r3, [r2, #5]
  43:strong-arm\src\aes/aes256.c **** }
 644              		.loc 1 43 0
 645 022c D071     		strb	r0, [r2, #7]
 646              	.LVL51:
  42:strong-arm\src\aes/aes256.c **** 	buf[3] = word;
 647              		.loc 1 42 0
 648 022e 030A     		lsrs	r3, r0, #8
 649              	.LBE25:
 650              	.LBE27:
 120:strong-arm\src\aes/aes256.c **** 	save_big_endian (ciphertext + 4, s1);
 121:strong-arm\src\aes/aes256.c **** 
 122:strong-arm\src\aes/aes256.c **** 	s2 = final_mix (t2 >> 24, t3 >> 16, t0 >> 8, t1) ^ eK[58];
 651              		.loc 1 122 0
 652 0230 0298     		ldr	r0, [sp, #8]
 653              	.LVL52:
 654              	.LBB28:
 655              	.LBB26:
  42:strong-arm\src\aes/aes256.c **** 	buf[3] = word;
 656              		.loc 1 42 0
 657 0232 9371     		strb	r3, [r2, #6]
 658              	.LBE26:
ARM GAS  C:\Users\Ray\AppData\Local\Temp\ccjCHh8J.s 			page 16


 659              	.LBE28:
 660              		.loc 1 122 0
 661 0234 310C     		lsrs	r1, r6, #16
 662 0236 3A0A     		lsrs	r2, r7, #8
 663 0238 EBB2     		uxtb	r3, r5
 664 023a D2B2     		uxtb	r2, r2
 665 023c C9B2     		uxtb	r1, r1
 666 023e 000E     		lsrs	r0, r0, #24
 667 0240 FFF7FEFF 		bl	final_mix
 668              	.LVL53:
 669 0244 429B     		ldr	r3, [sp, #264]
 670              	.LBB29:
 671              	.LBB30:
  40:strong-arm\src\aes/aes256.c **** 	buf[1] = word >> 16;
 672              		.loc 1 40 0
 673 0246 019A     		ldr	r2, [sp, #4]
 674              	.LBE30:
 675              	.LBE29:
 676              		.loc 1 122 0
 677 0248 5840     		eors	r0, r3
 678              	.LVL54:
 679              	.LBB33:
 680              	.LBB31:
  40:strong-arm\src\aes/aes256.c **** 	buf[1] = word >> 16;
 681              		.loc 1 40 0
 682 024a 030E     		lsrs	r3, r0, #24
 683 024c 1372     		strb	r3, [r2, #8]
  41:strong-arm\src\aes/aes256.c **** 	buf[2] = word >> 8;
 684              		.loc 1 41 0
 685 024e 030C     		lsrs	r3, r0, #16
 686 0250 5372     		strb	r3, [r2, #9]
  42:strong-arm\src\aes/aes256.c **** 	buf[3] = word;
 687              		.loc 1 42 0
 688 0252 030A     		lsrs	r3, r0, #8
 689 0254 9372     		strb	r3, [r2, #10]
 690              	.LBE31:
 691              	.LBE33:
 123:strong-arm\src\aes/aes256.c **** 	save_big_endian (ciphertext + 8, s2);
 124:strong-arm\src\aes/aes256.c **** 
 125:strong-arm\src\aes/aes256.c **** 	s3 = final_mix (t3 >> 24, t0 >> 16, t1 >> 8, t2) ^ eK[59];
 692              		.loc 1 125 0
 693 0256 6B46     		mov	r3, sp
 694 0258 2D0A     		lsrs	r5, r5, #8
 695 025a 3F0C     		lsrs	r7, r7, #16
 696              	.LBB34:
 697              	.LBB32:
  43:strong-arm\src\aes/aes256.c **** }
 698              		.loc 1 43 0
 699 025c D072     		strb	r0, [r2, #11]
 700              	.LVL55:
 701              	.LBE32:
 702              	.LBE34:
 703              		.loc 1 125 0
 704 025e 1B7A     		ldrb	r3, [r3, #8]
 705 0260 EAB2     		uxtb	r2, r5
 706 0262 F9B2     		uxtb	r1, r7
 707 0264 300E     		lsrs	r0, r6, #24
ARM GAS  C:\Users\Ray\AppData\Local\Temp\ccjCHh8J.s 			page 17


 708              	.LVL56:
 709 0266 FFF7FEFF 		bl	final_mix
 710              	.LVL57:
 711 026a 439B     		ldr	r3, [sp, #268]
 712              	.LBB35:
 713              	.LBB36:
  40:strong-arm\src\aes/aes256.c **** 	buf[1] = word >> 16;
 714              		.loc 1 40 0
 715 026c 019A     		ldr	r2, [sp, #4]
 716              	.LBE36:
 717              	.LBE35:
 718              		.loc 1 125 0
 719 026e 5840     		eors	r0, r3
 720              	.LVL58:
 721              	.LBB38:
 722              	.LBB37:
  40:strong-arm\src\aes/aes256.c **** 	buf[1] = word >> 16;
 723              		.loc 1 40 0
 724 0270 030E     		lsrs	r3, r0, #24
 725 0272 1373     		strb	r3, [r2, #12]
  41:strong-arm\src\aes/aes256.c **** 	buf[2] = word >> 8;
 726              		.loc 1 41 0
 727 0274 030C     		lsrs	r3, r0, #16
 728 0276 5373     		strb	r3, [r2, #13]
  42:strong-arm\src\aes/aes256.c **** 	buf[3] = word;
 729              		.loc 1 42 0
 730 0278 030A     		lsrs	r3, r0, #8
 731 027a 9373     		strb	r3, [r2, #14]
  43:strong-arm\src\aes/aes256.c **** }
 732              		.loc 1 43 0
 733 027c D073     		strb	r0, [r2, #15]
 734              	.LVL59:
 735              	.LBE37:
 736              	.LBE38:
 126:strong-arm\src\aes/aes256.c **** 	save_big_endian (ciphertext + 12, s3);
 127:strong-arm\src\aes/aes256.c **** }
 737              		.loc 1 127 0
 738 027e 45B0     		add	sp, sp, #276
 739              		@ sp needed
 740              	.LVL60:
 741              	.LVL61:
 742 0280 F0BD     		pop	{r4, r5, r6, r7, pc}
 743              	.L18:
 744 0282 C046     		.align	2
 745              	.L17:
 746 0284 00040000 		.word	.LANCHOR1
 747              		.cfi_endproc
 748              	.LFE4:
 749              		.size	aes256_encrypt_block, .-aes256_encrypt_block
 750              		.section	.text.aes256_crypt_ctr,"ax",%progbits
 751              		.align	1
 752              		.global	aes256_crypt_ctr
 753              		.code	16
 754              		.thumb_func
 755              		.type	aes256_crypt_ctr, %function
 756              	aes256_crypt_ctr:
 757              	.LFB6:
ARM GAS  C:\Users\Ray\AppData\Local\Temp\ccjCHh8J.s 			page 18


 128:strong-arm\src\aes/aes256.c **** 
 129:strong-arm\src\aes/aes256.c **** 
 130:strong-arm\src\aes/aes256.c **** /* Increment a Big-Endian counter */
 131:strong-arm\src\aes/aes256.c **** static void increment_counter (uint8_t counter[static 16])
 132:strong-arm\src\aes/aes256.c **** {
 133:strong-arm\src\aes/aes256.c **** 	for (int i = 15; i >= 0; --i)
 134:strong-arm\src\aes/aes256.c **** 	{
 135:strong-arm\src\aes/aes256.c **** 		if ((counter[i] += 1) != 0)
 136:strong-arm\src\aes/aes256.c **** 			break;
 137:strong-arm\src\aes/aes256.c **** 	}
 138:strong-arm\src\aes/aes256.c **** }
 139:strong-arm\src\aes/aes256.c **** 
 140:strong-arm\src\aes/aes256.c **** 
 141:strong-arm\src\aes/aes256.c **** void aes256_crypt_ctr (uint8_t *ciphertext, uint8_t const key[static 32], uint8_t const iv[static 1
 142:strong-arm\src\aes/aes256.c **** {
 758              		.loc 1 142 0
 759              		.cfi_startproc
 760              		@ args = 4, pretend = 0, frame = 72
 761              		@ frame_needed = 0, uses_anonymous_args = 0
 762              	.LVL62:
 763 0000 F0B5     		push	{r4, r5, r6, r7, lr}
 764              		.cfi_def_cfa_offset 20
 765              		.cfi_offset 4, -20
 766              		.cfi_offset 5, -16
 767              		.cfi_offset 6, -12
 768              		.cfi_offset 7, -8
 769              		.cfi_offset 14, -4
 770 0002 0F00     		movs	r7, r1
 771 0004 93B0     		sub	sp, sp, #76
 772              		.cfi_def_cfa_offset 96
 143:strong-arm\src\aes/aes256.c **** 	uint8_t saved_key[32] = {0};
 144:strong-arm\src\aes/aes256.c **** 	uint8_t counter[16] = {0};
 145:strong-arm\src\aes/aes256.c **** 	uint8_t cipherblock[16] = {0};
 773              		.loc 1 145 0
 774 0006 06AE     		add	r6, sp, #24
 142:strong-arm\src\aes/aes256.c **** 	uint8_t saved_key[32] = {0};
 775              		.loc 1 142 0
 776 0008 0192     		str	r2, [sp, #4]
 777              		.loc 1 145 0
 778 000a 0021     		movs	r1, #0
 779              	.LVL63:
 780 000c 1022     		movs	r2, #16
 781              	.LVL64:
 142:strong-arm\src\aes/aes256.c **** 	uint8_t saved_key[32] = {0};
 782              		.loc 1 142 0
 783 000e 0500     		movs	r5, r0
 784              		.loc 1 145 0
 785 0010 3000     		movs	r0, r6
 786              	.LVL65:
 142:strong-arm\src\aes/aes256.c **** 	uint8_t saved_key[32] = {0};
 787              		.loc 1 142 0
 788 0012 1C00     		movs	r4, r3
 789              		.loc 1 145 0
 790 0014 FFF7FEFF 		bl	memset
 791              	.LVL66:
 146:strong-arm\src\aes/aes256.c **** 
 147:strong-arm\src\aes/aes256.c **** 	/* Initialize */
ARM GAS  C:\Users\Ray\AppData\Local\Temp\ccjCHh8J.s 			page 19


 148:strong-arm\src\aes/aes256.c **** 	memmove (counter, iv, 16);
 792              		.loc 1 148 0
 793 0018 1022     		movs	r2, #16
 794 001a 0199     		ldr	r1, [sp, #4]
 795 001c 02A8     		add	r0, sp, #8
 796 001e FFF7FEFF 		bl	memcpy
 797              	.LVL67:
 149:strong-arm\src\aes/aes256.c **** 	memmove (saved_key, key, 32);
 798              		.loc 1 149 0
 799 0022 2022     		movs	r2, #32
 800 0024 3900     		movs	r1, r7
 801 0026 0AA8     		add	r0, sp, #40
 802 0028 FFF7FEFF 		bl	memcpy
 803              	.LVL68:
 804              	.L24:
 150:strong-arm\src\aes/aes256.c **** 
 151:strong-arm\src\aes/aes256.c **** 	while (len > 0)
 805              		.loc 1 151 0
 806 002c 189B     		ldr	r3, [sp, #96]
 807 002e 002B     		cmp	r3, #0
 808 0030 20D0     		beq	.L31
 152:strong-arm\src\aes/aes256.c **** 	{
 153:strong-arm\src\aes/aes256.c **** 		aes256_encrypt_block (cipherblock, saved_key, counter);
 809              		.loc 1 153 0
 810 0032 02AA     		add	r2, sp, #8
 811 0034 0AA9     		add	r1, sp, #40
 812 0036 3000     		movs	r0, r6
 813 0038 FFF7FEFF 		bl	aes256_encrypt_block
 814              	.LVL69:
 815              	.LBB43:
 816              	.LBB44:
 133:strong-arm\src\aes/aes256.c **** 	{
 817              		.loc 1 133 0
 818 003c 0F22     		movs	r2, #15
 819              	.LVL70:
 820              	.L22:
 135:strong-arm\src\aes/aes256.c **** 			break;
 821              		.loc 1 135 0
 822 003e 02AB     		add	r3, sp, #8
 823              	.LVL71:
 824 0040 9B5C     		ldrb	r3, [r3, r2]
 825              	.LVL72:
 826 0042 02A9     		add	r1, sp, #8
 827              	.LVL73:
 828 0044 0133     		adds	r3, r3, #1
 829 0046 DBB2     		uxtb	r3, r3
 830 0048 8B54     		strb	r3, [r1, r2]
 831 004a 002B     		cmp	r3, #0
 832 004c 02D1     		bne	.L26
 833              	.LVL74:
 133:strong-arm\src\aes/aes256.c **** 	{
 834              		.loc 1 133 0
 835 004e 013A     		subs	r2, r2, #1
 836 0050 F5D2     		bcs	.L22
 837              	.LVL75:
 838 0052 00E0     		b	.L23
 839              	.L26:
ARM GAS  C:\Users\Ray\AppData\Local\Temp\ccjCHh8J.s 			page 20


 135:strong-arm\src\aes/aes256.c **** 			break;
 840              		.loc 1 135 0
 841 0054 0023     		movs	r3, #0
 842              	.LVL76:
 843              	.L23:
 844              	.LBE44:
 845              	.LBE43:
 846              	.LBB45:
 154:strong-arm\src\aes/aes256.c **** 		increment_counter (counter);
 155:strong-arm\src\aes/aes256.c **** 
 156:strong-arm\src\aes/aes256.c **** 		for (int i = 0; i < 16; ++i)
 157:strong-arm\src\aes/aes256.c **** 		{
 158:strong-arm\src\aes/aes256.c **** 			*ciphertext = (*plaintext) ^ cipherblock[i];
 847              		.loc 1 158 0
 848 0056 2178     		ldrb	r1, [r4]
 849 0058 F25C     		ldrb	r2, [r6, r3]
 159:strong-arm\src\aes/aes256.c **** 			++ciphertext;
 160:strong-arm\src\aes/aes256.c **** 			++plaintext;
 850              		.loc 1 160 0
 851 005a 0134     		adds	r4, r4, #1
 158:strong-arm\src\aes/aes256.c **** 			++ciphertext;
 852              		.loc 1 158 0
 853 005c 4A40     		eors	r2, r1
 854 005e 2A70     		strb	r2, [r5]
 855              	.LVL77:
 161:strong-arm\src\aes/aes256.c **** 			--len;
 856              		.loc 1 161 0
 857 0060 189A     		ldr	r2, [sp, #96]
 159:strong-arm\src\aes/aes256.c **** 			++ciphertext;
 858              		.loc 1 159 0
 859 0062 0135     		adds	r5, r5, #1
 860              	.LVL78:
 861              		.loc 1 161 0
 862 0064 013A     		subs	r2, r2, #1
 863 0066 1892     		str	r2, [sp, #96]
 864              	.LVL79:
 162:strong-arm\src\aes/aes256.c **** 
 163:strong-arm\src\aes/aes256.c **** 			if (len == 0)
 865              		.loc 1 163 0
 866 0068 002A     		cmp	r2, #0
 867 006a 03D0     		beq	.L31
 156:strong-arm\src\aes/aes256.c **** 		{
 868              		.loc 1 156 0 discriminator 2
 869 006c 0133     		adds	r3, r3, #1
 870              	.LVL80:
 871 006e 102B     		cmp	r3, #16
 872 0070 F1D1     		bne	.L23
 873 0072 DBE7     		b	.L24
 874              	.LVL81:
 875              	.L31:
 876              	.LBE45:
 164:strong-arm\src\aes/aes256.c **** 				break;
 165:strong-arm\src\aes/aes256.c **** 		}
 166:strong-arm\src\aes/aes256.c **** 	}
 167:strong-arm\src\aes/aes256.c **** }
 877              		.loc 1 167 0
 878 0074 13B0     		add	sp, sp, #76
ARM GAS  C:\Users\Ray\AppData\Local\Temp\ccjCHh8J.s 			page 21


 879              		@ sp needed
 880              	.LVL82:
 881              	.LVL83:
 882 0076 F0BD     		pop	{r4, r5, r6, r7, pc}
 883              		.cfi_endproc
 884              	.LFE6:
 885              		.size	aes256_crypt_ctr, .-aes256_crypt_ctr
 886              		.section	.rodata
 887              		.align	2
 888              		.set	.LANCHOR0,. + 0
 889              		.set	.LANCHOR1,. + 1024
 890              		.type	Te4, %object
 891              		.size	Te4, 1024
 892              	Te4:
 893 0000 63636363 		.word	1667457891
 894 0004 7C7C7C7C 		.word	2088533116
 895 0008 77777777 		.word	2004318071
 896 000c 7B7B7B7B 		.word	2071690107
 897 0010 F2F2F2F2 		.word	-218959118
 898 0014 6B6B6B6B 		.word	1802201963
 899 0018 6F6F6F6F 		.word	1869573999
 900 001c C5C5C5C5 		.word	-976894523
 901 0020 30303030 		.word	808464432
 902 0024 01010101 		.word	16843009
 903 0028 67676767 		.word	1734829927
 904 002c 2B2B2B2B 		.word	724249387
 905 0030 FEFEFEFE 		.word	-16843010
 906 0034 D7D7D7D7 		.word	-673720361
 907 0038 ABABABAB 		.word	-1414812757
 908 003c 76767676 		.word	1987475062
 909 0040 CACACACA 		.word	-892679478
 910 0044 82828282 		.word	-2105376126
 911 0048 C9C9C9C9 		.word	-909522487
 912 004c 7D7D7D7D 		.word	2105376125
 913 0050 FAFAFAFA 		.word	-84215046
 914 0054 59595959 		.word	1499027801
 915 0058 47474747 		.word	1195853639
 916 005c F0F0F0F0 		.word	-252645136
 917 0060 ADADADAD 		.word	-1381126739
 918 0064 D4D4D4D4 		.word	-724249388
 919 0068 A2A2A2A2 		.word	-1566399838
 920 006c AFAFAFAF 		.word	-1347440721
 921 0070 9C9C9C9C 		.word	-1667457892
 922 0074 A4A4A4A4 		.word	-1532713820
 923 0078 72727272 		.word	1920103026
 924 007c C0C0C0C0 		.word	-1061109568
 925 0080 B7B7B7B7 		.word	-1212696649
 926 0084 FDFDFDFD 		.word	-33686019
 927 0088 93939393 		.word	-1819044973
 928 008c 26262626 		.word	640034342
 929 0090 36363636 		.word	909522486
 930 0094 3F3F3F3F 		.word	1061109567
 931 0098 F7F7F7F7 		.word	-134744073
 932 009c CCCCCCCC 		.word	-858993460
 933 00a0 34343434 		.word	875836468
 934 00a4 A5A5A5A5 		.word	-1515870811
 935 00a8 E5E5E5E5 		.word	-437918235
ARM GAS  C:\Users\Ray\AppData\Local\Temp\ccjCHh8J.s 			page 22


 936 00ac F1F1F1F1 		.word	-235802127
 937 00b0 71717171 		.word	1903260017
 938 00b4 D8D8D8D8 		.word	-656877352
 939 00b8 31313131 		.word	825307441
 940 00bc 15151515 		.word	353703189
 941 00c0 04040404 		.word	67372036
 942 00c4 C7C7C7C7 		.word	-943208505
 943 00c8 23232323 		.word	589505315
 944 00cc C3C3C3C3 		.word	-1010580541
 945 00d0 18181818 		.word	404232216
 946 00d4 96969696 		.word	-1768515946
 947 00d8 05050505 		.word	84215045
 948 00dc 9A9A9A9A 		.word	-1701143910
 949 00e0 07070707 		.word	117901063
 950 00e4 12121212 		.word	303174162
 951 00e8 80808080 		.word	-2139062144
 952 00ec E2E2E2E2 		.word	-488447262
 953 00f0 EBEBEBEB 		.word	-336860181
 954 00f4 27272727 		.word	656877351
 955 00f8 B2B2B2B2 		.word	-1296911694
 956 00fc 75757575 		.word	1970632053
 957 0100 09090909 		.word	151587081
 958 0104 83838383 		.word	-2088533117
 959 0108 2C2C2C2C 		.word	741092396
 960 010c 1A1A1A1A 		.word	437918234
 961 0110 1B1B1B1B 		.word	454761243
 962 0114 6E6E6E6E 		.word	1852730990
 963 0118 5A5A5A5A 		.word	1515870810
 964 011c A0A0A0A0 		.word	-1600085856
 965 0120 52525252 		.word	1381126738
 966 0124 3B3B3B3B 		.word	993737531
 967 0128 D6D6D6D6 		.word	-690563370
 968 012c B3B3B3B3 		.word	-1280068685
 969 0130 29292929 		.word	690563369
 970 0134 E3E3E3E3 		.word	-471604253
 971 0138 2F2F2F2F 		.word	791621423
 972 013c 84848484 		.word	-2071690108
 973 0140 53535353 		.word	1397969747
 974 0144 D1D1D1D1 		.word	-774778415
 975 0148 00000000 		.word	0
 976 014c EDEDEDED 		.word	-303174163
 977 0150 20202020 		.word	538976288
 978 0154 FCFCFCFC 		.word	-50529028
 979 0158 B1B1B1B1 		.word	-1313754703
 980 015c 5B5B5B5B 		.word	1532713819
 981 0160 6A6A6A6A 		.word	1785358954
 982 0164 CBCBCBCB 		.word	-875836469
 983 0168 BEBEBEBE 		.word	-1094795586
 984 016c 39393939 		.word	960051513
 985 0170 4A4A4A4A 		.word	1246382666
 986 0174 4C4C4C4C 		.word	1280068684
 987 0178 58585858 		.word	1482184792
 988 017c CFCFCFCF 		.word	-808464433
 989 0180 D0D0D0D0 		.word	-791621424
 990 0184 EFEFEFEF 		.word	-269488145
 991 0188 AAAAAAAA 		.word	-1431655766
 992 018c FBFBFBFB 		.word	-67372037
ARM GAS  C:\Users\Ray\AppData\Local\Temp\ccjCHh8J.s 			page 23


 993 0190 43434343 		.word	1128481603
 994 0194 4D4D4D4D 		.word	1296911693
 995 0198 33333333 		.word	858993459
 996 019c 85858585 		.word	-2054847099
 997 01a0 45454545 		.word	1162167621
 998 01a4 F9F9F9F9 		.word	-101058055
 999 01a8 02020202 		.word	33686018
 1000 01ac 7F7F7F7F 		.word	2139062143
 1001 01b0 50505050 		.word	1347440720
 1002 01b4 3C3C3C3C 		.word	1010580540
 1003 01b8 9F9F9F9F 		.word	-1616928865
 1004 01bc A8A8A8A8 		.word	-1465341784
 1005 01c0 51515151 		.word	1364283729
 1006 01c4 A3A3A3A3 		.word	-1549556829
 1007 01c8 40404040 		.word	1077952576
 1008 01cc 8F8F8F8F 		.word	-1886417009
 1009 01d0 92929292 		.word	-1835887982
 1010 01d4 9D9D9D9D 		.word	-1650614883
 1011 01d8 38383838 		.word	943208504
 1012 01dc F5F5F5F5 		.word	-168430091
 1013 01e0 BCBCBCBC 		.word	-1128481604
 1014 01e4 B6B6B6B6 		.word	-1229539658
 1015 01e8 DADADADA 		.word	-623191334
 1016 01ec 21212121 		.word	555819297
 1017 01f0 10101010 		.word	269488144
 1018 01f4 FFFFFFFF 		.word	-1
 1019 01f8 F3F3F3F3 		.word	-202116109
 1020 01fc D2D2D2D2 		.word	-757935406
 1021 0200 CDCDCDCD 		.word	-842150451
 1022 0204 0C0C0C0C 		.word	202116108
 1023 0208 13131313 		.word	320017171
 1024 020c ECECECEC 		.word	-320017172
 1025 0210 5F5F5F5F 		.word	1600085855
 1026 0214 97979797 		.word	-1751672937
 1027 0218 44444444 		.word	1145324612
 1028 021c 17171717 		.word	387389207
 1029 0220 C4C4C4C4 		.word	-993737532
 1030 0224 A7A7A7A7 		.word	-1482184793
 1031 0228 7E7E7E7E 		.word	2122219134
 1032 022c 3D3D3D3D 		.word	1027423549
 1033 0230 64646464 		.word	1684300900
 1034 0234 5D5D5D5D 		.word	1566399837
 1035 0238 19191919 		.word	421075225
 1036 023c 73737373 		.word	1936946035
 1037 0240 60606060 		.word	1616928864
 1038 0244 81818181 		.word	-2122219135
 1039 0248 4F4F4F4F 		.word	1330597711
 1040 024c DCDCDCDC 		.word	-589505316
 1041 0250 22222222 		.word	572662306
 1042 0254 2A2A2A2A 		.word	707406378
 1043 0258 90909090 		.word	-1869574000
 1044 025c 88888888 		.word	-2004318072
 1045 0260 46464646 		.word	1179010630
 1046 0264 EEEEEEEE 		.word	-286331154
 1047 0268 B8B8B8B8 		.word	-1195853640
 1048 026c 14141414 		.word	336860180
 1049 0270 DEDEDEDE 		.word	-555819298
ARM GAS  C:\Users\Ray\AppData\Local\Temp\ccjCHh8J.s 			page 24


 1050 0274 5E5E5E5E 		.word	1583242846
 1051 0278 0B0B0B0B 		.word	185273099
 1052 027c DBDBDBDB 		.word	-606348325
 1053 0280 E0E0E0E0 		.word	-522133280
 1054 0284 32323232 		.word	842150450
 1055 0288 3A3A3A3A 		.word	976894522
 1056 028c 0A0A0A0A 		.word	168430090
 1057 0290 49494949 		.word	1229539657
 1058 0294 06060606 		.word	101058054
 1059 0298 24242424 		.word	606348324
 1060 029c 5C5C5C5C 		.word	1549556828
 1061 02a0 C2C2C2C2 		.word	-1027423550
 1062 02a4 D3D3D3D3 		.word	-741092397
 1063 02a8 ACACACAC 		.word	-1397969748
 1064 02ac 62626262 		.word	1650614882
 1065 02b0 91919191 		.word	-1852730991
 1066 02b4 95959595 		.word	-1785358955
 1067 02b8 E4E4E4E4 		.word	-454761244
 1068 02bc 79797979 		.word	2038004089
 1069 02c0 E7E7E7E7 		.word	-404232217
 1070 02c4 C8C8C8C8 		.word	-926365496
 1071 02c8 37373737 		.word	926365495
 1072 02cc 6D6D6D6D 		.word	1835887981
 1073 02d0 8D8D8D8D 		.word	-1920103027
 1074 02d4 D5D5D5D5 		.word	-707406379
 1075 02d8 4E4E4E4E 		.word	1313754702
 1076 02dc A9A9A9A9 		.word	-1448498775
 1077 02e0 6C6C6C6C 		.word	1819044972
 1078 02e4 56565656 		.word	1448498774
 1079 02e8 F4F4F4F4 		.word	-185273100
 1080 02ec EAEAEAEA 		.word	-353703190
 1081 02f0 65656565 		.word	1701143909
 1082 02f4 7A7A7A7A 		.word	2054847098
 1083 02f8 AEAEAEAE 		.word	-1364283730
 1084 02fc 08080808 		.word	134744072
 1085 0300 BABABABA 		.word	-1162167622
 1086 0304 78787878 		.word	2021161080
 1087 0308 25252525 		.word	623191333
 1088 030c 2E2E2E2E 		.word	774778414
 1089 0310 1C1C1C1C 		.word	471604252
 1090 0314 A6A6A6A6 		.word	-1499027802
 1091 0318 B4B4B4B4 		.word	-1263225676
 1092 031c C6C6C6C6 		.word	-960051514
 1093 0320 E8E8E8E8 		.word	-387389208
 1094 0324 DDDDDDDD 		.word	-572662307
 1095 0328 74747474 		.word	1953789044
 1096 032c 1F1F1F1F 		.word	522133279
 1097 0330 4B4B4B4B 		.word	1263225675
 1098 0334 BDBDBDBD 		.word	-1111638595
 1099 0338 8B8B8B8B 		.word	-1953789045
 1100 033c 8A8A8A8A 		.word	-1970632054
 1101 0340 70707070 		.word	1886417008
 1102 0344 3E3E3E3E 		.word	1044266558
 1103 0348 B5B5B5B5 		.word	-1246382667
 1104 034c 66666666 		.word	1717986918
 1105 0350 48484848 		.word	1212696648
 1106 0354 03030303 		.word	50529027
ARM GAS  C:\Users\Ray\AppData\Local\Temp\ccjCHh8J.s 			page 25


 1107 0358 F6F6F6F6 		.word	-151587082
 1108 035c 0E0E0E0E 		.word	235802126
 1109 0360 61616161 		.word	1633771873
 1110 0364 35353535 		.word	892679477
 1111 0368 57575757 		.word	1465341783
 1112 036c B9B9B9B9 		.word	-1179010631
 1113 0370 86868686 		.word	-2038004090
 1114 0374 C1C1C1C1 		.word	-1044266559
 1115 0378 1D1D1D1D 		.word	488447261
 1116 037c 9E9E9E9E 		.word	-1633771874
 1117 0380 E1E1E1E1 		.word	-505290271
 1118 0384 F8F8F8F8 		.word	-117901064
 1119 0388 98989898 		.word	-1734829928
 1120 038c 11111111 		.word	286331153
 1121 0390 69696969 		.word	1768515945
 1122 0394 D9D9D9D9 		.word	-640034343
 1123 0398 8E8E8E8E 		.word	-1903260018
 1124 039c 94949494 		.word	-1802201964
 1125 03a0 9B9B9B9B 		.word	-1684300901
 1126 03a4 1E1E1E1E 		.word	505290270
 1127 03a8 87878787 		.word	-2021161081
 1128 03ac E9E9E9E9 		.word	-370546199
 1129 03b0 CECECECE 		.word	-825307442
 1130 03b4 55555555 		.word	1431655765
 1131 03b8 28282828 		.word	673720360
 1132 03bc DFDFDFDF 		.word	-538976289
 1133 03c0 8C8C8C8C 		.word	-1936946036
 1134 03c4 A1A1A1A1 		.word	-1583242847
 1135 03c8 89898989 		.word	-1987475063
 1136 03cc 0D0D0D0D 		.word	218959117
 1137 03d0 BFBFBFBF 		.word	-1077952577
 1138 03d4 E6E6E6E6 		.word	-421075226
 1139 03d8 42424242 		.word	1111638594
 1140 03dc 68686868 		.word	1751672936
 1141 03e0 41414141 		.word	1094795585
 1142 03e4 99999999 		.word	-1717986919
 1143 03e8 2D2D2D2D 		.word	757935405
 1144 03ec 0F0F0F0F 		.word	252645135
 1145 03f0 B0B0B0B0 		.word	-1330597712
 1146 03f4 54545454 		.word	1414812756
 1147 03f8 BBBBBBBB 		.word	-1145324613
 1148 03fc 16161616 		.word	370546198
 1149              		.type	rcon, %object
 1150              		.size	rcon, 40
 1151              	rcon:
 1152 0400 00000001 		.word	16777216
 1153 0404 00000002 		.word	33554432
 1154 0408 00000004 		.word	67108864
 1155 040c 00000008 		.word	134217728
 1156 0410 00000010 		.word	268435456
 1157 0414 00000020 		.word	536870912
 1158 0418 00000040 		.word	1073741824
 1159 041c 00000080 		.word	-2147483648
 1160 0420 0000001B 		.word	452984832
 1161 0424 00000036 		.word	905969664
 1162              		.type	TE0, %object
 1163              		.size	TE0, 1024
ARM GAS  C:\Users\Ray\AppData\Local\Temp\ccjCHh8J.s 			page 26


 1164              	TE0:
 1165 0428 A56363C6 		.word	-966564955
 1166 042c 847C7CF8 		.word	-126059388
 1167 0430 997777EE 		.word	-294160487
 1168 0434 8D7B7BF6 		.word	-159679603
 1169 0438 0DF2F2FF 		.word	-855539
 1170 043c BD6B6BD6 		.word	-697603139
 1171 0440 B16F6FDE 		.word	-563122255
 1172 0444 54C5C591 		.word	-1849309868
 1173 0448 50303060 		.word	1613770832
 1174 044c 03010102 		.word	33620227
 1175 0450 A96767CE 		.word	-832084055
 1176 0454 7D2B2B56 		.word	1445669757
 1177 0458 19FEFEE7 		.word	-402719207
 1178 045c 62D7D7B5 		.word	-1244145822
 1179 0460 E6ABAB4D 		.word	1303096294
 1180 0464 9A7676EC 		.word	-327780710
 1181 0468 45CACA8F 		.word	-1882535355
 1182 046c 9D82821F 		.word	528646813
 1183 0470 40C9C989 		.word	-1983264448
 1184 0474 877D7DFA 		.word	-92439161
 1185 0478 15FAFAEF 		.word	-268764651
 1186 047c EB5959B2 		.word	-1302767125
 1187 0480 C947478E 		.word	-1907931191
 1188 0484 0BF0F0FB 		.word	-68095989
 1189 0488 ECADAD41 		.word	1101901292
 1190 048c 67D4D4B3 		.word	-1277897625
 1191 0490 FDA2A25F 		.word	1604494077
 1192 0494 EAAFAF45 		.word	1169141738
 1193 0498 BF9C9C23 		.word	597466303
 1194 049c F7A4A453 		.word	1403299063
 1195 04a0 967272E4 		.word	-462261610
 1196 04a4 5BC0C09B 		.word	-1681866661
 1197 04a8 C2B7B775 		.word	1974974402
 1198 04ac 1CFDFDE1 		.word	-503448292
 1199 04b0 AE93933D 		.word	1033081774
 1200 04b4 6A26264C 		.word	1277568618
 1201 04b8 5A36366C 		.word	1815492186
 1202 04bc 413F3F7E 		.word	2118074177
 1203 04c0 02F7F7F5 		.word	-168298750
 1204 04c4 4FCCCC83 		.word	-2083730353
 1205 04c8 5C343468 		.word	1748251740
 1206 04cc F4A5A551 		.word	1369810420
 1207 04d0 34E5E5D1 		.word	-773462732
 1208 04d4 08F1F1F9 		.word	-101584632
 1209 04d8 937171E2 		.word	-495881837
 1210 04dc 73D8D8AB 		.word	-1411852173
 1211 04e0 53313162 		.word	1647391059
 1212 04e4 3F15152A 		.word	706024767
 1213 04e8 0C040408 		.word	134480908
 1214 04ec 52C7C795 		.word	-1782069422
 1215 04f0 65232346 		.word	1176707941
 1216 04f4 5EC3C39D 		.word	-1648114850
 1217 04f8 28181830 		.word	806885416
 1218 04fc A1969637 		.word	932615841
 1219 0500 0F05050A 		.word	168101135
 1220 0504 B59A9A2F 		.word	798661301
ARM GAS  C:\Users\Ray\AppData\Local\Temp\ccjCHh8J.s 			page 27


 1221 0508 0907070E 		.word	235341577
 1222 050c 36121224 		.word	605164086
 1223 0510 9B80801B 		.word	461406363
 1224 0514 3DE2E2DF 		.word	-538779075
 1225 0518 26EBEBCD 		.word	-840176858
 1226 051c 6927274E 		.word	1311188841
 1227 0520 CDB2B27F 		.word	2142417613
 1228 0524 9F7575EA 		.word	-361400929
 1229 0528 1B090912 		.word	302582043
 1230 052c 9E83831D 		.word	495158174
 1231 0530 742C2C58 		.word	1479289972
 1232 0534 2E1A1A34 		.word	874125870
 1233 0538 2D1B1B36 		.word	907746093
 1234 053c B26E6EDC 		.word	-596742478
 1235 0540 EE5A5AB4 		.word	-1269146898
 1236 0544 FBA0A05B 		.word	1537253627
 1237 0548 F65252A4 		.word	-1538108682
 1238 054c 4D3B3B76 		.word	1983593293
 1239 0550 61D6D6B7 		.word	-1210657183
 1240 0554 CEB3B37D 		.word	2108928974
 1241 0558 7B292952 		.word	1378429307
 1242 055c 3EE3E3DD 		.word	-572267714
 1243 0560 712F2F5E 		.word	1580150641
 1244 0564 97848413 		.word	327451799
 1245 0568 F55353A6 		.word	-1504488459
 1246 056c 68D1D1B9 		.word	-1177431704
 1247 0570 00000000 		.word	0
 1248 0574 2CEDEDC1 		.word	-1041371860
 1249 0578 60202040 		.word	1075847264
 1250 057c 1FFCFCE3 		.word	-469959649
 1251 0580 C8B1B179 		.word	2041688520
 1252 0584 ED5B5BB6 		.word	-1235526675
 1253 0588 BE6A6AD4 		.word	-731223362
 1254 058c 46CBCB8D 		.word	-1916023994
 1255 0590 D9BEBE67 		.word	1740553945
 1256 0594 4B393972 		.word	1916352843
 1257 0598 DE4A4A94 		.word	-1807070498
 1258 059c D44C4C98 		.word	-1739830060
 1259 05a0 E85858B0 		.word	-1336387352
 1260 05a4 4ACFCF85 		.word	-2049978550
 1261 05a8 6BD0D0BB 		.word	-1143943061
 1262 05ac 2AEFEFC5 		.word	-974131414
 1263 05b0 E5AAAA4F 		.word	1336584933
 1264 05b4 16FBFBED 		.word	-302253290
 1265 05b8 C5434386 		.word	-2042412091
 1266 05bc D74D4D9A 		.word	-1706209833
 1267 05c0 55333366 		.word	1714631509
 1268 05c4 94858511 		.word	293963156
 1269 05c8 CF45458A 		.word	-1975171633
 1270 05cc 10F9F9E9 		.word	-369493744
 1271 05d0 06020204 		.word	67240454
 1272 05d4 817F7FFE 		.word	-25198719
 1273 05d8 F05050A0 		.word	-1605349136
 1274 05dc 443C3C78 		.word	2017213508
 1275 05e0 BA9F9F25 		.word	631218106
 1276 05e4 E3A8A84B 		.word	1269344483
 1277 05e8 F35151A2 		.word	-1571728909
ARM GAS  C:\Users\Ray\AppData\Local\Temp\ccjCHh8J.s 			page 28


 1278 05ec FEA3A35D 		.word	1571005438
 1279 05f0 C0404080 		.word	-2143272768
 1280 05f4 8A8F8F05 		.word	93294474
 1281 05f8 AD92923F 		.word	1066570413
 1282 05fc BC9D9D21 		.word	563977660
 1283 0600 48383870 		.word	1882732616
 1284 0604 04F5F5F1 		.word	-235539196
 1285 0608 DFBCBC63 		.word	1673313503
 1286 060c C1B6B677 		.word	2008463041
 1287 0610 75DADAAF 		.word	-1344611723
 1288 0614 63212142 		.word	1109467491
 1289 0618 30101020 		.word	537923632
 1290 061c 1AFFFFE5 		.word	-436207846
 1291 0620 0EF3F3FD 		.word	-34344178
 1292 0624 6DD2D2BF 		.word	-1076702611
 1293 0628 4CCDCD81 		.word	-2117218996
 1294 062c 140C0C18 		.word	403442708
 1295 0630 35131326 		.word	638784309
 1296 0634 2FECECC3 		.word	-1007883217
 1297 0638 E15F5FBE 		.word	-1101045791
 1298 063c A2979735 		.word	899127202
 1299 0640 CC444488 		.word	-2008791860
 1300 0644 3917172E 		.word	773265209
 1301 0648 57C4C493 		.word	-1815821225
 1302 064c F2A7A755 		.word	1437050866
 1303 0650 827E7EFC 		.word	-58818942
 1304 0654 473D3D7A 		.word	2050833735
 1305 0658 AC6464C8 		.word	-932944724
 1306 065c E75D5DBA 		.word	-1168286233
 1307 0660 2B191932 		.word	840505643
 1308 0664 957373E6 		.word	-428641387
 1309 0668 A06060C0 		.word	-1067425632
 1310 066c 98818119 		.word	427917720
 1311 0670 D14F4F9E 		.word	-1638969391
 1312 0674 7FDCDCA3 		.word	-1545806721
 1313 0678 66222244 		.word	1143087718
 1314 067c 7E2A2A54 		.word	1412049534
 1315 0680 AB90903B 		.word	999329963
 1316 0684 8388880B 		.word	193497219
 1317 0688 CA46468C 		.word	-1941551414
 1318 068c 29EEEEC7 		.word	-940642775
 1319 0690 D3B8B86B 		.word	1807268051
 1320 0694 3C141428 		.word	672404540
 1321 0698 79DEDEA7 		.word	-1478566279
 1322 069c E25E5EBC 		.word	-1134666014
 1323 06a0 1D0B0B16 		.word	369822493
 1324 06a4 76DBDBAD 		.word	-1378100362
 1325 06a8 3BE0E0DB 		.word	-606019525
 1326 06ac 56323264 		.word	1681011286
 1327 06b0 4E3A3A74 		.word	1949973070
 1328 06b4 1E0A0A14 		.word	336202270
 1329 06b8 DB494992 		.word	-1840690725
 1330 06bc 0A06060C 		.word	201721354
 1331 06c0 6C242448 		.word	1210328172
 1332 06c4 E45C5CB8 		.word	-1201906460
 1333 06c8 5DC2C29F 		.word	-1614626211
 1334 06cc 6ED3D3BD 		.word	-1110191250
ARM GAS  C:\Users\Ray\AppData\Local\Temp\ccjCHh8J.s 			page 29


 1335 06d0 EFACAC43 		.word	1135389935
 1336 06d4 A66262C4 		.word	-1000185178
 1337 06d8 A8919139 		.word	965841320
 1338 06dc A4959531 		.word	831886756
 1339 06e0 37E4E4D3 		.word	-739974089
 1340 06e4 8B7979F2 		.word	-226920053
 1341 06e8 32E7E7D5 		.word	-706222286
 1342 06ec 43C8C88B 		.word	-1949775805
 1343 06f0 5937376E 		.word	1849112409
 1344 06f4 B76D6DDA 		.word	-630362697
 1345 06f8 8C8D8D01 		.word	26054028
 1346 06fc 64D5D5B1 		.word	-1311386268
 1347 0700 D24E4E9C 		.word	-1672589614
 1348 0704 E0A9A949 		.word	1235855840
 1349 0708 B46C6CD8 		.word	-663982924
 1350 070c FA5656AC 		.word	-1403627782
 1351 0710 07F4F4F3 		.word	-202050553
 1352 0714 25EAEACF 		.word	-806688219
 1353 0718 AF6565CA 		.word	-899324497
 1354 071c 8E7A7AF4 		.word	-193299826
 1355 0720 E9AEAE47 		.word	1202630377
 1356 0724 18080810 		.word	268961816
 1357 0728 D5BABA6F 		.word	1874508501
 1358 072c 887878F0 		.word	-260540280
 1359 0730 6F25254A 		.word	1243948399
 1360 0734 722E2E5C 		.word	1546530418
 1361 0738 241C1C38 		.word	941366308
 1362 073c F1A6A657 		.word	1470539505
 1363 0740 C7B4B473 		.word	1941222599
 1364 0744 51C6C697 		.word	-1748580783
 1365 0748 23E8E8CB 		.word	-873928669
 1366 074c 7CDDDDA1 		.word	-1579295364
 1367 0750 9C7474E8 		.word	-395021156
 1368 0754 211F1F3E 		.word	1042226977
 1369 0758 DD4B4B96 		.word	-1773450275
 1370 075c DCBDBD61 		.word	1639824860
 1371 0760 868B8B0D 		.word	227249030
 1372 0764 858A8A0F 		.word	260737669
 1373 0768 907070E0 		.word	-529502064
 1374 076c 423E3E7C 		.word	2084453954
 1375 0770 C4B5B571 		.word	1907733956
 1376 0774 AA6666CC 		.word	-865704278
 1377 0778 D8484890 		.word	-1874310952
 1378 077c 05030306 		.word	100860677
 1379 0780 01F6F6F7 		.word	-134810111
 1380 0784 120E0E1C 		.word	470683154
 1381 0788 A36161C2 		.word	-1033805405
 1382 078c 5F35356A 		.word	1781871967
 1383 0790 F95757AE 		.word	-1370007559
 1384 0794 D0B9B969 		.word	1773779408
 1385 0798 91868617 		.word	394692241
 1386 079c 58C1C199 		.word	-1715355304
 1387 07a0 271D1D3A 		.word	974986535
 1388 07a4 B99E9E27 		.word	664706745
 1389 07a8 38E1E1D9 		.word	-639508168
 1390 07ac 13F8F8EB 		.word	-336005101
 1391 07b0 B398982B 		.word	731420851
ARM GAS  C:\Users\Ray\AppData\Local\Temp\ccjCHh8J.s 			page 30


 1392 07b4 33111122 		.word	571543859
 1393 07b8 BB6969D2 		.word	-764843589
 1394 07bc 70D9D9A9 		.word	-1445340816
 1395 07c0 898E8E07 		.word	126783113
 1396 07c4 A7949433 		.word	865375399
 1397 07c8 B69B9B2D 		.word	765172662
 1398 07cc 221E1E3C 		.word	1008606754
 1399 07d0 92878715 		.word	361203602
 1400 07d4 20E9E9C9 		.word	-907417312
 1401 07d8 49CECE87 		.word	-2016489911
 1402 07dc FF5555AA 		.word	-1437248001
 1403 07e0 78282850 		.word	1344809080
 1404 07e4 7ADFDFA5 		.word	-1512054918
 1405 07e8 8F8C8C03 		.word	59542671
 1406 07ec F8A1A159 		.word	1503764984
 1407 07f0 80898909 		.word	160008576
 1408 07f4 170D0D1A 		.word	437062935
 1409 07f8 DABFBF65 		.word	1707065306
 1410 07fc 31E6E6D7 		.word	-672733647
 1411 0800 C6424284 		.word	-2076032314
 1412 0804 B86868D0 		.word	-798463816
 1413 0808 C3414182 		.word	-2109652541
 1414 080c B0999929 		.word	697932208
 1415 0810 772D2D5A 		.word	1512910199
 1416 0814 110F0F1E 		.word	504303377
 1417 0818 CBB0B07B 		.word	2075177163
 1418 081c FC5454A8 		.word	-1470868228
 1419 0820 D6BBBB6D 		.word	1841019862
 1420 0824 3A16162C 		.word	739644986
 1421              		.text
 1422              	.Letext0:
 1423              		.file 2 "c:\\program files (x86)\\cypress\\psoc creator\\4.1\\psoc creator\\import\\gnu\\arm\\5.4.
 1424              		.file 3 "c:\\program files (x86)\\cypress\\psoc creator\\4.1\\psoc creator\\import\\gnu\\arm\\5.4.
 1425              		.file 4 "strong-arm\\src\\aes\\aes256_tables.h"