ARM GAS  C:\Users\Ray\AppData\Local\Temp\ccFul5z8.s 			page 1


   1              		.syntax unified
   2              		.cpu cortex-m0
   3              		.fpu softvfp
   4              		.eabi_attribute 20, 1
   5              		.eabi_attribute 21, 1
   6              		.eabi_attribute 23, 3
   7              		.eabi_attribute 24, 1
   8              		.eabi_attribute 25, 1
   9              		.eabi_attribute 26, 1
  10              		.eabi_attribute 30, 4
  11              		.eabi_attribute 34, 0
  12              		.eabi_attribute 18, 4
  13              		.thumb
  14              		.syntax unified
  15              		.file	"base58.c"
  16              		.text
  17              	.Ltext0:
  18              		.cfi_sections	.debug_frame
  19              		.section	.text.base58_encode,"ax",%progbits
  20              		.align	1
  21              		.global	base58_encode
  22              		.code	16
  23              		.thumb_func
  24              		.type	base58_encode, %function
  25              	base58_encode:
  26              	.LFB0:
  27              		.file 1 "strong-arm\\src\\base58\\base58.c"
   1:strong-arm\src\base58/base58.c **** #include <string.h>
   2:strong-arm\src\base58/base58.c **** #include <strong-arm/base58.h>
   3:strong-arm\src\base58/base58.c **** #include <strong-arm/sha256.h>
   4:strong-arm\src\base58/base58.c **** #include <strong-arm/finite_field.h>
   5:strong-arm\src\base58/base58.c **** 
   6:strong-arm\src\base58/base58.c **** 
   7:strong-arm\src\base58/base58.c **** void base58_encode (uint8_t *const dst, uint8_t const *const src)
   8:strong-arm\src\base58/base58.c **** {
  28              		.loc 1 8 0
  29              		.cfi_startproc
  30              		@ args = 0, pretend = 0, frame = 160
  31              		@ frame_needed = 0, uses_anonymous_args = 0
  32              	.LVL0:
  33 0000 F0B5     		push	{r4, r5, r6, r7, lr}
  34              		.cfi_def_cfa_offset 20
  35              		.cfi_offset 4, -20
  36              		.cfi_offset 5, -16
  37              		.cfi_offset 6, -12
  38              		.cfi_offset 7, -8
  39              		.cfi_offset 14, -4
  40 0002 0F00     		movs	r7, r1
  41 0004 A9B0     		sub	sp, sp, #164
  42              		.cfi_def_cfa_offset 184
   9:strong-arm\src\base58/base58.c **** 	const uint8_t code_string[] = "123456789ABCDEFGHJKLMNPQRSTUVWXYZabcdefghijkmnopqrstuvwxyz";
  43              		.loc 1 9 0
  44 0006 3B22     		movs	r2, #59
  45 0008 2749     		ldr	r1, .L15
  46              	.LVL1:
   8:strong-arm\src\base58/base58.c **** 	const uint8_t code_string[] = "123456789ABCDEFGHJKLMNPQRSTUVWXYZabcdefghijkmnopqrstuvwxyz";
  47              		.loc 1 8 0
ARM GAS  C:\Users\Ray\AppData\Local\Temp\ccFul5z8.s 			page 2


  48 000a 0600     		movs	r6, r0
  49              		.loc 1 9 0
  50 000c 19A8     		add	r0, sp, #100
  51              	.LVL2:
  52 000e FFF7FEFF 		bl	memcpy
  53              	.LVL3:
  10:strong-arm\src\base58/base58.c **** 	FF_NUM x = {{0}}, rem;
  54              		.loc 1 10 0
  55 0012 2022     		movs	r2, #32
  56 0014 0021     		movs	r1, #0
  57 0016 6846     		mov	r0, sp
  58 0018 FFF7FEFF 		bl	memset
  59              	.LVL4:
  11:strong-arm\src\base58/base58.c **** 	uint8_t result[36];
  12:strong-arm\src\base58/base58.c **** 	uint32_t result_len = 0, dst_len = 0;
  13:strong-arm\src\base58/base58.c **** 	
  14:strong-arm\src\base58/base58.c **** 	/* Copy src into a FF_NUM. */
  15:strong-arm\src\base58/base58.c **** 	x.z[6] = src[0];
  60              		.loc 1 15 0
  61 001c 3B78     		ldrb	r3, [r7]
  10:strong-arm\src\base58/base58.c **** 	FF_NUM x = {{0}}, rem;
  62              		.loc 1 10 0
  63 001e 6C46     		mov	r4, sp
  64              		.loc 1 15 0
  65 0020 0693     		str	r3, [sp, #24]
  66              	.LVL5:
  67              	.LBB2:
  16:strong-arm\src\base58/base58.c **** 	for (uint32_t i = 0; i < 24; ++i)
  17:strong-arm\src\base58/base58.c **** 	{
  18:strong-arm\src\base58/base58.c **** 		x.z[5 - (i >> 2)] |= ((uint32_t)src[i + 1]) << ((3 - (i&3)) << 3);
  68              		.loc 1 18 0
  69 0022 0525     		movs	r5, #5
  16:strong-arm\src\base58/base58.c **** 	for (uint32_t i = 0; i < 24; ++i)
  70              		.loc 1 16 0
  71 0024 0023     		movs	r3, #0
  72              	.LVL6:
  73              	.L2:
  74              		.loc 1 18 0 discriminator 3
  75 0026 9A08     		lsrs	r2, r3, #2
  76 0028 0133     		adds	r3, r3, #1
  77              	.LVL7:
  78 002a F95C     		ldrb	r1, [r7, r3]
  79 002c 1820     		movs	r0, #24
  80 002e 8C46     		mov	ip, r1
  81 0030 5942     		rsbs	r1, r3, #0
  82 0032 C900     		lsls	r1, r1, #3
  83 0034 0140     		ands	r1, r0
  84 0036 6046     		mov	r0, ip
  85 0038 8840     		lsls	r0, r0, r1
  86 003a 0100     		movs	r1, r0
  87 003c AA1A     		subs	r2, r5, r2
  88 003e 9200     		lsls	r2, r2, #2
  89 0040 1059     		ldr	r0, [r2, r4]
  90 0042 0143     		orrs	r1, r0
  91 0044 1151     		str	r1, [r2, r4]
  92              	.LVL8:
  16:strong-arm\src\base58/base58.c **** 	for (uint32_t i = 0; i < 24; ++i)
ARM GAS  C:\Users\Ray\AppData\Local\Temp\ccFul5z8.s 			page 3


  93              		.loc 1 16 0 discriminator 3
  94 0046 182B     		cmp	r3, #24
  95 0048 EDD1     		bne	.L2
  96 004a 0025     		movs	r5, #0
  97              	.LVL9:
  98              	.L3:
  99              	.LBE2:
  19:strong-arm\src\base58/base58.c **** 	}
  20:strong-arm\src\base58/base58.c **** 	
  21:strong-arm\src\base58/base58.c **** 	/* Encode using division */
  22:strong-arm\src\base58/base58.c **** 	while (!ff_is_zero (&x))
 100              		.loc 1 22 0
 101 004c 2000     		movs	r0, r4
 102 004e FFF7FEFF 		bl	ff_is_zero
 103              	.LVL10:
 104 0052 0028     		cmp	r0, #0
 105 0054 0DD1     		bne	.L13
  23:strong-arm\src\base58/base58.c **** 	{
  24:strong-arm\src\base58/base58.c **** 		ff_div58 (&x, &rem, &x);
 106              		.loc 1 24 0
 107 0056 2200     		movs	r2, r4
 108 0058 08A9     		add	r1, sp, #32
 109 005a 2000     		movs	r0, r4
 110 005c FFF7FEFF 		bl	ff_div58
 111              	.LVL11:
  25:strong-arm\src\base58/base58.c **** 		result[result_len++] = code_string[rem.z[0]];
 112              		.loc 1 25 0
 113 0060 6B46     		mov	r3, sp
 114 0062 6421     		movs	r1, #100
 115 0064 089A     		ldr	r2, [sp, #32]
 116 0066 5B18     		adds	r3, r3, r1
 117 0068 9A5C     		ldrb	r2, [r3, r2]
 118 006a 10AB     		add	r3, sp, #64
 119 006c EA54     		strb	r2, [r5, r3]
 120 006e 0135     		adds	r5, r5, #1
 121              	.LVL12:
 122 0070 ECE7     		b	.L3
 123              	.L13:
 124 0072 0022     		movs	r2, #0
 125              	.LBB3:
  26:strong-arm\src\base58/base58.c **** 	}
  27:strong-arm\src\base58/base58.c **** 	
  28:strong-arm\src\base58/base58.c **** 	/* Copy leading zeros */
  29:strong-arm\src\base58/base58.c **** 	for (uint32_t i = 0; i < 25; ++i)
  30:strong-arm\src\base58/base58.c **** 	{
  31:strong-arm\src\base58/base58.c **** 		if (src[i])
  32:strong-arm\src\base58/base58.c **** 			break;
  33:strong-arm\src\base58/base58.c **** 		
  34:strong-arm\src\base58/base58.c **** 		dst[dst_len++] = code_string[0];
 126              		.loc 1 34 0
 127 0074 3121     		movs	r1, #49
 128              	.LVL13:
 129              	.L6:
  31:strong-arm\src\base58/base58.c **** 			break;
 130              		.loc 1 31 0
 131 0076 BB5C     		ldrb	r3, [r7, r2]
 132 0078 002B     		cmp	r3, #0
ARM GAS  C:\Users\Ray\AppData\Local\Temp\ccFul5z8.s 			page 4


 133 007a 05D1     		bne	.L9
 134              		.loc 1 34 0 discriminator 2
 135 007c 531C     		adds	r3, r2, #1
 136              	.LVL14:
 137 007e B154     		strb	r1, [r6, r2]
 138              	.LVL15:
  29:strong-arm\src\base58/base58.c **** 	{
 139              		.loc 1 29 0 discriminator 2
 140 0080 192B     		cmp	r3, #25
 141 0082 02D0     		beq	.L5
 142 0084 1A00     		movs	r2, r3
 143 0086 F6E7     		b	.L6
 144              	.LVL16:
 145              	.L9:
 146 0088 1300     		movs	r3, r2
 147              	.LVL17:
 148              	.L5:
 149              	.LBE3:
 150              	.LBB4:
  35:strong-arm\src\base58/base58.c **** 	}
  36:strong-arm\src\base58/base58.c **** 	
  37:strong-arm\src\base58/base58.c **** 	/* Copy reverse of result */
  38:strong-arm\src\base58/base58.c **** 	for (int i = result_len - 1; i >= 0; --i)
 151              		.loc 1 38 0
 152 008a 6A1E     		subs	r2, r5, #1
 153              	.LVL18:
 154 008c F118     		adds	r1, r6, r3
 155              	.LVL19:
 156              	.L7:
 157              		.loc 1 38 0 is_stmt 0 discriminator 1
 158 008e 501C     		adds	r0, r2, #1
 159 0090 05D0     		beq	.L14
 160              	.LVL20:
  39:strong-arm\src\base58/base58.c **** 	{
  40:strong-arm\src\base58/base58.c **** 		dst[dst_len++] = result[i];
 161              		.loc 1 40 0 is_stmt 1 discriminator 3
 162 0092 10A8     		add	r0, sp, #64
 163 0094 105C     		ldrb	r0, [r2, r0]
  38:strong-arm\src\base58/base58.c **** 	{
 164              		.loc 1 38 0 discriminator 3
 165 0096 013A     		subs	r2, r2, #1
 166              	.LVL21:
 167              		.loc 1 40 0 discriminator 3
 168 0098 0870     		strb	r0, [r1]
 169 009a 0131     		adds	r1, r1, #1
 170              	.LVL22:
 171 009c F7E7     		b	.L7
 172              	.L14:
 173              	.LBE4:
  41:strong-arm\src\base58/base58.c **** 	}
  42:strong-arm\src\base58/base58.c **** 	
  43:strong-arm\src\base58/base58.c **** 	/* NULL Termination */
  44:strong-arm\src\base58/base58.c **** 	dst[dst_len] = 0;
 174              		.loc 1 44 0
 175 009e 0022     		movs	r2, #0
 176              	.LVL23:
 177 00a0 7519     		adds	r5, r6, r5
ARM GAS  C:\Users\Ray\AppData\Local\Temp\ccFul5z8.s 			page 5


 178              	.LVL24:
 179 00a2 EA54     		strb	r2, [r5, r3]
  45:strong-arm\src\base58/base58.c **** }
 180              		.loc 1 45 0
 181 00a4 29B0     		add	sp, sp, #164
 182              		@ sp needed
 183              	.LVL25:
 184              	.LVL26:
 185 00a6 F0BD     		pop	{r4, r5, r6, r7, pc}
 186              	.L16:
 187              		.align	2
 188              	.L15:
 189 00a8 00000000 		.word	.LC2
 190              		.cfi_endproc
 191              	.LFE0:
 192              		.size	base58_encode, .-base58_encode
 193              		.section	.text.base58check_encode,"ax",%progbits
 194              		.align	1
 195              		.global	base58check_encode
 196              		.code	16
 197              		.thumb_func
 198              		.type	base58check_encode, %function
 199              	base58check_encode:
 200              	.LFB1:
  46:strong-arm\src\base58/base58.c **** 
  47:strong-arm\src\base58/base58.c **** void base58check_encode (uint8_t *const dst, uint8_t version, uint8_t const *const src)
  48:strong-arm\src\base58/base58.c **** {
 201              		.loc 1 48 0
 202              		.cfi_startproc
 203              		@ args = 0, pretend = 0, frame = 32
 204              		@ frame_needed = 0, uses_anonymous_args = 0
 205              	.LVL27:
 206 0000 30B5     		push	{r4, r5, lr}
 207              		.cfi_def_cfa_offset 12
 208              		.cfi_offset 4, -12
 209              		.cfi_offset 5, -8
 210              		.cfi_offset 14, -4
 211 0002 0400     		movs	r4, r0
 212 0004 0D00     		movs	r5, r1
 213 0006 89B0     		sub	sp, sp, #36
 214              		.cfi_def_cfa_offset 48
 215              		.loc 1 48 0
 216 0008 1100     		movs	r1, r2
 217              	.LVL28:
  49:strong-arm\src\base58/base58.c **** 	uint8_t hash[32];
  50:strong-arm\src\base58/base58.c **** 
  51:strong-arm\src\base58/base58.c **** 	memmove (dst + 1, src, 20);
 218              		.loc 1 51 0
 219 000a 0130     		adds	r0, r0, #1
 220              	.LVL29:
 221 000c 1422     		movs	r2, #20
 222              	.LVL30:
 223 000e FFF7FEFF 		bl	memmove
 224              	.LVL31:
  52:strong-arm\src\base58/base58.c **** 	dst[0] = version;
  53:strong-arm\src\base58/base58.c **** 	SHA256 (hash, dst, 21);
 225              		.loc 1 53 0
ARM GAS  C:\Users\Ray\AppData\Local\Temp\ccFul5z8.s 			page 6


 226 0012 2100     		movs	r1, r4
 227 0014 6846     		mov	r0, sp
  52:strong-arm\src\base58/base58.c **** 	dst[0] = version;
 228              		.loc 1 52 0
 229 0016 2570     		strb	r5, [r4]
 230              		.loc 1 53 0
 231 0018 1522     		movs	r2, #21
 232 001a FFF7FEFF 		bl	SHA256
 233              	.LVL32:
  54:strong-arm\src\base58/base58.c **** 	SHA256 (hash, hash, 32);
 234              		.loc 1 54 0
 235 001e 6946     		mov	r1, sp
 236 0020 6846     		mov	r0, sp
 237 0022 2022     		movs	r2, #32
 238 0024 FFF7FEFF 		bl	SHA256
 239              	.LVL33:
  55:strong-arm\src\base58/base58.c **** 
  56:strong-arm\src\base58/base58.c **** 	memmove (dst + 21, hash, 4);
 240              		.loc 1 56 0
 241 0028 2000     		movs	r0, r4
 242 002a 0422     		movs	r2, #4
 243 002c 6946     		mov	r1, sp
 244 002e 1530     		adds	r0, r0, #21
 245 0030 FFF7FEFF 		bl	memcpy
 246              	.LVL34:
  57:strong-arm\src\base58/base58.c **** 	base58_encode (dst, dst);
 247              		.loc 1 57 0
 248 0034 2100     		movs	r1, r4
 249 0036 2000     		movs	r0, r4
 250 0038 FFF7FEFF 		bl	base58_encode
 251              	.LVL35:
  58:strong-arm\src\base58/base58.c **** }
 252              		.loc 1 58 0
 253 003c 09B0     		add	sp, sp, #36
 254              		@ sp needed
 255              	.LVL36:
 256 003e 30BD     		pop	{r4, r5, pc}
 257              		.cfi_endproc
 258              	.LFE1:
 259              		.size	base58check_encode, .-base58check_encode
 260              		.section	.rodata.str1.1,"aMS",%progbits,1
 261              	.LC2:
 262 0000 31323334 		.ascii	"123456789ABCDEFGHJKLMNPQRSTUVWXYZabcdefghijkmnopqrs"
 262      35363738 
 262      39414243 
 262      44454647 
 262      484A4B4C 
 263 0033 74757677 		.ascii	"tuvwxyz\000"
 263      78797A00 
 264              		.text
 265              	.Letext0:
 266              		.file 2 "c:\\program files (x86)\\cypress\\psoc creator\\4.1\\psoc creator\\import\\gnu\\arm\\5.4.
 267              		.file 3 "c:\\program files (x86)\\cypress\\psoc creator\\4.1\\psoc creator\\import\\gnu\\arm\\5.4.
 268              		.file 4 ".\\strong-arm\\include/strong-arm/finite_field.h"
 269              		.file 5 "c:\\program files (x86)\\cypress\\psoc creator\\4.1\\psoc creator\\import\\gnu\\arm\\5.4.
 270              		.file 6 ".\\strong-arm\\include/strong-arm/sha256.h"