ARM GAS  C:\Users\Ray\AppData\Local\Temp\cc401zJY.s 			page 1


   1              		.syntax unified
   2              		.cpu cortex-m0
   3              		.fpu softvfp
   4              		.eabi_attribute 20, 1
   5              		.eabi_attribute 21, 1
   6              		.eabi_attribute 23, 3
   7              		.eabi_attribute 24, 1
   8              		.eabi_attribute 25, 1
   9              		.eabi_attribute 26, 1
  10              		.eabi_attribute 30, 4
  11              		.eabi_attribute 34, 0
  12              		.eabi_attribute 18, 4
  13              		.thumb
  14              		.syntax unified
  15              		.file	"der.c"
  16              		.text
  17              	.Ltext0:
  18              		.cfi_sections	.debug_frame
  19              		.section	.text.der_encode_signature,"ax",%progbits
  20              		.align	1
  21              		.global	der_encode_signature
  22              		.code	16
  23              		.thumb_func
  24              		.type	der_encode_signature, %function
  25              	der_encode_signature:
  26              	.LFB0:
  27              		.file 1 "strong-arm\\src\\asn1\\der.c"
   1:strong-arm\src\asn1/der.c **** #include <strong-arm/asn1.h>
   2:strong-arm\src\asn1/der.c **** 
   3:strong-arm\src\asn1/der.c **** 
   4:strong-arm\src\asn1/der.c **** uint32_t der_encode_signature (uint8_t *const dst, uint32_t max_len, FF_NUM const *const r, FF_NUM 
   5:strong-arm\src\asn1/der.c **** {
  28              		.loc 1 5 0
  29              		.cfi_startproc
  30              		@ args = 0, pretend = 0, frame = 0
  31              		@ frame_needed = 0, uses_anonymous_args = 0
  32              	.LVL0:
  33 0000 F8B5     		push	{r3, r4, r5, r6, r7, lr}
  34              		.cfi_def_cfa_offset 24
  35              		.cfi_offset 3, -24
  36              		.cfi_offset 4, -20
  37              		.cfi_offset 5, -16
  38              		.cfi_offset 6, -12
  39              		.cfi_offset 7, -8
  40              		.cfi_offset 14, -4
  41              		.loc 1 5 0
  42 0002 0500     		movs	r5, r0
  43 0004 1F00     		movs	r7, r3
   6:strong-arm\src\asn1/der.c **** 	uint32_t len_r, len_s;
   7:strong-arm\src\asn1/der.c **** 
   8:strong-arm\src\asn1/der.c **** 	if (max_len < 2) return 0;
  44              		.loc 1 8 0
  45 0006 0129     		cmp	r1, #1
  46 0008 01D8     		bhi	.L2
  47              	.LVL1:
  48              	.L4:
  49 000a 0020     		movs	r0, #0
ARM GAS  C:\Users\Ray\AppData\Local\Temp\cc401zJY.s 			page 2


  50 000c 17E0     		b	.L3
  51              	.LVL2:
  52              	.L2:
   9:strong-arm\src\asn1/der.c **** 
  10:strong-arm\src\asn1/der.c **** 	dst[0] = 0x30;     // type: SEQUENCE
  53              		.loc 1 10 0
  54 000e 3023     		movs	r3, #48
  55              	.LVL3:
  56 0010 0370     		strb	r3, [r0]
  11:strong-arm\src\asn1/der.c **** 	dst[1] = 0x00;     // length: unknown
  57              		.loc 1 11 0
  58 0012 0023     		movs	r3, #0
  12:strong-arm\src\asn1/der.c **** 
  13:strong-arm\src\asn1/der.c **** 	if ((len_r = ff_der_serialize (dst + 2, max_len - 2, r)) == 0)
  59              		.loc 1 13 0
  60 0014 8C1E     		subs	r4, r1, #2
  11:strong-arm\src\asn1/der.c **** 	dst[1] = 0x00;     // length: unknown
  61              		.loc 1 11 0
  62 0016 4370     		strb	r3, [r0, #1]
  63              		.loc 1 13 0
  64 0018 2100     		movs	r1, r4
  65              	.LVL4:
  66 001a 0230     		adds	r0, r0, #2
  67              	.LVL5:
  68 001c FFF7FEFF 		bl	ff_der_serialize
  69              	.LVL6:
  70 0020 061E     		subs	r6, r0, #0
  71              	.LVL7:
  72 0022 F2D0     		beq	.L4
  14:strong-arm\src\asn1/der.c **** 		return 0;
  15:strong-arm\src\asn1/der.c **** 
  16:strong-arm\src\asn1/der.c **** 	if ((len_s = ff_der_serialize (dst + 2 + len_r, max_len - 2 - len_r, s)) == 0)
  73              		.loc 1 16 0
  74 0024 211A     		subs	r1, r4, r0
  75 0026 0230     		adds	r0, r0, #2
  76              	.LVL8:
  77 0028 2818     		adds	r0, r5, r0
  78 002a 3A00     		movs	r2, r7
  79 002c FFF7FEFF 		bl	ff_der_serialize
  80              	.LVL9:
  81 0030 0028     		cmp	r0, #0
  82 0032 EAD0     		beq	.L4
  17:strong-arm\src\asn1/der.c **** 		return 0;
  18:strong-arm\src\asn1/der.c **** 
  19:strong-arm\src\asn1/der.c **** 	if ((len_r + len_s) > 127)
  83              		.loc 1 19 0
  84 0034 3018     		adds	r0, r6, r0
  85              	.LVL10:
  86 0036 7F28     		cmp	r0, #127
  87 0038 E7D8     		bhi	.L4
  20:strong-arm\src\asn1/der.c **** 		return 0;    // Function not designed to handle encoding lengths greater than 127
  21:strong-arm\src\asn1/der.c **** 
  22:strong-arm\src\asn1/der.c **** 	dst[1] = len_r + len_s;
  88              		.loc 1 22 0
  89 003a 6870     		strb	r0, [r5, #1]
  23:strong-arm\src\asn1/der.c **** 
  24:strong-arm\src\asn1/der.c **** 	return 2 + len_r + len_s;
ARM GAS  C:\Users\Ray\AppData\Local\Temp\cc401zJY.s 			page 3


  90              		.loc 1 24 0
  91 003c 0230     		adds	r0, r0, #2
  92              	.LVL11:
  93              	.L3:
  25:strong-arm\src\asn1/der.c **** }
  94              		.loc 1 25 0
  95              		@ sp needed
  96              	.LVL12:
  97              	.LVL13:
  98 003e F8BD     		pop	{r3, r4, r5, r6, r7, pc}
  99              		.cfi_endproc
 100              	.LFE0:
 101              		.size	der_encode_signature, .-der_encode_signature
 102              		.text
 103              	.Letext0:
 104              		.file 2 "c:\\program files (x86)\\cypress\\psoc creator\\4.1\\psoc creator\\import\\gnu\\arm\\5.4.
 105              		.file 3 "c:\\program files (x86)\\cypress\\psoc creator\\4.1\\psoc creator\\import\\gnu\\arm\\5.4.
 106              		.file 4 ".\\strong-arm\\include/strong-arm/finite_field.h"