ARM GAS  C:\Users\Ray\AppData\Local\Temp\cc6b3PVr.s 			page 1


   1              		.syntax unified
   2              		.cpu cortex-m0
   3              		.fpu softvfp
   4              		.eabi_attribute 20, 1
   5              		.eabi_attribute 21, 1
   6              		.eabi_attribute 23, 3
   7              		.eabi_attribute 24, 1
   8              		.eabi_attribute 25, 1
   9              		.eabi_attribute 26, 1
  10              		.eabi_attribute 30, 4
  11              		.eabi_attribute 34, 0
  12              		.eabi_attribute 18, 4
  13              		.thumb
  14              		.syntax unified
  15              		.file	"ecdsa.c"
  16              		.text
  17              	.Ltext0:
  18              		.cfi_sections	.debug_frame
  19              		.section	.text.ec_double,"ax",%progbits
  20              		.align	1
  21              		.global	ec_double
  22              		.code	16
  23              		.thumb_func
  24              		.type	ec_double, %function
  25              	ec_double:
  26              	.LFB1:
  27              		.file 1 "strong-arm\\src\\ecdsa\\ecdsa.c"
   1:strong-arm\src\ecdsa/ecdsa.c **** #include <strong-arm/ecdsa.h>
   2:strong-arm\src\ecdsa/ecdsa.c **** 
   3:strong-arm\src\ecdsa/ecdsa.c **** 
   4:strong-arm\src\ecdsa/ecdsa.c **** const EC_POINT ec_G = {
   5:strong-arm\src\ecdsa/ecdsa.c **** 	{{0x16F81798, 0x59F2815B, 0x2DCE28D9, 0x029BFCDB, 0xCE870B07, 0x55A06295, 0xF9DCBBAC, 0x79BE667E}}
   6:strong-arm\src\ecdsa/ecdsa.c **** 	{{0XFB10D4B8, 0X9C47D08F, 0XA6855419, 0XFD17B448, 0X0E1108A8, 0X5DA4FBFC, 0X26A3C465, 0X483ADA77}}
   7:strong-arm\src\ecdsa/ecdsa.c **** };
   8:strong-arm\src\ecdsa/ecdsa.c **** 
   9:strong-arm\src\ecdsa/ecdsa.c **** const FF_NUM ec_n = {{0xD0364141, 0xBFD25E8C, 0xAF48A03B, 0xBAAEDCE6, 0xFFFFFFFE, 0xFFFFFFFF, 0xFFF
  10:strong-arm\src\ecdsa/ecdsa.c **** 
  11:strong-arm\src\ecdsa/ecdsa.c **** const FF_NUM ec_p = {{0xFFFFFC2F, 0xFFFFFFFE, 0xFFFFFFFF, 0xFFFFFFFF, 0xFFFFFFFF, 0xFFFFFFFF, 0xFFF
  12:strong-arm\src\ecdsa/ecdsa.c **** 
  13:strong-arm\src\ecdsa/ecdsa.c **** const FF_NUM ec_b = {{0x00000007, 0x00000000, 0x00000000, 0x00000000, 0x00000000, 0x00000000, 0x000
  14:strong-arm\src\ecdsa/ecdsa.c **** 
  15:strong-arm\src\ecdsa/ecdsa.c **** 
  16:strong-arm\src\ecdsa/ecdsa.c **** 
  17:strong-arm\src\ecdsa/ecdsa.c **** 
  18:strong-arm\src\ecdsa/ecdsa.c **** void ec_add (EC_POINT *const out, EC_POINT const *const A, EC_POINT const *const B)
  19:strong-arm\src\ecdsa/ecdsa.c **** {
  20:strong-arm\src\ecdsa/ecdsa.c **** 	FF_NUM slope, tmp, tmp1;
  21:strong-arm\src\ecdsa/ecdsa.c **** 	FF_NUM x3, y3;
  22:strong-arm\src\ecdsa/ecdsa.c **** 	
  23:strong-arm\src\ecdsa/ecdsa.c **** 	if ((ff_is_zero (&(A->x))) && (ff_is_zero (&(A->y))))
  24:strong-arm\src\ecdsa/ecdsa.c **** 	{
  25:strong-arm\src\ecdsa/ecdsa.c **** 		ff_copy (&(out->x), &(B->x));
  26:strong-arm\src\ecdsa/ecdsa.c **** 		ff_copy (&(out->y), &(B->y));
  27:strong-arm\src\ecdsa/ecdsa.c **** 		return;
  28:strong-arm\src\ecdsa/ecdsa.c **** 	}
  29:strong-arm\src\ecdsa/ecdsa.c **** 	
  30:strong-arm\src\ecdsa/ecdsa.c **** 	if ((ff_is_zero (&(B->x))) && (ff_is_zero (&(B->y))))
ARM GAS  C:\Users\Ray\AppData\Local\Temp\cc6b3PVr.s 			page 2


  31:strong-arm\src\ecdsa/ecdsa.c **** 	{
  32:strong-arm\src\ecdsa/ecdsa.c **** 		ff_copy (&(out->x), &(A->x));
  33:strong-arm\src\ecdsa/ecdsa.c **** 		ff_copy (&(out->y), &(A->y));
  34:strong-arm\src\ecdsa/ecdsa.c **** 		return;
  35:strong-arm\src\ecdsa/ecdsa.c **** 	}
  36:strong-arm\src\ecdsa/ecdsa.c **** 
  37:strong-arm\src\ecdsa/ecdsa.c **** 	if (ff_compare (&(A->x), &(B->x)) == 0)
  38:strong-arm\src\ecdsa/ecdsa.c **** 	{
  39:strong-arm\src\ecdsa/ecdsa.c **** 		ff_add (&tmp, &(A->y), &(B->y), &ec_p);
  40:strong-arm\src\ecdsa/ecdsa.c **** 
  41:strong-arm\src\ecdsa/ecdsa.c **** 		if (ff_is_zero (&tmp))
  42:strong-arm\src\ecdsa/ecdsa.c **** 		{
  43:strong-arm\src\ecdsa/ecdsa.c **** 			// Infinity
  44:strong-arm\src\ecdsa/ecdsa.c **** 			ff_zero (&(out->x));
  45:strong-arm\src\ecdsa/ecdsa.c **** 			ff_zero (&(out->y));
  46:strong-arm\src\ecdsa/ecdsa.c **** 			return;
  47:strong-arm\src\ecdsa/ecdsa.c **** 		}
  48:strong-arm\src\ecdsa/ecdsa.c **** 		else
  49:strong-arm\src\ecdsa/ecdsa.c **** 		{
  50:strong-arm\src\ecdsa/ecdsa.c **** 			ec_double (out, out);
  51:strong-arm\src\ecdsa/ecdsa.c **** 			return;
  52:strong-arm\src\ecdsa/ecdsa.c **** 		}
  53:strong-arm\src\ecdsa/ecdsa.c **** 	}
  54:strong-arm\src\ecdsa/ecdsa.c **** 
  55:strong-arm\src\ecdsa/ecdsa.c **** 	// Slope
  56:strong-arm\src\ecdsa/ecdsa.c **** 	ff_sub (&tmp, &(B->y), &(A->y), &ec_p);
  57:strong-arm\src\ecdsa/ecdsa.c **** 	ff_sub (&tmp1, &(B->x), &(A->x), &ec_p);
  58:strong-arm\src\ecdsa/ecdsa.c **** 	ff_inv (&tmp1, &tmp1, &ec_p);
  59:strong-arm\src\ecdsa/ecdsa.c **** 	ff_mul (&slope, &tmp, &tmp1, &ec_p);		// slope = (y2 - y1) / (x2 - x1)
  60:strong-arm\src\ecdsa/ecdsa.c **** 
  61:strong-arm\src\ecdsa/ecdsa.c **** 	// x
  62:strong-arm\src\ecdsa/ecdsa.c **** 	ff_mul (&tmp, &slope, &slope, &ec_p);
  63:strong-arm\src\ecdsa/ecdsa.c **** 	ff_sub (&x3, &tmp, &(A->x), &ec_p);
  64:strong-arm\src\ecdsa/ecdsa.c **** 	ff_sub (&x3, &x3, &(B->x), &ec_p);	// out.x = slope^2 - x1 - x2
  65:strong-arm\src\ecdsa/ecdsa.c **** 
  66:strong-arm\src\ecdsa/ecdsa.c **** 	// y
  67:strong-arm\src\ecdsa/ecdsa.c **** 	ff_sub (&tmp, &(A->x), &x3, &ec_p);
  68:strong-arm\src\ecdsa/ecdsa.c **** 	ff_mul (&tmp, &slope, &tmp, &ec_p);
  69:strong-arm\src\ecdsa/ecdsa.c **** 	ff_sub (&y3, &tmp, &(A->y), &ec_p);	// out.y = slope * (x1 - out.x) - y1
  70:strong-arm\src\ecdsa/ecdsa.c **** 
  71:strong-arm\src\ecdsa/ecdsa.c **** 	ff_copy (&(out->x), &x3);
  72:strong-arm\src\ecdsa/ecdsa.c **** 	ff_copy (&(out->y), &y3);
  73:strong-arm\src\ecdsa/ecdsa.c **** }
  74:strong-arm\src\ecdsa/ecdsa.c **** 
  75:strong-arm\src\ecdsa/ecdsa.c **** 
  76:strong-arm\src\ecdsa/ecdsa.c **** void ec_double (EC_POINT *const out, EC_POINT const *const P)
  77:strong-arm\src\ecdsa/ecdsa.c **** {
  28              		.loc 1 77 0
  29              		.cfi_startproc
  30              		@ args = 0, pretend = 0, frame = 160
  31              		@ frame_needed = 0, uses_anonymous_args = 0
  32              	.LVL0:
  33 0000 F0B5     		push	{r4, r5, r6, r7, lr}
  34              		.cfi_def_cfa_offset 20
  35              		.cfi_offset 4, -20
  36              		.cfi_offset 5, -16
  37              		.cfi_offset 6, -12
ARM GAS  C:\Users\Ray\AppData\Local\Temp\cc6b3PVr.s 			page 3


  38              		.cfi_offset 7, -8
  39              		.cfi_offset 14, -4
  40 0002 0500     		movs	r5, r0
  41 0004 A9B0     		sub	sp, sp, #164
  42              		.cfi_def_cfa_offset 184
  78:strong-arm\src\ecdsa/ecdsa.c **** 	FF_NUM slope, tmp, tmp1;
  79:strong-arm\src\ecdsa/ecdsa.c **** 	FF_NUM x3, y3;
  80:strong-arm\src\ecdsa/ecdsa.c **** 
  81:strong-arm\src\ecdsa/ecdsa.c **** 	if ((ff_is_zero (&(P->x))) && (ff_is_zero (&(P->y))))
  43              		.loc 1 81 0
  44 0006 0800     		movs	r0, r1
  45              	.LVL1:
  77:strong-arm\src\ecdsa/ecdsa.c **** 	FF_NUM slope, tmp, tmp1;
  46              		.loc 1 77 0
  47 0008 0F00     		movs	r7, r1
  48              		.loc 1 81 0
  49 000a FFF7FEFF 		bl	ff_is_zero
  50              	.LVL2:
  51 000e 0028     		cmp	r0, #0
  52 0010 0DD0     		beq	.L2
  53              		.loc 1 81 0 is_stmt 0 discriminator 1
  54 0012 3800     		movs	r0, r7
  55 0014 2030     		adds	r0, r0, #32
  56 0016 FFF7FEFF 		bl	ff_is_zero
  57              	.LVL3:
  58 001a 0028     		cmp	r0, #0
  59 001c 07D0     		beq	.L2
  82:strong-arm\src\ecdsa/ecdsa.c **** 	{
  83:strong-arm\src\ecdsa/ecdsa.c **** 		ff_zero (&(out->x));
  60              		.loc 1 83 0 is_stmt 1
  61 001e 2800     		movs	r0, r5
  62 0020 FFF7FEFF 		bl	ff_zero
  63              	.LVL4:
  84:strong-arm\src\ecdsa/ecdsa.c **** 		ff_zero (&(out->y));
  64              		.loc 1 84 0
  65 0024 2800     		movs	r0, r5
  66 0026 2030     		adds	r0, r0, #32
  67 0028 FFF7FEFF 		bl	ff_zero
  68              	.LVL5:
  69 002c 52E0     		b	.L1
  70              	.L2:
  85:strong-arm\src\ecdsa/ecdsa.c **** 		return;
  86:strong-arm\src\ecdsa/ecdsa.c **** 	}
  87:strong-arm\src\ecdsa/ecdsa.c **** 
  88:strong-arm\src\ecdsa/ecdsa.c **** 	ff_mul (&tmp, &(P->x), &(P->x), &ec_p);	// tmp = x^2
  89:strong-arm\src\ecdsa/ecdsa.c **** 	ff_add (&tmp1, &tmp, &tmp, &ec_p);	// tmp1 = 2 * x^2
  90:strong-arm\src\ecdsa/ecdsa.c **** 	ff_add (&tmp, &tmp1, &tmp, &ec_p);	// tmp = 3 * x^2
  91:strong-arm\src\ecdsa/ecdsa.c **** 	//ff_add (&tmp, &tmp, a);		// tmp = 3x^2 + a	// a == 0 for our curve
  92:strong-arm\src\ecdsa/ecdsa.c **** 	ff_add (&tmp1, &(P->y), &(P->y), &ec_p);	// tmp1 = 2 * y
  71              		.loc 1 92 0
  72 002e 3E00     		movs	r6, r7
  88:strong-arm\src\ecdsa/ecdsa.c **** 	ff_add (&tmp1, &tmp, &tmp, &ec_p);	// tmp1 = 2 * x^2
  73              		.loc 1 88 0
  74 0030 294C     		ldr	r4, .L11
  75 0032 3A00     		movs	r2, r7
  76 0034 2300     		movs	r3, r4
  77 0036 3900     		movs	r1, r7
ARM GAS  C:\Users\Ray\AppData\Local\Temp\cc6b3PVr.s 			page 4


  78 0038 08A8     		add	r0, sp, #32
  79 003a FFF7FEFF 		bl	ff_mul
  80              	.LVL6:
  89:strong-arm\src\ecdsa/ecdsa.c **** 	ff_add (&tmp, &tmp1, &tmp, &ec_p);	// tmp = 3 * x^2
  81              		.loc 1 89 0
  82 003e 08AA     		add	r2, sp, #32
  83 0040 1100     		movs	r1, r2
  84 0042 2300     		movs	r3, r4
  85 0044 10A8     		add	r0, sp, #64
  86 0046 FFF7FEFF 		bl	ff_add
  87              	.LVL7:
  90:strong-arm\src\ecdsa/ecdsa.c **** 	//ff_add (&tmp, &tmp, a);		// tmp = 3x^2 + a	// a == 0 for our curve
  88              		.loc 1 90 0
  89 004a 08AA     		add	r2, sp, #32
  90 004c 1000     		movs	r0, r2
  91              		.loc 1 92 0
  92 004e 2036     		adds	r6, r6, #32
  90:strong-arm\src\ecdsa/ecdsa.c **** 	//ff_add (&tmp, &tmp, a);		// tmp = 3x^2 + a	// a == 0 for our curve
  93              		.loc 1 90 0
  94 0050 2300     		movs	r3, r4
  95 0052 10A9     		add	r1, sp, #64
  96 0054 FFF7FEFF 		bl	ff_add
  97              	.LVL8:
  98              		.loc 1 92 0
  99 0058 2300     		movs	r3, r4
 100 005a 3200     		movs	r2, r6
 101 005c 3100     		movs	r1, r6
 102 005e 10A8     		add	r0, sp, #64
 103 0060 FFF7FEFF 		bl	ff_add
 104              	.LVL9:
  93:strong-arm\src\ecdsa/ecdsa.c **** 	ff_inv (&tmp1, &tmp1, &ec_p);			// tmp1 = 1 / (2y)
 105              		.loc 1 93 0
 106 0064 10A9     		add	r1, sp, #64
 107 0066 0800     		movs	r0, r1
 108 0068 2200     		movs	r2, r4
 109 006a FFF7FEFF 		bl	ff_inv
 110              	.LVL10:
  94:strong-arm\src\ecdsa/ecdsa.c **** 	ff_mul (&slope, &tmp, &tmp1, &ec_p);	// slope = (3x^2 + a) / (2y)
 111              		.loc 1 94 0
 112 006e 2300     		movs	r3, r4
 113 0070 10AA     		add	r2, sp, #64
 114 0072 08A9     		add	r1, sp, #32
 115 0074 6846     		mov	r0, sp
 116 0076 FFF7FEFF 		bl	ff_mul
 117              	.LVL11:
  95:strong-arm\src\ecdsa/ecdsa.c **** 	ff_mul (&tmp, &slope, &slope, &ec_p);	// tmp = slope^2
 118              		.loc 1 95 0
 119 007a 2300     		movs	r3, r4
 120 007c 6A46     		mov	r2, sp
 121 007e 6946     		mov	r1, sp
 122 0080 08A8     		add	r0, sp, #32
 123 0082 FFF7FEFF 		bl	ff_mul
 124              	.LVL12:
  96:strong-arm\src\ecdsa/ecdsa.c **** 	ff_sub (&x3, &tmp, &(P->x), &ec_p);
 125              		.loc 1 96 0
 126 0086 2300     		movs	r3, r4
 127 0088 3A00     		movs	r2, r7
ARM GAS  C:\Users\Ray\AppData\Local\Temp\cc6b3PVr.s 			page 5


 128 008a 08A9     		add	r1, sp, #32
 129 008c 18A8     		add	r0, sp, #96
 130 008e FFF7FEFF 		bl	ff_sub
 131              	.LVL13:
  97:strong-arm\src\ecdsa/ecdsa.c **** 	ff_sub (&x3, &x3, &(P->x), &ec_p);	// x3 = slope^2 - 2x
 132              		.loc 1 97 0
 133 0092 18A9     		add	r1, sp, #96
 134 0094 0800     		movs	r0, r1
 135 0096 2300     		movs	r3, r4
 136 0098 3A00     		movs	r2, r7
 137 009a FFF7FEFF 		bl	ff_sub
 138              	.LVL14:
  98:strong-arm\src\ecdsa/ecdsa.c **** 
  99:strong-arm\src\ecdsa/ecdsa.c **** 	ff_sub (&tmp, &(P->x), &x3, &ec_p);	// tmp = x - x3
 139              		.loc 1 99 0
 140 009e 2300     		movs	r3, r4
 141 00a0 18AA     		add	r2, sp, #96
 142 00a2 3900     		movs	r1, r7
 143 00a4 08A8     		add	r0, sp, #32
 144 00a6 FFF7FEFF 		bl	ff_sub
 145              	.LVL15:
 100:strong-arm\src\ecdsa/ecdsa.c **** 	ff_mul (&y3, &slope, &tmp, &ec_p);
 146              		.loc 1 100 0
 147 00aa 2300     		movs	r3, r4
 148 00ac 08AA     		add	r2, sp, #32
 149 00ae 6946     		mov	r1, sp
 150 00b0 20A8     		add	r0, sp, #128
 151 00b2 FFF7FEFF 		bl	ff_mul
 152              	.LVL16:
 101:strong-arm\src\ecdsa/ecdsa.c **** 	ff_sub (&y3, &y3, &(P->y), &ec_p);	// y3 = slope * (x - x3) - y
 153              		.loc 1 101 0
 154 00b6 20A9     		add	r1, sp, #128
 155 00b8 0800     		movs	r0, r1
 156 00ba 2300     		movs	r3, r4
 157 00bc 3200     		movs	r2, r6
 158 00be FFF7FEFF 		bl	ff_sub
 159              	.LVL17:
 102:strong-arm\src\ecdsa/ecdsa.c **** 
 103:strong-arm\src\ecdsa/ecdsa.c **** 	ff_copy (&(out->x), &x3);
 160              		.loc 1 103 0
 161 00c2 18A9     		add	r1, sp, #96
 162 00c4 2800     		movs	r0, r5
 163 00c6 FFF7FEFF 		bl	ff_copy
 164              	.LVL18:
 104:strong-arm\src\ecdsa/ecdsa.c **** 	ff_copy (&(out->y), &y3);
 165              		.loc 1 104 0
 166 00ca 2800     		movs	r0, r5
 167 00cc 20A9     		add	r1, sp, #128
 168 00ce 2030     		adds	r0, r0, #32
 169 00d0 FFF7FEFF 		bl	ff_copy
 170              	.LVL19:
 171              	.L1:
 105:strong-arm\src\ecdsa/ecdsa.c **** }
 172              		.loc 1 105 0
 173 00d4 29B0     		add	sp, sp, #164
 174              		@ sp needed
 175              	.LVL20:
ARM GAS  C:\Users\Ray\AppData\Local\Temp\cc6b3PVr.s 			page 6


 176              	.LVL21:
 177 00d6 F0BD     		pop	{r4, r5, r6, r7, pc}
 178              	.L12:
 179              		.align	2
 180              	.L11:
 181 00d8 00000000 		.word	.LANCHOR0
 182              		.cfi_endproc
 183              	.LFE1:
 184              		.size	ec_double, .-ec_double
 185              		.section	.text.ec_add,"ax",%progbits
 186              		.align	1
 187              		.global	ec_add
 188              		.code	16
 189              		.thumb_func
 190              		.type	ec_add, %function
 191              	ec_add:
 192              	.LFB0:
  19:strong-arm\src\ecdsa/ecdsa.c **** 	FF_NUM slope, tmp, tmp1;
 193              		.loc 1 19 0
 194              		.cfi_startproc
 195              		@ args = 0, pretend = 0, frame = 168
 196              		@ frame_needed = 0, uses_anonymous_args = 0
 197              	.LVL22:
 198 0000 F0B5     		push	{r4, r5, r6, r7, lr}
 199              		.cfi_def_cfa_offset 20
 200              		.cfi_offset 4, -20
 201              		.cfi_offset 5, -16
 202              		.cfi_offset 6, -12
 203              		.cfi_offset 7, -8
 204              		.cfi_offset 14, -4
 205 0002 0E00     		movs	r6, r1
 206 0004 ABB0     		sub	sp, sp, #172
 207              		.cfi_def_cfa_offset 192
  19:strong-arm\src\ecdsa/ecdsa.c **** 	FF_NUM slope, tmp, tmp1;
 208              		.loc 1 19 0
 209 0006 0400     		movs	r4, r0
  23:strong-arm\src\ecdsa/ecdsa.c **** 	{
 210              		.loc 1 23 0
 211 0008 0800     		movs	r0, r1
 212              	.LVL23:
  19:strong-arm\src\ecdsa/ecdsa.c **** 	FF_NUM slope, tmp, tmp1;
 213              		.loc 1 19 0
 214 000a 1700     		movs	r7, r2
  23:strong-arm\src\ecdsa/ecdsa.c **** 	{
 215              		.loc 1 23 0
 216 000c FFF7FEFF 		bl	ff_is_zero
 217              	.LVL24:
 218 0010 3300     		movs	r3, r6
 219 0012 2033     		adds	r3, r3, #32
 220 0014 0093     		str	r3, [sp]
 221 0016 3B00     		movs	r3, r7
 222 0018 2033     		adds	r3, r3, #32
 223 001a 0193     		str	r3, [sp, #4]
 224 001c 0028     		cmp	r0, #0
 225 001e 0CD0     		beq	.L14
  23:strong-arm\src\ecdsa/ecdsa.c **** 	{
 226              		.loc 1 23 0 is_stmt 0 discriminator 1
ARM GAS  C:\Users\Ray\AppData\Local\Temp\cc6b3PVr.s 			page 7


 227 0020 0098     		ldr	r0, [sp]
 228 0022 FFF7FEFF 		bl	ff_is_zero
 229              	.LVL25:
 230 0026 0028     		cmp	r0, #0
 231 0028 07D0     		beq	.L14
  25:strong-arm\src\ecdsa/ecdsa.c **** 		ff_copy (&(out->y), &(B->y));
 232              		.loc 1 25 0 is_stmt 1
 233 002a 3900     		movs	r1, r7
 234 002c 2000     		movs	r0, r4
 235 002e FFF7FEFF 		bl	ff_copy
 236              	.LVL26:
  26:strong-arm\src\ecdsa/ecdsa.c **** 		return;
 237              		.loc 1 26 0
 238 0032 2000     		movs	r0, r4
 239 0034 0199     		ldr	r1, [sp, #4]
 240 0036 2030     		adds	r0, r0, #32
 241 0038 71E0     		b	.L32
 242              	.L14:
  30:strong-arm\src\ecdsa/ecdsa.c **** 	{
 243              		.loc 1 30 0
 244 003a 3800     		movs	r0, r7
 245 003c FFF7FEFF 		bl	ff_is_zero
 246              	.LVL27:
 247 0040 0028     		cmp	r0, #0
 248 0042 0CD0     		beq	.L16
  30:strong-arm\src\ecdsa/ecdsa.c **** 	{
 249              		.loc 1 30 0 is_stmt 0 discriminator 1
 250 0044 0198     		ldr	r0, [sp, #4]
 251 0046 FFF7FEFF 		bl	ff_is_zero
 252              	.LVL28:
 253 004a 0028     		cmp	r0, #0
 254 004c 07D0     		beq	.L16
  32:strong-arm\src\ecdsa/ecdsa.c **** 		ff_copy (&(out->y), &(A->y));
 255              		.loc 1 32 0 is_stmt 1
 256 004e 3100     		movs	r1, r6
 257 0050 2000     		movs	r0, r4
 258 0052 FFF7FEFF 		bl	ff_copy
 259              	.LVL29:
  33:strong-arm\src\ecdsa/ecdsa.c **** 		return;
 260              		.loc 1 33 0
 261 0056 2000     		movs	r0, r4
 262 0058 0099     		ldr	r1, [sp]
 263 005a 2030     		adds	r0, r0, #32
 264 005c 5FE0     		b	.L32
 265              	.L16:
  37:strong-arm\src\ecdsa/ecdsa.c **** 	{
 266              		.loc 1 37 0
 267 005e 3900     		movs	r1, r7
 268 0060 3000     		movs	r0, r6
 269 0062 FFF7FEFF 		bl	ff_compare
 270              	.LVL30:
 271 0066 304D     		ldr	r5, .L33
  39:strong-arm\src\ecdsa/ecdsa.c **** 
 272              		.loc 1 39 0
 273 0068 2B00     		movs	r3, r5
  37:strong-arm\src\ecdsa/ecdsa.c **** 	{
 274              		.loc 1 37 0
ARM GAS  C:\Users\Ray\AppData\Local\Temp\cc6b3PVr.s 			page 8


 275 006a 0028     		cmp	r0, #0
 276 006c 16D1     		bne	.L17
  39:strong-arm\src\ecdsa/ecdsa.c **** 
 277              		.loc 1 39 0
 278 006e 0AA8     		add	r0, sp, #40
 279 0070 019A     		ldr	r2, [sp, #4]
 280 0072 0099     		ldr	r1, [sp]
 281 0074 FFF7FEFF 		bl	ff_add
 282              	.LVL31:
  41:strong-arm\src\ecdsa/ecdsa.c **** 		{
 283              		.loc 1 41 0
 284 0078 0AA8     		add	r0, sp, #40
 285 007a FFF7FEFF 		bl	ff_is_zero
 286              	.LVL32:
 287 007e 0028     		cmp	r0, #0
 288 0080 07D0     		beq	.L18
  44:strong-arm\src\ecdsa/ecdsa.c **** 			ff_zero (&(out->y));
 289              		.loc 1 44 0
 290 0082 2000     		movs	r0, r4
 291 0084 FFF7FEFF 		bl	ff_zero
 292              	.LVL33:
  45:strong-arm\src\ecdsa/ecdsa.c **** 			return;
 293              		.loc 1 45 0
 294 0088 2000     		movs	r0, r4
 295 008a 2030     		adds	r0, r0, #32
 296 008c FFF7FEFF 		bl	ff_zero
 297              	.LVL34:
  46:strong-arm\src\ecdsa/ecdsa.c **** 		}
 298              		.loc 1 46 0
 299 0090 47E0     		b	.L13
 300              	.L18:
  50:strong-arm\src\ecdsa/ecdsa.c **** 			return;
 301              		.loc 1 50 0
 302 0092 2100     		movs	r1, r4
 303 0094 2000     		movs	r0, r4
 304 0096 FFF7FEFF 		bl	ec_double
 305              	.LVL35:
  51:strong-arm\src\ecdsa/ecdsa.c **** 		}
 306              		.loc 1 51 0
 307 009a 42E0     		b	.L13
 308              	.L17:
  56:strong-arm\src\ecdsa/ecdsa.c **** 	ff_sub (&tmp1, &(B->x), &(A->x), &ec_p);
 309              		.loc 1 56 0
 310 009c 009A     		ldr	r2, [sp]
 311 009e 0199     		ldr	r1, [sp, #4]
 312 00a0 0AA8     		add	r0, sp, #40
 313 00a2 FFF7FEFF 		bl	ff_sub
 314              	.LVL36:
  57:strong-arm\src\ecdsa/ecdsa.c **** 	ff_inv (&tmp1, &tmp1, &ec_p);
 315              		.loc 1 57 0
 316 00a6 2B00     		movs	r3, r5
 317 00a8 3200     		movs	r2, r6
 318 00aa 3900     		movs	r1, r7
 319 00ac 12A8     		add	r0, sp, #72
 320 00ae FFF7FEFF 		bl	ff_sub
 321              	.LVL37:
  58:strong-arm\src\ecdsa/ecdsa.c **** 	ff_mul (&slope, &tmp, &tmp1, &ec_p);		// slope = (y2 - y1) / (x2 - x1)
ARM GAS  C:\Users\Ray\AppData\Local\Temp\cc6b3PVr.s 			page 9


 322              		.loc 1 58 0
 323 00b2 12A9     		add	r1, sp, #72
 324 00b4 0800     		movs	r0, r1
 325 00b6 2A00     		movs	r2, r5
 326 00b8 FFF7FEFF 		bl	ff_inv
 327              	.LVL38:
  59:strong-arm\src\ecdsa/ecdsa.c **** 
 328              		.loc 1 59 0
 329 00bc 2B00     		movs	r3, r5
 330 00be 12AA     		add	r2, sp, #72
 331 00c0 0AA9     		add	r1, sp, #40
 332 00c2 02A8     		add	r0, sp, #8
 333 00c4 FFF7FEFF 		bl	ff_mul
 334              	.LVL39:
  62:strong-arm\src\ecdsa/ecdsa.c **** 	ff_sub (&x3, &tmp, &(A->x), &ec_p);
 335              		.loc 1 62 0
 336 00c8 02AA     		add	r2, sp, #8
 337 00ca 1100     		movs	r1, r2
 338 00cc 2B00     		movs	r3, r5
 339 00ce 0AA8     		add	r0, sp, #40
 340 00d0 FFF7FEFF 		bl	ff_mul
 341              	.LVL40:
  63:strong-arm\src\ecdsa/ecdsa.c **** 	ff_sub (&x3, &x3, &(B->x), &ec_p);	// out.x = slope^2 - x1 - x2
 342              		.loc 1 63 0
 343 00d4 2B00     		movs	r3, r5
 344 00d6 3200     		movs	r2, r6
 345 00d8 0AA9     		add	r1, sp, #40
 346 00da 1AA8     		add	r0, sp, #104
 347 00dc FFF7FEFF 		bl	ff_sub
 348              	.LVL41:
  64:strong-arm\src\ecdsa/ecdsa.c **** 
 349              		.loc 1 64 0
 350 00e0 1AA9     		add	r1, sp, #104
 351 00e2 0800     		movs	r0, r1
 352 00e4 2B00     		movs	r3, r5
 353 00e6 3A00     		movs	r2, r7
 354 00e8 FFF7FEFF 		bl	ff_sub
 355              	.LVL42:
  67:strong-arm\src\ecdsa/ecdsa.c **** 	ff_mul (&tmp, &slope, &tmp, &ec_p);
 356              		.loc 1 67 0
 357 00ec 2B00     		movs	r3, r5
 358 00ee 1AAA     		add	r2, sp, #104
 359 00f0 3100     		movs	r1, r6
 360 00f2 0AA8     		add	r0, sp, #40
 361 00f4 FFF7FEFF 		bl	ff_sub
 362              	.LVL43:
  68:strong-arm\src\ecdsa/ecdsa.c **** 	ff_sub (&y3, &tmp, &(A->y), &ec_p);	// out.y = slope * (x1 - out.x) - y1
 363              		.loc 1 68 0
 364 00f8 0AAA     		add	r2, sp, #40
 365 00fa 1000     		movs	r0, r2
 366 00fc 2B00     		movs	r3, r5
 367 00fe 02A9     		add	r1, sp, #8
 368 0100 FFF7FEFF 		bl	ff_mul
 369              	.LVL44:
  69:strong-arm\src\ecdsa/ecdsa.c **** 
 370              		.loc 1 69 0
 371 0104 2B00     		movs	r3, r5
ARM GAS  C:\Users\Ray\AppData\Local\Temp\cc6b3PVr.s 			page 10


 372 0106 009A     		ldr	r2, [sp]
 373 0108 0AA9     		add	r1, sp, #40
 374 010a 22A8     		add	r0, sp, #136
 375 010c FFF7FEFF 		bl	ff_sub
 376              	.LVL45:
  71:strong-arm\src\ecdsa/ecdsa.c **** 	ff_copy (&(out->y), &y3);
 377              		.loc 1 71 0
 378 0110 1AA9     		add	r1, sp, #104
 379 0112 2000     		movs	r0, r4
 380 0114 FFF7FEFF 		bl	ff_copy
 381              	.LVL46:
  72:strong-arm\src\ecdsa/ecdsa.c **** }
 382              		.loc 1 72 0
 383 0118 2000     		movs	r0, r4
 384 011a 22A9     		add	r1, sp, #136
 385 011c 2030     		adds	r0, r0, #32
 386              	.L32:
 387 011e FFF7FEFF 		bl	ff_copy
 388              	.LVL47:
 389              	.L13:
  73:strong-arm\src\ecdsa/ecdsa.c **** 
 390              		.loc 1 73 0
 391 0122 2BB0     		add	sp, sp, #172
 392              		@ sp needed
 393              	.LVL48:
 394              	.LVL49:
 395              	.LVL50:
 396 0124 F0BD     		pop	{r4, r5, r6, r7, pc}
 397              	.L34:
 398 0126 C046     		.align	2
 399              	.L33:
 400 0128 00000000 		.word	.LANCHOR0
 401              		.cfi_endproc
 402              	.LFE0:
 403              		.size	ec_add, .-ec_add
 404              		.section	.text.ec_mul,"ax",%progbits
 405              		.align	1
 406              		.global	ec_mul
 407              		.code	16
 408              		.thumb_func
 409              		.type	ec_mul, %function
 410              	ec_mul:
 411              	.LFB2:
 106:strong-arm\src\ecdsa/ecdsa.c **** 
 107:strong-arm\src\ecdsa/ecdsa.c **** 
 108:strong-arm\src\ecdsa/ecdsa.c **** void ec_mul (EC_POINT *const out, FF_NUM const *const k, EC_POINT const *const P)
 109:strong-arm\src\ecdsa/ecdsa.c **** {
 412              		.loc 1 109 0
 413              		.cfi_startproc
 414              		@ args = 0, pretend = 0, frame = 64
 415              		@ frame_needed = 0, uses_anonymous_args = 0
 416              	.LVL51:
 417 0000 F0B5     		push	{r4, r5, r6, r7, lr}
 418              		.cfi_def_cfa_offset 20
 419              		.cfi_offset 4, -20
 420              		.cfi_offset 5, -16
 421              		.cfi_offset 6, -12
ARM GAS  C:\Users\Ray\AppData\Local\Temp\cc6b3PVr.s 			page 11


 422              		.cfi_offset 7, -8
 423              		.cfi_offset 14, -4
 424 0002 91B0     		sub	sp, sp, #68
 425              		.cfi_def_cfa_offset 88
 426              		.loc 1 109 0
 427 0004 0500     		movs	r5, r0
 110:strong-arm\src\ecdsa/ecdsa.c **** 	EC_POINT Q;
 111:strong-arm\src\ecdsa/ecdsa.c **** 
 112:strong-arm\src\ecdsa/ecdsa.c **** 	ff_zero (&(Q.x));
 428              		.loc 1 112 0
 429 0006 6846     		mov	r0, sp
 430              	.LVL52:
 109:strong-arm\src\ecdsa/ecdsa.c **** 	EC_POINT Q;
 431              		.loc 1 109 0
 432 0008 0E00     		movs	r6, r1
 433 000a 1700     		movs	r7, r2
 434              		.loc 1 112 0
 435 000c FFF7FEFF 		bl	ff_zero
 436              	.LVL53:
 113:strong-arm\src\ecdsa/ecdsa.c **** 	ff_zero (&(Q.y));
 437              		.loc 1 113 0
 438 0010 08A8     		add	r0, sp, #32
 439 0012 FFF7FEFF 		bl	ff_zero
 440              	.LVL54:
 441              	.LBB2:
 114:strong-arm\src\ecdsa/ecdsa.c **** 
 115:strong-arm\src\ecdsa/ecdsa.c **** 	for (uint32_t i = 255; true; --i)
 442              		.loc 1 115 0
 443 0016 FF24     		movs	r4, #255
 444              	.LVL55:
 445              	.L38:
 116:strong-arm\src\ecdsa/ecdsa.c **** 	{
 117:strong-arm\src\ecdsa/ecdsa.c **** 		ec_double (&Q, &Q);
 446              		.loc 1 117 0
 447 0018 6946     		mov	r1, sp
 448 001a 6846     		mov	r0, sp
 449 001c FFF7FEFF 		bl	ec_double
 450              	.LVL56:
 118:strong-arm\src\ecdsa/ecdsa.c **** 
 119:strong-arm\src\ecdsa/ecdsa.c **** 		if ((k->z[i>>5] >> (i&31)) & 1)
 451              		.loc 1 119 0
 452 0020 1F22     		movs	r2, #31
 453 0022 6309     		lsrs	r3, r4, #5
 454 0024 9B00     		lsls	r3, r3, #2
 455 0026 9B59     		ldr	r3, [r3, r6]
 456 0028 2240     		ands	r2, r4
 457 002a D340     		lsrs	r3, r3, r2
 458 002c 0122     		movs	r2, #1
 459 002e 1342     		tst	r3, r2
 460 0030 04D0     		beq	.L36
 120:strong-arm\src\ecdsa/ecdsa.c **** 			ec_add (&Q, &Q, P);
 461              		.loc 1 120 0
 462 0032 3A00     		movs	r2, r7
 463 0034 6946     		mov	r1, sp
 464 0036 6846     		mov	r0, sp
 465 0038 FFF7FEFF 		bl	ec_add
 466              	.LVL57:
ARM GAS  C:\Users\Ray\AppData\Local\Temp\cc6b3PVr.s 			page 12


 467              	.L36:
 121:strong-arm\src\ecdsa/ecdsa.c **** 		
 122:strong-arm\src\ecdsa/ecdsa.c **** 		if (i == 0)
 468              		.loc 1 122 0
 469 003c 002C     		cmp	r4, #0
 470 003e 01D0     		beq	.L37
 115:strong-arm\src\ecdsa/ecdsa.c **** 	{
 471              		.loc 1 115 0
 472 0040 013C     		subs	r4, r4, #1
 473              	.LVL58:
 123:strong-arm\src\ecdsa/ecdsa.c **** 			break;
 124:strong-arm\src\ecdsa/ecdsa.c **** 	}
 474              		.loc 1 124 0
 475 0042 E9E7     		b	.L38
 476              	.L37:
 477              	.LBE2:
 125:strong-arm\src\ecdsa/ecdsa.c **** 	
 126:strong-arm\src\ecdsa/ecdsa.c **** 	ff_copy (&(out->x), &(Q.x));
 478              		.loc 1 126 0
 479 0044 6946     		mov	r1, sp
 480 0046 2800     		movs	r0, r5
 481 0048 FFF7FEFF 		bl	ff_copy
 482              	.LVL59:
 127:strong-arm\src\ecdsa/ecdsa.c **** 	ff_copy (&(out->y), &(Q.y));
 483              		.loc 1 127 0
 484 004c 2800     		movs	r0, r5
 485 004e 08A9     		add	r1, sp, #32
 486 0050 2030     		adds	r0, r0, #32
 487 0052 FFF7FEFF 		bl	ff_copy
 488              	.LVL60:
 128:strong-arm\src\ecdsa/ecdsa.c **** }
 489              		.loc 1 128 0
 490 0056 11B0     		add	sp, sp, #68
 491              		@ sp needed
 492              	.LVL61:
 493              	.LVL62:
 494              	.LVL63:
 495              	.LVL64:
 496 0058 F0BD     		pop	{r4, r5, r6, r7, pc}
 497              		.cfi_endproc
 498              	.LFE2:
 499              		.size	ec_mul, .-ec_mul
 500              		.section	.text.ec_create_key,"ax",%progbits
 501              		.align	1
 502              		.global	ec_create_key
 503              		.code	16
 504              		.thumb_func
 505              		.type	ec_create_key, %function
 506              	ec_create_key:
 507              	.LFB3:
 129:strong-arm\src\ecdsa/ecdsa.c **** 
 130:strong-arm\src\ecdsa/ecdsa.c **** 
 131:strong-arm\src\ecdsa/ecdsa.c **** void ec_create_key (FF_NUM *const ret_privkey, EC_POINT *const ret_pubkey)
 132:strong-arm\src\ecdsa/ecdsa.c **** {
 508              		.loc 1 132 0
 509              		.cfi_startproc
 510              		@ args = 0, pretend = 0, frame = 0
ARM GAS  C:\Users\Ray\AppData\Local\Temp\cc6b3PVr.s 			page 13


 511              		@ frame_needed = 0, uses_anonymous_args = 0
 512              	.LVL65:
 513 0000 70B5     		push	{r4, r5, r6, lr}
 514              		.cfi_def_cfa_offset 16
 515              		.cfi_offset 4, -16
 516              		.cfi_offset 5, -12
 517              		.cfi_offset 6, -8
 518              		.cfi_offset 14, -4
 133:strong-arm\src\ecdsa/ecdsa.c **** 	ff_rand (ret_privkey, &ec_n);
 519              		.loc 1 133 0
 520 0002 074C     		ldr	r4, .L43
 132:strong-arm\src\ecdsa/ecdsa.c **** 	ff_rand (ret_privkey, &ec_n);
 521              		.loc 1 132 0
 522 0004 0E00     		movs	r6, r1
 523              		.loc 1 133 0
 524 0006 2100     		movs	r1, r4
 525              	.LVL66:
 526 0008 2031     		adds	r1, r1, #32
 132:strong-arm\src\ecdsa/ecdsa.c **** 	ff_rand (ret_privkey, &ec_n);
 527              		.loc 1 132 0
 528 000a 0500     		movs	r5, r0
 529              		.loc 1 133 0
 530 000c FFF7FEFF 		bl	ff_rand
 531              	.LVL67:
 134:strong-arm\src\ecdsa/ecdsa.c **** 	ec_mul (ret_pubkey, ret_privkey, &ec_G);
 532              		.loc 1 134 0
 533 0010 2200     		movs	r2, r4
 534 0012 2900     		movs	r1, r5
 535 0014 3000     		movs	r0, r6
 536 0016 4032     		adds	r2, r2, #64
 537 0018 FFF7FEFF 		bl	ec_mul
 538              	.LVL68:
 135:strong-arm\src\ecdsa/ecdsa.c **** }
 539              		.loc 1 135 0
 540              		@ sp needed
 541              	.LVL69:
 542              	.LVL70:
 543 001c 70BD     		pop	{r4, r5, r6, pc}
 544              	.L44:
 545 001e C046     		.align	2
 546              	.L43:
 547 0020 00000000 		.word	.LANCHOR0
 548              		.cfi_endproc
 549              	.LFE3:
 550              		.size	ec_create_key, .-ec_create_key
 551              		.section	.text.ec_sign,"ax",%progbits
 552              		.align	1
 553              		.global	ec_sign
 554              		.code	16
 555              		.thumb_func
 556              		.type	ec_sign, %function
 557              	ec_sign:
 558              	.LFB4:
 136:strong-arm\src\ecdsa/ecdsa.c **** 
 137:strong-arm\src\ecdsa/ecdsa.c **** 
 138:strong-arm\src\ecdsa/ecdsa.c **** // Sign z, the 256-bit HASH of a message m, with d, the private key.
 139:strong-arm\src\ecdsa/ecdsa.c **** // Returns a pair (r,s), which is the signature.
ARM GAS  C:\Users\Ray\AppData\Local\Temp\cc6b3PVr.s 			page 14


 140:strong-arm\src\ecdsa/ecdsa.c **** bool ec_sign (FF_NUM *const out_r, FF_NUM *const out_s, FF_NUM const *const z, FF_NUM const *const 
 141:strong-arm\src\ecdsa/ecdsa.c **** {
 559              		.loc 1 141 0
 560              		.cfi_startproc
 561              		@ args = 0, pretend = 0, frame = 168
 562              		@ frame_needed = 0, uses_anonymous_args = 0
 563              	.LVL71:
 564 0000 F0B5     		push	{r4, r5, r6, r7, lr}
 565              		.cfi_def_cfa_offset 20
 566              		.cfi_offset 4, -20
 567              		.cfi_offset 5, -16
 568              		.cfi_offset 6, -12
 569              		.cfi_offset 7, -8
 570              		.cfi_offset 14, -4
 571 0002 0700     		movs	r7, r0
 572 0004 ABB0     		sub	sp, sp, #172
 573              		.cfi_def_cfa_offset 192
 142:strong-arm\src\ecdsa/ecdsa.c **** 	FF_NUM k, r, s;
 143:strong-arm\src\ecdsa/ecdsa.c **** 	EC_POINT kG;
 144:strong-arm\src\ecdsa/ecdsa.c **** 
 145:strong-arm\src\ecdsa/ecdsa.c **** 	// Private key must be within range [1, n - 1]
 146:strong-arm\src\ecdsa/ecdsa.c **** 	if ((ff_is_zero (d)) || (ff_compare (d, &ec_n) >= 0))
 574              		.loc 1 146 0
 575 0006 1800     		movs	r0, r3
 576              	.LVL72:
 141:strong-arm\src\ecdsa/ecdsa.c **** 	FF_NUM k, r, s;
 577              		.loc 1 141 0
 578 0008 0091     		str	r1, [sp]
 579 000a 0192     		str	r2, [sp, #4]
 580 000c 1E00     		movs	r6, r3
 581              		.loc 1 146 0
 582 000e FFF7FEFF 		bl	ff_is_zero
 583              	.LVL73:
 584 0012 0028     		cmp	r0, #0
 585 0014 01D0     		beq	.L46
 586              	.L48:
 147:strong-arm\src\ecdsa/ecdsa.c **** 		return false;
 587              		.loc 1 147 0
 588 0016 0020     		movs	r0, #0
 589 0018 46E0     		b	.L47
 590              	.L46:
 146:strong-arm\src\ecdsa/ecdsa.c **** 		return false;
 591              		.loc 1 146 0 discriminator 1
 592 001a 2449     		ldr	r1, .L51
 593 001c 3000     		movs	r0, r6
 594 001e 2031     		adds	r1, r1, #32
 595 0020 FFF7FEFF 		bl	ff_compare
 596              	.LVL74:
 597 0024 0028     		cmp	r0, #0
 598 0026 F6DA     		bge	.L48
 599              	.L49:
 148:strong-arm\src\ecdsa/ecdsa.c **** 	
 149:strong-arm\src\ecdsa/ecdsa.c **** 	while (1)
 150:strong-arm\src\ecdsa/ecdsa.c **** 	{
 151:strong-arm\src\ecdsa/ecdsa.c **** 		ff_rand (&k, &ec_n);
 600              		.loc 1 151 0
 601 0028 204D     		ldr	r5, .L51
ARM GAS  C:\Users\Ray\AppData\Local\Temp\cc6b3PVr.s 			page 15


 602 002a 02A8     		add	r0, sp, #8
 603 002c 2C00     		movs	r4, r5
 604 002e 2034     		adds	r4, r4, #32
 605 0030 2100     		movs	r1, r4
 606 0032 FFF7FEFF 		bl	ff_rand
 607              	.LVL75:
 152:strong-arm\src\ecdsa/ecdsa.c **** 		ec_mul (&kG, &k, &ec_G);
 608              		.loc 1 152 0
 609 0036 2A00     		movs	r2, r5
 610 0038 02A9     		add	r1, sp, #8
 611 003a 4032     		adds	r2, r2, #64
 612 003c 1AA8     		add	r0, sp, #104
 613 003e FFF7FEFF 		bl	ec_mul
 614              	.LVL76:
 153:strong-arm\src\ecdsa/ecdsa.c **** 		ff_zero (&r);
 615              		.loc 1 153 0
 616 0042 0AA8     		add	r0, sp, #40
 617 0044 FFF7FEFF 		bl	ff_zero
 618              	.LVL77:
 154:strong-arm\src\ecdsa/ecdsa.c **** 		ff_add (&r, &r, &(kG.x), &ec_n);	// r = kG.x (mod n)
 619              		.loc 1 154 0
 620 0048 0AA9     		add	r1, sp, #40
 621 004a 0800     		movs	r0, r1
 622 004c 2300     		movs	r3, r4
 623 004e 1AAA     		add	r2, sp, #104
 624 0050 FFF7FEFF 		bl	ff_add
 625              	.LVL78:
 155:strong-arm\src\ecdsa/ecdsa.c **** 		
 156:strong-arm\src\ecdsa/ecdsa.c **** 		if (ff_is_zero (&r))
 626              		.loc 1 156 0
 627 0054 0AA8     		add	r0, sp, #40
 628 0056 FFF7FEFF 		bl	ff_is_zero
 629              	.LVL79:
 630 005a 0028     		cmp	r0, #0
 631 005c E4D1     		bne	.L49
 157:strong-arm\src\ecdsa/ecdsa.c **** 			continue;
 158:strong-arm\src\ecdsa/ecdsa.c **** 		
 159:strong-arm\src\ecdsa/ecdsa.c **** 		ff_inv (&k, &k, &ec_n);
 632              		.loc 1 159 0
 633 005e 02A9     		add	r1, sp, #8
 634 0060 0800     		movs	r0, r1
 635 0062 2200     		movs	r2, r4
 636 0064 FFF7FEFF 		bl	ff_inv
 637              	.LVL80:
 160:strong-arm\src\ecdsa/ecdsa.c **** 		ff_mul (&s, &r, d, &ec_n);
 638              		.loc 1 160 0
 639 0068 2300     		movs	r3, r4
 640 006a 3200     		movs	r2, r6
 641 006c 0AA9     		add	r1, sp, #40
 642 006e 12A8     		add	r0, sp, #72
 643 0070 FFF7FEFF 		bl	ff_mul
 644              	.LVL81:
 161:strong-arm\src\ecdsa/ecdsa.c **** 		ff_add (&s, z, &s, &ec_n);
 645              		.loc 1 161 0
 646 0074 12AA     		add	r2, sp, #72
 647 0076 1000     		movs	r0, r2
 648 0078 2300     		movs	r3, r4
ARM GAS  C:\Users\Ray\AppData\Local\Temp\cc6b3PVr.s 			page 16


 649 007a 0199     		ldr	r1, [sp, #4]
 650 007c FFF7FEFF 		bl	ff_add
 651              	.LVL82:
 162:strong-arm\src\ecdsa/ecdsa.c **** 		ff_mul (&s, &k, &s, &ec_n);
 652              		.loc 1 162 0
 653 0080 12AA     		add	r2, sp, #72
 654 0082 1000     		movs	r0, r2
 655 0084 2300     		movs	r3, r4
 656 0086 02A9     		add	r1, sp, #8
 657 0088 FFF7FEFF 		bl	ff_mul
 658              	.LVL83:
 163:strong-arm\src\ecdsa/ecdsa.c **** 		
 164:strong-arm\src\ecdsa/ecdsa.c **** 		if (ff_is_zero (&s))
 659              		.loc 1 164 0
 660 008c 12A8     		add	r0, sp, #72
 661 008e FFF7FEFF 		bl	ff_is_zero
 662              	.LVL84:
 663 0092 0028     		cmp	r0, #0
 664 0094 C8D1     		bne	.L49
 165:strong-arm\src\ecdsa/ecdsa.c **** 			continue;
 166:strong-arm\src\ecdsa/ecdsa.c **** 		
 167:strong-arm\src\ecdsa/ecdsa.c **** 		break;
 168:strong-arm\src\ecdsa/ecdsa.c **** 	}
 169:strong-arm\src\ecdsa/ecdsa.c **** 
 170:strong-arm\src\ecdsa/ecdsa.c **** 	ff_copy (out_r, &r);
 665              		.loc 1 170 0
 666 0096 0AA9     		add	r1, sp, #40
 667 0098 3800     		movs	r0, r7
 668 009a FFF7FEFF 		bl	ff_copy
 669              	.LVL85:
 171:strong-arm\src\ecdsa/ecdsa.c **** 	ff_copy (out_s, &s);
 670              		.loc 1 171 0
 671 009e 0098     		ldr	r0, [sp]
 672 00a0 12A9     		add	r1, sp, #72
 673 00a2 FFF7FEFF 		bl	ff_copy
 674              	.LVL86:
 172:strong-arm\src\ecdsa/ecdsa.c **** 
 173:strong-arm\src\ecdsa/ecdsa.c **** 	return true;
 675              		.loc 1 173 0
 676 00a6 0120     		movs	r0, #1
 677              	.L47:
 174:strong-arm\src\ecdsa/ecdsa.c **** }
 678              		.loc 1 174 0
 679 00a8 2BB0     		add	sp, sp, #172
 680              	.LVL87:
 681              		@ sp needed
 682              	.LVL88:
 683              	.LVL89:
 684 00aa F0BD     		pop	{r4, r5, r6, r7, pc}
 685              	.L52:
 686              		.align	2
 687              	.L51:
 688 00ac 00000000 		.word	.LANCHOR0
 689              		.cfi_endproc
 690              	.LFE4:
 691              		.size	ec_sign, .-ec_sign
 692              		.section	.text.ec_on_curve,"ax",%progbits
ARM GAS  C:\Users\Ray\AppData\Local\Temp\cc6b3PVr.s 			page 17


 693              		.align	1
 694              		.global	ec_on_curve
 695              		.code	16
 696              		.thumb_func
 697              		.type	ec_on_curve, %function
 698              	ec_on_curve:
 699              	.LFB5:
 175:strong-arm\src\ecdsa/ecdsa.c **** 
 176:strong-arm\src\ecdsa/ecdsa.c **** bool ec_on_curve (EC_POINT const *const P)
 177:strong-arm\src\ecdsa/ecdsa.c **** {
 700              		.loc 1 177 0
 701              		.cfi_startproc
 702              		@ args = 0, pretend = 0, frame = 64
 703              		@ frame_needed = 0, uses_anonymous_args = 0
 704              	.LVL90:
 705 0000 70B5     		push	{r4, r5, r6, lr}
 706              		.cfi_def_cfa_offset 16
 707              		.cfi_offset 4, -16
 708              		.cfi_offset 5, -12
 709              		.cfi_offset 6, -8
 710              		.cfi_offset 14, -4
 178:strong-arm\src\ecdsa/ecdsa.c **** 	// y^2 = x^3 + a * x + b (mod p)
 179:strong-arm\src\ecdsa/ecdsa.c **** 	FF_NUM tmp, y2;
 180:strong-arm\src\ecdsa/ecdsa.c **** 
 181:strong-arm\src\ecdsa/ecdsa.c **** 	if (ff_compare (&(P->x), &ec_p) >= 0)
 711              		.loc 1 181 0
 712 0002 194C     		ldr	r4, .L57
 177:strong-arm\src\ecdsa/ecdsa.c **** 	// y^2 = x^3 + a * x + b (mod p)
 713              		.loc 1 177 0
 714 0004 90B0     		sub	sp, sp, #64
 715              		.cfi_def_cfa_offset 80
 716              		.loc 1 181 0
 717 0006 2100     		movs	r1, r4
 177:strong-arm\src\ecdsa/ecdsa.c **** 	// y^2 = x^3 + a * x + b (mod p)
 718              		.loc 1 177 0
 719 0008 0500     		movs	r5, r0
 720              		.loc 1 181 0
 721 000a FFF7FEFF 		bl	ff_compare
 722              	.LVL91:
 723 000e 0028     		cmp	r0, #0
 724 0010 01DB     		blt	.L54
 725              	.L56:
 182:strong-arm\src\ecdsa/ecdsa.c **** 		return false;
 726              		.loc 1 182 0
 727 0012 0020     		movs	r0, #0
 728 0014 26E0     		b	.L55
 729              	.L54:
 183:strong-arm\src\ecdsa/ecdsa.c **** 
 184:strong-arm\src\ecdsa/ecdsa.c **** 	if (ff_compare (&(P->y), &ec_p) >= 0)
 730              		.loc 1 184 0
 731 0016 2E00     		movs	r6, r5
 732 0018 2036     		adds	r6, r6, #32
 733 001a 2100     		movs	r1, r4
 734 001c 3000     		movs	r0, r6
 735 001e FFF7FEFF 		bl	ff_compare
 736              	.LVL92:
 737 0022 0028     		cmp	r0, #0
ARM GAS  C:\Users\Ray\AppData\Local\Temp\cc6b3PVr.s 			page 18


 738 0024 F5DA     		bge	.L56
 185:strong-arm\src\ecdsa/ecdsa.c **** 		return false;
 186:strong-arm\src\ecdsa/ecdsa.c **** 
 187:strong-arm\src\ecdsa/ecdsa.c **** 	ff_mul (&tmp, &(P->x), &(P->x), &ec_p);
 739              		.loc 1 187 0
 740 0026 2300     		movs	r3, r4
 741 0028 2A00     		movs	r2, r5
 742 002a 2900     		movs	r1, r5
 743 002c 6846     		mov	r0, sp
 744 002e FFF7FEFF 		bl	ff_mul
 745              	.LVL93:
 188:strong-arm\src\ecdsa/ecdsa.c **** 	ff_mul (&tmp, &tmp, &(P->x), &ec_p);	// tmp = x^3
 746              		.loc 1 188 0
 747 0032 2300     		movs	r3, r4
 748 0034 2A00     		movs	r2, r5
 749 0036 6946     		mov	r1, sp
 750 0038 6846     		mov	r0, sp
 751 003a FFF7FEFF 		bl	ff_mul
 752              	.LVL94:
 189:strong-arm\src\ecdsa/ecdsa.c **** 	ff_add (&tmp, &tmp, &ec_b, &ec_p);	// tmp = x^3 + b
 753              		.loc 1 189 0
 754 003e 2300     		movs	r3, r4
 755 0040 0A4A     		ldr	r2, .L57+4
 756 0042 6946     		mov	r1, sp
 757 0044 6846     		mov	r0, sp
 758 0046 FFF7FEFF 		bl	ff_add
 759              	.LVL95:
 190:strong-arm\src\ecdsa/ecdsa.c **** 	ff_mul (&y2, &(P->y), &(P->y), &ec_p);	// y2 = y^2
 760              		.loc 1 190 0
 761 004a 2300     		movs	r3, r4
 762 004c 3200     		movs	r2, r6
 763 004e 3100     		movs	r1, r6
 764 0050 08A8     		add	r0, sp, #32
 765 0052 FFF7FEFF 		bl	ff_mul
 766              	.LVL96:
 191:strong-arm\src\ecdsa/ecdsa.c **** 	
 192:strong-arm\src\ecdsa/ecdsa.c **** 	if (ff_compare (&y2, &tmp) != 0)
 767              		.loc 1 192 0
 768 0056 6946     		mov	r1, sp
 769 0058 08A8     		add	r0, sp, #32
 770 005a FFF7FEFF 		bl	ff_compare
 771              	.LVL97:
 772 005e 4342     		rsbs	r3, r0, #0
 773 0060 5841     		adcs	r0, r0, r3
 774 0062 C0B2     		uxtb	r0, r0
 775              	.L55:
 193:strong-arm\src\ecdsa/ecdsa.c **** 		return false;
 194:strong-arm\src\ecdsa/ecdsa.c **** 
 195:strong-arm\src\ecdsa/ecdsa.c **** 	return true;
 196:strong-arm\src\ecdsa/ecdsa.c **** }
 776              		.loc 1 196 0
 777 0064 10B0     		add	sp, sp, #64
 778              		@ sp needed
 779              	.LVL98:
 780 0066 70BD     		pop	{r4, r5, r6, pc}
 781              	.L58:
 782              		.align	2
ARM GAS  C:\Users\Ray\AppData\Local\Temp\cc6b3PVr.s 			page 19


 783              	.L57:
 784 0068 00000000 		.word	.LANCHOR0
 785 006c 80000000 		.word	.LANCHOR1
 786              		.cfi_endproc
 787              	.LFE5:
 788              		.size	ec_on_curve, .-ec_on_curve
 789              		.section	.text.ec_verify,"ax",%progbits
 790              		.align	1
 791              		.global	ec_verify
 792              		.code	16
 793              		.thumb_func
 794              		.type	ec_verify, %function
 795              	ec_verify:
 796              	.LFB6:
 197:strong-arm\src\ecdsa/ecdsa.c **** 
 198:strong-arm\src\ecdsa/ecdsa.c **** bool ec_verify (FF_NUM const *const z, EC_POINT const *const Q, FF_NUM const *const r, FF_NUM const
 199:strong-arm\src\ecdsa/ecdsa.c **** {
 797              		.loc 1 199 0
 798              		.cfi_startproc
 799              		@ args = 0, pretend = 0, frame = 264
 800              		@ frame_needed = 0, uses_anonymous_args = 0
 801              	.LVL99:
 802 0000 F0B5     		push	{r4, r5, r6, r7, lr}
 803              		.cfi_def_cfa_offset 20
 804              		.cfi_offset 4, -20
 805              		.cfi_offset 5, -16
 806              		.cfi_offset 6, -12
 807              		.cfi_offset 7, -8
 808              		.cfi_offset 14, -4
 809 0002 C3B0     		sub	sp, sp, #268
 810              		.cfi_def_cfa_offset 288
 811              		.loc 1 199 0
 812 0004 0190     		str	r0, [sp, #4]
 200:strong-arm\src\ecdsa/ecdsa.c **** 	FF_NUM w, u1, u2, x1;
 201:strong-arm\src\ecdsa/ecdsa.c **** 	EC_POINT tmp, tmp2;
 202:strong-arm\src\ecdsa/ecdsa.c **** 
 203:strong-arm\src\ecdsa/ecdsa.c **** 	// Check that the public key Q is not Infinity
 204:strong-arm\src\ecdsa/ecdsa.c **** 	if ((ff_is_zero (&(Q->x))) && (ff_is_zero (&(Q->y))))
 813              		.loc 1 204 0
 814 0006 0800     		movs	r0, r1
 815              	.LVL100:
 199:strong-arm\src\ecdsa/ecdsa.c **** 	FF_NUM w, u1, u2, x1;
 816              		.loc 1 199 0
 817 0008 0D00     		movs	r5, r1
 818 000a 1600     		movs	r6, r2
 819 000c 1F00     		movs	r7, r3
 820              		.loc 1 204 0
 821 000e FFF7FEFF 		bl	ff_is_zero
 822              	.LVL101:
 823 0012 0028     		cmp	r0, #0
 824 0014 05D1     		bne	.L60
 825              	.L63:
 205:strong-arm\src\ecdsa/ecdsa.c **** 		return false;
 206:strong-arm\src\ecdsa/ecdsa.c **** 
 207:strong-arm\src\ecdsa/ecdsa.c **** 	// Check that the public key Q is on the curve
 208:strong-arm\src\ecdsa/ecdsa.c **** 	if ((!ec_on_curve (Q)))
 826              		.loc 1 208 0
ARM GAS  C:\Users\Ray\AppData\Local\Temp\cc6b3PVr.s 			page 20


 827 0016 2800     		movs	r0, r5
 828 0018 FFF7FEFF 		bl	ec_on_curve
 829              	.LVL102:
 830 001c 0028     		cmp	r0, #0
 831 001e 06D0     		beq	.L62
 832 0020 07E0     		b	.L74
 833              	.L60:
 204:strong-arm\src\ecdsa/ecdsa.c **** 		return false;
 834              		.loc 1 204 0 discriminator 1
 835 0022 2800     		movs	r0, r5
 836 0024 2030     		adds	r0, r0, #32
 837 0026 FFF7FEFF 		bl	ff_is_zero
 838              	.LVL103:
 839 002a 0028     		cmp	r0, #0
 840 002c F3D0     		beq	.L63
 841              	.L62:
 205:strong-arm\src\ecdsa/ecdsa.c **** 		return false;
 842              		.loc 1 205 0
 843 002e 0020     		movs	r0, #0
 844 0030 57E0     		b	.L64
 845              	.L74:
 209:strong-arm\src\ecdsa/ecdsa.c **** 		return false;
 210:strong-arm\src\ecdsa/ecdsa.c **** 
 211:strong-arm\src\ecdsa/ecdsa.c **** 	// Check that nQ == Infinity
 212:strong-arm\src\ecdsa/ecdsa.c **** 	ec_mul (&tmp, &ec_n, Q);
 846              		.loc 1 212 0
 847 0032 2D4C     		ldr	r4, .L75
 848 0034 22A8     		add	r0, sp, #136
 849 0036 2034     		adds	r4, r4, #32
 850 0038 2A00     		movs	r2, r5
 851 003a 2100     		movs	r1, r4
 852 003c FFF7FEFF 		bl	ec_mul
 853              	.LVL104:
 213:strong-arm\src\ecdsa/ecdsa.c **** 	if ((!ff_is_zero (&(tmp.x))) || (!ff_is_zero (&(tmp.y))))
 854              		.loc 1 213 0
 855 0040 22A8     		add	r0, sp, #136
 856 0042 FFF7FEFF 		bl	ff_is_zero
 857              	.LVL105:
 858 0046 0028     		cmp	r0, #0
 859 0048 F1D0     		beq	.L62
 860              		.loc 1 213 0 is_stmt 0 discriminator 1
 861 004a 2AA8     		add	r0, sp, #168
 862 004c FFF7FEFF 		bl	ff_is_zero
 863              	.LVL106:
 864 0050 0028     		cmp	r0, #0
 865 0052 ECD0     		beq	.L62
 214:strong-arm\src\ecdsa/ecdsa.c **** 		return false;
 215:strong-arm\src\ecdsa/ecdsa.c **** 
 216:strong-arm\src\ecdsa/ecdsa.c **** 	// Check that r and s are in the range [1, n - 1]
 217:strong-arm\src\ecdsa/ecdsa.c **** 	if ((ff_is_zero (r)) || (ff_is_zero (s)))
 866              		.loc 1 217 0 is_stmt 1
 867 0054 3000     		movs	r0, r6
 868 0056 FFF7FEFF 		bl	ff_is_zero
 869              	.LVL107:
 870 005a 0028     		cmp	r0, #0
 871 005c E7D1     		bne	.L62
 872              		.loc 1 217 0 is_stmt 0 discriminator 1
ARM GAS  C:\Users\Ray\AppData\Local\Temp\cc6b3PVr.s 			page 21


 873 005e 3800     		movs	r0, r7
 874 0060 FFF7FEFF 		bl	ff_is_zero
 875              	.LVL108:
 876 0064 0028     		cmp	r0, #0
 877 0066 E2D1     		bne	.L62
 218:strong-arm\src\ecdsa/ecdsa.c **** 		return false;
 219:strong-arm\src\ecdsa/ecdsa.c **** 
 220:strong-arm\src\ecdsa/ecdsa.c **** 	if ((ff_compare (r, &ec_n) >= 0) || (ff_compare (s, &ec_n) >= 0))
 878              		.loc 1 220 0 is_stmt 1
 879 0068 2100     		movs	r1, r4
 880 006a 3000     		movs	r0, r6
 881 006c FFF7FEFF 		bl	ff_compare
 882              	.LVL109:
 883 0070 0028     		cmp	r0, #0
 884 0072 DCDA     		bge	.L62
 885              		.loc 1 220 0 is_stmt 0 discriminator 1
 886 0074 2100     		movs	r1, r4
 887 0076 3800     		movs	r0, r7
 888 0078 FFF7FEFF 		bl	ff_compare
 889              	.LVL110:
 890 007c 0028     		cmp	r0, #0
 891 007e D6DA     		bge	.L62
 221:strong-arm\src\ecdsa/ecdsa.c **** 		return false;
 222:strong-arm\src\ecdsa/ecdsa.c **** 
 223:strong-arm\src\ecdsa/ecdsa.c **** 	// Verify the signature
 224:strong-arm\src\ecdsa/ecdsa.c **** 	ff_inv (&w, s, &ec_n);	// w = s^-1
 892              		.loc 1 224 0 is_stmt 1
 893 0080 2200     		movs	r2, r4
 894 0082 3900     		movs	r1, r7
 895 0084 02A8     		add	r0, sp, #8
 896 0086 FFF7FEFF 		bl	ff_inv
 897              	.LVL111:
 225:strong-arm\src\ecdsa/ecdsa.c **** 	ff_mul (&u1, z, &w, &ec_n);	// u1 = z * w
 898              		.loc 1 225 0
 899 008a 2300     		movs	r3, r4
 900 008c 02AA     		add	r2, sp, #8
 901 008e 0199     		ldr	r1, [sp, #4]
 902 0090 0AA8     		add	r0, sp, #40
 903 0092 FFF7FEFF 		bl	ff_mul
 904              	.LVL112:
 226:strong-arm\src\ecdsa/ecdsa.c **** 	ff_mul (&u2, r, &w, &ec_n);	// u2 = r * w
 905              		.loc 1 226 0
 906 0096 2300     		movs	r3, r4
 907 0098 02AA     		add	r2, sp, #8
 908 009a 3100     		movs	r1, r6
 909 009c 12A8     		add	r0, sp, #72
 910 009e FFF7FEFF 		bl	ff_mul
 911              	.LVL113:
 227:strong-arm\src\ecdsa/ecdsa.c **** 	ec_mul (&tmp, &u1, &ec_G);
 912              		.loc 1 227 0
 913 00a2 114A     		ldr	r2, .L75
 914 00a4 0AA9     		add	r1, sp, #40
 915 00a6 4032     		adds	r2, r2, #64
 916 00a8 22A8     		add	r0, sp, #136
 917 00aa FFF7FEFF 		bl	ec_mul
 918              	.LVL114:
 228:strong-arm\src\ecdsa/ecdsa.c **** 	ec_mul (&tmp2, &u2, Q);
ARM GAS  C:\Users\Ray\AppData\Local\Temp\cc6b3PVr.s 			page 22


 919              		.loc 1 228 0
 920 00ae 2A00     		movs	r2, r5
 921 00b0 12A9     		add	r1, sp, #72
 922 00b2 32A8     		add	r0, sp, #200
 923 00b4 FFF7FEFF 		bl	ec_mul
 924              	.LVL115:
 229:strong-arm\src\ecdsa/ecdsa.c **** 	ec_add (&tmp, &tmp, &tmp2);	// tmp = u1 * G + u2 * Q
 925              		.loc 1 229 0
 926 00b8 22A9     		add	r1, sp, #136
 927 00ba 0800     		movs	r0, r1
 928 00bc 32AA     		add	r2, sp, #200
 929 00be FFF7FEFF 		bl	ec_add
 930              	.LVL116:
 230:strong-arm\src\ecdsa/ecdsa.c **** 	ff_zero (&x1);
 931              		.loc 1 230 0
 932 00c2 1AA8     		add	r0, sp, #104
 933 00c4 FFF7FEFF 		bl	ff_zero
 934              	.LVL117:
 231:strong-arm\src\ecdsa/ecdsa.c **** 	ff_add (&x1, &x1, &(tmp.x), &ec_n);	// x1 = tmp.x (mod n)
 935              		.loc 1 231 0
 936 00c8 1AA9     		add	r1, sp, #104
 937 00ca 2300     		movs	r3, r4
 938 00cc 0800     		movs	r0, r1
 939 00ce 22AA     		add	r2, sp, #136
 940 00d0 FFF7FEFF 		bl	ff_add
 941              	.LVL118:
 232:strong-arm\src\ecdsa/ecdsa.c **** 
 233:strong-arm\src\ecdsa/ecdsa.c **** 	if (ff_compare (&x1, r) != 0)
 942              		.loc 1 233 0
 943 00d4 3100     		movs	r1, r6
 944 00d6 1AA8     		add	r0, sp, #104
 945 00d8 FFF7FEFF 		bl	ff_compare
 946              	.LVL119:
 947 00dc 4342     		rsbs	r3, r0, #0
 948 00de 5841     		adcs	r0, r0, r3
 949 00e0 C0B2     		uxtb	r0, r0
 950              	.L64:
 234:strong-arm\src\ecdsa/ecdsa.c **** 		return false;
 235:strong-arm\src\ecdsa/ecdsa.c **** 	
 236:strong-arm\src\ecdsa/ecdsa.c **** 	return true;
 237:strong-arm\src\ecdsa/ecdsa.c **** }
 951              		.loc 1 237 0
 952 00e2 43B0     		add	sp, sp, #268
 953              		@ sp needed
 954              	.LVL120:
 955              	.LVL121:
 956              	.LVL122:
 957 00e4 F0BD     		pop	{r4, r5, r6, r7, pc}
 958              	.L76:
 959 00e6 C046     		.align	2
 960              	.L75:
 961 00e8 00000000 		.word	.LANCHOR0
 962              		.cfi_endproc
 963              	.LFE6:
 964              		.size	ec_verify, .-ec_verify
 965              		.section	.text.ec_serialize,"ax",%progbits
 966              		.align	1
ARM GAS  C:\Users\Ray\AppData\Local\Temp\cc6b3PVr.s 			page 23


 967              		.global	ec_serialize
 968              		.code	16
 969              		.thumb_func
 970              		.type	ec_serialize, %function
 971              	ec_serialize:
 972              	.LFB7:
 238:strong-arm\src\ecdsa/ecdsa.c **** 
 239:strong-arm\src\ecdsa/ecdsa.c **** uint32_t ec_serialize (uint8_t *out, EC_POINT const *const P, bool compressed)
 240:strong-arm\src\ecdsa/ecdsa.c **** {
 973              		.loc 1 240 0
 974              		.cfi_startproc
 975              		@ args = 0, pretend = 0, frame = 0
 976              		@ frame_needed = 0, uses_anonymous_args = 0
 977              	.LVL123:
 978 0000 70B5     		push	{r4, r5, r6, lr}
 979              		.cfi_def_cfa_offset 16
 980              		.cfi_offset 4, -16
 981              		.cfi_offset 5, -12
 982              		.cfi_offset 6, -8
 983              		.cfi_offset 14, -4
 984              		.loc 1 240 0
 985 0002 0400     		movs	r4, r0
 986 0004 0D00     		movs	r5, r1
 241:strong-arm\src\ecdsa/ecdsa.c **** 	if (!compressed) {
 987              		.loc 1 241 0
 988 0006 002A     		cmp	r2, #0
 989 0008 0FD1     		bne	.L78
 242:strong-arm\src\ecdsa/ecdsa.c **** 		if (out) {
 243:strong-arm\src\ecdsa/ecdsa.c **** 			out[0] = 0x04;
 244:strong-arm\src\ecdsa/ecdsa.c **** 			ff_serialize (out+1, &(P->x));
 245:strong-arm\src\ecdsa/ecdsa.c **** 			ff_serialize (out+1+32, &(P->y));
 246:strong-arm\src\ecdsa/ecdsa.c **** 		}
 247:strong-arm\src\ecdsa/ecdsa.c **** 		return 65;
 990              		.loc 1 247 0
 991 000a 4120     		movs	r0, #65
 992              	.LVL124:
 242:strong-arm\src\ecdsa/ecdsa.c **** 		if (out) {
 993              		.loc 1 242 0
 994 000c 002C     		cmp	r4, #0
 995 000e 18D0     		beq	.L79
 243:strong-arm\src\ecdsa/ecdsa.c **** 			ff_serialize (out+1, &(P->x));
 996              		.loc 1 243 0
 997 0010 0423     		movs	r3, #4
 244:strong-arm\src\ecdsa/ecdsa.c **** 			ff_serialize (out+1+32, &(P->y));
 998              		.loc 1 244 0
 999 0012 601C     		adds	r0, r4, #1
 243:strong-arm\src\ecdsa/ecdsa.c **** 			ff_serialize (out+1, &(P->x));
 1000              		.loc 1 243 0
 1001 0014 2370     		strb	r3, [r4]
 244:strong-arm\src\ecdsa/ecdsa.c **** 			ff_serialize (out+1+32, &(P->y));
 1002              		.loc 1 244 0
 1003 0016 FFF7FEFF 		bl	ff_serialize
 1004              	.LVL125:
 245:strong-arm\src\ecdsa/ecdsa.c **** 		}
 1005              		.loc 1 245 0
 1006 001a 2900     		movs	r1, r5
 1007 001c 2000     		movs	r0, r4
ARM GAS  C:\Users\Ray\AppData\Local\Temp\cc6b3PVr.s 			page 24


 1008 001e 2031     		adds	r1, r1, #32
 1009 0020 2130     		adds	r0, r0, #33
 1010 0022 FFF7FEFF 		bl	ff_serialize
 1011              	.LVL126:
 1012              		.loc 1 247 0
 1013 0026 4120     		movs	r0, #65
 1014 0028 0BE0     		b	.L79
 1015              	.LVL127:
 1016              	.L78:
 248:strong-arm\src\ecdsa/ecdsa.c **** 	}
 249:strong-arm\src\ecdsa/ecdsa.c **** 	else {
 250:strong-arm\src\ecdsa/ecdsa.c **** 		if (out) {
 251:strong-arm\src\ecdsa/ecdsa.c **** 			out[0] = (P->y.z[0] & 1) ? 0x03 : 0x02;	// odd/even?
 252:strong-arm\src\ecdsa/ecdsa.c **** 			ff_serialize (out+1, &(P->x));
 253:strong-arm\src\ecdsa/ecdsa.c **** 		}
 254:strong-arm\src\ecdsa/ecdsa.c **** 		return 33;
 1017              		.loc 1 254 0
 1018 002a 2120     		movs	r0, #33
 1019              	.LVL128:
 250:strong-arm\src\ecdsa/ecdsa.c **** 			out[0] = (P->y.z[0] & 1) ? 0x03 : 0x02;	// odd/even?
 1020              		.loc 1 250 0
 1021 002c 002C     		cmp	r4, #0
 1022 002e 08D0     		beq	.L79
 251:strong-arm\src\ecdsa/ecdsa.c **** 			ff_serialize (out+1, &(P->x));
 1023              		.loc 1 251 0
 1024 0030 0123     		movs	r3, #1
 1025 0032 0A6A     		ldr	r2, [r1, #32]
 1026              	.LVL129:
 252:strong-arm\src\ecdsa/ecdsa.c **** 		}
 1027              		.loc 1 252 0
 1028 0034 601C     		adds	r0, r4, #1
 251:strong-arm\src\ecdsa/ecdsa.c **** 			ff_serialize (out+1, &(P->x));
 1029              		.loc 1 251 0
 1030 0036 1340     		ands	r3, r2
 1031 0038 0233     		adds	r3, r3, #2
 1032 003a 2370     		strb	r3, [r4]
 252:strong-arm\src\ecdsa/ecdsa.c **** 		}
 1033              		.loc 1 252 0
 1034 003c FFF7FEFF 		bl	ff_serialize
 1035              	.LVL130:
 1036              		.loc 1 254 0
 1037 0040 2120     		movs	r0, #33
 1038              	.L79:
 255:strong-arm\src\ecdsa/ecdsa.c **** 	}
 256:strong-arm\src\ecdsa/ecdsa.c **** }
 1039              		.loc 1 256 0
 1040              		@ sp needed
 1041              	.LVL131:
 1042              	.LVL132:
 1043 0042 70BD     		pop	{r4, r5, r6, pc}
 1044              		.cfi_endproc
 1045              	.LFE7:
 1046              		.size	ec_serialize, .-ec_serialize
 1047              		.global	ec_b
 1048              		.global	ec_p
 1049              		.global	ec_n
 1050              		.global	ec_G
ARM GAS  C:\Users\Ray\AppData\Local\Temp\cc6b3PVr.s 			page 25


 1051              		.section	.rodata
 1052              		.align	2
 1053              		.set	.LANCHOR0,. + 0
 1054              		.set	.LANCHOR1,. + 128
 1055              		.type	ec_p, %object
 1056              		.size	ec_p, 32
 1057              	ec_p:
 1058 0000 2FFCFFFF 		.word	-977
 1059 0004 FEFFFFFF 		.word	-2
 1060 0008 FFFFFFFF 		.word	-1
 1061 000c FFFFFFFF 		.word	-1
 1062 0010 FFFFFFFF 		.word	-1
 1063 0014 FFFFFFFF 		.word	-1
 1064 0018 FFFFFFFF 		.word	-1
 1065 001c FFFFFFFF 		.word	-1
 1066              		.type	ec_n, %object
 1067              		.size	ec_n, 32
 1068              	ec_n:
 1069 0020 414136D0 		.word	-801750719
 1070 0024 8C5ED2BF 		.word	-1076732276
 1071 0028 3BA048AF 		.word	-1354194885
 1072 002c E6DCAEBA 		.word	-1162945306
 1073 0030 FEFFFFFF 		.word	-2
 1074 0034 FFFFFFFF 		.word	-1
 1075 0038 FFFFFFFF 		.word	-1
 1076 003c FFFFFFFF 		.word	-1
 1077              		.type	ec_G, %object
 1078              		.size	ec_G, 64
 1079              	ec_G:
 1080 0040 9817F816 		.word	385357720
 1081 0044 5B81F259 		.word	1509065051
 1082 0048 D928CE2D 		.word	768485593
 1083 004c DBFC9B02 		.word	43777243
 1084 0050 070B87CE 		.word	-830010617
 1085 0054 9562A055 		.word	1436574357
 1086 0058 ACBBDCF9 		.word	-102974548
 1087 005c 7E66BE79 		.word	2042521214
 1088 0060 B8D410FB 		.word	-82783048
 1089 0064 8FD0479C 		.word	-1673015153
 1090 0068 195485A6 		.word	-1501211623
 1091 006c 48B417FD 		.word	-48778168
 1092 0070 A808110E 		.word	235997352
 1093 0074 FCFBA45D 		.word	1571093500
 1094 0078 65C4A326 		.word	648266853
 1095 007c 77DA3A48 		.word	1211816567
 1096              		.type	ec_b, %object
 1097              		.size	ec_b, 32
 1098              	ec_b:
 1099 0080 07000000 		.word	7
 1100 0084 00000000 		.word	0
 1101 0088 00000000 		.word	0
 1102 008c 00000000 		.word	0
 1103 0090 00000000 		.word	0
 1104 0094 00000000 		.word	0
 1105 0098 00000000 		.word	0
 1106 009c 00000000 		.word	0
 1107              		.text
ARM GAS  C:\Users\Ray\AppData\Local\Temp\cc6b3PVr.s 			page 26


 1108              	.Letext0:
 1109              		.file 2 "c:\\program files (x86)\\cypress\\psoc creator\\4.1\\psoc creator\\import\\gnu\\arm\\5.4.
 1110              		.file 3 "c:\\program files (x86)\\cypress\\psoc creator\\4.1\\psoc creator\\import\\gnu\\arm\\5.4.
 1111              		.file 4 ".\\strong-arm\\include/strong-arm/finite_field.h"
 1112              		.file 5 ".\\strong-arm\\include/strong-arm/ecdsa.h"