ARM GAS  C:\Users\Ray\AppData\Local\Temp\ccRtpTzd.s 			page 1


   1              		.syntax unified
   2              		.cpu cortex-m0
   3              		.fpu softvfp
   4              		.eabi_attribute 20, 1
   5              		.eabi_attribute 21, 1
   6              		.eabi_attribute 23, 3
   7              		.eabi_attribute 24, 1
   8              		.eabi_attribute 25, 1
   9              		.eabi_attribute 26, 1
  10              		.eabi_attribute 30, 4
  11              		.eabi_attribute 34, 0
  12              		.eabi_attribute 18, 4
  13              		.thumb
  14              		.syntax unified
  15              		.file	"hmac.c"
  16              		.text
  17              	.Ltext0:
  18              		.cfi_sections	.debug_frame
  19              		.section	.text.HMAC_partial,"ax",%progbits
  20              		.align	1
  21              		.global	HMAC_partial
  22              		.code	16
  23              		.thumb_func
  24              		.type	HMAC_partial, %function
  25              	HMAC_partial:
  26              	.LFB1:
  27              		.file 1 "strong-arm\\src\\hmac\\hmac.c"
   1:strong-arm\src\hmac/hmac.c **** #include <string.h>
   2:strong-arm\src\hmac/hmac.c **** #include <strong-arm/hmac.h>
   3:strong-arm\src\hmac/hmac.c **** #include <strong-arm/sha256.h>
   4:strong-arm\src\hmac/hmac.c **** 
   5:strong-arm\src\hmac/hmac.c **** 
   6:strong-arm\src\hmac/hmac.c **** void HMAC (uint8_t *const hash, uint8_t const *const key, uint32_t klen, uint8_t const *const msg, 
   7:strong-arm\src\hmac/hmac.c **** {
   8:strong-arm\src\hmac/hmac.c **** 	HMAC_STATE state;
   9:strong-arm\src\hmac/hmac.c **** 
  10:strong-arm\src\hmac/hmac.c **** 	HMAC_partial (hash, &state, key, klen, msg, mlen, true, true);
  11:strong-arm\src\hmac/hmac.c **** }
  12:strong-arm\src\hmac/hmac.c **** 
  13:strong-arm\src\hmac/hmac.c **** 
  14:strong-arm\src\hmac/hmac.c **** void HMAC_partial (void *hash, HMAC_STATE *const state, void const *const key, size_t klen, void co
  15:strong-arm\src\hmac/hmac.c **** {
  28              		.loc 1 15 0
  29              		.cfi_startproc
  30              		@ args = 16, pretend = 0, frame = 8
  31              		@ frame_needed = 0, uses_anonymous_args = 0
  32              	.LVL0:
  33 0000 F0B5     		push	{r4, r5, r6, r7, lr}
  34              		.cfi_def_cfa_offset 20
  35              		.cfi_offset 4, -20
  36              		.cfi_offset 5, -16
  37              		.cfi_offset 6, -12
  38              		.cfi_offset 7, -8
  39              		.cfi_offset 14, -4
  40 0002 85B0     		sub	sp, sp, #20
  41              		.cfi_def_cfa_offset 40
  42              		.loc 1 15 0
ARM GAS  C:\Users\Ray\AppData\Local\Temp\ccRtpTzd.s 			page 2


  43 0004 0292     		str	r2, [sp, #8]
  44 0006 1F00     		movs	r7, r3
  45 0008 0DAA     		add	r2, sp, #52
  46              	.LVL1:
  47 000a 0CAB     		add	r3, sp, #48
  48              	.LVL2:
  49 000c 1278     		ldrb	r2, [r2]
  50              	.LVL3:
  51 000e 1B78     		ldrb	r3, [r3]
  52              	.LVL4:
  53 0010 0600     		movs	r6, r0
  54 0012 0C00     		movs	r4, r1
  55 0014 0392     		str	r2, [sp, #12]
  16:strong-arm\src\hmac/hmac.c **** 	if (first)
  56              		.loc 1 16 0
  57 0016 002B     		cmp	r3, #0
  58 0018 23D0     		beq	.L2
  59 001a 2500     		movs	r5, r4
  17:strong-arm\src\hmac/hmac.c **** 	{
  18:strong-arm\src\hmac/hmac.c **** 		memset (state, 0, sizeof (HMAC_STATE));
  60              		.loc 1 18 0
  61 001c A822     		movs	r2, #168
  62 001e 0021     		movs	r1, #0
  63              	.LVL5:
  64 0020 2000     		movs	r0, r4
  65              	.LVL6:
  66 0022 6835     		adds	r5, r5, #104
  67 0024 FFF7FEFF 		bl	memset
  68              	.LVL7:
  19:strong-arm\src\hmac/hmac.c **** 	
  20:strong-arm\src\hmac/hmac.c **** 		/* If the key is longer than the SHA256 block size, hash it and pad with 0s.
  21:strong-arm\src\hmac/hmac.c **** 		 * Otherwise, just pad with 0s. */
  22:strong-arm\src\hmac/hmac.c **** 		if (klen > 64)
  23:strong-arm\src\hmac/hmac.c **** 			SHA256 (state->padded_key, key, klen);
  69              		.loc 1 23 0
  70 0028 3A00     		movs	r2, r7
  71 002a 0299     		ldr	r1, [sp, #8]
  72 002c 2800     		movs	r0, r5
  22:strong-arm\src\hmac/hmac.c **** 			SHA256 (state->padded_key, key, klen);
  73              		.loc 1 22 0
  74 002e 402F     		cmp	r7, #64
  75 0030 02D9     		bls	.L3
  76              		.loc 1 23 0
  77 0032 FFF7FEFF 		bl	SHA256
  78              	.LVL8:
  79 0036 01E0     		b	.L4
  80              	.LVL9:
  81              	.L3:
  24:strong-arm\src\hmac/hmac.c **** 		else
  25:strong-arm\src\hmac/hmac.c **** 			memmove (state->padded_key, key, klen);
  82              		.loc 1 25 0
  83 0038 FFF7FEFF 		bl	memmove
  84              	.LVL10:
  85              	.L4:
  86 003c 2100     		movs	r1, r4
  87 003e 2B00     		movs	r3, r5
  88              	.LBB2:
ARM GAS  C:\Users\Ray\AppData\Local\Temp\ccRtpTzd.s 			page 3


  26:strong-arm\src\hmac/hmac.c **** 	
  27:strong-arm\src\hmac/hmac.c **** 		/* Inner hash */
  28:strong-arm\src\hmac/hmac.c **** 		for (uint32_t i = 0; i < 64; ++i)
  29:strong-arm\src\hmac/hmac.c **** 			state->padded_key[i] ^= 0x36;
  89              		.loc 1 29 0 discriminator 1
  90 0040 3620     		movs	r0, #54
  91 0042 A831     		adds	r1, r1, #168
  92              	.LVL11:
  93              	.L5:
  94              		.loc 1 29 0 is_stmt 0 discriminator 3
  95 0044 1A78     		ldrb	r2, [r3]
  96 0046 4240     		eors	r2, r0
  97 0048 1A70     		strb	r2, [r3]
  98              	.LVL12:
  99 004a 0133     		adds	r3, r3, #1
 100              	.LVL13:
  28:strong-arm\src\hmac/hmac.c **** 			state->padded_key[i] ^= 0x36;
 101              		.loc 1 28 0 is_stmt 1 discriminator 3
 102 004c 8B42     		cmp	r3, r1
 103 004e F9D1     		bne	.L5
 104              	.LBE2:
  30:strong-arm\src\hmac/hmac.c **** 
  31:strong-arm\src\hmac/hmac.c **** 		SHA256_partial (0, &(state->sha256_state), state->padded_key, 64, true, false);
 105              		.loc 1 31 0
 106 0050 0123     		movs	r3, #1
 107              	.LVL14:
 108 0052 0020     		movs	r0, #0
 109 0054 0093     		str	r3, [sp]
 110 0056 0190     		str	r0, [sp, #4]
 111 0058 3F33     		adds	r3, r3, #63
 112 005a 2A00     		movs	r2, r5
 113 005c 2100     		movs	r1, r4
 114 005e FFF7FEFF 		bl	SHA256_partial
 115              	.LVL15:
 116              	.L2:
  32:strong-arm\src\hmac/hmac.c **** 	}
  33:strong-arm\src\hmac/hmac.c **** 
  34:strong-arm\src\hmac/hmac.c **** 	/* Add msg */
  35:strong-arm\src\hmac/hmac.c **** 	SHA256_partial (hash, &(state->sha256_state), msg, mlen, false, last);
 117              		.loc 1 35 0
 118 0062 039B     		ldr	r3, [sp, #12]
 119 0064 0A9A     		ldr	r2, [sp, #40]
 120 0066 0193     		str	r3, [sp, #4]
 121 0068 0023     		movs	r3, #0
 122 006a 2100     		movs	r1, r4
 123 006c 0093     		str	r3, [sp]
 124 006e 3000     		movs	r0, r6
 125 0070 0B9B     		ldr	r3, [sp, #44]
 126 0072 FFF7FEFF 		bl	SHA256_partial
 127              	.LVL16:
  36:strong-arm\src\hmac/hmac.c **** 
  37:strong-arm\src\hmac/hmac.c **** 	if (!last)
 128              		.loc 1 37 0
 129 0076 039B     		ldr	r3, [sp, #12]
 130 0078 002B     		cmp	r3, #0
 131 007a 1CD0     		beq	.L1
 132 007c 2300     		movs	r3, r4
ARM GAS  C:\Users\Ray\AppData\Local\Temp\ccRtpTzd.s 			page 4


 133 007e 2000     		movs	r0, r4
 134 0080 6833     		adds	r3, r3, #104
 135 0082 1A00     		movs	r2, r3
 136              	.LBB3:
  38:strong-arm\src\hmac/hmac.c **** 		return;
  39:strong-arm\src\hmac/hmac.c **** 	
  40:strong-arm\src\hmac/hmac.c **** 	/* Outer hash */
  41:strong-arm\src\hmac/hmac.c **** 	/* We XOR with 0x36 to remove the previous XOR */
  42:strong-arm\src\hmac/hmac.c **** 	for (uint32_t i = 0; i < 64; ++i)
  43:strong-arm\src\hmac/hmac.c **** 		state->padded_key[i] ^= 0x36 ^ 0x5C;
 137              		.loc 1 43 0
 138 0084 6A25     		movs	r5, #106
 139 0086 A830     		adds	r0, r0, #168
 140              	.L7:
 141              	.LVL17:
 142              		.loc 1 43 0 is_stmt 0 discriminator 3
 143 0088 1978     		ldrb	r1, [r3]
 144 008a 6940     		eors	r1, r5
 145 008c 1970     		strb	r1, [r3]
 146              	.LVL18:
 147 008e 0133     		adds	r3, r3, #1
 148              	.LVL19:
  42:strong-arm\src\hmac/hmac.c **** 		state->padded_key[i] ^= 0x36 ^ 0x5C;
 149              		.loc 1 42 0 is_stmt 1 discriminator 3
 150 0090 8342     		cmp	r3, r0
 151 0092 F9D1     		bne	.L7
 152              	.LBE3:
  44:strong-arm\src\hmac/hmac.c **** 	SHA256_partial (NULL, &(state->sha256_state), state->padded_key, 64, true, false);
 153              		.loc 1 44 0
 154 0094 0025     		movs	r5, #0
 155 0096 0127     		movs	r7, #1
 156              	.LVL20:
 157 0098 4023     		movs	r3, #64
 158              	.LVL21:
 159 009a 2100     		movs	r1, r4
 160 009c 2800     		movs	r0, r5
 161 009e 0195     		str	r5, [sp, #4]
 162 00a0 0097     		str	r7, [sp]
 163 00a2 FFF7FEFF 		bl	SHA256_partial
 164              	.LVL22:
  45:strong-arm\src\hmac/hmac.c **** 	SHA256_partial (hash, &(state->sha256_state), hash, 32, false, true);
 165              		.loc 1 45 0
 166 00a6 0197     		str	r7, [sp, #4]
 167 00a8 0095     		str	r5, [sp]
 168 00aa 2023     		movs	r3, #32
 169 00ac 3200     		movs	r2, r6
 170 00ae 2100     		movs	r1, r4
 171 00b0 3000     		movs	r0, r6
 172 00b2 FFF7FEFF 		bl	SHA256_partial
 173              	.LVL23:
 174              	.L1:
  46:strong-arm\src\hmac/hmac.c **** 	
  47:strong-arm\src\hmac/hmac.c **** 	/* Result is now in (hash) */
  48:strong-arm\src\hmac/hmac.c **** }
 175              		.loc 1 48 0
 176 00b6 05B0     		add	sp, sp, #20
 177              		@ sp needed
ARM GAS  C:\Users\Ray\AppData\Local\Temp\ccRtpTzd.s 			page 5


 178              	.LVL24:
 179              	.LVL25:
 180 00b8 F0BD     		pop	{r4, r5, r6, r7, pc}
 181              		.cfi_endproc
 182              	.LFE1:
 183              		.size	HMAC_partial, .-HMAC_partial
 184              		.section	.text.HMAC,"ax",%progbits
 185              		.align	1
 186              		.global	HMAC
 187              		.code	16
 188              		.thumb_func
 189              		.type	HMAC, %function
 190              	HMAC:
 191              	.LFB0:
   7:strong-arm\src\hmac/hmac.c **** 	HMAC_STATE state;
 192              		.loc 1 7 0
 193              		.cfi_startproc
 194              		@ args = 4, pretend = 0, frame = 168
 195              		@ frame_needed = 0, uses_anonymous_args = 0
 196              	.LVL26:
 197 0000 10B5     		push	{r4, lr}
 198              		.cfi_def_cfa_offset 8
 199              		.cfi_offset 4, -8
 200              		.cfi_offset 14, -4
  10:strong-arm\src\hmac/hmac.c **** }
 201              		.loc 1 10 0
 202 0002 0124     		movs	r4, #1
   7:strong-arm\src\hmac/hmac.c **** 	HMAC_STATE state;
 203              		.loc 1 7 0
 204 0004 AEB0     		sub	sp, sp, #184
 205              		.cfi_def_cfa_offset 192
  10:strong-arm\src\hmac/hmac.c **** }
 206              		.loc 1 10 0
 207 0006 0394     		str	r4, [sp, #12]
 208 0008 0294     		str	r4, [sp, #8]
 209 000a 309C     		ldr	r4, [sp, #192]
 210 000c 0093     		str	r3, [sp]
 211 000e 0194     		str	r4, [sp, #4]
 212 0010 1300     		movs	r3, r2
 213              	.LVL27:
 214 0012 0A00     		movs	r2, r1
 215              	.LVL28:
 216 0014 04A9     		add	r1, sp, #16
 217              	.LVL29:
 218 0016 FFF7FEFF 		bl	HMAC_partial
 219              	.LVL30:
  11:strong-arm\src\hmac/hmac.c **** 
 220              		.loc 1 11 0
 221 001a 2EB0     		add	sp, sp, #184
 222              		@ sp needed
 223 001c 10BD     		pop	{r4, pc}
 224              		.cfi_endproc
 225              	.LFE0:
 226              		.size	HMAC, .-HMAC
 227              		.text
 228              	.Letext0:
 229              		.file 2 "c:\\program files (x86)\\cypress\\psoc creator\\4.1\\psoc creator\\import\\gnu\\arm\\5.4.
ARM GAS  C:\Users\Ray\AppData\Local\Temp\ccRtpTzd.s 			page 6


 230              		.file 3 "c:\\program files (x86)\\cypress\\psoc creator\\4.1\\psoc creator\\import\\gnu\\arm\\5.4.
 231              		.file 4 "c:\\program files (x86)\\cypress\\psoc creator\\4.1\\psoc creator\\import\\gnu\\arm\\5.4.
 232              		.file 5 ".\\strong-arm\\include/strong-arm/sha256.h"
 233              		.file 6 ".\\strong-arm\\include/strong-arm/hmac.h"
 234              		.file 7 "c:\\program files (x86)\\cypress\\psoc creator\\4.1\\psoc creator\\import\\gnu\\arm\\5.4.