ARM GAS  C:\Users\Ray\AppData\Local\Temp\ccVtAPjl.s 			page 1


   1              		.syntax unified
   2              		.cpu cortex-m0
   3              		.fpu softvfp
   4              		.eabi_attribute 20, 1
   5              		.eabi_attribute 21, 1
   6              		.eabi_attribute 23, 3
   7              		.eabi_attribute 24, 1
   8              		.eabi_attribute 25, 1
   9              		.eabi_attribute 26, 1
  10              		.eabi_attribute 30, 4
  11              		.eabi_attribute 34, 0
  12              		.eabi_attribute 18, 4
  13              		.thumb
  14              		.syntax unified
  15              		.file	"pbkdf2.c"
  16              		.text
  17              	.Ltext0:
  18              		.cfi_sections	.debug_frame
  19              		.section	.text._deserialize,"ax",%progbits
  20              		.align	1
  21              		.code	16
  22              		.thumb_func
  23              		.type	_deserialize, %function
  24              	_deserialize:
  25              	.LFB8:
  26              		.file 1 "strong-arm\\src\\pbkdf2\\pbkdf2.c"
   1:strong-arm\src\pbkdf2/pbkdf2.c **** /*
   2:strong-arm\src\pbkdf2/pbkdf2.c ****  * This code is messy, because it needs to be optimized to improve throughput.
   3:strong-arm\src\pbkdf2/pbkdf2.c ****  * It may be possible to clean it up by tweaking the HMAC/SHA256 modules, so we
   4:strong-arm\src\pbkdf2/pbkdf2.c ****  * don't have to implement optimized versions locally.
   5:strong-arm\src\pbkdf2/pbkdf2.c ****  */
   6:strong-arm\src\pbkdf2/pbkdf2.c **** #include <string.h>
   7:strong-arm\src\pbkdf2/pbkdf2.c **** #include <strong-arm/pbkdf2.h>
   8:strong-arm\src\pbkdf2/pbkdf2.c **** #include <strong-arm/hmac.h>
   9:strong-arm\src\pbkdf2/pbkdf2.c **** #include <strong-arm/sha256.h>
  10:strong-arm\src\pbkdf2/pbkdf2.c **** 
  11:strong-arm\src\pbkdf2/pbkdf2.c **** 
  12:strong-arm\src\pbkdf2/pbkdf2.c **** static void _HMAC (uint8_t *const hash, uint8_t const *const key, uint32_t klen, uint8_t const *con
  13:strong-arm\src\pbkdf2/pbkdf2.c **** static void compress (uint32_t digest[static 8], uint32_t const state[static 8], uint32_t const chu
  14:strong-arm\src\pbkdf2/pbkdf2.c **** static void _deserialize (uint32_t chunk[static 16], uint8_t const stream[static 64]);
  15:strong-arm\src\pbkdf2/pbkdf2.c **** static void _serialize (uint8_t stream[static 64], uint32_t const chunk[static 16]);
  16:strong-arm\src\pbkdf2/pbkdf2.c **** 
  17:strong-arm\src\pbkdf2/pbkdf2.c **** 
  18:strong-arm\src\pbkdf2/pbkdf2.c **** static const uint32_t initial_state[8] = {0x6a09e667, 0xbb67ae85, 0x3c6ef372, 0xa54ff53a, 0x510e527
  19:strong-arm\src\pbkdf2/pbkdf2.c **** 
  20:strong-arm\src\pbkdf2/pbkdf2.c **** 
  21:strong-arm\src\pbkdf2/pbkdf2.c **** void PBKDF2 (uint8_t *const derived_key, uint8_t const *const password, uint32_t passlen, uint8_t c
  22:strong-arm\src\pbkdf2/pbkdf2.c **** {
  23:strong-arm\src\pbkdf2/pbkdf2.c **** 	uint32_t block_count = keylen / 32;
  24:strong-arm\src\pbkdf2/pbkdf2.c **** 	uint32_t sha256_state0[8] = {0};
  25:strong-arm\src\pbkdf2/pbkdf2.c **** 	uint32_t sha256_state1[8] = {0};
  26:strong-arm\src\pbkdf2/pbkdf2.c **** 	
  27:strong-arm\src\pbkdf2/pbkdf2.c **** 	if (keylen & 31)
  28:strong-arm\src\pbkdf2/pbkdf2.c **** 		block_count += 1;
  29:strong-arm\src\pbkdf2/pbkdf2.c **** 
  30:strong-arm\src\pbkdf2/pbkdf2.c **** 	/* Precompute SHA256 states based on the password */
  31:strong-arm\src\pbkdf2/pbkdf2.c **** 	{
ARM GAS  C:\Users\Ray\AppData\Local\Temp\ccVtAPjl.s 			page 2


  32:strong-arm\src\pbkdf2/pbkdf2.c **** 		uint8_t padded_key[64] = {0};
  33:strong-arm\src\pbkdf2/pbkdf2.c **** 		uint32_t chunk[16] = {0};
  34:strong-arm\src\pbkdf2/pbkdf2.c **** 
  35:strong-arm\src\pbkdf2/pbkdf2.c **** 		if (passlen > 64)
  36:strong-arm\src\pbkdf2/pbkdf2.c **** 			SHA256 (padded_key, password, passlen);
  37:strong-arm\src\pbkdf2/pbkdf2.c **** 		else
  38:strong-arm\src\pbkdf2/pbkdf2.c **** 			memmove (padded_key, password, passlen);
  39:strong-arm\src\pbkdf2/pbkdf2.c **** 
  40:strong-arm\src\pbkdf2/pbkdf2.c **** 		_deserialize (chunk, padded_key);
  41:strong-arm\src\pbkdf2/pbkdf2.c **** 
  42:strong-arm\src\pbkdf2/pbkdf2.c **** 		for (int i = 0; i < 16; ++i)
  43:strong-arm\src\pbkdf2/pbkdf2.c **** 		{
  44:strong-arm\src\pbkdf2/pbkdf2.c **** 			chunk[i] ^= 0x36363636;
  45:strong-arm\src\pbkdf2/pbkdf2.c **** 		}
  46:strong-arm\src\pbkdf2/pbkdf2.c **** 		compress (sha256_state0, initial_state, chunk);
  47:strong-arm\src\pbkdf2/pbkdf2.c **** 
  48:strong-arm\src\pbkdf2/pbkdf2.c **** 		for (uint32_t i = 0; i < 16; ++i)
  49:strong-arm\src\pbkdf2/pbkdf2.c **** 		{
  50:strong-arm\src\pbkdf2/pbkdf2.c **** 			chunk[i] ^= 0x36363636 ^ 0x5C5C5C5C;
  51:strong-arm\src\pbkdf2/pbkdf2.c **** 		}
  52:strong-arm\src\pbkdf2/pbkdf2.c **** 		compress (sha256_state1, initial_state, chunk);
  53:strong-arm\src\pbkdf2/pbkdf2.c **** 	}
  54:strong-arm\src\pbkdf2/pbkdf2.c **** 	
  55:strong-arm\src\pbkdf2/pbkdf2.c **** 	
  56:strong-arm\src\pbkdf2/pbkdf2.c **** 	for (uint32_t block_num = 1; block_num <= block_count; ++block_num)
  57:strong-arm\src\pbkdf2/pbkdf2.c **** 	{
  58:strong-arm\src\pbkdf2/pbkdf2.c **** 		uint32_t T[16] = {0};
  59:strong-arm\src\pbkdf2/pbkdf2.c **** 		uint32_t U[8] = {0};
  60:strong-arm\src\pbkdf2/pbkdf2.c **** 		uint8_t block_data[32] = {0};
  61:strong-arm\src\pbkdf2/pbkdf2.c **** 
  62:strong-arm\src\pbkdf2/pbkdf2.c **** 		/* T = HMAC (password, salt || blkNo) */
  63:strong-arm\src\pbkdf2/pbkdf2.c **** 		{
  64:strong-arm\src\pbkdf2/pbkdf2.c **** 			uint8_t salted[64] = {0};
  65:strong-arm\src\pbkdf2/pbkdf2.c **** 
  66:strong-arm\src\pbkdf2/pbkdf2.c **** 			_HMAC (salted, password, passlen, salt, saltlen, block_num);
  67:strong-arm\src\pbkdf2/pbkdf2.c **** 			_deserialize (T, salted);
  68:strong-arm\src\pbkdf2/pbkdf2.c **** 		}
  69:strong-arm\src\pbkdf2/pbkdf2.c **** 		
  70:strong-arm\src\pbkdf2/pbkdf2.c **** 		/* U = T */
  71:strong-arm\src\pbkdf2/pbkdf2.c **** 		for (int i = 0; i < 8; ++i)
  72:strong-arm\src\pbkdf2/pbkdf2.c **** 		{
  73:strong-arm\src\pbkdf2/pbkdf2.c **** 			U[i] = T[i];
  74:strong-arm\src\pbkdf2/pbkdf2.c **** 		}
  75:strong-arm\src\pbkdf2/pbkdf2.c **** 
  76:strong-arm\src\pbkdf2/pbkdf2.c **** 		/* SHA256 padding is constant on T in the iteration loop below */
  77:strong-arm\src\pbkdf2/pbkdf2.c **** 		T[8] = 0x80000000;
  78:strong-arm\src\pbkdf2/pbkdf2.c **** 		T[14] = 0;
  79:strong-arm\src\pbkdf2/pbkdf2.c **** 		T[15] = 768;
  80:strong-arm\src\pbkdf2/pbkdf2.c **** 		
  81:strong-arm\src\pbkdf2/pbkdf2.c **** 		/* Iterations */
  82:strong-arm\src\pbkdf2/pbkdf2.c **** 		for (uint32_t i = 1; i < iterations; ++i)
  83:strong-arm\src\pbkdf2/pbkdf2.c **** 		{
  84:strong-arm\src\pbkdf2/pbkdf2.c **** 			/* T = HMAC (password, T) */
  85:strong-arm\src\pbkdf2/pbkdf2.c **** 			compress (T, sha256_state0, T);
  86:strong-arm\src\pbkdf2/pbkdf2.c **** 			compress (T, sha256_state1, T);
  87:strong-arm\src\pbkdf2/pbkdf2.c **** 			
  88:strong-arm\src\pbkdf2/pbkdf2.c **** 			/* U = U ^ T */
ARM GAS  C:\Users\Ray\AppData\Local\Temp\ccVtAPjl.s 			page 3


  89:strong-arm\src\pbkdf2/pbkdf2.c **** 			for (uint32_t j = 0; j < 8; ++j)
  90:strong-arm\src\pbkdf2/pbkdf2.c **** 				U[j] ^= T[j];
  91:strong-arm\src\pbkdf2/pbkdf2.c **** 		}
  92:strong-arm\src\pbkdf2/pbkdf2.c **** 
  93:strong-arm\src\pbkdf2/pbkdf2.c **** 		_serialize (block_data, U);
  94:strong-arm\src\pbkdf2/pbkdf2.c **** 		
  95:strong-arm\src\pbkdf2/pbkdf2.c **** 		/* Write block */
  96:strong-arm\src\pbkdf2/pbkdf2.c **** 		if (block_num == block_count)
  97:strong-arm\src\pbkdf2/pbkdf2.c **** 		{
  98:strong-arm\src\pbkdf2/pbkdf2.c **** 			memmove (derived_key + ((block_num - 1) * 32), block_data, keylen - ((block_num - 1) * 32));
  99:strong-arm\src\pbkdf2/pbkdf2.c **** 			break;	/* Prevents overflow of block_num in the extreme case */
 100:strong-arm\src\pbkdf2/pbkdf2.c **** 		}
 101:strong-arm\src\pbkdf2/pbkdf2.c **** 		else
 102:strong-arm\src\pbkdf2/pbkdf2.c **** 		{
 103:strong-arm\src\pbkdf2/pbkdf2.c **** 			memmove (derived_key + ((block_num - 1) * 32), block_data, 32);
 104:strong-arm\src\pbkdf2/pbkdf2.c **** 		}
 105:strong-arm\src\pbkdf2/pbkdf2.c **** 	}
 106:strong-arm\src\pbkdf2/pbkdf2.c **** }
 107:strong-arm\src\pbkdf2/pbkdf2.c **** 
 108:strong-arm\src\pbkdf2/pbkdf2.c **** 
 109:strong-arm\src\pbkdf2/pbkdf2.c **** /* HMAC
 110:strong-arm\src\pbkdf2/pbkdf2.c ****  * Re-implemented locally, since the current HMAC module can't handle salt+blocknum
 111:strong-arm\src\pbkdf2/pbkdf2.c ****  */
 112:strong-arm\src\pbkdf2/pbkdf2.c **** static void _HMAC (uint8_t *const hash, uint8_t const *const key, uint32_t klen, uint8_t const *con
 113:strong-arm\src\pbkdf2/pbkdf2.c **** {
 114:strong-arm\src\pbkdf2/pbkdf2.c **** 	SHA256_STATE sha256_state = {0};
 115:strong-arm\src\pbkdf2/pbkdf2.c **** 	uint8_t padded_key[64] = {0};
 116:strong-arm\src\pbkdf2/pbkdf2.c **** 	uint8_t blocknum_str[] = {(uint8_t)(blocknum >> 24), (uint8_t)(blocknum >> 16), (uint8_t)(blocknum
 117:strong-arm\src\pbkdf2/pbkdf2.c **** 	
 118:strong-arm\src\pbkdf2/pbkdf2.c **** 	/* If the key is longer than the SHA256 block size, hash it and pad with 0s.
 119:strong-arm\src\pbkdf2/pbkdf2.c **** 	 * Otherwise, just pad with 0s. */
 120:strong-arm\src\pbkdf2/pbkdf2.c **** 	if (klen > 64)
 121:strong-arm\src\pbkdf2/pbkdf2.c **** 		SHA256 (padded_key, key, klen);
 122:strong-arm\src\pbkdf2/pbkdf2.c **** 	else
 123:strong-arm\src\pbkdf2/pbkdf2.c **** 		memmove (padded_key, key, klen);
 124:strong-arm\src\pbkdf2/pbkdf2.c **** 	
 125:strong-arm\src\pbkdf2/pbkdf2.c **** 	/* Inner hash */
 126:strong-arm\src\pbkdf2/pbkdf2.c **** 	for (uint32_t i = 0; i < 64; ++i)
 127:strong-arm\src\pbkdf2/pbkdf2.c **** 		padded_key[i] ^= 0x36;
 128:strong-arm\src\pbkdf2/pbkdf2.c **** 	SHA256_partial (NULL, &sha256_state, padded_key, 64, true, false);
 129:strong-arm\src\pbkdf2/pbkdf2.c **** 	SHA256_partial (NULL, &sha256_state, salt, saltlen, false, false);
 130:strong-arm\src\pbkdf2/pbkdf2.c **** 	SHA256_partial (hash, &sha256_state, blocknum_str, 4, false, true);
 131:strong-arm\src\pbkdf2/pbkdf2.c **** 	
 132:strong-arm\src\pbkdf2/pbkdf2.c **** 	/* Outer hash */
 133:strong-arm\src\pbkdf2/pbkdf2.c **** 	/* We XOR with 0x36 to remove the previous XOR */
 134:strong-arm\src\pbkdf2/pbkdf2.c **** 	for (uint32_t i = 0; i < 64; ++i)
 135:strong-arm\src\pbkdf2/pbkdf2.c **** 		padded_key[i] ^= 0x36 ^ 0x5C;
 136:strong-arm\src\pbkdf2/pbkdf2.c **** 	SHA256_partial (NULL, &sha256_state, padded_key, 64, true, false);
 137:strong-arm\src\pbkdf2/pbkdf2.c **** 	SHA256_partial (hash, &sha256_state, hash, 32, false, true);
 138:strong-arm\src\pbkdf2/pbkdf2.c **** 	
 139:strong-arm\src\pbkdf2/pbkdf2.c **** 	/* Result is now in (hash) */
 140:strong-arm\src\pbkdf2/pbkdf2.c **** }
 141:strong-arm\src\pbkdf2/pbkdf2.c **** 
 142:strong-arm\src\pbkdf2/pbkdf2.c **** 
 143:strong-arm\src\pbkdf2/pbkdf2.c **** /* SHA256
 144:strong-arm\src\pbkdf2/pbkdf2.c ****  * Implemented locally for optimization purposes, instead of using the existing SHA256 module.
 145:strong-arm\src\pbkdf2/pbkdf2.c ****  */
ARM GAS  C:\Users\Ray\AppData\Local\Temp\ccVtAPjl.s 			page 4


 146:strong-arm\src\pbkdf2/pbkdf2.c **** static const uint32_t kk[64] = {0x428a2f98, 0x71374491, 0xb5c0fbcf, 0xe9b5dba5, 0x3956c25b, 0x59f11
 147:strong-arm\src\pbkdf2/pbkdf2.c **** 				0xd807aa98, 0x12835b01, 0x243185be, 0x550c7dc3, 0x72be5d74, 0x80deb1fe, 0x9bdc06a7, 0xc19bf174,
 148:strong-arm\src\pbkdf2/pbkdf2.c **** 				0xe49b69c1, 0xefbe4786, 0x0fc19dc6, 0x240ca1cc, 0x2de92c6f, 0x4a7484aa, 0x5cb0a9dc, 0x76f988da,
 149:strong-arm\src\pbkdf2/pbkdf2.c **** 				0x983e5152, 0xa831c66d, 0xb00327c8, 0xbf597fc7, 0xc6e00bf3, 0xd5a79147, 0x06ca6351, 0x14292967,
 150:strong-arm\src\pbkdf2/pbkdf2.c **** 				0x27b70a85, 0x2e1b2138, 0x4d2c6dfc, 0x53380d13, 0x650a7354, 0x766a0abb, 0x81c2c92e, 0x92722c85,
 151:strong-arm\src\pbkdf2/pbkdf2.c **** 				0xa2bfe8a1, 0xa81a664b, 0xc24b8b70, 0xc76c51a3, 0xd192e819, 0xd6990624, 0xf40e3585, 0x106aa070,
 152:strong-arm\src\pbkdf2/pbkdf2.c **** 				0x19a4c116, 0x1e376c08, 0x2748774c, 0x34b0bcb5, 0x391c0cb3, 0x4ed8aa4a, 0x5b9cca4f, 0x682e6ff3,
 153:strong-arm\src\pbkdf2/pbkdf2.c **** 				0x748f82ee, 0x78a5636f, 0x84c87814, 0x8cc70208, 0x90befffa, 0xa4506ceb, 0xbef9a3f7, 0xc67178f2}
 154:strong-arm\src\pbkdf2/pbkdf2.c **** 
 155:strong-arm\src\pbkdf2/pbkdf2.c **** static inline uint32_t s0 (uint32_t a);
 156:strong-arm\src\pbkdf2/pbkdf2.c **** static inline uint32_t s1 (uint32_t a);
 157:strong-arm\src\pbkdf2/pbkdf2.c **** static inline uint32_t e0 (uint32_t a);
 158:strong-arm\src\pbkdf2/pbkdf2.c **** static inline uint32_t e1 (uint32_t a);
 159:strong-arm\src\pbkdf2/pbkdf2.c **** 
 160:strong-arm\src\pbkdf2/pbkdf2.c **** /* gcc should optimize this to ROR instructions on at least X86 and ARM. */
 161:strong-arm\src\pbkdf2/pbkdf2.c **** #define ROR_C(x, n) (((x) >> (n)) | ((x) << (32 - (n))))
 162:strong-arm\src\pbkdf2/pbkdf2.c **** 
 163:strong-arm\src\pbkdf2/pbkdf2.c **** 
 164:strong-arm\src\pbkdf2/pbkdf2.c **** static inline uint32_t s0 (uint32_t a)
 165:strong-arm\src\pbkdf2/pbkdf2.c **** {
 166:strong-arm\src\pbkdf2/pbkdf2.c **** 	uint32_t tmp1, tmp2;
 167:strong-arm\src\pbkdf2/pbkdf2.c **** 	
 168:strong-arm\src\pbkdf2/pbkdf2.c **** 	tmp1 = ROR_C (a, 7);
 169:strong-arm\src\pbkdf2/pbkdf2.c **** 	tmp2 = ROR_C (a, 18);
 170:strong-arm\src\pbkdf2/pbkdf2.c **** 	return tmp1 ^ tmp2 ^ (a >> 3);
 171:strong-arm\src\pbkdf2/pbkdf2.c **** }
 172:strong-arm\src\pbkdf2/pbkdf2.c **** 
 173:strong-arm\src\pbkdf2/pbkdf2.c **** static inline uint32_t s1 (uint32_t a)
 174:strong-arm\src\pbkdf2/pbkdf2.c **** {
 175:strong-arm\src\pbkdf2/pbkdf2.c **** 	uint32_t tmp1, tmp2;
 176:strong-arm\src\pbkdf2/pbkdf2.c **** 	
 177:strong-arm\src\pbkdf2/pbkdf2.c **** 	tmp1 = ROR_C (a, 17);
 178:strong-arm\src\pbkdf2/pbkdf2.c **** 	tmp2 = ROR_C (a, 19);
 179:strong-arm\src\pbkdf2/pbkdf2.c **** 	return tmp1 ^ tmp2 ^ (a >> 10);
 180:strong-arm\src\pbkdf2/pbkdf2.c **** }
 181:strong-arm\src\pbkdf2/pbkdf2.c **** 
 182:strong-arm\src\pbkdf2/pbkdf2.c **** static inline uint32_t e0 (uint32_t a)
 183:strong-arm\src\pbkdf2/pbkdf2.c **** {
 184:strong-arm\src\pbkdf2/pbkdf2.c **** 	uint32_t tmp1, tmp2;
 185:strong-arm\src\pbkdf2/pbkdf2.c **** 	
 186:strong-arm\src\pbkdf2/pbkdf2.c **** 	tmp1 = ROR_C (a, 2);
 187:strong-arm\src\pbkdf2/pbkdf2.c **** 	tmp2 = ROR_C (a, 13);
 188:strong-arm\src\pbkdf2/pbkdf2.c **** 	a = ROR_C (a, 22);
 189:strong-arm\src\pbkdf2/pbkdf2.c **** 	return tmp1 ^ tmp2 ^ a;
 190:strong-arm\src\pbkdf2/pbkdf2.c **** }
 191:strong-arm\src\pbkdf2/pbkdf2.c **** 
 192:strong-arm\src\pbkdf2/pbkdf2.c **** static inline uint32_t e1 (uint32_t a)
 193:strong-arm\src\pbkdf2/pbkdf2.c **** {
 194:strong-arm\src\pbkdf2/pbkdf2.c **** 	uint32_t tmp1, tmp2;
 195:strong-arm\src\pbkdf2/pbkdf2.c **** 	
 196:strong-arm\src\pbkdf2/pbkdf2.c **** 	tmp1 = ROR_C (a, 6);
 197:strong-arm\src\pbkdf2/pbkdf2.c **** 	tmp2 = ROR_C (a, 11);
 198:strong-arm\src\pbkdf2/pbkdf2.c **** 	a = ROR_C (a, 25);
 199:strong-arm\src\pbkdf2/pbkdf2.c **** 	return tmp1 ^ tmp2 ^ a;
 200:strong-arm\src\pbkdf2/pbkdf2.c **** }
 201:strong-arm\src\pbkdf2/pbkdf2.c **** 
 202:strong-arm\src\pbkdf2/pbkdf2.c **** 
ARM GAS  C:\Users\Ray\AppData\Local\Temp\ccVtAPjl.s 			page 5


 203:strong-arm\src\pbkdf2/pbkdf2.c **** static inline uint32_t ch (uint32_t a, uint32_t b, uint32_t c)
 204:strong-arm\src\pbkdf2/pbkdf2.c **** {
 205:strong-arm\src\pbkdf2/pbkdf2.c **** 	return c ^ (a & (b ^ c));
 206:strong-arm\src\pbkdf2/pbkdf2.c **** }
 207:strong-arm\src\pbkdf2/pbkdf2.c **** 
 208:strong-arm\src\pbkdf2/pbkdf2.c **** 
 209:strong-arm\src\pbkdf2/pbkdf2.c **** static inline uint32_t maj (uint32_t a, uint32_t b, uint32_t c)
 210:strong-arm\src\pbkdf2/pbkdf2.c **** {
 211:strong-arm\src\pbkdf2/pbkdf2.c **** 	return (a & b) | (c & (a | b));
 212:strong-arm\src\pbkdf2/pbkdf2.c **** }
 213:strong-arm\src\pbkdf2/pbkdf2.c **** 
 214:strong-arm\src\pbkdf2/pbkdf2.c **** 
 215:strong-arm\src\pbkdf2/pbkdf2.c **** static void _deserialize (uint32_t chunk[static 16], uint8_t const stream[static 64])
 216:strong-arm\src\pbkdf2/pbkdf2.c **** {
  27              		.loc 1 216 0
  28              		.cfi_startproc
  29              		@ args = 0, pretend = 0, frame = 0
  30              		@ frame_needed = 0, uses_anonymous_args = 0
  31              	.LVL0:
  32 0000 70B5     		push	{r4, r5, r6, lr}
  33              		.cfi_def_cfa_offset 16
  34              		.cfi_offset 4, -16
  35              		.cfi_offset 5, -12
  36              		.cfi_offset 6, -8
  37              		.cfi_offset 14, -4
  38              	.LBB9:
 217:strong-arm\src\pbkdf2/pbkdf2.c **** 	for (int i = 0; i < 16; ++i)
  39              		.loc 1 217 0
  40 0002 0026     		movs	r6, #0
  41              	.LVL1:
  42              	.L2:
 218:strong-arm\src\pbkdf2/pbkdf2.c **** 	{
 219:strong-arm\src\pbkdf2/pbkdf2.c **** 		chunk[i] = stream[i<<2] << 24;
  43              		.loc 1 219 0 discriminator 3
  44 0004 B500     		lsls	r5, r6, #2
  45 0006 4A5D     		ldrb	r2, [r1, r5]
 220:strong-arm\src\pbkdf2/pbkdf2.c **** 		chunk[i] |= stream[(i<<2) + 1] << 16;
  46              		.loc 1 220 0 discriminator 3
  47 0008 4D19     		adds	r5, r1, r5
 219:strong-arm\src\pbkdf2/pbkdf2.c **** 		chunk[i] |= stream[(i<<2) + 1] << 16;
  48              		.loc 1 219 0 discriminator 3
  49 000a 1406     		lsls	r4, r2, #24
  50 000c 0460     		str	r4, [r0]
  51              		.loc 1 220 0 discriminator 3
  52 000e 6B78     		ldrb	r3, [r5, #1]
 217:strong-arm\src\pbkdf2/pbkdf2.c **** 	{
  53              		.loc 1 217 0 discriminator 3
  54 0010 0136     		adds	r6, r6, #1
  55              	.LVL2:
  56              		.loc 1 220 0 discriminator 3
  57 0012 1B04     		lsls	r3, r3, #16
  58 0014 2343     		orrs	r3, r4
  59 0016 1A00     		movs	r2, r3
  60 0018 0360     		str	r3, [r0]
 221:strong-arm\src\pbkdf2/pbkdf2.c **** 		chunk[i] |= stream[(i<<2) + 2] << 8;
  61              		.loc 1 221 0 discriminator 3
  62 001a AB78     		ldrb	r3, [r5, #2]
ARM GAS  C:\Users\Ray\AppData\Local\Temp\ccVtAPjl.s 			page 6


  63 001c 1B02     		lsls	r3, r3, #8
  64 001e 1343     		orrs	r3, r2
  65 0020 0360     		str	r3, [r0]
 222:strong-arm\src\pbkdf2/pbkdf2.c **** 		chunk[i] |= stream[(i<<2) + 3];
  66              		.loc 1 222 0 discriminator 3
  67 0022 EA78     		ldrb	r2, [r5, #3]
  68 0024 1343     		orrs	r3, r2
  69 0026 08C0     		stmia	r0!, {r3}
 217:strong-arm\src\pbkdf2/pbkdf2.c **** 	{
  70              		.loc 1 217 0 discriminator 3
  71 0028 102E     		cmp	r6, #16
  72 002a EBD1     		bne	.L2
  73              	.LBE9:
 223:strong-arm\src\pbkdf2/pbkdf2.c **** 	}
 224:strong-arm\src\pbkdf2/pbkdf2.c **** }
  74              		.loc 1 224 0
  75              		@ sp needed
  76              	.LVL3:
  77 002c 70BD     		pop	{r4, r5, r6, pc}
  78              		.cfi_endproc
  79              	.LFE8:
  80              		.size	_deserialize, .-_deserialize
  81              		.section	.text.compress,"ax",%progbits
  82              		.align	1
  83              		.code	16
  84              		.thumb_func
  85              		.type	compress, %function
  86              	compress:
  87              	.LFB10:
 225:strong-arm\src\pbkdf2/pbkdf2.c **** 
 226:strong-arm\src\pbkdf2/pbkdf2.c **** 
 227:strong-arm\src\pbkdf2/pbkdf2.c **** static void _serialize (uint8_t stream[static 64], uint32_t const chunk[static 16])
 228:strong-arm\src\pbkdf2/pbkdf2.c **** {
 229:strong-arm\src\pbkdf2/pbkdf2.c **** 	for (int i = 0; i < 8; ++i)
 230:strong-arm\src\pbkdf2/pbkdf2.c **** 	{
 231:strong-arm\src\pbkdf2/pbkdf2.c **** 		stream[(i<<2)] = chunk[i] >> 24;
 232:strong-arm\src\pbkdf2/pbkdf2.c **** 		stream[(i<<2)+1] = chunk[i] >> 16;
 233:strong-arm\src\pbkdf2/pbkdf2.c **** 		stream[(i<<2)+2] = chunk[i] >> 8;
 234:strong-arm\src\pbkdf2/pbkdf2.c **** 		stream[(i<<2)+3] = chunk[i];
 235:strong-arm\src\pbkdf2/pbkdf2.c **** 	}
 236:strong-arm\src\pbkdf2/pbkdf2.c **** }
 237:strong-arm\src\pbkdf2/pbkdf2.c **** 
 238:strong-arm\src\pbkdf2/pbkdf2.c **** 
 239:strong-arm\src\pbkdf2/pbkdf2.c **** static void compress (uint32_t digest[static 8], uint32_t const state[static 8], uint32_t const chu
 240:strong-arm\src\pbkdf2/pbkdf2.c **** {
  88              		.loc 1 240 0
  89              		.cfi_startproc
  90              		@ args = 0, pretend = 0, frame = 104
  91              		@ frame_needed = 0, uses_anonymous_args = 0
  92              	.LVL4:
  93 0000 F0B5     		push	{r4, r5, r6, r7, lr}
  94              		.cfi_def_cfa_offset 20
  95              		.cfi_offset 4, -20
  96              		.cfi_offset 5, -16
  97              		.cfi_offset 6, -12
  98              		.cfi_offset 7, -8
  99              		.cfi_offset 14, -4
ARM GAS  C:\Users\Ray\AppData\Local\Temp\ccVtAPjl.s 			page 7


 241:strong-arm\src\pbkdf2/pbkdf2.c **** 	uint32_t a = state[0], b = state[1], c = state[2], d = state[3];
 100              		.loc 1 241 0
 101 0002 0B68     		ldr	r3, [r1]
 240:strong-arm\src\pbkdf2/pbkdf2.c **** 	uint32_t a = state[0], b = state[1], c = state[2], d = state[3];
 102              		.loc 1 240 0
 103 0004 9BB0     		sub	sp, sp, #108
 104              		.cfi_def_cfa_offset 128
 105              		.loc 1 241 0
 106 0006 0493     		str	r3, [sp, #16]
 107              	.LVL5:
 108 0008 4B68     		ldr	r3, [r1, #4]
 109              	.LVL6:
 110 000a 9C46     		mov	ip, r3
 111              	.LVL7:
 112 000c 8B68     		ldr	r3, [r1, #8]
 113              	.LVL8:
 114 000e 0293     		str	r3, [sp, #8]
 115              	.LVL9:
 116 0010 CB68     		ldr	r3, [r1, #12]
 117              	.LVL10:
 118 0012 0693     		str	r3, [sp, #24]
 119              	.LVL11:
 242:strong-arm\src\pbkdf2/pbkdf2.c **** 	uint32_t e = state[4], f = state[5], g = state[6], h = state[7];
 120              		.loc 1 242 0
 121 0014 0B69     		ldr	r3, [r1, #16]
 122              	.LVL12:
 123 0016 0093     		str	r3, [sp]
 124              	.LVL13:
 125 0018 4B69     		ldr	r3, [r1, #20]
 126              	.LVL14:
 127 001a 0393     		str	r3, [sp, #12]
 128              	.LVL15:
 129 001c 8B69     		ldr	r3, [r1, #24]
 130              	.LVL16:
 131 001e 0193     		str	r3, [sp, #4]
 132              	.LVL17:
 133 0020 CB69     		ldr	r3, [r1, #28]
 134              	.LVL18:
 135 0022 0793     		str	r3, [sp, #28]
 136              	.LVL19:
 137 0024 0023     		movs	r3, #0
 138              	.LVL20:
 139              	.L6:
 140              	.LBB25:
 243:strong-arm\src\pbkdf2/pbkdf2.c **** 	uint32_t w_data[16];
 244:strong-arm\src\pbkdf2/pbkdf2.c **** 
 245:strong-arm\src\pbkdf2/pbkdf2.c **** 	for (uint32_t i = 0; i < 16; ++i)
 246:strong-arm\src\pbkdf2/pbkdf2.c **** 		w_data[i] = chunk[i];
 141              		.loc 1 246 0 discriminator 3
 142 0026 D558     		ldr	r5, [r2, r3]
 143 0028 0AAC     		add	r4, sp, #40
 144 002a 1D51     		str	r5, [r3, r4]
 145 002c 0433     		adds	r3, r3, #4
 245:strong-arm\src\pbkdf2/pbkdf2.c **** 		w_data[i] = chunk[i];
 146              		.loc 1 245 0 discriminator 3
 147 002e 402B     		cmp	r3, #64
 148 0030 F9D1     		bne	.L6
ARM GAS  C:\Users\Ray\AppData\Local\Temp\ccVtAPjl.s 			page 8


 149 0032 0022     		movs	r2, #0
 150              	.LVL21:
 151 0034 049B     		ldr	r3, [sp, #16]
 152              	.LVL22:
 153              	.L8:
 154              	.LBE25:
 155              	.LBB26:
 156              	.LBB27:
 247:strong-arm\src\pbkdf2/pbkdf2.c **** 	
 248:strong-arm\src\pbkdf2/pbkdf2.c **** 	for (uint32_t i = 0; i < 64; ++i)
 249:strong-arm\src\pbkdf2/pbkdf2.c **** 	{
 250:strong-arm\src\pbkdf2/pbkdf2.c **** 		uint32_t w = w_data[i&15];
 157              		.loc 1 250 0
 158 0036 0F26     		movs	r6, #15
 159 0038 1640     		ands	r6, r2
 160 003a B400     		lsls	r4, r6, #2
 161 003c 0894     		str	r4, [sp, #32]
 162 003e 089D     		ldr	r5, [sp, #32]
 163 0040 0AAC     		add	r4, sp, #40
 164 0042 2C59     		ldr	r4, [r5, r4]
 165 0044 0594     		str	r4, [sp, #20]
 166              	.LVL23:
 251:strong-arm\src\pbkdf2/pbkdf2.c **** 		
 252:strong-arm\src\pbkdf2/pbkdf2.c **** 		if (i < 48)
 167              		.loc 1 252 0
 168 0046 2F2A     		cmp	r2, #47
 169 0048 31D8     		bhi	.L7
 253:strong-arm\src\pbkdf2/pbkdf2.c **** 			w_data[i&15] = w_data[i&15] + s0 (w_data[(i+1)&15]) + w_data[(i+9)&15] + s1 (w_data[(i+14)&15]);
 170              		.loc 1 253 0
 171 004a 0F25     		movs	r5, #15
 172 004c 541C     		adds	r4, r2, #1
 173              	.LVL24:
 174 004e 2C40     		ands	r4, r5
 175 0050 A400     		lsls	r4, r4, #2
 176 0052 0AAD     		add	r5, sp, #40
 177              	.LVL25:
 178 0054 6559     		ldr	r5, [r4, r5]
 179              	.LVL26:
 180 0056 1400     		movs	r4, r2
 181 0058 0F26     		movs	r6, #15
 182 005a 0E34     		adds	r4, r4, #14
 183 005c 3440     		ands	r4, r6
 184 005e A400     		lsls	r4, r4, #2
 185 0060 0AAE     		add	r6, sp, #40
 186              	.LVL27:
 187 0062 A459     		ldr	r4, [r4, r6]
 188 0064 2F00     		movs	r7, r5
 189 0066 0726     		movs	r6, #7
 190              	.LVL28:
 191 0068 F741     		rors	r7, r7, r6
 192 006a 0997     		str	r7, [sp, #36]
 193 006c 2F00     		movs	r7, r5
 194 006e 0B36     		adds	r6, r6, #11
 195 0070 F741     		rors	r7, r7, r6
 196 0072 099E     		ldr	r6, [sp, #36]
 197 0074 ED08     		lsrs	r5, r5, #3
 198 0076 7740     		eors	r7, r6
ARM GAS  C:\Users\Ray\AppData\Local\Temp\ccVtAPjl.s 			page 9


 199 0078 6F40     		eors	r7, r5
 200 007a 1500     		movs	r5, r2
 201 007c 0F26     		movs	r6, #15
 202 007e 0935     		adds	r5, r5, #9
 203 0080 3540     		ands	r5, r6
 204 0082 AD00     		lsls	r5, r5, #2
 205 0084 0AAE     		add	r6, sp, #40
 206              	.LVL29:
 207 0086 AD59     		ldr	r5, [r5, r6]
 208 0088 059E     		ldr	r6, [sp, #20]
 209              	.LVL30:
 210 008a 7519     		adds	r5, r6, r5
 211 008c 7D19     		adds	r5, r7, r5
 212 008e 1126     		movs	r6, #17
 213              	.LVL31:
 214 0090 2700     		movs	r7, r4
 215 0092 F741     		rors	r7, r7, r6
 216 0094 2600     		movs	r6, r4
 217 0096 0997     		str	r7, [sp, #36]
 218 0098 1327     		movs	r7, #19
 219 009a FE41     		rors	r6, r6, r7
 220 009c 3700     		movs	r7, r6
 221 009e 099E     		ldr	r6, [sp, #36]
 222 00a0 A40A     		lsrs	r4, r4, #10
 223 00a2 7740     		eors	r7, r6
 224 00a4 6740     		eors	r7, r4
 225 00a6 EF19     		adds	r7, r5, r7
 226 00a8 089D     		ldr	r5, [sp, #32]
 227 00aa 0AAC     		add	r4, sp, #40
 228              	.LVL32:
 229 00ac 2F51     		str	r7, [r5, r4]
 230              	.LVL33:
 231              	.L7:
 254:strong-arm\src\pbkdf2/pbkdf2.c **** 		
 255:strong-arm\src\pbkdf2/pbkdf2.c **** 		uint32_t t2 = e0 (a) + maj (a, b, c);
 232              		.loc 1 255 0 discriminator 2
 233 00ae 0224     		movs	r4, #2
 234 00b0 1E00     		movs	r6, r3
 235 00b2 1D00     		movs	r5, r3
 236 00b4 E641     		rors	r6, r6, r4
 237 00b6 0B34     		adds	r4, r4, #11
 238 00b8 E541     		rors	r5, r5, r4
 239 00ba 2C00     		movs	r4, r5
 240 00bc 1625     		movs	r5, #22
 241 00be 7440     		eors	r4, r6
 242 00c0 1E00     		movs	r6, r3
 243 00c2 EE41     		rors	r6, r6, r5
 244 00c4 6640     		eors	r6, r4
 245 00c6 6446     		mov	r4, ip
 246 00c8 029D     		ldr	r5, [sp, #8]
 247 00ca 1C43     		orrs	r4, r3
 248 00cc 2C40     		ands	r4, r5
 249 00ce 6546     		mov	r5, ip
 250 00d0 1D40     		ands	r5, r3
 251 00d2 2C43     		orrs	r4, r5
 256:strong-arm\src\pbkdf2/pbkdf2.c **** 		uint32_t t1 = h + e1 (e) + ch (e, f, g) + kk[i] + w;
 252              		.loc 1 256 0 discriminator 2
ARM GAS  C:\Users\Ray\AppData\Local\Temp\ccVtAPjl.s 			page 10


 253 00d4 0625     		movs	r5, #6
 255:strong-arm\src\pbkdf2/pbkdf2.c **** 		uint32_t t1 = h + e1 (e) + ch (e, f, g) + kk[i] + w;
 254              		.loc 1 255 0 discriminator 2
 255 00d6 3419     		adds	r4, r6, r4
 256              	.LVL34:
 257              		.loc 1 256 0 discriminator 2
 258 00d8 009E     		ldr	r6, [sp]
 259 00da 009F     		ldr	r7, [sp]
 260 00dc EE41     		rors	r6, r6, r5
 261 00de 0535     		adds	r5, r5, #5
 262 00e0 EF41     		rors	r7, r7, r5
 263 00e2 3D00     		movs	r5, r7
 264 00e4 7540     		eors	r5, r6
 265 00e6 1926     		movs	r6, #25
 266 00e8 009F     		ldr	r7, [sp]
 267 00ea F741     		rors	r7, r7, r6
 268 00ec 224E     		ldr	r6, .L12
 269 00ee 7D40     		eors	r5, r7
 270 00f0 9700     		lsls	r7, r2, #2
 271 00f2 BE59     		ldr	r6, [r7, r6]
 272 00f4 059F     		ldr	r7, [sp, #20]
 273              	.LBE27:
 248:strong-arm\src\pbkdf2/pbkdf2.c **** 	{
 274              		.loc 1 248 0 discriminator 2
 275 00f6 0132     		adds	r2, r2, #1
 276              	.LVL35:
 277              	.LBB28:
 278              		.loc 1 256 0 discriminator 2
 279 00f8 BE19     		adds	r6, r7, r6
 280 00fa AD19     		adds	r5, r5, r6
 281 00fc 019F     		ldr	r7, [sp, #4]
 282 00fe 039E     		ldr	r6, [sp, #12]
 283 0100 7E40     		eors	r6, r7
 284 0102 009F     		ldr	r7, [sp]
 285 0104 3E40     		ands	r6, r7
 286 0106 019F     		ldr	r7, [sp, #4]
 287 0108 7E40     		eors	r6, r7
 288 010a AD19     		adds	r5, r5, r6
 289 010c 079E     		ldr	r6, [sp, #28]
 290 010e 0797     		str	r7, [sp, #28]
 291              	.LVL36:
 292 0110 AD19     		adds	r5, r5, r6
 293              	.LVL37:
 257:strong-arm\src\pbkdf2/pbkdf2.c **** 		
 258:strong-arm\src\pbkdf2/pbkdf2.c **** 		h = g;
 259:strong-arm\src\pbkdf2/pbkdf2.c **** 		g = f;
 260:strong-arm\src\pbkdf2/pbkdf2.c **** 		f = e;
 261:strong-arm\src\pbkdf2/pbkdf2.c **** 		e = d + t1;
 294              		.loc 1 261 0 discriminator 2
 295 0112 069E     		ldr	r6, [sp, #24]
 262:strong-arm\src\pbkdf2/pbkdf2.c **** 		d = c;
 263:strong-arm\src\pbkdf2/pbkdf2.c **** 		c = b;
 264:strong-arm\src\pbkdf2/pbkdf2.c **** 		b = a;
 265:strong-arm\src\pbkdf2/pbkdf2.c **** 		a = t1 + t2;
 296              		.loc 1 265 0 discriminator 2
 297 0114 6419     		adds	r4, r4, r5
 298              	.LVL38:
ARM GAS  C:\Users\Ray\AppData\Local\Temp\ccVtAPjl.s 			page 11


 261:strong-arm\src\pbkdf2/pbkdf2.c **** 		d = c;
 299              		.loc 1 261 0 discriminator 2
 300 0116 AE19     		adds	r6, r5, r6
 301              	.LVL39:
 302 0118 029D     		ldr	r5, [sp, #8]
 303              	.LVL40:
 304 011a 0695     		str	r5, [sp, #24]
 305              	.LBE28:
 248:strong-arm\src\pbkdf2/pbkdf2.c **** 	{
 306              		.loc 1 248 0 discriminator 2
 307 011c 402A     		cmp	r2, #64
 308 011e 09D0     		beq	.L11
 309 0120 039D     		ldr	r5, [sp, #12]
 310 0122 0195     		str	r5, [sp, #4]
 311 0124 009D     		ldr	r5, [sp]
 312              	.LBB29:
 261:strong-arm\src\pbkdf2/pbkdf2.c **** 		d = c;
 313              		.loc 1 261 0
 314 0126 0096     		str	r6, [sp]
 315              	.LVL41:
 316              	.LBE29:
 317 0128 0395     		str	r5, [sp, #12]
 318              	.LVL42:
 319 012a 6546     		mov	r5, ip
 320              	.LVL43:
 321 012c 9C46     		mov	ip, r3
 322              	.LVL44:
 323 012e 0295     		str	r5, [sp, #8]
 324              	.LVL45:
 325              	.LBB30:
 326              		.loc 1 265 0
 327 0130 2300     		movs	r3, r4
 328              	.LVL46:
 329 0132 80E7     		b	.L8
 330              	.LVL47:
 331              	.L11:
 332              	.LBE30:
 333              	.LBE26:
 266:strong-arm\src\pbkdf2/pbkdf2.c **** 	}
 267:strong-arm\src\pbkdf2/pbkdf2.c **** 	
 268:strong-arm\src\pbkdf2/pbkdf2.c **** 	digest[0] = state[0] + a;
 334              		.loc 1 268 0
 335 0134 049A     		ldr	r2, [sp, #16]
 336              	.LVL48:
 337 0136 1419     		adds	r4, r2, r4
 338              	.LVL49:
 339 0138 0460     		str	r4, [r0]
 269:strong-arm\src\pbkdf2/pbkdf2.c **** 	digest[1] = state[1] + b;
 340              		.loc 1 269 0
 341 013a 4A68     		ldr	r2, [r1, #4]
 342 013c D318     		adds	r3, r2, r3
 343              	.LVL50:
 344 013e 4360     		str	r3, [r0, #4]
 270:strong-arm\src\pbkdf2/pbkdf2.c **** 	digest[2] = state[2] + c;
 345              		.loc 1 270 0
 346 0140 8A68     		ldr	r2, [r1, #8]
 347 0142 6346     		mov	r3, ip
ARM GAS  C:\Users\Ray\AppData\Local\Temp\ccVtAPjl.s 			page 12


 348 0144 9446     		mov	ip, r2
 349              	.LVL51:
 350 0146 6344     		add	r3, r3, ip
 351              	.LVL52:
 352 0148 8360     		str	r3, [r0, #8]
 271:strong-arm\src\pbkdf2/pbkdf2.c **** 	digest[3] = state[3] + d;
 353              		.loc 1 271 0
 354 014a CA68     		ldr	r2, [r1, #12]
 355 014c 029B     		ldr	r3, [sp, #8]
 356 014e 9446     		mov	ip, r2
 357 0150 6344     		add	r3, r3, ip
 358 0152 C360     		str	r3, [r0, #12]
 272:strong-arm\src\pbkdf2/pbkdf2.c **** 	digest[4] = state[4] + e;
 359              		.loc 1 272 0
 360 0154 0B69     		ldr	r3, [r1, #16]
 273:strong-arm\src\pbkdf2/pbkdf2.c **** 	digest[5] = state[5] + f;
 361              		.loc 1 273 0
 362 0156 009A     		ldr	r2, [sp]
 272:strong-arm\src\pbkdf2/pbkdf2.c **** 	digest[4] = state[4] + e;
 363              		.loc 1 272 0
 364 0158 9E19     		adds	r6, r3, r6
 365              	.LVL53:
 366 015a 0661     		str	r6, [r0, #16]
 367              		.loc 1 273 0
 368 015c 4B69     		ldr	r3, [r1, #20]
 369 015e 9B18     		adds	r3, r3, r2
 370 0160 4361     		str	r3, [r0, #20]
 274:strong-arm\src\pbkdf2/pbkdf2.c **** 	digest[6] = state[6] + g;
 371              		.loc 1 274 0
 372 0162 8A69     		ldr	r2, [r1, #24]
 373 0164 039B     		ldr	r3, [sp, #12]
 374 0166 9446     		mov	ip, r2
 375 0168 6344     		add	r3, r3, ip
 376 016a 8361     		str	r3, [r0, #24]
 275:strong-arm\src\pbkdf2/pbkdf2.c **** 	digest[7] = state[7] + h;
 377              		.loc 1 275 0
 378 016c CB69     		ldr	r3, [r1, #28]
 379 016e DB19     		adds	r3, r3, r7
 380 0170 C361     		str	r3, [r0, #28]
 276:strong-arm\src\pbkdf2/pbkdf2.c **** }
 381              		.loc 1 276 0
 382 0172 1BB0     		add	sp, sp, #108
 383              	.LVL54:
 384              		@ sp needed
 385              	.LVL55:
 386              	.LVL56:
 387 0174 F0BD     		pop	{r4, r5, r6, r7, pc}
 388              	.L13:
 389 0176 C046     		.align	2
 390              	.L12:
 391 0178 00000000 		.word	.LANCHOR0
 392              		.cfi_endproc
 393              	.LFE10:
 394              		.size	compress, .-compress
 395              		.section	.text.PBKDF2,"ax",%progbits
 396              		.align	1
 397              		.global	PBKDF2
ARM GAS  C:\Users\Ray\AppData\Local\Temp\ccVtAPjl.s 			page 13


 398              		.code	16
 399              		.thumb_func
 400              		.type	PBKDF2, %function
 401              	PBKDF2:
 402              	.LFB0:
  22:strong-arm\src\pbkdf2/pbkdf2.c **** 	uint32_t block_count = keylen / 32;
 403              		.loc 1 22 0
 404              		.cfi_startproc
 405              		@ args = 12, pretend = 0, frame = 456
 406              		@ frame_needed = 0, uses_anonymous_args = 0
 407              	.LVL57:
 408 0000 F0B5     		push	{r4, r5, r6, r7, lr}
 409              		.cfi_def_cfa_offset 20
 410              		.cfi_offset 4, -20
 411              		.cfi_offset 5, -16
 412              		.cfi_offset 6, -12
 413              		.cfi_offset 7, -8
 414              		.cfi_offset 14, -4
 415 0002 F5B0     		sub	sp, sp, #468
 416              		.cfi_def_cfa_offset 488
  22:strong-arm\src\pbkdf2/pbkdf2.c **** 	uint32_t block_count = keylen / 32;
 417              		.loc 1 22 0
 418 0004 0793     		str	r3, [sp, #28]
  23:strong-arm\src\pbkdf2/pbkdf2.c **** 	uint32_t sha256_state0[8] = {0};
 419              		.loc 1 23 0
 420 0006 7C9B     		ldr	r3, [sp, #496]
 421              	.LVL58:
  22:strong-arm\src\pbkdf2/pbkdf2.c **** 	uint32_t block_count = keylen / 32;
 422              		.loc 1 22 0
 423 0008 0690     		str	r0, [sp, #24]
  23:strong-arm\src\pbkdf2/pbkdf2.c **** 	uint32_t sha256_state0[8] = {0};
 424              		.loc 1 23 0
 425 000a 5B09     		lsrs	r3, r3, #5
  22:strong-arm\src\pbkdf2/pbkdf2.c **** 	uint32_t block_count = keylen / 32;
 426              		.loc 1 22 0
 427 000c 0491     		str	r1, [sp, #16]
 428 000e 1700     		movs	r7, r2
  24:strong-arm\src\pbkdf2/pbkdf2.c **** 	uint32_t sha256_state1[8] = {0};
 429              		.loc 1 24 0
 430 0010 0021     		movs	r1, #0
 431              	.LVL59:
 432 0012 2022     		movs	r2, #32
 433              	.LVL60:
 434 0014 0AA8     		add	r0, sp, #40
 435              	.LVL61:
  23:strong-arm\src\pbkdf2/pbkdf2.c **** 	uint32_t sha256_state0[8] = {0};
 436              		.loc 1 23 0
 437 0016 0393     		str	r3, [sp, #12]
 438              	.LVL62:
  24:strong-arm\src\pbkdf2/pbkdf2.c **** 	uint32_t sha256_state1[8] = {0};
 439              		.loc 1 24 0
 440 0018 FFF7FEFF 		bl	memset
 441              	.LVL63:
  25:strong-arm\src\pbkdf2/pbkdf2.c **** 	
 442              		.loc 1 25 0
 443 001c 2022     		movs	r2, #32
 444 001e 0021     		movs	r1, #0
ARM GAS  C:\Users\Ray\AppData\Local\Temp\ccVtAPjl.s 			page 14


 445 0020 12A8     		add	r0, sp, #72
 446 0022 FFF7FEFF 		bl	memset
 447              	.LVL64:
  27:strong-arm\src\pbkdf2/pbkdf2.c **** 		block_count += 1;
 448              		.loc 1 27 0
 449 0026 1F23     		movs	r3, #31
 450 0028 7C9A     		ldr	r2, [sp, #496]
 451              	.LBB47:
  32:strong-arm\src\pbkdf2/pbkdf2.c **** 		uint32_t chunk[16] = {0};
 452              		.loc 1 32 0
 453 002a 0021     		movs	r1, #0
 454              	.LBE47:
  27:strong-arm\src\pbkdf2/pbkdf2.c **** 		block_count += 1;
 455              		.loc 1 27 0
 456 002c 1340     		ands	r3, r2
  28:strong-arm\src\pbkdf2/pbkdf2.c **** 
 457              		.loc 1 28 0
 458 002e 5A1E     		subs	r2, r3, #1
 459 0030 9341     		sbcs	r3, r3, r2
 460 0032 039A     		ldr	r2, [sp, #12]
 461              	.LBB50:
  32:strong-arm\src\pbkdf2/pbkdf2.c **** 		uint32_t chunk[16] = {0};
 462              		.loc 1 32 0
 463 0034 4AA8     		add	r0, sp, #296
 464              	.LBE50:
  28:strong-arm\src\pbkdf2/pbkdf2.c **** 
 465              		.loc 1 28 0
 466 0036 D318     		adds	r3, r2, r3
 467              	.LBB51:
  32:strong-arm\src\pbkdf2/pbkdf2.c **** 		uint32_t chunk[16] = {0};
 468              		.loc 1 32 0
 469 0038 4022     		movs	r2, #64
 470              	.LBE51:
  28:strong-arm\src\pbkdf2/pbkdf2.c **** 
 471              		.loc 1 28 0
 472 003a 0393     		str	r3, [sp, #12]
 473              	.LVL65:
 474              	.LBB52:
  32:strong-arm\src\pbkdf2/pbkdf2.c **** 		uint32_t chunk[16] = {0};
 475              		.loc 1 32 0
 476 003c FFF7FEFF 		bl	memset
 477              	.LVL66:
  33:strong-arm\src\pbkdf2/pbkdf2.c **** 
 478              		.loc 1 33 0
 479 0040 4022     		movs	r2, #64
 480 0042 0021     		movs	r1, #0
 481 0044 5AA8     		add	r0, sp, #360
 482 0046 FFF7FEFF 		bl	memset
 483              	.LVL67:
  36:strong-arm\src\pbkdf2/pbkdf2.c **** 		else
 484              		.loc 1 36 0
 485 004a 3A00     		movs	r2, r7
 486 004c 0499     		ldr	r1, [sp, #16]
 487 004e 4AA8     		add	r0, sp, #296
  35:strong-arm\src\pbkdf2/pbkdf2.c **** 			SHA256 (padded_key, password, passlen);
 488              		.loc 1 35 0
 489 0050 402F     		cmp	r7, #64
ARM GAS  C:\Users\Ray\AppData\Local\Temp\ccVtAPjl.s 			page 15


 490 0052 02D9     		bls	.L16
  36:strong-arm\src\pbkdf2/pbkdf2.c **** 		else
 491              		.loc 1 36 0
 492 0054 FFF7FEFF 		bl	SHA256
 493              	.LVL68:
 494 0058 01E0     		b	.L17
 495              	.LVL69:
 496              	.L16:
  38:strong-arm\src\pbkdf2/pbkdf2.c **** 
 497              		.loc 1 38 0
 498 005a FFF7FEFF 		bl	memcpy
 499              	.LVL70:
 500              	.L17:
  40:strong-arm\src\pbkdf2/pbkdf2.c **** 
 501              		.loc 1 40 0
 502 005e 5AA8     		add	r0, sp, #360
 503 0060 4AA9     		add	r1, sp, #296
 504 0062 FFF7FEFF 		bl	_deserialize
 505              	.LVL71:
 506 0066 0023     		movs	r3, #0
 507              	.LBB48:
  44:strong-arm\src\pbkdf2/pbkdf2.c **** 		}
 508              		.loc 1 44 0
 509 0068 7448     		ldr	r0, .L43
 510              	.LVL72:
 511              	.L18:
  44:strong-arm\src\pbkdf2/pbkdf2.c **** 		}
 512              		.loc 1 44 0 is_stmt 0 discriminator 3
 513 006a 5AAA     		add	r2, sp, #360
 514 006c 9958     		ldr	r1, [r3, r2]
 515 006e 4140     		eors	r1, r0
 516 0070 9950     		str	r1, [r3, r2]
 517 0072 0433     		adds	r3, r3, #4
  42:strong-arm\src\pbkdf2/pbkdf2.c **** 		{
 518              		.loc 1 42 0 is_stmt 1 discriminator 3
 519 0074 402B     		cmp	r3, #64
 520 0076 F8D1     		bne	.L18
 521              	.LBE48:
  46:strong-arm\src\pbkdf2/pbkdf2.c **** 
 522              		.loc 1 46 0
 523 0078 0AA8     		add	r0, sp, #40
 524 007a 7149     		ldr	r1, .L43+4
 525 007c FFF7FEFF 		bl	compress
 526              	.LVL73:
 527 0080 0023     		movs	r3, #0
 528              	.LBB49:
  50:strong-arm\src\pbkdf2/pbkdf2.c **** 		}
 529              		.loc 1 50 0
 530 0082 7048     		ldr	r0, .L43+8
 531              	.LVL74:
 532              	.L19:
  50:strong-arm\src\pbkdf2/pbkdf2.c **** 		}
 533              		.loc 1 50 0 is_stmt 0 discriminator 3
 534 0084 5AAA     		add	r2, sp, #360
 535 0086 9958     		ldr	r1, [r3, r2]
 536 0088 4140     		eors	r1, r0
 537 008a 9950     		str	r1, [r3, r2]
ARM GAS  C:\Users\Ray\AppData\Local\Temp\ccVtAPjl.s 			page 16


 538 008c 0433     		adds	r3, r3, #4
  48:strong-arm\src\pbkdf2/pbkdf2.c **** 		{
 539              		.loc 1 48 0 is_stmt 1 discriminator 3
 540 008e 402B     		cmp	r3, #64
 541 0090 F8D1     		bne	.L19
 542              	.LBE49:
 543              	.LBE52:
 544              	.LBB53:
  56:strong-arm\src\pbkdf2/pbkdf2.c **** 	{
 545              		.loc 1 56 0
 546 0092 0125     		movs	r5, #1
 547              	.LBE53:
 548              	.LBB71:
  52:strong-arm\src\pbkdf2/pbkdf2.c **** 	}
 549              		.loc 1 52 0
 550 0094 6A49     		ldr	r1, .L43+4
 551 0096 12A8     		add	r0, sp, #72
 552 0098 FFF7FEFF 		bl	compress
 553              	.LVL75:
 554 009c 069B     		ldr	r3, [sp, #24]
 555 009e 0593     		str	r3, [sp, #20]
 556              	.LVL76:
 557              	.L20:
 558              	.LBE71:
 559              	.LBB72:
  56:strong-arm\src\pbkdf2/pbkdf2.c **** 	{
 560              		.loc 1 56 0 discriminator 1
 561 00a0 039B     		ldr	r3, [sp, #12]
 562 00a2 AB42     		cmp	r3, r5
 563 00a4 00D2     		bcs	.LCB577
 564 00a6 C7E0     		b	.L14	@long jump
 565              	.LCB577:
 566              	.LBB54:
  58:strong-arm\src\pbkdf2/pbkdf2.c **** 		uint32_t U[8] = {0};
 567              		.loc 1 58 0
 568 00a8 4022     		movs	r2, #64
 569 00aa 0021     		movs	r1, #0
 570 00ac 2AA8     		add	r0, sp, #168
 571 00ae FFF7FEFF 		bl	memset
 572              	.LVL77:
  59:strong-arm\src\pbkdf2/pbkdf2.c **** 		uint8_t block_data[32] = {0};
 573              		.loc 1 59 0
 574 00b2 2022     		movs	r2, #32
 575 00b4 0021     		movs	r1, #0
 576 00b6 1AA8     		add	r0, sp, #104
 577 00b8 FFF7FEFF 		bl	memset
 578              	.LVL78:
  60:strong-arm\src\pbkdf2/pbkdf2.c **** 
 579              		.loc 1 60 0
 580 00bc 2022     		movs	r2, #32
 581 00be 0021     		movs	r1, #0
 582 00c0 22A8     		add	r0, sp, #136
 583 00c2 FFF7FEFF 		bl	memset
 584              	.LVL79:
 585              	.LBB55:
  64:strong-arm\src\pbkdf2/pbkdf2.c **** 
 586              		.loc 1 64 0
ARM GAS  C:\Users\Ray\AppData\Local\Temp\ccVtAPjl.s 			page 17


 587 00c6 4022     		movs	r2, #64
 588 00c8 0021     		movs	r1, #0
 589 00ca 3AA8     		add	r0, sp, #232
 590 00cc FFF7FEFF 		bl	memset
 591              	.LVL80:
 592              	.LBB56:
 593              	.LBB57:
 114:strong-arm\src\pbkdf2/pbkdf2.c **** 	uint8_t padded_key[64] = {0};
 594              		.loc 1 114 0
 595 00d0 6822     		movs	r2, #104
 596 00d2 0021     		movs	r1, #0
 597 00d4 5AA8     		add	r0, sp, #360
 598 00d6 FFF7FEFF 		bl	memset
 599              	.LVL81:
 115:strong-arm\src\pbkdf2/pbkdf2.c **** 	uint8_t blocknum_str[] = {(uint8_t)(blocknum >> 24), (uint8_t)(blocknum >> 16), (uint8_t)(blocknum
 600              		.loc 1 115 0
 601 00da 4022     		movs	r2, #64
 602 00dc 0021     		movs	r1, #0
 603 00de 4AA8     		add	r0, sp, #296
 604 00e0 FFF7FEFF 		bl	memset
 605              	.LVL82:
 116:strong-arm\src\pbkdf2/pbkdf2.c **** 	
 606              		.loc 1 116 0
 607 00e4 09AB     		add	r3, sp, #36
 608 00e6 2A0E     		lsrs	r2, r5, #24
 609 00e8 1A70     		strb	r2, [r3]
 610 00ea 2A0C     		lsrs	r2, r5, #16
 611 00ec 5A70     		strb	r2, [r3, #1]
 612 00ee 2A0A     		lsrs	r2, r5, #8
 613 00f0 9A70     		strb	r2, [r3, #2]
 614 00f2 DD70     		strb	r5, [r3, #3]
 121:strong-arm\src\pbkdf2/pbkdf2.c **** 	else
 615              		.loc 1 121 0
 616 00f4 3A00     		movs	r2, r7
 617 00f6 0499     		ldr	r1, [sp, #16]
 618 00f8 4AA8     		add	r0, sp, #296
 120:strong-arm\src\pbkdf2/pbkdf2.c **** 		SHA256 (padded_key, key, klen);
 619              		.loc 1 120 0
 620 00fa 402F     		cmp	r7, #64
 621 00fc 03D9     		bls	.L21
 622              	.LVL83:
 121:strong-arm\src\pbkdf2/pbkdf2.c **** 	else
 623              		.loc 1 121 0
 624 00fe FFF7FEFF 		bl	SHA256
 625              	.LVL84:
 626              	.L23:
 627              	.LBE57:
 628              	.LBE56:
 629              	.LBE55:
 630              	.LBE54:
 631              	.LBE72:
 632              	.LBB73:
  46:strong-arm\src\pbkdf2/pbkdf2.c **** 
 633              		.loc 1 46 0
 634 0102 0023     		movs	r3, #0
 635 0104 02E0     		b	.L22
 636              	.LVL85:
ARM GAS  C:\Users\Ray\AppData\Local\Temp\ccVtAPjl.s 			page 18


 637              	.L21:
 638              	.LBE73:
 639              	.LBB74:
 640              	.LBB70:
 641              	.LBB64:
 642              	.LBB62:
 643              	.LBB60:
 123:strong-arm\src\pbkdf2/pbkdf2.c **** 	
 644              		.loc 1 123 0
 645 0106 FFF7FEFF 		bl	memcpy
 646              	.LVL86:
 647 010a FAE7     		b	.L23
 648              	.L22:
 649              	.LVL87:
 650              	.LBB58:
 127:strong-arm\src\pbkdf2/pbkdf2.c **** 	SHA256_partial (NULL, &sha256_state, padded_key, 64, true, false);
 651              		.loc 1 127 0
 652 010c 3620     		movs	r0, #54
 653 010e 4AAA     		add	r2, sp, #296
 654 0110 995C     		ldrb	r1, [r3, r2]
 655 0112 4140     		eors	r1, r0
 656 0114 9954     		strb	r1, [r3, r2]
 126:strong-arm\src\pbkdf2/pbkdf2.c **** 		padded_key[i] ^= 0x36;
 657              		.loc 1 126 0
 658 0116 0133     		adds	r3, r3, #1
 659              	.LVL88:
 660 0118 402B     		cmp	r3, #64
 661 011a F7D1     		bne	.L22
 662              	.LBE58:
 128:strong-arm\src\pbkdf2/pbkdf2.c **** 	SHA256_partial (NULL, &sha256_state, salt, saltlen, false, false);
 663              		.loc 1 128 0
 664 011c 0024     		movs	r4, #0
 665 011e 0121     		movs	r1, #1
 666 0120 2000     		movs	r0, r4
 667 0122 0091     		str	r1, [sp]
 668 0124 0194     		str	r4, [sp, #4]
 669 0126 5AA9     		add	r1, sp, #360
 670 0128 FFF7FEFF 		bl	SHA256_partial
 671              	.LVL89:
 129:strong-arm\src\pbkdf2/pbkdf2.c **** 	SHA256_partial (hash, &sha256_state, blocknum_str, 4, false, true);
 672              		.loc 1 129 0
 673 012c 7A9B     		ldr	r3, [sp, #488]
 674 012e 079A     		ldr	r2, [sp, #28]
 675 0130 5AA9     		add	r1, sp, #360
 676 0132 2000     		movs	r0, r4
 677 0134 0194     		str	r4, [sp, #4]
 678 0136 0094     		str	r4, [sp]
 679 0138 FFF7FEFF 		bl	SHA256_partial
 680              	.LVL90:
 130:strong-arm\src\pbkdf2/pbkdf2.c **** 	
 681              		.loc 1 130 0
 682 013c 0123     		movs	r3, #1
 683 013e 3AA8     		add	r0, sp, #232
 684              	.LVL91:
 685 0140 0193     		str	r3, [sp, #4]
 686 0142 0094     		str	r4, [sp]
 687 0144 0333     		adds	r3, r3, #3
ARM GAS  C:\Users\Ray\AppData\Local\Temp\ccVtAPjl.s 			page 19


 688 0146 09AA     		add	r2, sp, #36
 689 0148 5AA9     		add	r1, sp, #360
 690 014a FFF7FEFF 		bl	SHA256_partial
 691              	.LVL92:
 692              	.LBB59:
 134:strong-arm\src\pbkdf2/pbkdf2.c **** 		padded_key[i] ^= 0x36 ^ 0x5C;
 693              		.loc 1 134 0
 694 014e 2300     		movs	r3, r4
 135:strong-arm\src\pbkdf2/pbkdf2.c **** 	SHA256_partial (NULL, &sha256_state, padded_key, 64, true, false);
 695              		.loc 1 135 0
 696 0150 6A20     		movs	r0, #106
 697              	.LVL93:
 698              	.L24:
 699 0152 4AAA     		add	r2, sp, #296
 700 0154 995C     		ldrb	r1, [r3, r2]
 701 0156 4140     		eors	r1, r0
 702 0158 9954     		strb	r1, [r3, r2]
 134:strong-arm\src\pbkdf2/pbkdf2.c **** 		padded_key[i] ^= 0x36 ^ 0x5C;
 703              		.loc 1 134 0
 704 015a 0133     		adds	r3, r3, #1
 705              	.LVL94:
 706 015c 402B     		cmp	r3, #64
 707 015e F8D1     		bne	.L24
 708              	.LBE59:
 136:strong-arm\src\pbkdf2/pbkdf2.c **** 	SHA256_partial (hash, &sha256_state, hash, 32, false, true);
 709              		.loc 1 136 0
 710 0160 0024     		movs	r4, #0
 711 0162 0121     		movs	r1, #1
 712 0164 2000     		movs	r0, r4
 713 0166 0091     		str	r1, [sp]
 714 0168 0194     		str	r4, [sp, #4]
 715 016a 5AA9     		add	r1, sp, #360
 716 016c FFF7FEFF 		bl	SHA256_partial
 717              	.LVL95:
 137:strong-arm\src\pbkdf2/pbkdf2.c **** 	
 718              		.loc 1 137 0
 719 0170 0123     		movs	r3, #1
 720 0172 3AAA     		add	r2, sp, #232
 721              	.LVL96:
 722 0174 0193     		str	r3, [sp, #4]
 723 0176 5AA9     		add	r1, sp, #360
 724 0178 1000     		movs	r0, r2
 725 017a 0094     		str	r4, [sp]
 726 017c 1F33     		adds	r3, r3, #31
 727              	.LBE60:
 728              	.LBE62:
  67:strong-arm\src\pbkdf2/pbkdf2.c **** 		}
 729              		.loc 1 67 0
 730 017e 2AAE     		add	r6, sp, #168
 731              	.LBB63:
 732              	.LBB61:
 137:strong-arm\src\pbkdf2/pbkdf2.c **** 	
 733              		.loc 1 137 0
 734 0180 FFF7FEFF 		bl	SHA256_partial
 735              	.LVL97:
 736              	.LBE61:
 737              	.LBE63:
ARM GAS  C:\Users\Ray\AppData\Local\Temp\ccVtAPjl.s 			page 20


  67:strong-arm\src\pbkdf2/pbkdf2.c **** 		}
 738              		.loc 1 67 0
 739 0184 3AA9     		add	r1, sp, #232
 740 0186 3000     		movs	r0, r6
 741 0188 FFF7FEFF 		bl	_deserialize
 742              	.LVL98:
 743              	.L25:
 744              	.LBE64:
 745              	.LBB65:
  73:strong-arm\src\pbkdf2/pbkdf2.c **** 		}
 746              		.loc 1 73 0 discriminator 3
 747 018c A259     		ldr	r2, [r4, r6]
 748 018e 1AAB     		add	r3, sp, #104
 749 0190 E250     		str	r2, [r4, r3]
 750 0192 0434     		adds	r4, r4, #4
  71:strong-arm\src\pbkdf2/pbkdf2.c **** 		{
 751              		.loc 1 71 0 discriminator 3
 752 0194 202C     		cmp	r4, #32
 753 0196 F9D1     		bne	.L25
 754              	.LBE65:
  77:strong-arm\src\pbkdf2/pbkdf2.c **** 		T[14] = 0;
 755              		.loc 1 77 0
 756 0198 8023     		movs	r3, #128
 757 019a 1B06     		lsls	r3, r3, #24
 758 019c 3362     		str	r3, [r6, #32]
  78:strong-arm\src\pbkdf2/pbkdf2.c **** 		T[15] = 768;
 759              		.loc 1 78 0
 760 019e 0023     		movs	r3, #0
 761 01a0 B363     		str	r3, [r6, #56]
  79:strong-arm\src\pbkdf2/pbkdf2.c **** 		
 762              		.loc 1 79 0
 763 01a2 C023     		movs	r3, #192
 764 01a4 9B00     		lsls	r3, r3, #2
 765 01a6 F363     		str	r3, [r6, #60]
 766              	.LVL99:
 767              	.LBB66:
  82:strong-arm\src\pbkdf2/pbkdf2.c **** 		{
 768              		.loc 1 82 0
 769 01a8 1F3C     		subs	r4, r4, #31
 770              	.LVL100:
 771              	.L26:
  82:strong-arm\src\pbkdf2/pbkdf2.c **** 		{
 772              		.loc 1 82 0 is_stmt 0 discriminator 1
 773 01aa 7B9B     		ldr	r3, [sp, #492]
 774 01ac 9C42     		cmp	r4, r3
 775 01ae 15D2     		bcs	.L42
  85:strong-arm\src\pbkdf2/pbkdf2.c **** 			compress (T, sha256_state1, T);
 776              		.loc 1 85 0 is_stmt 1
 777 01b0 2AAA     		add	r2, sp, #168
 778 01b2 1000     		movs	r0, r2
 779 01b4 0AA9     		add	r1, sp, #40
 780 01b6 FFF7FEFF 		bl	compress
 781              	.LVL101:
  86:strong-arm\src\pbkdf2/pbkdf2.c **** 			
 782              		.loc 1 86 0
 783 01ba 2AAA     		add	r2, sp, #168
 784 01bc 12A9     		add	r1, sp, #72
ARM GAS  C:\Users\Ray\AppData\Local\Temp\ccVtAPjl.s 			page 21


 785 01be 1000     		movs	r0, r2
 786 01c0 FFF7FEFF 		bl	compress
 787              	.LVL102:
 788 01c4 0023     		movs	r3, #0
 789              	.LVL103:
 790              	.L27:
 791              	.LBB67:
  90:strong-arm\src\pbkdf2/pbkdf2.c **** 		}
 792              		.loc 1 90 0 discriminator 3
 793 01c6 1AA9     		add	r1, sp, #104
 794 01c8 2AAA     		add	r2, sp, #168
 795 01ca 5858     		ldr	r0, [r3, r1]
 796 01cc 9A58     		ldr	r2, [r3, r2]
 797 01ce 4240     		eors	r2, r0
 798 01d0 5A50     		str	r2, [r3, r1]
 799 01d2 0433     		adds	r3, r3, #4
  89:strong-arm\src\pbkdf2/pbkdf2.c **** 				U[j] ^= T[j];
 800              		.loc 1 89 0 discriminator 3
 801 01d4 202B     		cmp	r3, #32
 802 01d6 F6D1     		bne	.L27
 803              	.LBE67:
  82:strong-arm\src\pbkdf2/pbkdf2.c **** 		{
 804              		.loc 1 82 0 discriminator 2
 805 01d8 0134     		adds	r4, r4, #1
 806              	.LVL104:
 807 01da E6E7     		b	.L26
 808              	.L42:
 809 01dc 0022     		movs	r2, #0
 810              	.LVL105:
 811              	.L29:
 812              	.LBE66:
 813              	.LBB68:
 814              	.LBB69:
 231:strong-arm\src\pbkdf2/pbkdf2.c **** 		stream[(i<<2)+1] = chunk[i] >> 16;
 815              		.loc 1 231 0
 816 01de 9300     		lsls	r3, r2, #2
 817 01e0 74A8     		add	r0, sp, #464
 818 01e2 1AA9     		add	r1, sp, #104
 819 01e4 5958     		ldr	r1, [r3, r1]
 820 01e6 C318     		adds	r3, r0, r3
 821 01e8 1800     		movs	r0, r3
 822 01ea 4938     		subs	r0, r0, #73
 823 01ec FF38     		subs	r0, r0, #255
 824 01ee 0C0E     		lsrs	r4, r1, #24
 825 01f0 0470     		strb	r4, [r0]
 234:strong-arm\src\pbkdf2/pbkdf2.c **** 	}
 826              		.loc 1 234 0
 827 01f2 463B     		subs	r3, r3, #70
 232:strong-arm\src\pbkdf2/pbkdf2.c **** 		stream[(i<<2)+2] = chunk[i] >> 8;
 828              		.loc 1 232 0
 829 01f4 0C0C     		lsrs	r4, r1, #16
 830 01f6 4470     		strb	r4, [r0, #1]
 234:strong-arm\src\pbkdf2/pbkdf2.c **** 	}
 831              		.loc 1 234 0
 832 01f8 FF3B     		subs	r3, r3, #255
 233:strong-arm\src\pbkdf2/pbkdf2.c **** 		stream[(i<<2)+3] = chunk[i];
 833              		.loc 1 233 0
ARM GAS  C:\Users\Ray\AppData\Local\Temp\ccVtAPjl.s 			page 22


 834 01fa 0C0A     		lsrs	r4, r1, #8
 229:strong-arm\src\pbkdf2/pbkdf2.c **** 	{
 835              		.loc 1 229 0
 836 01fc 0132     		adds	r2, r2, #1
 837              	.LVL106:
 233:strong-arm\src\pbkdf2/pbkdf2.c **** 		stream[(i<<2)+3] = chunk[i];
 838              		.loc 1 233 0
 839 01fe 8470     		strb	r4, [r0, #2]
 234:strong-arm\src\pbkdf2/pbkdf2.c **** 	}
 840              		.loc 1 234 0
 841 0200 1970     		strb	r1, [r3]
 229:strong-arm\src\pbkdf2/pbkdf2.c **** 	{
 842              		.loc 1 229 0
 843 0202 082A     		cmp	r2, #8
 844 0204 EBD1     		bne	.L29
 845              	.LVL107:
 846              	.LBE69:
 847              	.LBE68:
  96:strong-arm\src\pbkdf2/pbkdf2.c **** 		{
 848              		.loc 1 96 0
 849 0206 039B     		ldr	r3, [sp, #12]
 850 0208 AB42     		cmp	r3, r5
 851 020a 0BD1     		bne	.L30
  98:strong-arm\src\pbkdf2/pbkdf2.c **** 			break;	/* Prevents overflow of block_num in the extreme case */
 852              		.loc 1 98 0
 853 020c 0E49     		ldr	r1, .L43+12
 854 020e 8C46     		mov	ip, r1
 855 0210 6344     		add	r3, r3, ip
 856 0212 5A01     		lsls	r2, r3, #5
 857 0214 069B     		ldr	r3, [sp, #24]
 858 0216 22A9     		add	r1, sp, #136
 859 0218 9818     		adds	r0, r3, r2
 860 021a 7C9B     		ldr	r3, [sp, #496]
 861 021c 9A1A     		subs	r2, r3, r2
 862 021e FFF7FEFF 		bl	memcpy
 863              	.LVL108:
 864 0222 09E0     		b	.L14
 865              	.L30:
 103:strong-arm\src\pbkdf2/pbkdf2.c **** 		}
 866              		.loc 1 103 0
 867 0224 2022     		movs	r2, #32
 868 0226 22A9     		add	r1, sp, #136
 869 0228 0598     		ldr	r0, [sp, #20]
 870 022a FFF7FEFF 		bl	memcpy
 871              	.LVL109:
 872 022e 059B     		ldr	r3, [sp, #20]
 873              	.LBE70:
  56:strong-arm\src\pbkdf2/pbkdf2.c **** 	{
 874              		.loc 1 56 0
 875 0230 0135     		adds	r5, r5, #1
 876              	.LVL110:
 877 0232 2033     		adds	r3, r3, #32
 878 0234 0593     		str	r3, [sp, #20]
 879 0236 33E7     		b	.L20
 880              	.L14:
 881              	.LBE74:
 106:strong-arm\src\pbkdf2/pbkdf2.c **** 
ARM GAS  C:\Users\Ray\AppData\Local\Temp\ccVtAPjl.s 			page 23


 882              		.loc 1 106 0
 883 0238 75B0     		add	sp, sp, #468
 884              		@ sp needed
 885              	.LVL111:
 886              	.LVL112:
 887 023a F0BD     		pop	{r4, r5, r6, r7, pc}
 888              	.L44:
 889              		.align	2
 890              	.L43:
 891 023c 36363636 		.word	909522486
 892 0240 00010000 		.word	.LANCHOR1
 893 0244 6A6A6A6A 		.word	1785358954
 894 0248 FFFFFF07 		.word	134217727
 895              		.cfi_endproc
 896              	.LFE0:
 897              		.size	PBKDF2, .-PBKDF2
 898              		.section	.rodata
 899              		.align	2
 900              		.set	.LANCHOR0,. + 0
 901              		.set	.LANCHOR1,. + 256
 902              		.type	kk, %object
 903              		.size	kk, 256
 904              	kk:
 905 0000 982F8A42 		.word	1116352408
 906 0004 91443771 		.word	1899447441
 907 0008 CFFBC0B5 		.word	-1245643825
 908 000c A5DBB5E9 		.word	-373957723
 909 0010 5BC25639 		.word	961987163
 910 0014 F111F159 		.word	1508970993
 911 0018 A4823F92 		.word	-1841331548
 912 001c D55E1CAB 		.word	-1424204075
 913 0020 98AA07D8 		.word	-670586216
 914 0024 015B8312 		.word	310598401
 915 0028 BE853124 		.word	607225278
 916 002c C37D0C55 		.word	1426881987
 917 0030 745DBE72 		.word	1925078388
 918 0034 FEB1DE80 		.word	-2132889090
 919 0038 A706DC9B 		.word	-1680079193
 920 003c 74F19BC1 		.word	-1046744716
 921 0040 C1699BE4 		.word	-459576895
 922 0044 8647BEEF 		.word	-272742522
 923 0048 C69DC10F 		.word	264347078
 924 004c CCA10C24 		.word	604807628
 925 0050 6F2CE92D 		.word	770255983
 926 0054 AA84744A 		.word	1249150122
 927 0058 DCA9B05C 		.word	1555081692
 928 005c DA88F976 		.word	1996064986
 929 0060 52513E98 		.word	-1740746414
 930 0064 6DC631A8 		.word	-1473132947
 931 0068 C82703B0 		.word	-1341970488
 932 006c C77F59BF 		.word	-1084653625
 933 0070 F30BE0C6 		.word	-958395405
 934 0074 4791A7D5 		.word	-710438585
 935 0078 5163CA06 		.word	113926993
 936 007c 67292914 		.word	338241895
 937 0080 850AB727 		.word	666307205
 938 0084 38211B2E 		.word	773529912
ARM GAS  C:\Users\Ray\AppData\Local\Temp\ccVtAPjl.s 			page 24


 939 0088 FC6D2C4D 		.word	1294757372
 940 008c 130D3853 		.word	1396182291
 941 0090 54730A65 		.word	1695183700
 942 0094 BB0A6A76 		.word	1986661051
 943 0098 2EC9C281 		.word	-2117940946
 944 009c 852C7292 		.word	-1838011259
 945 00a0 A1E8BFA2 		.word	-1564481375
 946 00a4 4B661AA8 		.word	-1474664885
 947 00a8 708B4BC2 		.word	-1035236496
 948 00ac A3516CC7 		.word	-949202525
 949 00b0 19E892D1 		.word	-778901479
 950 00b4 240699D6 		.word	-694614492
 951 00b8 85350EF4 		.word	-200395387
 952 00bc 70A06A10 		.word	275423344
 953 00c0 16C1A419 		.word	430227734
 954 00c4 086C371E 		.word	506948616
 955 00c8 4C774827 		.word	659060556
 956 00cc B5BCB034 		.word	883997877
 957 00d0 B30C1C39 		.word	958139571
 958 00d4 4AAAD84E 		.word	1322822218
 959 00d8 4FCA9C5B 		.word	1537002063
 960 00dc F36F2E68 		.word	1747873779
 961 00e0 EE828F74 		.word	1955562222
 962 00e4 6F63A578 		.word	2024104815
 963 00e8 1478C884 		.word	-2067236844
 964 00ec 0802C78C 		.word	-1933114872
 965 00f0 FAFFBE90 		.word	-1866530822
 966 00f4 EB6C50A4 		.word	-1538233109
 967 00f8 F7A3F9BE 		.word	-1090935817
 968 00fc F27871C6 		.word	-965641998
 969              		.type	initial_state, %object
 970              		.size	initial_state, 32
 971              	initial_state:
 972 0100 67E6096A 		.word	1779033703
 973 0104 85AE67BB 		.word	-1150833019
 974 0108 72F36E3C 		.word	1013904242
 975 010c 3AF54FA5 		.word	-1521486534
 976 0110 7F520E51 		.word	1359893119
 977 0114 8C68059B 		.word	-1694144372
 978 0118 ABD9831F 		.word	528734635
 979 011c 19CDE05B 		.word	1541459225
 980              		.text
 981              	.Letext0:
 982              		.file 2 "c:\\program files (x86)\\cypress\\psoc creator\\4.1\\psoc creator\\import\\gnu\\arm\\5.4.
 983              		.file 3 "c:\\program files (x86)\\cypress\\psoc creator\\4.1\\psoc creator\\import\\gnu\\arm\\5.4.
 984              		.file 4 ".\\strong-arm\\include/strong-arm/sha256.h"