ARM GAS  C:\Users\Ray\AppData\Local\Temp\ccn0usL8.s 			page 1


   1              		.syntax unified
   2              		.cpu cortex-m0
   3              		.fpu softvfp
   4              		.eabi_attribute 20, 1
   5              		.eabi_attribute 21, 1
   6              		.eabi_attribute 23, 3
   7              		.eabi_attribute 24, 1
   8              		.eabi_attribute 25, 1
   9              		.eabi_attribute 26, 1
  10              		.eabi_attribute 30, 4
  11              		.eabi_attribute 34, 0
  12              		.eabi_attribute 18, 4
  13              		.thumb
  14              		.syntax unified
  15              		.file	"ripemd160.c"
  16              		.text
  17              	.Ltext0:
  18              		.cfi_sections	.debug_frame
  19              		.section	.text.compress,"ax",%progbits
  20              		.align	1
  21              		.code	16
  22              		.thumb_func
  23              		.type	compress, %function
  24              	compress:
  25              	.LFB0:
  26              		.file 1 "strong-arm\\src\\ripemd160\\ripemd160.c"
   1:strong-arm\src\ripemd160/ripemd160.c **** #include <strong-arm/ripemd160.h>
   2:strong-arm\src\ripemd160/ripemd160.c **** #include <string.h>
   3:strong-arm\src\ripemd160/ripemd160.c **** 
   4:strong-arm\src\ripemd160/ripemd160.c **** 
   5:strong-arm\src\ripemd160/ripemd160.c **** #define ROL(x, n)	(((x) << (n)) | ((x) >> (32-(n))))
   6:strong-arm\src\ripemd160/ripemd160.c **** 
   7:strong-arm\src\ripemd160/ripemd160.c **** #define F(x, y, z)		((x) ^ (y) ^ (z)) 
   8:strong-arm\src\ripemd160/ripemd160.c **** #define G(x, y, z)		(((x) & (y)) | (~(x) & (z))) 
   9:strong-arm\src\ripemd160/ripemd160.c **** #define H(x, y, z)		(((x) | ~(y)) ^ (z))
  10:strong-arm\src\ripemd160/ripemd160.c **** #define IQ(x, y, z)		(((x) & (z)) | ((y) & ~(z))) 
  11:strong-arm\src\ripemd160/ripemd160.c **** #define J(x, y, z)		((x) ^ ((y) | ~(z)))
  12:strong-arm\src\ripemd160/ripemd160.c **** 
  13:strong-arm\src\ripemd160/ripemd160.c **** #define FF(a, b, c, d, e, x, s)        {\
  14:strong-arm\src\ripemd160/ripemd160.c ****       (a) += F((b), (c), (d)) + (x);\
  15:strong-arm\src\ripemd160/ripemd160.c ****       (a) = ROL((a), (s)) + (e);\
  16:strong-arm\src\ripemd160/ripemd160.c ****       (c) = ROL((c), 10);\
  17:strong-arm\src\ripemd160/ripemd160.c ****    }
  18:strong-arm\src\ripemd160/ripemd160.c **** #define GG(a, b, c, d, e, x, s)        {\
  19:strong-arm\src\ripemd160/ripemd160.c ****       (a) += G((b), (c), (d)) + (x) + 0x5a827999UL;\
  20:strong-arm\src\ripemd160/ripemd160.c ****       (a) = ROL((a), (s)) + (e);\
  21:strong-arm\src\ripemd160/ripemd160.c ****       (c) = ROL((c), 10);\
  22:strong-arm\src\ripemd160/ripemd160.c ****    }
  23:strong-arm\src\ripemd160/ripemd160.c **** #define HH(a, b, c, d, e, x, s)        {\
  24:strong-arm\src\ripemd160/ripemd160.c ****       (a) += H((b), (c), (d)) + (x) + 0x6ed9eba1UL;\
  25:strong-arm\src\ripemd160/ripemd160.c ****       (a) = ROL((a), (s)) + (e);\
  26:strong-arm\src\ripemd160/ripemd160.c ****       (c) = ROL((c), 10);\
  27:strong-arm\src\ripemd160/ripemd160.c ****    }
  28:strong-arm\src\ripemd160/ripemd160.c **** #define II(a, b, c, d, e, x, s)        {\
  29:strong-arm\src\ripemd160/ripemd160.c ****       (a) += IQ((b), (c), (d)) + (x) + 0x8f1bbcdcUL;\
  30:strong-arm\src\ripemd160/ripemd160.c ****       (a) = ROL((a), (s)) + (e);\
  31:strong-arm\src\ripemd160/ripemd160.c ****       (c) = ROL((c), 10);\
ARM GAS  C:\Users\Ray\AppData\Local\Temp\ccn0usL8.s 			page 2


  32:strong-arm\src\ripemd160/ripemd160.c ****    }
  33:strong-arm\src\ripemd160/ripemd160.c **** #define JJ(a, b, c, d, e, x, s)        {\
  34:strong-arm\src\ripemd160/ripemd160.c ****       (a) += J((b), (c), (d)) + (x) + 0xa953fd4eUL;\
  35:strong-arm\src\ripemd160/ripemd160.c ****       (a) = ROL((a), (s)) + (e);\
  36:strong-arm\src\ripemd160/ripemd160.c ****       (c) = ROL((c), 10);\
  37:strong-arm\src\ripemd160/ripemd160.c ****    }
  38:strong-arm\src\ripemd160/ripemd160.c **** #define FFF(a, b, c, d, e, x, s)        {\
  39:strong-arm\src\ripemd160/ripemd160.c ****       (a) += F((b), (c), (d)) + (x);\
  40:strong-arm\src\ripemd160/ripemd160.c ****       (a) = ROL((a), (s)) + (e);\
  41:strong-arm\src\ripemd160/ripemd160.c ****       (c) = ROL((c), 10);\
  42:strong-arm\src\ripemd160/ripemd160.c ****    }
  43:strong-arm\src\ripemd160/ripemd160.c **** #define GGG(a, b, c, d, e, x, s)        {\
  44:strong-arm\src\ripemd160/ripemd160.c ****       (a) += G((b), (c), (d)) + (x) + 0x7a6d76e9UL;\
  45:strong-arm\src\ripemd160/ripemd160.c ****       (a) = ROL((a), (s)) + (e);\
  46:strong-arm\src\ripemd160/ripemd160.c ****       (c) = ROL((c), 10);\
  47:strong-arm\src\ripemd160/ripemd160.c ****    }
  48:strong-arm\src\ripemd160/ripemd160.c **** #define HHH(a, b, c, d, e, x, s)        {\
  49:strong-arm\src\ripemd160/ripemd160.c ****       (a) += H((b), (c), (d)) + (x) + 0x6d703ef3UL;\
  50:strong-arm\src\ripemd160/ripemd160.c ****       (a) = ROL((a), (s)) + (e);\
  51:strong-arm\src\ripemd160/ripemd160.c ****       (c) = ROL((c), 10);\
  52:strong-arm\src\ripemd160/ripemd160.c ****    }
  53:strong-arm\src\ripemd160/ripemd160.c **** #define III(a, b, c, d, e, x, s)        {\
  54:strong-arm\src\ripemd160/ripemd160.c ****       (a) += IQ((b), (c), (d)) + (x) + 0x5c4dd124UL;\
  55:strong-arm\src\ripemd160/ripemd160.c ****       (a) = ROL((a), (s)) + (e);\
  56:strong-arm\src\ripemd160/ripemd160.c ****       (c) = ROL((c), 10);\
  57:strong-arm\src\ripemd160/ripemd160.c ****    }
  58:strong-arm\src\ripemd160/ripemd160.c **** #define JJJ(a, b, c, d, e, x, s)        {\
  59:strong-arm\src\ripemd160/ripemd160.c ****       (a) += J((b), (c), (d)) + (x) + 0x50a28be6UL;\
  60:strong-arm\src\ripemd160/ripemd160.c ****       (a) = ROL((a), (s)) + (e);\
  61:strong-arm\src\ripemd160/ripemd160.c ****       (c) = ROL((c), 10);\
  62:strong-arm\src\ripemd160/ripemd160.c ****    }
  63:strong-arm\src\ripemd160/ripemd160.c **** 
  64:strong-arm\src\ripemd160/ripemd160.c **** 
  65:strong-arm\src\ripemd160/ripemd160.c **** static void compress(uint32_t *MDbuf, uint32_t *X);
  66:strong-arm\src\ripemd160/ripemd160.c **** 
  67:strong-arm\src\ripemd160/ripemd160.c **** 
  68:strong-arm\src\ripemd160/ripemd160.c **** static void compress(uint32_t *MDbuf, uint32_t *X)
  69:strong-arm\src\ripemd160/ripemd160.c **** {
  27              		.loc 1 69 0
  28              		.cfi_startproc
  29              		@ args = 0, pretend = 0, frame = 96
  30              		@ frame_needed = 0, uses_anonymous_args = 0
  31              	.LVL0:
  32 0000 F0B5     		push	{r4, r5, r6, r7, lr}
  33              		.cfi_def_cfa_offset 20
  34              		.cfi_offset 4, -20
  35              		.cfi_offset 5, -16
  36              		.cfi_offset 6, -12
  37              		.cfi_offset 7, -8
  38              		.cfi_offset 14, -4
  70:strong-arm\src\ripemd160/ripemd160.c **** 	uint32_t aa = MDbuf[0],  bb = MDbuf[1],  cc = MDbuf[2], dd = MDbuf[3],  ee = MDbuf[4];
  71:strong-arm\src\ripemd160/ripemd160.c **** 	uint32_t aaa = MDbuf[0], bbb = MDbuf[1], ccc = MDbuf[2], ddd = MDbuf[3], eee = MDbuf[4];
  72:strong-arm\src\ripemd160/ripemd160.c **** 	
  73:strong-arm\src\ripemd160/ripemd160.c **** 	/* round 1 */
  74:strong-arm\src\ripemd160/ripemd160.c **** 	FF(aa, bb, cc, dd, ee, X[ 0], 11);
  39              		.loc 1 74 0
  40 0002 0B68     		ldr	r3, [r1]
ARM GAS  C:\Users\Ray\AppData\Local\Temp\ccn0usL8.s 			page 3


  69:strong-arm\src\ripemd160/ripemd160.c **** 	uint32_t aa = MDbuf[0],  bb = MDbuf[1],  cc = MDbuf[2], dd = MDbuf[3],  ee = MDbuf[4];
  41              		.loc 1 69 0
  42 0004 99B0     		sub	sp, sp, #100
  43              		.cfi_def_cfa_offset 120
  44              		.loc 1 74 0
  45 0006 0193     		str	r3, [sp, #4]
  46 0008 019A     		ldr	r2, [sp, #4]
  47 000a 0368     		ldr	r3, [r0]
  69:strong-arm\src\ripemd160/ripemd160.c **** 	uint32_t aa = MDbuf[0],  bb = MDbuf[1],  cc = MDbuf[2], dd = MDbuf[3],  ee = MDbuf[4];
  48              		.loc 1 69 0
  49 000c 0091     		str	r1, [sp]
  50 000e 9B18     		adds	r3, r3, r2
  51              	.LVL1:
  52              		.loc 1 74 0
  53 0010 8168     		ldr	r1, [r0, #8]
  54              	.LVL2:
  55 0012 4268     		ldr	r2, [r0, #4]
  69:strong-arm\src\ripemd160/ripemd160.c **** 	uint32_t aa = MDbuf[0],  bb = MDbuf[1],  cc = MDbuf[2], dd = MDbuf[3],  ee = MDbuf[4];
  56              		.loc 1 69 0
  57 0014 0400     		movs	r4, r0
  58              		.loc 1 74 0
  59 0016 4A40     		eors	r2, r1
  60 0018 C168     		ldr	r1, [r0, #12]
  61 001a 4A40     		eors	r2, r1
  62 001c D218     		adds	r2, r2, r3
  63              	.LVL3:
  64 001e 1523     		movs	r3, #21
  65 0020 DA41     		rors	r2, r2, r3
  66              	.LVL4:
  67 0022 0369     		ldr	r3, [r0, #16]
  68 0024 1620     		movs	r0, #22
  69              	.LVL5:
  70 0026 9A18     		adds	r2, r3, r2
  71              	.LVL6:
  72 0028 A368     		ldr	r3, [r4, #8]
  73 002a C341     		rors	r3, r3, r0
  74 002c 1193     		str	r3, [sp, #68]
  75              	.LVL7:
  75:strong-arm\src\ripemd160/ripemd160.c **** 	FF(ee, aa, bb, cc, dd, X[ 1], 14);
  76              		.loc 1 75 0
  77 002e 009B     		ldr	r3, [sp]
  78              	.LVL8:
  79 0030 5B68     		ldr	r3, [r3, #4]
  80 0032 0293     		str	r3, [sp, #8]
  81 0034 0299     		ldr	r1, [sp, #8]
  82 0036 2369     		ldr	r3, [r4, #16]
  83 0038 5D18     		adds	r5, r3, r1
  84              	.LVL9:
  85 003a 1199     		ldr	r1, [sp, #68]
  86 003c 6368     		ldr	r3, [r4, #4]
  87 003e 4B40     		eors	r3, r1
  88 0040 1221     		movs	r1, #18
  89 0042 5340     		eors	r3, r2
  90 0044 5B19     		adds	r3, r3, r5
  91              	.LVL10:
  92 0046 CB41     		rors	r3, r3, r1
  93              	.LVL11:
ARM GAS  C:\Users\Ray\AppData\Local\Temp\ccn0usL8.s 			page 4


  94 0048 6568     		ldr	r5, [r4, #4]
  95              	.LVL12:
  96 004a E168     		ldr	r1, [r4, #12]
  97 004c C541     		rors	r5, r5, r0
  98 004e CB18     		adds	r3, r1, r3
  99              	.LVL13:
  76:strong-arm\src\ripemd160/ripemd160.c **** 	FF(dd, ee, aa, bb, cc, X[ 2], 15);
 100              		.loc 1 76 0
 101 0050 0099     		ldr	r1, [sp]
  75:strong-arm\src\ripemd160/ripemd160.c **** 	FF(ee, aa, bb, cc, dd, X[ 1], 14);
 102              		.loc 1 75 0
 103 0052 1295     		str	r5, [sp, #72]
 104              	.LVL14:
 105              		.loc 1 76 0
 106 0054 8968     		ldr	r1, [r1, #8]
  77:strong-arm\src\ripemd160/ripemd160.c **** 	FF(cc, dd, ee, aa, bb, X[ 3], 12);
 107              		.loc 1 77 0
 108 0056 1F00     		movs	r7, r3
  76:strong-arm\src\ripemd160/ripemd160.c **** 	FF(dd, ee, aa, bb, cc, X[ 2], 15);
 109              		.loc 1 76 0
 110 0058 0391     		str	r1, [sp, #12]
 111 005a 039D     		ldr	r5, [sp, #12]
 112              	.LVL15:
 113 005c E168     		ldr	r1, [r4, #12]
 114 005e 4E19     		adds	r6, r1, r5
 115              	.LVL16:
 116 0060 1121     		movs	r1, #17
 117 0062 129D     		ldr	r5, [sp, #72]
 118 0064 5540     		eors	r5, r2
 119 0066 5D40     		eors	r5, r3
 120 0068 AD19     		adds	r5, r5, r6
 121              	.LVL17:
 122 006a CD41     		rors	r5, r5, r1
 123              	.LVL18:
 124 006c 1199     		ldr	r1, [sp, #68]
 125 006e C241     		rors	r2, r2, r0
 126              	.LVL19:
 127 0070 4D19     		adds	r5, r1, r5
 128              	.LVL20:
 129              		.loc 1 77 0
 130 0072 0099     		ldr	r1, [sp]
 131 0074 5740     		eors	r7, r2
 132 0076 C968     		ldr	r1, [r1, #12]
 133 0078 6F40     		eors	r7, r5
 134 007a 0491     		str	r1, [sp, #16]
 135 007c 1199     		ldr	r1, [sp, #68]
 136 007e 049E     		ldr	r6, [sp, #16]
 137 0080 C341     		rors	r3, r3, r0
 138              	.LVL21:
 139 0082 8E19     		adds	r6, r1, r6
 140              	.LVL22:
 141 0084 1421     		movs	r1, #20
 142 0086 BF19     		adds	r7, r7, r6
 143 0088 CF41     		rors	r7, r7, r1
 144 008a 1299     		ldr	r1, [sp, #72]
 145 008c CF19     		adds	r7, r1, r7
 146              	.LVL23:
ARM GAS  C:\Users\Ray\AppData\Local\Temp\ccn0usL8.s 			page 5


  78:strong-arm\src\ripemd160/ripemd160.c **** 	FF(bb, cc, dd, ee, aa, X[ 4],  5);
 147              		.loc 1 78 0
 148 008e 0099     		ldr	r1, [sp]
 149 0090 0969     		ldr	r1, [r1, #16]
 150 0092 0591     		str	r1, [sp, #20]
 151 0094 059E     		ldr	r6, [sp, #20]
 152 0096 1299     		ldr	r1, [sp, #72]
 153 0098 8E19     		adds	r6, r1, r6
 154              	.LVL24:
 155 009a 2900     		movs	r1, r5
 156 009c 5940     		eors	r1, r3
 157 009e 7940     		eors	r1, r7
 158 00a0 8C46     		mov	ip, r1
 159 00a2 1B21     		movs	r1, #27
 160 00a4 6644     		add	r6, r6, ip
 161              	.LVL25:
 162 00a6 CE41     		rors	r6, r6, r1
 163              	.LVL26:
  79:strong-arm\src\ripemd160/ripemd160.c **** 	FF(aa, bb, cc, dd, ee, X[ 5],  8);
 164              		.loc 1 79 0
 165 00a8 0099     		ldr	r1, [sp]
  78:strong-arm\src\ripemd160/ripemd160.c **** 	FF(bb, cc, dd, ee, aa, X[ 4],  5);
 166              		.loc 1 78 0
 167 00aa 9619     		adds	r6, r2, r6
 168              	.LVL27:
 169              		.loc 1 79 0
 170 00ac 4969     		ldr	r1, [r1, #20]
  78:strong-arm\src\ripemd160/ripemd160.c **** 	FF(bb, cc, dd, ee, aa, X[ 4],  5);
 171              		.loc 1 78 0
 172 00ae C541     		rors	r5, r5, r0
 173              	.LVL28:
 174              		.loc 1 79 0
 175 00b0 0691     		str	r1, [sp, #24]
 176 00b2 5218     		adds	r2, r2, r1
 177              	.LVL29:
 178 00b4 3900     		movs	r1, r7
 179 00b6 6940     		eors	r1, r5
 180 00b8 7140     		eors	r1, r6
 181 00ba 8C46     		mov	ip, r1
 182 00bc 1821     		movs	r1, #24
 183 00be 6244     		add	r2, r2, ip
 184              	.LVL30:
 185 00c0 CA41     		rors	r2, r2, r1
 186              	.LVL31:
  80:strong-arm\src\ripemd160/ripemd160.c **** 	FF(ee, aa, bb, cc, dd, X[ 6],  7);
 187              		.loc 1 80 0
 188 00c2 0099     		ldr	r1, [sp]
  79:strong-arm\src\ripemd160/ripemd160.c **** 	FF(aa, bb, cc, dd, ee, X[ 5],  8);
 189              		.loc 1 79 0
 190 00c4 9A18     		adds	r2, r3, r2
 191              	.LVL32:
 192              		.loc 1 80 0
 193 00c6 8969     		ldr	r1, [r1, #24]
  79:strong-arm\src\ripemd160/ripemd160.c **** 	FF(aa, bb, cc, dd, ee, X[ 5],  8);
 194              		.loc 1 79 0
 195 00c8 C741     		rors	r7, r7, r0
 196              	.LVL33:
ARM GAS  C:\Users\Ray\AppData\Local\Temp\ccn0usL8.s 			page 6


 197              		.loc 1 80 0
 198 00ca 0791     		str	r1, [sp, #28]
 199 00cc 5B18     		adds	r3, r3, r1
 200              	.LVL34:
 201 00ce 3100     		movs	r1, r6
 202 00d0 7940     		eors	r1, r7
 203 00d2 5140     		eors	r1, r2
 204 00d4 8C46     		mov	ip, r1
 205 00d6 1921     		movs	r1, #25
 206 00d8 6344     		add	r3, r3, ip
 207              	.LVL35:
 208 00da CB41     		rors	r3, r3, r1
 209              	.LVL36:
  81:strong-arm\src\ripemd160/ripemd160.c **** 	FF(dd, ee, aa, bb, cc, X[ 7],  9);
 210              		.loc 1 81 0
 211 00dc 0099     		ldr	r1, [sp]
  80:strong-arm\src\ripemd160/ripemd160.c **** 	FF(ee, aa, bb, cc, dd, X[ 6],  7);
 212              		.loc 1 80 0
 213 00de EB18     		adds	r3, r5, r3
 214              	.LVL37:
 215              		.loc 1 81 0
 216 00e0 C969     		ldr	r1, [r1, #28]
  80:strong-arm\src\ripemd160/ripemd160.c **** 	FF(ee, aa, bb, cc, dd, X[ 6],  7);
 217              		.loc 1 80 0
 218 00e2 C641     		rors	r6, r6, r0
 219              	.LVL38:
 220              		.loc 1 81 0
 221 00e4 0891     		str	r1, [sp, #32]
 222 00e6 6D18     		adds	r5, r5, r1
 223              	.LVL39:
 224 00e8 1100     		movs	r1, r2
 225 00ea 7140     		eors	r1, r6
 226 00ec 5940     		eors	r1, r3
 227 00ee 8C46     		mov	ip, r1
 228 00f0 1721     		movs	r1, #23
 229 00f2 6544     		add	r5, r5, ip
 230              	.LVL40:
 231 00f4 CD41     		rors	r5, r5, r1
 232              	.LVL41:
  82:strong-arm\src\ripemd160/ripemd160.c **** 	FF(cc, dd, ee, aa, bb, X[ 8], 11);
 233              		.loc 1 82 0
 234 00f6 0099     		ldr	r1, [sp]
  81:strong-arm\src\ripemd160/ripemd160.c **** 	FF(dd, ee, aa, bb, cc, X[ 7],  9);
 235              		.loc 1 81 0
 236 00f8 7D19     		adds	r5, r7, r5
 237              	.LVL42:
 238              		.loc 1 82 0
 239 00fa 096A     		ldr	r1, [r1, #32]
  81:strong-arm\src\ripemd160/ripemd160.c **** 	FF(dd, ee, aa, bb, cc, X[ 7],  9);
 240              		.loc 1 81 0
 241 00fc C241     		rors	r2, r2, r0
 242              	.LVL43:
 243              		.loc 1 82 0
 244 00fe 0991     		str	r1, [sp, #36]
 245 0100 7F18     		adds	r7, r7, r1
 246              	.LVL44:
 247 0102 1900     		movs	r1, r3
ARM GAS  C:\Users\Ray\AppData\Local\Temp\ccn0usL8.s 			page 7


 248 0104 5140     		eors	r1, r2
 249 0106 6940     		eors	r1, r5
 250 0108 8C46     		mov	ip, r1
 251 010a 1521     		movs	r1, #21
 252 010c 6744     		add	r7, r7, ip
 253              	.LVL45:
 254 010e CF41     		rors	r7, r7, r1
 255              	.LVL46:
  83:strong-arm\src\ripemd160/ripemd160.c **** 	FF(bb, cc, dd, ee, aa, X[ 9], 13);
 256              		.loc 1 83 0
 257 0110 0099     		ldr	r1, [sp]
  82:strong-arm\src\ripemd160/ripemd160.c **** 	FF(cc, dd, ee, aa, bb, X[ 8], 11);
 258              		.loc 1 82 0
 259 0112 F719     		adds	r7, r6, r7
 260              	.LVL47:
 261              		.loc 1 83 0
 262 0114 496A     		ldr	r1, [r1, #36]
  82:strong-arm\src\ripemd160/ripemd160.c **** 	FF(cc, dd, ee, aa, bb, X[ 8], 11);
 263              		.loc 1 82 0
 264 0116 C341     		rors	r3, r3, r0
 265              	.LVL48:
 266              		.loc 1 83 0
 267 0118 0A91     		str	r1, [sp, #40]
 268 011a 7618     		adds	r6, r6, r1
 269              	.LVL49:
 270 011c 2900     		movs	r1, r5
 271 011e 5940     		eors	r1, r3
 272 0120 7940     		eors	r1, r7
 273 0122 8C46     		mov	ip, r1
 274 0124 1321     		movs	r1, #19
 275 0126 6644     		add	r6, r6, ip
 276              	.LVL50:
 277 0128 CE41     		rors	r6, r6, r1
 278              	.LVL51:
  84:strong-arm\src\ripemd160/ripemd160.c **** 	FF(aa, bb, cc, dd, ee, X[10], 14);
 279              		.loc 1 84 0
 280 012a 0099     		ldr	r1, [sp]
  83:strong-arm\src\ripemd160/ripemd160.c **** 	FF(bb, cc, dd, ee, aa, X[ 9], 13);
 281              		.loc 1 83 0
 282 012c 9619     		adds	r6, r2, r6
 283              	.LVL52:
 284              		.loc 1 84 0
 285 012e 896A     		ldr	r1, [r1, #40]
  83:strong-arm\src\ripemd160/ripemd160.c **** 	FF(bb, cc, dd, ee, aa, X[ 9], 13);
 286              		.loc 1 83 0
 287 0130 C541     		rors	r5, r5, r0
 288              	.LVL53:
 289              		.loc 1 84 0
 290 0132 0B91     		str	r1, [sp, #44]
 291 0134 5218     		adds	r2, r2, r1
 292              	.LVL54:
 293 0136 3900     		movs	r1, r7
 294 0138 6940     		eors	r1, r5
 295 013a 7140     		eors	r1, r6
 296 013c 8C46     		mov	ip, r1
 297 013e 1221     		movs	r1, #18
 298 0140 6244     		add	r2, r2, ip
ARM GAS  C:\Users\Ray\AppData\Local\Temp\ccn0usL8.s 			page 8


 299              	.LVL55:
 300 0142 CA41     		rors	r2, r2, r1
 301              	.LVL56:
  85:strong-arm\src\ripemd160/ripemd160.c **** 	FF(ee, aa, bb, cc, dd, X[11], 15);
 302              		.loc 1 85 0
 303 0144 0099     		ldr	r1, [sp]
  84:strong-arm\src\ripemd160/ripemd160.c **** 	FF(aa, bb, cc, dd, ee, X[10], 14);
 304              		.loc 1 84 0
 305 0146 9A18     		adds	r2, r3, r2
 306              	.LVL57:
 307              		.loc 1 85 0
 308 0148 C96A     		ldr	r1, [r1, #44]
  84:strong-arm\src\ripemd160/ripemd160.c **** 	FF(aa, bb, cc, dd, ee, X[10], 14);
 309              		.loc 1 84 0
 310 014a C741     		rors	r7, r7, r0
 311              	.LVL58:
 312              		.loc 1 85 0
 313 014c 0C91     		str	r1, [sp, #48]
 314 014e 5B18     		adds	r3, r3, r1
 315              	.LVL59:
 316 0150 3100     		movs	r1, r6
 317 0152 7940     		eors	r1, r7
 318 0154 5140     		eors	r1, r2
 319 0156 8C46     		mov	ip, r1
 320 0158 1121     		movs	r1, #17
 321 015a 6344     		add	r3, r3, ip
 322              	.LVL60:
 323 015c CB41     		rors	r3, r3, r1
 324              	.LVL61:
  86:strong-arm\src\ripemd160/ripemd160.c **** 	FF(dd, ee, aa, bb, cc, X[12],  6);
 325              		.loc 1 86 0
 326 015e 0099     		ldr	r1, [sp]
  85:strong-arm\src\ripemd160/ripemd160.c **** 	FF(ee, aa, bb, cc, dd, X[11], 15);
 327              		.loc 1 85 0
 328 0160 EB18     		adds	r3, r5, r3
 329              	.LVL62:
 330              		.loc 1 86 0
 331 0162 096B     		ldr	r1, [r1, #48]
  85:strong-arm\src\ripemd160/ripemd160.c **** 	FF(ee, aa, bb, cc, dd, X[11], 15);
 332              		.loc 1 85 0
 333 0164 C641     		rors	r6, r6, r0
 334              	.LVL63:
 335              		.loc 1 86 0
 336 0166 0D91     		str	r1, [sp, #52]
 337 0168 6D18     		adds	r5, r5, r1
 338              	.LVL64:
 339 016a 1100     		movs	r1, r2
 340 016c 7140     		eors	r1, r6
 341 016e 5940     		eors	r1, r3
 342 0170 8C46     		mov	ip, r1
 343 0172 1A21     		movs	r1, #26
 344 0174 6544     		add	r5, r5, ip
 345              	.LVL65:
 346 0176 CD41     		rors	r5, r5, r1
 347              	.LVL66:
  87:strong-arm\src\ripemd160/ripemd160.c **** 	FF(cc, dd, ee, aa, bb, X[13],  7);
 348              		.loc 1 87 0
ARM GAS  C:\Users\Ray\AppData\Local\Temp\ccn0usL8.s 			page 9


 349 0178 0099     		ldr	r1, [sp]
  86:strong-arm\src\ripemd160/ripemd160.c **** 	FF(dd, ee, aa, bb, cc, X[12],  6);
 350              		.loc 1 86 0
 351 017a 7D19     		adds	r5, r7, r5
 352              	.LVL67:
 353              		.loc 1 87 0
 354 017c 496B     		ldr	r1, [r1, #52]
  86:strong-arm\src\ripemd160/ripemd160.c **** 	FF(dd, ee, aa, bb, cc, X[12],  6);
 355              		.loc 1 86 0
 356 017e C241     		rors	r2, r2, r0
 357              	.LVL68:
 358              		.loc 1 87 0
 359 0180 0E91     		str	r1, [sp, #56]
 360 0182 7F18     		adds	r7, r7, r1
 361              	.LVL69:
 362 0184 1900     		movs	r1, r3
 363 0186 5140     		eors	r1, r2
 364 0188 6940     		eors	r1, r5
 365 018a 8C46     		mov	ip, r1
 366 018c 1921     		movs	r1, #25
 367 018e C341     		rors	r3, r3, r0
 368              	.LVL70:
 369 0190 6744     		add	r7, r7, ip
 370              	.LVL71:
 371 0192 CF41     		rors	r7, r7, r1
 372              	.LVL72:
 373 0194 1393     		str	r3, [sp, #76]
  88:strong-arm\src\ripemd160/ripemd160.c **** 	FF(bb, cc, dd, ee, aa, X[14],  9);
 374              		.loc 1 88 0
 375 0196 009B     		ldr	r3, [sp]
  87:strong-arm\src\ripemd160/ripemd160.c **** 	FF(cc, dd, ee, aa, bb, X[13],  7);
 376              		.loc 1 87 0
 377 0198 F719     		adds	r7, r6, r7
 378              	.LVL73:
 379              		.loc 1 88 0
 380 019a 996B     		ldr	r1, [r3, #56]
 381 019c 139B     		ldr	r3, [sp, #76]
 382 019e 0F91     		str	r1, [sp, #60]
 383 01a0 7618     		adds	r6, r6, r1
 384              	.LVL74:
 385 01a2 2900     		movs	r1, r5
 386 01a4 5940     		eors	r1, r3
 387 01a6 7940     		eors	r1, r7
 388 01a8 8C46     		mov	ip, r1
 389 01aa 1721     		movs	r1, #23
 390 01ac 6644     		add	r6, r6, ip
 391              	.LVL75:
 392 01ae CE41     		rors	r6, r6, r1
 393              	.LVL76:
  89:strong-arm\src\ripemd160/ripemd160.c **** 	FF(aa, bb, cc, dd, ee, X[15],  8);
 394              		.loc 1 89 0
 395 01b0 009B     		ldr	r3, [sp]
  88:strong-arm\src\ripemd160/ripemd160.c **** 	FF(bb, cc, dd, ee, aa, X[14],  9);
 396              		.loc 1 88 0
 397 01b2 9619     		adds	r6, r2, r6
 398              	.LVL77:
 399              		.loc 1 89 0
ARM GAS  C:\Users\Ray\AppData\Local\Temp\ccn0usL8.s 			page 10


 400 01b4 D96B     		ldr	r1, [r3, #60]
  88:strong-arm\src\ripemd160/ripemd160.c **** 	FF(bb, cc, dd, ee, aa, X[14],  9);
 401              		.loc 1 88 0
 402 01b6 C541     		rors	r5, r5, r0
 403              	.LVL78:
 404              		.loc 1 89 0
 405 01b8 1091     		str	r1, [sp, #64]
 406 01ba 5218     		adds	r2, r2, r1
 407              	.LVL79:
 408 01bc 3900     		movs	r1, r7
 409 01be 6940     		eors	r1, r5
 410 01c0 7140     		eors	r1, r6
 411 01c2 8A18     		adds	r2, r1, r2
 412              	.LVL80:
 413 01c4 1821     		movs	r1, #24
 414 01c6 CA41     		rors	r2, r2, r1
 415              	.LVL81:
 416 01c8 139B     		ldr	r3, [sp, #76]
 417 01ca 0899     		ldr	r1, [sp, #32]
 418 01cc 9A18     		adds	r2, r3, r2
 419              	.LVL82:
 420 01ce FE4B     		ldr	r3, .L2
 421 01d0 C741     		rors	r7, r7, r0
 422              	.LVL83:
 423 01d2 C918     		adds	r1, r1, r3
 424 01d4 139B     		ldr	r3, [sp, #76]
 425 01d6 CB18     		adds	r3, r1, r3
 426              	.LVL84:
  90:strong-arm\src\ripemd160/ripemd160.c **** 	
  91:strong-arm\src\ripemd160/ripemd160.c **** 	/* round 2 */
  92:strong-arm\src\ripemd160/ripemd160.c **** 	GG(ee, aa, bb, cc, dd, X[ 7],  7);
 427              		.loc 1 92 0
 428 01d8 3100     		movs	r1, r6
 429 01da 7940     		eors	r1, r7
 430 01dc 1140     		ands	r1, r2
 431 01de 7940     		eors	r1, r7
 432 01e0 CB18     		adds	r3, r1, r3
 433              	.LVL85:
 434 01e2 1921     		movs	r1, #25
 435 01e4 CB41     		rors	r3, r3, r1
 436              	.LVL86:
 437 01e6 EB18     		adds	r3, r5, r3
 438 01e8 9C46     		mov	ip, r3
 439              	.LVL87:
 440 01ea 0599     		ldr	r1, [sp, #20]
 441 01ec F64B     		ldr	r3, .L2
 442              	.LVL88:
 443 01ee C641     		rors	r6, r6, r0
 444              	.LVL89:
 445 01f0 C918     		adds	r1, r1, r3
 446 01f2 4D19     		adds	r5, r1, r5
 447              	.LVL90:
  93:strong-arm\src\ripemd160/ripemd160.c **** 	GG(dd, ee, aa, bb, cc, X[ 4],  6);
 448              		.loc 1 93 0
 449 01f4 1100     		movs	r1, r2
 450 01f6 6346     		mov	r3, ip
 451 01f8 7140     		eors	r1, r6
ARM GAS  C:\Users\Ray\AppData\Local\Temp\ccn0usL8.s 			page 11


 452 01fa 1940     		ands	r1, r3
 453 01fc 1A23     		movs	r3, #26
 454 01fe 7140     		eors	r1, r6
 455 0200 4D19     		adds	r5, r1, r5
 456              	.LVL91:
 457 0202 DD41     		rors	r5, r5, r3
 458              	.LVL92:
 459 0204 7B19     		adds	r3, r7, r5
 460 0206 0093     		str	r3, [sp]
 461              	.LVL93:
 462 0208 EF49     		ldr	r1, .L2
 463 020a 0E9B     		ldr	r3, [sp, #56]
 464              	.LVL94:
 465 020c C241     		rors	r2, r2, r0
 466              	.LVL95:
 467 020e 5918     		adds	r1, r3, r1
 468 0210 CF19     		adds	r7, r1, r7
 469              	.LVL96:
  94:strong-arm\src\ripemd160/ripemd160.c **** 	GG(cc, dd, ee, aa, bb, X[13],  8);
 470              		.loc 1 94 0
 471 0212 6146     		mov	r1, ip
 472 0214 009B     		ldr	r3, [sp]
 473 0216 5140     		eors	r1, r2
 474 0218 1940     		ands	r1, r3
 475 021a 1823     		movs	r3, #24
 476 021c 5140     		eors	r1, r2
 477 021e CF19     		adds	r7, r1, r7
 478              	.LVL97:
 479 0220 DF41     		rors	r7, r7, r3
 480              	.LVL98:
 481 0222 6346     		mov	r3, ip
 482 0224 C341     		rors	r3, r3, r0
 483 0226 0299     		ldr	r1, [sp, #8]
 484 0228 E74D     		ldr	r5, .L2
 485 022a F719     		adds	r7, r6, r7
 486              	.LVL99:
 487 022c 4919     		adds	r1, r1, r5
  95:strong-arm\src\ripemd160/ripemd160.c **** 	GG(bb, cc, dd, ee, aa, X[ 1], 13);
 488              		.loc 1 95 0
 489 022e 1325     		movs	r5, #19
 490 0230 8E19     		adds	r6, r1, r6
 491              	.LVL100:
 492 0232 0099     		ldr	r1, [sp]
 493 0234 5940     		eors	r1, r3
 494 0236 3940     		ands	r1, r7
 495 0238 5940     		eors	r1, r3
 496 023a 8919     		adds	r1, r1, r6
 497              	.LVL101:
 498 023c E941     		rors	r1, r1, r5
 499              	.LVL102:
 500 023e 5118     		adds	r1, r2, r1
 501 0240 8C46     		mov	ip, r1
 502              	.LVL103:
 503 0242 0B9E     		ldr	r6, [sp, #44]
 504 0244 E049     		ldr	r1, .L2
 505              	.LVL104:
 506 0246 009D     		ldr	r5, [sp]
ARM GAS  C:\Users\Ray\AppData\Local\Temp\ccn0usL8.s 			page 12


 507 0248 7618     		adds	r6, r6, r1
 508 024a C541     		rors	r5, r5, r0
 509              	.LVL105:
 510 024c B218     		adds	r2, r6, r2
 511              	.LVL106:
  96:strong-arm\src\ripemd160/ripemd160.c **** 	GG(aa, bb, cc, dd, ee, X[10], 11);
 512              		.loc 1 96 0
 513 024e 3E00     		movs	r6, r7
 514 0250 6146     		mov	r1, ip
 515 0252 6E40     		eors	r6, r5
 516 0254 0E40     		ands	r6, r1
 517 0256 6E40     		eors	r6, r5
 518 0258 B618     		adds	r6, r6, r2
 519              	.LVL107:
 520 025a 1522     		movs	r2, #21
 521 025c D641     		rors	r6, r6, r2
 522              	.LVL108:
 523 025e DA49     		ldr	r1, .L2
 524 0260 079A     		ldr	r2, [sp, #28]
 525 0262 C741     		rors	r7, r7, r0
 526              	.LVL109:
 527 0264 5218     		adds	r2, r2, r1
 528 0266 9E19     		adds	r6, r3, r6
 529              	.LVL110:
 530 0268 D318     		adds	r3, r2, r3
 531              	.LVL111:
  97:strong-arm\src\ripemd160/ripemd160.c **** 	GG(ee, aa, bb, cc, dd, X[ 6],  9);
 532              		.loc 1 97 0
 533 026a 6246     		mov	r2, ip
 534 026c 7A40     		eors	r2, r7
 535 026e 3240     		ands	r2, r6
 536 0270 7A40     		eors	r2, r7
 537 0272 D318     		adds	r3, r2, r3
 538              	.LVL112:
 539 0274 1722     		movs	r2, #23
 540 0276 D341     		rors	r3, r3, r2
 541              	.LVL113:
 542 0278 6146     		mov	r1, ip
 543 027a EB18     		adds	r3, r5, r3
 544 027c 0093     		str	r3, [sp]
 545              	.LVL114:
 546 027e 109A     		ldr	r2, [sp, #64]
 547 0280 D14B     		ldr	r3, .L2
 548              	.LVL115:
 549 0282 C141     		rors	r1, r1, r0
 550              	.LVL116:
 551 0284 D218     		adds	r2, r2, r3
 552 0286 5519     		adds	r5, r2, r5
 553              	.LVL117:
  98:strong-arm\src\ripemd160/ripemd160.c **** 	GG(dd, ee, aa, bb, cc, X[15],  7);
 554              		.loc 1 98 0
 555 0288 3200     		movs	r2, r6
 556 028a 009B     		ldr	r3, [sp]
 557 028c 4A40     		eors	r2, r1
 558 028e 1A40     		ands	r2, r3
 559 0290 1923     		movs	r3, #25
 560 0292 4A40     		eors	r2, r1
ARM GAS  C:\Users\Ray\AppData\Local\Temp\ccn0usL8.s 			page 13


 561 0294 5519     		adds	r5, r2, r5
 562              	.LVL118:
 563 0296 DD41     		rors	r5, r5, r3
 564              	.LVL119:
 565 0298 7B19     		adds	r3, r7, r5
 566 029a 9C46     		mov	ip, r3
 567              	.LVL120:
 568 029c CA4A     		ldr	r2, .L2
 569 029e 049B     		ldr	r3, [sp, #16]
 570              	.LVL121:
 571 02a0 C641     		rors	r6, r6, r0
 572              	.LVL122:
 573 02a2 9A18     		adds	r2, r3, r2
  99:strong-arm\src\ripemd160/ripemd160.c **** 	GG(cc, dd, ee, aa, bb, X[ 3], 15);
 574              		.loc 1 99 0
 575 02a4 6346     		mov	r3, ip
 576 02a6 D719     		adds	r7, r2, r7
 577              	.LVL123:
 578 02a8 009A     		ldr	r2, [sp]
 579 02aa C74D     		ldr	r5, .L2
 580 02ac 7240     		eors	r2, r6
 581 02ae 1A40     		ands	r2, r3
 582 02b0 1123     		movs	r3, #17
 583 02b2 7240     		eors	r2, r6
 584 02b4 D719     		adds	r7, r2, r7
 585              	.LVL124:
 586 02b6 DF41     		rors	r7, r7, r3
 587              	.LVL125:
 588 02b8 0D9A     		ldr	r2, [sp, #52]
 589 02ba 009B     		ldr	r3, [sp]
 590 02bc 5219     		adds	r2, r2, r5
 591 02be C341     		rors	r3, r3, r0
 592 02c0 CF19     		adds	r7, r1, r7
 593              	.LVL126:
 594 02c2 5118     		adds	r1, r2, r1
 595              	.LVL127:
 100:strong-arm\src\ripemd160/ripemd160.c **** 	GG(bb, cc, dd, ee, aa, X[12],  7);
 596              		.loc 1 100 0
 597 02c4 6246     		mov	r2, ip
 598 02c6 5A40     		eors	r2, r3
 599 02c8 3A40     		ands	r2, r7
 600 02ca 5A40     		eors	r2, r3
 601 02cc 5118     		adds	r1, r2, r1
 602              	.LVL128:
 603 02ce 1922     		movs	r2, #25
 604 02d0 D141     		rors	r1, r1, r2
 605              	.LVL129:
 606 02d2 6546     		mov	r5, ip
 607 02d4 7218     		adds	r2, r6, r1
 608 02d6 0092     		str	r2, [sp]
 609              	.LVL130:
 610 02d8 BB49     		ldr	r1, .L2
 611 02da 019A     		ldr	r2, [sp, #4]
 612              	.LVL131:
 613 02dc C541     		rors	r5, r5, r0
 614              	.LVL132:
 615 02de 5218     		adds	r2, r2, r1
ARM GAS  C:\Users\Ray\AppData\Local\Temp\ccn0usL8.s 			page 14


 616 02e0 9619     		adds	r6, r2, r6
 617              	.LVL133:
 101:strong-arm\src\ripemd160/ripemd160.c **** 	GG(aa, bb, cc, dd, ee, X[ 0], 12);
 618              		.loc 1 101 0
 619 02e2 3A00     		movs	r2, r7
 620 02e4 0099     		ldr	r1, [sp]
 621 02e6 6A40     		eors	r2, r5
 622 02e8 0A40     		ands	r2, r1
 623 02ea 6A40     		eors	r2, r5
 624 02ec 9619     		adds	r6, r2, r6
 625              	.LVL134:
 626 02ee 1422     		movs	r2, #20
 627 02f0 D641     		rors	r6, r6, r2
 628              	.LVL135:
 629 02f2 C741     		rors	r7, r7, r0
 630              	.LVL136:
 631 02f4 0A9A     		ldr	r2, [sp, #40]
 632 02f6 B449     		ldr	r1, .L2
 633 02f8 9E19     		adds	r6, r3, r6
 634              	.LVL137:
 635 02fa 5218     		adds	r2, r2, r1
 636 02fc D318     		adds	r3, r2, r3
 637              	.LVL138:
 102:strong-arm\src\ripemd160/ripemd160.c **** 	GG(ee, aa, bb, cc, dd, X[ 9], 15);
 638              		.loc 1 102 0
 639 02fe 009A     		ldr	r2, [sp]
 640 0300 0099     		ldr	r1, [sp]
 641 0302 7A40     		eors	r2, r7
 642 0304 3240     		ands	r2, r6
 643 0306 7A40     		eors	r2, r7
 644 0308 D218     		adds	r2, r2, r3
 645              	.LVL139:
 646 030a 1123     		movs	r3, #17
 647 030c DA41     		rors	r2, r2, r3
 648              	.LVL140:
 649 030e AB18     		adds	r3, r5, r2
 650 0310 9C46     		mov	ip, r3
 651              	.LVL141:
 652 0312 AD4A     		ldr	r2, .L2
 653 0314 069B     		ldr	r3, [sp, #24]
 654              	.LVL142:
 655 0316 C141     		rors	r1, r1, r0
 656              	.LVL143:
 657 0318 9B18     		adds	r3, r3, r2
 658 031a 5D19     		adds	r5, r3, r5
 659              	.LVL144:
 103:strong-arm\src\ripemd160/ripemd160.c **** 	GG(dd, ee, aa, bb, cc, X[ 5],  9);
 660              		.loc 1 103 0
 661 031c 3300     		movs	r3, r6
 662 031e 6246     		mov	r2, ip
 663 0320 4B40     		eors	r3, r1
 664 0322 1340     		ands	r3, r2
 665 0324 4B40     		eors	r3, r1
 666 0326 5D19     		adds	r5, r3, r5
 667              	.LVL145:
 668 0328 1723     		movs	r3, #23
 669 032a DD41     		rors	r5, r5, r3
ARM GAS  C:\Users\Ray\AppData\Local\Temp\ccn0usL8.s 			page 15


 670              	.LVL146:
 671 032c A64A     		ldr	r2, .L2
 672 032e 039B     		ldr	r3, [sp, #12]
 673 0330 C641     		rors	r6, r6, r0
 674              	.LVL147:
 675 0332 9B18     		adds	r3, r3, r2
 676 0334 7D19     		adds	r5, r7, r5
 677              	.LVL148:
 678 0336 DF19     		adds	r7, r3, r7
 679              	.LVL149:
 104:strong-arm\src\ripemd160/ripemd160.c **** 	GG(cc, dd, ee, aa, bb, X[ 2], 11);
 680              		.loc 1 104 0
 681 0338 6346     		mov	r3, ip
 682 033a 1522     		movs	r2, #21
 683 033c 7340     		eors	r3, r6
 684 033e 2B40     		ands	r3, r5
 685 0340 7340     		eors	r3, r6
 686 0342 DB19     		adds	r3, r3, r7
 687              	.LVL150:
 688 0344 D341     		rors	r3, r3, r2
 689              	.LVL151:
 690 0346 6246     		mov	r2, ip
 691 0348 CB18     		adds	r3, r1, r3
 692 034a 0093     		str	r3, [sp]
 693              	.LVL152:
 694 034c 0F9F     		ldr	r7, [sp, #60]
 695 034e 9E4B     		ldr	r3, .L2
 696              	.LVL153:
 697 0350 C241     		rors	r2, r2, r0
 698              	.LVL154:
 699 0352 FF18     		adds	r7, r7, r3
 700 0354 7918     		adds	r1, r7, r1
 701              	.LVL155:
 105:strong-arm\src\ripemd160/ripemd160.c **** 	GG(bb, cc, dd, ee, aa, X[14],  7);
 702              		.loc 1 105 0
 703 0356 2F00     		movs	r7, r5
 704 0358 009B     		ldr	r3, [sp]
 705 035a 5740     		eors	r7, r2
 706 035c 1F40     		ands	r7, r3
 707 035e 1923     		movs	r3, #25
 708 0360 5740     		eors	r7, r2
 709 0362 7918     		adds	r1, r7, r1
 710              	.LVL156:
 711 0364 D941     		rors	r1, r1, r3
 712              	.LVL157:
 713 0366 7318     		adds	r3, r6, r1
 714 0368 9C46     		mov	ip, r3
 715              	.LVL158:
 716 036a 974F     		ldr	r7, .L2
 717 036c 0C9B     		ldr	r3, [sp, #48]
 718              	.LVL159:
 719 036e C541     		rors	r5, r5, r0
 720              	.LVL160:
 721 0370 DF19     		adds	r7, r3, r7
 106:strong-arm\src\ripemd160/ripemd160.c **** 	GG(aa, bb, cc, dd, ee, X[11], 13);
 722              		.loc 1 106 0
 723 0372 6346     		mov	r3, ip
ARM GAS  C:\Users\Ray\AppData\Local\Temp\ccn0usL8.s 			page 16


 724 0374 BE19     		adds	r6, r7, r6
 725              	.LVL161:
 726 0376 009F     		ldr	r7, [sp]
 727 0378 9349     		ldr	r1, .L2
 728 037a 6F40     		eors	r7, r5
 729 037c 1F40     		ands	r7, r3
 730 037e 1323     		movs	r3, #19
 731 0380 6F40     		eors	r7, r5
 732 0382 BE19     		adds	r6, r7, r6
 733              	.LVL162:
 734 0384 DE41     		rors	r6, r6, r3
 735              	.LVL163:
 736 0386 099F     		ldr	r7, [sp, #36]
 737 0388 009B     		ldr	r3, [sp]
 738 038a 7F18     		adds	r7, r7, r1
 739 038c C341     		rors	r3, r3, r0
 740 038e 9619     		adds	r6, r2, r6
 741              	.LVL164:
 742 0390 BA18     		adds	r2, r7, r2
 743              	.LVL165:
 107:strong-arm\src\ripemd160/ripemd160.c **** 	GG(ee, aa, bb, cc, dd, X[ 8], 12);
 744              		.loc 1 107 0
 745 0392 6746     		mov	r7, ip
 746 0394 1421     		movs	r1, #20
 747 0396 5F40     		eors	r7, r3
 748 0398 3740     		ands	r7, r6
 749 039a 5F40     		eors	r7, r3
 750 039c BA18     		adds	r2, r7, r2
 751              	.LVL166:
 752 039e CA41     		rors	r2, r2, r1
 753              	.LVL167:
 754 03a0 AA18     		adds	r2, r5, r2
 755 03a2 0092     		str	r2, [sp]
 756              	.LVL168:
 757 03a4 049F     		ldr	r7, [sp, #16]
 758 03a6 894A     		ldr	r2, .L2+4
 759              	.LVL169:
 760 03a8 6146     		mov	r1, ip
 761 03aa BF18     		adds	r7, r7, r2
 762 03ac 7D19     		adds	r5, r7, r5
 763              	.LVL170:
 108:strong-arm\src\ripemd160/ripemd160.c **** 	
 109:strong-arm\src\ripemd160/ripemd160.c **** 	/* round 3 */
 110:strong-arm\src\ripemd160/ripemd160.c **** 	HH(dd, ee, aa, bb, cc, X[ 3], 11);
 764              		.loc 1 110 0
 765 03ae F743     		mvns	r7, r6
 766 03b0 009A     		ldr	r2, [sp]
 107:strong-arm\src\ripemd160/ripemd160.c **** 	GG(ee, aa, bb, cc, dd, X[ 8], 12);
 767              		.loc 1 107 0
 768 03b2 C141     		rors	r1, r1, r0
 769              	.LVL171:
 770              		.loc 1 110 0
 771 03b4 1743     		orrs	r7, r2
 772 03b6 1522     		movs	r2, #21
 773 03b8 4F40     		eors	r7, r1
 774 03ba 7D19     		adds	r5, r7, r5
 775              	.LVL172:
ARM GAS  C:\Users\Ray\AppData\Local\Temp\ccn0usL8.s 			page 17


 776 03bc D541     		rors	r5, r5, r2
 777              	.LVL173:
 778 03be 834F     		ldr	r7, .L2+4
 779 03c0 0B9A     		ldr	r2, [sp, #44]
 780 03c2 5D19     		adds	r5, r3, r5
 781              	.LVL174:
 782 03c4 D719     		adds	r7, r2, r7
 111:strong-arm\src\ripemd160/ripemd160.c **** 	HH(cc, dd, ee, aa, bb, X[10], 13);
 783              		.loc 1 111 0
 784 03c6 009A     		ldr	r2, [sp]
 785 03c8 FB18     		adds	r3, r7, r3
 786              	.LVL175:
 787 03ca D743     		mvns	r7, r2
 110:strong-arm\src\ripemd160/ripemd160.c **** 	HH(cc, dd, ee, aa, bb, X[10], 13);
 788              		.loc 1 110 0
 789 03cc C641     		rors	r6, r6, r0
 790              	.LVL176:
 791              		.loc 1 111 0
 792 03ce 1322     		movs	r2, #19
 793 03d0 2F43     		orrs	r7, r5
 794 03d2 7740     		eors	r7, r6
 795 03d4 FB18     		adds	r3, r7, r3
 796              	.LVL177:
 797 03d6 D341     		rors	r3, r3, r2
 798              	.LVL178:
 799 03d8 CB18     		adds	r3, r1, r3
 800 03da 9C46     		mov	ip, r3
 801              	.LVL179:
 802 03dc 0F9F     		ldr	r7, [sp, #60]
 803 03de 7B4B     		ldr	r3, .L2+4
 804              	.LVL180:
 805 03e0 009A     		ldr	r2, [sp]
 806 03e2 FF18     		adds	r7, r7, r3
 807 03e4 7918     		adds	r1, r7, r1
 808              	.LVL181:
 112:strong-arm\src\ripemd160/ripemd160.c **** 	HH(bb, cc, dd, ee, aa, X[14],  6);
 809              		.loc 1 112 0
 810 03e6 6346     		mov	r3, ip
 811 03e8 EF43     		mvns	r7, r5
 111:strong-arm\src\ripemd160/ripemd160.c **** 	HH(cc, dd, ee, aa, bb, X[10], 13);
 812              		.loc 1 111 0
 813 03ea C241     		rors	r2, r2, r0
 814              	.LVL182:
 815              		.loc 1 112 0
 816 03ec 1F43     		orrs	r7, r3
 817 03ee 1A23     		movs	r3, #26
 818 03f0 5740     		eors	r7, r2
 819 03f2 7918     		adds	r1, r7, r1
 820              	.LVL183:
 821 03f4 D941     		rors	r1, r1, r3
 822              	.LVL184:
 823 03f6 754F     		ldr	r7, .L2+4
 824 03f8 059B     		ldr	r3, [sp, #20]
 825 03fa 7118     		adds	r1, r6, r1
 826              	.LVL185:
 827 03fc DF19     		adds	r7, r3, r7
 113:strong-arm\src\ripemd160/ripemd160.c **** 	HH(aa, bb, cc, dd, ee, X[ 4],  7);
ARM GAS  C:\Users\Ray\AppData\Local\Temp\ccn0usL8.s 			page 18


 828              		.loc 1 113 0
 829 03fe 6346     		mov	r3, ip
 830 0400 BE19     		adds	r6, r7, r6
 831              	.LVL186:
 832 0402 DF43     		mvns	r7, r3
 112:strong-arm\src\ripemd160/ripemd160.c **** 	HH(bb, cc, dd, ee, aa, X[14],  6);
 833              		.loc 1 112 0
 834 0404 C541     		rors	r5, r5, r0
 835              	.LVL187:
 836              		.loc 1 113 0
 837 0406 1923     		movs	r3, #25
 838 0408 0F43     		orrs	r7, r1
 839 040a 6F40     		eors	r7, r5
 840 040c BF19     		adds	r7, r7, r6
 841              	.LVL188:
 842 040e DF41     		rors	r7, r7, r3
 843              	.LVL189:
 844 0410 6346     		mov	r3, ip
 845 0412 C341     		rors	r3, r3, r0
 846 0414 9C46     		mov	ip, r3
 847              	.LVL190:
 848 0416 0A9E     		ldr	r6, [sp, #40]
 849 0418 6C4B     		ldr	r3, .L2+4
 850 041a D719     		adds	r7, r2, r7
 851              	.LVL191:
 852 041c F618     		adds	r6, r6, r3
 853 041e B218     		adds	r2, r6, r2
 854              	.LVL192:
 114:strong-arm\src\ripemd160/ripemd160.c **** 	HH(ee, aa, bb, cc, dd, X[ 9], 14);
 855              		.loc 1 114 0
 856 0420 CE43     		mvns	r6, r1
 857 0422 6346     		mov	r3, ip
 858 0424 3E43     		orrs	r6, r7
 859 0426 5E40     		eors	r6, r3
 860 0428 1223     		movs	r3, #18
 861 042a B218     		adds	r2, r6, r2
 862              	.LVL193:
 863 042c DA41     		rors	r2, r2, r3
 864              	.LVL194:
 865 042e 674E     		ldr	r6, .L2+4
 866              	.LVL195:
 867 0430 109B     		ldr	r3, [sp, #64]
 868 0432 AA18     		adds	r2, r5, r2
 869              	.LVL196:
 870 0434 9E19     		adds	r6, r3, r6
 871 0436 7519     		adds	r5, r6, r5
 872              	.LVL197:
 115:strong-arm\src\ripemd160/ripemd160.c **** 	HH(dd, ee, aa, bb, cc, X[15],  9);
 873              		.loc 1 115 0
 874 0438 FE43     		mvns	r6, r7
 114:strong-arm\src\ripemd160/ripemd160.c **** 	HH(ee, aa, bb, cc, dd, X[ 9], 14);
 875              		.loc 1 114 0
 876 043a C141     		rors	r1, r1, r0
 877              	.LVL198:
 878              		.loc 1 115 0
 879 043c 1723     		movs	r3, #23
 880 043e 1643     		orrs	r6, r2
ARM GAS  C:\Users\Ray\AppData\Local\Temp\ccn0usL8.s 			page 19


 881 0440 4E40     		eors	r6, r1
 882 0442 7619     		adds	r6, r6, r5
 883              	.LVL199:
 884 0444 DE41     		rors	r6, r6, r3
 885              	.LVL200:
 886 0446 614D     		ldr	r5, .L2+4
 887              	.LVL201:
 888 0448 099B     		ldr	r3, [sp, #36]
 889 044a C741     		rors	r7, r7, r0
 890              	.LVL202:
 891 044c 5D19     		adds	r5, r3, r5
 892 044e 2B00     		movs	r3, r5
 116:strong-arm\src\ripemd160/ripemd160.c **** 	HH(cc, dd, ee, aa, bb, X[ 8], 13);
 893              		.loc 1 116 0
 894 0450 D543     		mvns	r5, r2
 115:strong-arm\src\ripemd160/ripemd160.c **** 	HH(dd, ee, aa, bb, cc, X[15],  9);
 895              		.loc 1 115 0
 896 0452 6644     		add	r6, r6, ip
 897              	.LVL203:
 898              		.loc 1 116 0
 899 0454 3543     		orrs	r5, r6
 900 0456 7D40     		eors	r5, r7
 901 0458 6344     		add	r3, r3, ip
 902              	.LVL204:
 903 045a EB18     		adds	r3, r5, r3
 904              	.LVL205:
 905 045c 1325     		movs	r5, #19
 906 045e EB41     		rors	r3, r3, r5
 907              	.LVL206:
 908 0460 CB18     		adds	r3, r1, r3
 909 0462 9C46     		mov	ip, r3
 910              	.LVL207:
 911 0464 029D     		ldr	r5, [sp, #8]
 912 0466 594B     		ldr	r3, .L2+4
 913              	.LVL208:
 914 0468 C241     		rors	r2, r2, r0
 915              	.LVL209:
 916 046a ED18     		adds	r5, r5, r3
 917 046c 6918     		adds	r1, r5, r1
 918              	.LVL210:
 117:strong-arm\src\ripemd160/ripemd160.c **** 	HH(bb, cc, dd, ee, aa, X[ 1], 15);
 919              		.loc 1 117 0
 920 046e 6346     		mov	r3, ip
 921 0470 F543     		mvns	r5, r6
 922 0472 1D43     		orrs	r5, r3
 923 0474 1123     		movs	r3, #17
 924 0476 5540     		eors	r5, r2
 925 0478 6D18     		adds	r5, r5, r1
 926              	.LVL211:
 927 047a DD41     		rors	r5, r5, r3
 928              	.LVL212:
 929 047c 5349     		ldr	r1, .L2+4
 930              	.LVL213:
 931 047e 039B     		ldr	r3, [sp, #12]
 932 0480 7D19     		adds	r5, r7, r5
 933              	.LVL214:
 934 0482 5918     		adds	r1, r3, r1
ARM GAS  C:\Users\Ray\AppData\Local\Temp\ccn0usL8.s 			page 20


 118:strong-arm\src\ripemd160/ripemd160.c **** 	HH(aa, bb, cc, dd, ee, X[ 2], 14);
 935              		.loc 1 118 0
 936 0484 6346     		mov	r3, ip
 937 0486 CF19     		adds	r7, r1, r7
 938              	.LVL215:
 939 0488 D943     		mvns	r1, r3
 117:strong-arm\src\ripemd160/ripemd160.c **** 	HH(bb, cc, dd, ee, aa, X[ 1], 15);
 940              		.loc 1 117 0
 941 048a C641     		rors	r6, r6, r0
 942              	.LVL216:
 943              		.loc 1 118 0
 944 048c 1223     		movs	r3, #18
 945 048e 2943     		orrs	r1, r5
 946 0490 7140     		eors	r1, r6
 947 0492 CF19     		adds	r7, r1, r7
 948              	.LVL217:
 949 0494 DF41     		rors	r7, r7, r3
 950              	.LVL218:
 951 0496 6346     		mov	r3, ip
 952 0498 C341     		rors	r3, r3, r0
 953 049a 9C46     		mov	ip, r3
 954              	.LVL219:
 955 049c 0899     		ldr	r1, [sp, #32]
 956 049e 4B4B     		ldr	r3, .L2+4
 957 04a0 D719     		adds	r7, r2, r7
 958              	.LVL220:
 959 04a2 C918     		adds	r1, r1, r3
 960 04a4 8A18     		adds	r2, r1, r2
 961              	.LVL221:
 119:strong-arm\src\ripemd160/ripemd160.c **** 	HH(ee, aa, bb, cc, dd, X[ 7],  8);
 962              		.loc 1 119 0
 963 04a6 E943     		mvns	r1, r5
 964 04a8 6346     		mov	r3, ip
 965 04aa 3943     		orrs	r1, r7
 966 04ac 5940     		eors	r1, r3
 967 04ae 1823     		movs	r3, #24
 968 04b0 8918     		adds	r1, r1, r2
 969              	.LVL222:
 970 04b2 D941     		rors	r1, r1, r3
 971              	.LVL223:
 972 04b4 454A     		ldr	r2, .L2+4
 973              	.LVL224:
 974 04b6 019B     		ldr	r3, [sp, #4]
 975 04b8 7118     		adds	r1, r6, r1
 976              	.LVL225:
 977 04ba 9A18     		adds	r2, r3, r2
 978 04bc 9619     		adds	r6, r2, r6
 979              	.LVL226:
 120:strong-arm\src\ripemd160/ripemd160.c **** 	HH(dd, ee, aa, bb, cc, X[ 0], 13);
 980              		.loc 1 120 0
 981 04be FA43     		mvns	r2, r7
 119:strong-arm\src\ripemd160/ripemd160.c **** 	HH(ee, aa, bb, cc, dd, X[ 7],  8);
 982              		.loc 1 119 0
 983 04c0 C541     		rors	r5, r5, r0
 984              	.LVL227:
 985              		.loc 1 120 0
 986 04c2 1323     		movs	r3, #19
ARM GAS  C:\Users\Ray\AppData\Local\Temp\ccn0usL8.s 			page 21


 987 04c4 0A43     		orrs	r2, r1
 988 04c6 6A40     		eors	r2, r5
 989 04c8 9619     		adds	r6, r2, r6
 990              	.LVL228:
 991 04ca DE41     		rors	r6, r6, r3
 992              	.LVL229:
 993 04cc 3F4A     		ldr	r2, .L2+4
 994 04ce 079B     		ldr	r3, [sp, #28]
 995 04d0 C741     		rors	r7, r7, r0
 996              	.LVL230:
 997 04d2 9A18     		adds	r2, r3, r2
 998 04d4 1300     		movs	r3, r2
 121:strong-arm\src\ripemd160/ripemd160.c **** 	HH(cc, dd, ee, aa, bb, X[ 6],  6);
 999              		.loc 1 121 0
 1000 04d6 CA43     		mvns	r2, r1
 120:strong-arm\src\ripemd160/ripemd160.c **** 	HH(dd, ee, aa, bb, cc, X[ 0], 13);
 1001              		.loc 1 120 0
 1002 04d8 6644     		add	r6, r6, ip
 1003              	.LVL231:
 1004              		.loc 1 121 0
 1005 04da 3243     		orrs	r2, r6
 1006 04dc 6344     		add	r3, r3, ip
 1007              	.LVL232:
 1008 04de 7A40     		eors	r2, r7
 1009 04e0 D218     		adds	r2, r2, r3
 1010              	.LVL233:
 1011 04e2 1A23     		movs	r3, #26
 1012 04e4 DA41     		rors	r2, r2, r3
 1013              	.LVL234:
 1014 04e6 AB18     		adds	r3, r5, r2
 1015 04e8 9C46     		mov	ip, r3
 1016              	.LVL235:
 1017 04ea 384A     		ldr	r2, .L2+4
 1018 04ec 0E9B     		ldr	r3, [sp, #56]
 1019              	.LVL236:
 1020 04ee C141     		rors	r1, r1, r0
 1021              	.LVL237:
 1022 04f0 9B18     		adds	r3, r3, r2
 1023 04f2 5D19     		adds	r5, r3, r5
 1024              	.LVL238:
 122:strong-arm\src\ripemd160/ripemd160.c **** 	HH(bb, cc, dd, ee, aa, X[13],  5);
 1025              		.loc 1 122 0
 1026 04f4 6246     		mov	r2, ip
 1027 04f6 F343     		mvns	r3, r6
 1028 04f8 1343     		orrs	r3, r2
 1029 04fa 4B40     		eors	r3, r1
 1030 04fc 5D19     		adds	r5, r3, r5
 1031              	.LVL239:
 1032 04fe 1B23     		movs	r3, #27
 1033 0500 DD41     		rors	r5, r5, r3
 1034              	.LVL240:
 1035 0502 324A     		ldr	r2, .L2+4
 1036 0504 0C9B     		ldr	r3, [sp, #48]
 1037 0506 7D19     		adds	r5, r7, r5
 1038              	.LVL241:
 1039 0508 9B18     		adds	r3, r3, r2
 1040 050a DF19     		adds	r7, r3, r7
ARM GAS  C:\Users\Ray\AppData\Local\Temp\ccn0usL8.s 			page 22


 1041              	.LVL242:
 123:strong-arm\src\ripemd160/ripemd160.c **** 	HH(aa, bb, cc, dd, ee, X[11], 12);
 1042              		.loc 1 123 0
 1043 050c 6346     		mov	r3, ip
 1044 050e DB43     		mvns	r3, r3
 122:strong-arm\src\ripemd160/ripemd160.c **** 	HH(bb, cc, dd, ee, aa, X[13],  5);
 1045              		.loc 1 122 0
 1046 0510 C641     		rors	r6, r6, r0
 1047              	.LVL243:
 1048              		.loc 1 123 0
 1049 0512 1422     		movs	r2, #20
 1050 0514 2B43     		orrs	r3, r5
 1051 0516 7340     		eors	r3, r6
 1052 0518 DB19     		adds	r3, r3, r7
 1053              	.LVL244:
 1054 051a D341     		rors	r3, r3, r2
 1055              	.LVL245:
 1056 051c CB18     		adds	r3, r1, r3
 1057 051e 0093     		str	r3, [sp]
 1058              	.LVL246:
 1059 0520 069F     		ldr	r7, [sp, #24]
 1060 0522 2A4B     		ldr	r3, .L2+4
 1061              	.LVL247:
 1062 0524 6246     		mov	r2, ip
 1063 0526 FF18     		adds	r7, r7, r3
 1064 0528 7918     		adds	r1, r7, r1
 1065              	.LVL248:
 124:strong-arm\src\ripemd160/ripemd160.c **** 	HH(ee, aa, bb, cc, dd, X[ 5],  7);
 1066              		.loc 1 124 0
 1067 052a EF43     		mvns	r7, r5
 1068 052c 009B     		ldr	r3, [sp]
 123:strong-arm\src\ripemd160/ripemd160.c **** 	HH(aa, bb, cc, dd, ee, X[11], 12);
 1069              		.loc 1 123 0
 1070 052e C241     		rors	r2, r2, r0
 1071              	.LVL249:
 1072              		.loc 1 124 0
 1073 0530 1F43     		orrs	r7, r3
 1074 0532 1923     		movs	r3, #25
 1075 0534 C541     		rors	r5, r5, r0
 1076              	.LVL250:
 1077 0536 5740     		eors	r7, r2
 1078 0538 7918     		adds	r1, r7, r1
 1079              	.LVL251:
 1080 053a D941     		rors	r1, r1, r3
 1081              	.LVL252:
 1082 053c 2F00     		movs	r7, r5
 1083 053e 0D9B     		ldr	r3, [sp, #52]
 1084 0540 224D     		ldr	r5, .L2+4
 1085 0542 7118     		adds	r1, r6, r1
 1086              	.LVL253:
 1087 0544 5D19     		adds	r5, r3, r5
 125:strong-arm\src\ripemd160/ripemd160.c **** 	HH(dd, ee, aa, bb, cc, X[12],  5);
 1088              		.loc 1 125 0
 1089 0546 009B     		ldr	r3, [sp]
 1090 0548 AE19     		adds	r6, r5, r6
 1091              	.LVL254:
 1092 054a DD43     		mvns	r5, r3
ARM GAS  C:\Users\Ray\AppData\Local\Temp\ccn0usL8.s 			page 23


 1093 054c 1B23     		movs	r3, #27
 1094 054e 0D43     		orrs	r5, r1
 1095 0550 7D40     		eors	r5, r7
 1096 0552 AD19     		adds	r5, r5, r6
 1097              	.LVL255:
 1098 0554 DD41     		rors	r5, r5, r3
 1099              	.LVL256:
 1100 0556 009B     		ldr	r3, [sp]
 1101 0558 029E     		ldr	r6, [sp, #8]
 1102              	.LVL257:
 1103 055a C341     		rors	r3, r3, r0
 1104 055c 9C46     		mov	ip, r3
 1105 055e 1C4B     		ldr	r3, .L2+8
 1106 0560 5519     		adds	r5, r2, r5
 1107              	.LVL258:
 1108 0562 F618     		adds	r6, r6, r3
 1109 0564 B218     		adds	r2, r6, r2
 1110              	.LVL259:
 126:strong-arm\src\ripemd160/ripemd160.c **** 	
 127:strong-arm\src\ripemd160/ripemd160.c **** 	/* round 4 */
 128:strong-arm\src\ripemd160/ripemd160.c **** 	II(cc, dd, ee, aa, bb, X[ 1], 11);
 1111              		.loc 1 128 0
 1112 0566 0E00     		movs	r6, r1
 1113 0568 6346     		mov	r3, ip
 1114 056a 6E40     		eors	r6, r5
 1115 056c 1E40     		ands	r6, r3
 1116 056e 1523     		movs	r3, #21
 1117 0570 4E40     		eors	r6, r1
 1118 0572 C141     		rors	r1, r1, r0
 1119              	.LVL260:
 1120 0574 B218     		adds	r2, r6, r2
 1121              	.LVL261:
 1122 0576 DA41     		rors	r2, r2, r3
 1123              	.LVL262:
 1124 0578 0E00     		movs	r6, r1
 1125 057a 0A9B     		ldr	r3, [sp, #40]
 1126 057c 1449     		ldr	r1, .L2+8
 1127 057e BA18     		adds	r2, r7, r2
 1128              	.LVL263:
 1129 0580 5918     		adds	r1, r3, r1
 1130 0582 CF19     		adds	r7, r1, r7
 1131              	.LVL264:
 129:strong-arm\src\ripemd160/ripemd160.c **** 	II(bb, cc, dd, ee, aa, X[ 9], 12);
 1132              		.loc 1 129 0
 1133 0584 2900     		movs	r1, r5
 1134 0586 1423     		movs	r3, #20
 1135 0588 5140     		eors	r1, r2
 1136 058a 3140     		ands	r1, r6
 1137 058c 6940     		eors	r1, r5
 1138 058e C919     		adds	r1, r1, r7
 1139              	.LVL265:
 1140 0590 D941     		rors	r1, r1, r3
 1141              	.LVL266:
 1142 0592 0F4F     		ldr	r7, .L2+8
 1143              	.LVL267:
 1144 0594 0C9B     		ldr	r3, [sp, #48]
 1145 0596 C541     		rors	r5, r5, r0
ARM GAS  C:\Users\Ray\AppData\Local\Temp\ccn0usL8.s 			page 24


 1146              	.LVL268:
 1147 0598 DF19     		adds	r7, r3, r7
 1148 059a 3B00     		movs	r3, r7
 130:strong-arm\src\ripemd160/ripemd160.c **** 	II(aa, bb, cc, dd, ee, X[11], 14);
 1149              		.loc 1 130 0
 1150 059c 1700     		movs	r7, r2
 129:strong-arm\src\ripemd160/ripemd160.c **** 	II(bb, cc, dd, ee, aa, X[ 9], 12);
 1151              		.loc 1 129 0
 1152 059e 6144     		add	r1, r1, ip
 1153              	.LVL269:
 1154              		.loc 1 130 0
 1155 05a0 4F40     		eors	r7, r1
 1156 05a2 2F40     		ands	r7, r5
 1157 05a4 5740     		eors	r7, r2
 1158 05a6 6344     		add	r3, r3, ip
 1159 05a8 FB18     		adds	r3, r7, r3
 1160 05aa 1227     		movs	r7, #18
 1161 05ac C241     		rors	r2, r2, r0
 1162              	.LVL270:
 1163 05ae FB41     		rors	r3, r3, r7
 129:strong-arm\src\ripemd160/ripemd160.c **** 	II(bb, cc, dd, ee, aa, X[ 9], 12);
 1164              		.loc 1 129 0
 1165 05b0 0095     		str	r5, [sp]
 1166              	.LVL271:
 1167              		.loc 1 130 0
 1168 05b2 1700     		movs	r7, r2
 1169 05b4 064D     		ldr	r5, .L2+8
 1170              	.LVL272:
 1171 05b6 0B9A     		ldr	r2, [sp, #44]
 1172 05b8 F318     		adds	r3, r6, r3
 1173              	.LVL273:
 1174 05ba 5219     		adds	r2, r2, r5
 1175 05bc 9619     		adds	r6, r2, r6
 1176              	.LVL274:
 131:strong-arm\src\ripemd160/ripemd160.c **** 	II(ee, aa, bb, cc, dd, X[10], 15);
 1177              		.loc 1 131 0
 1178 05be 0A00     		movs	r2, r1
 1179 05c0 1125     		movs	r5, #17
 1180 05c2 5A40     		eors	r2, r3
 1181 05c4 3A40     		ands	r2, r7
 1182 05c6 05E0     		b	.L3
 1183              	.L4:
 1184              		.align	2
 1185              	.L2:
 1186 05c8 9979825A 		.word	1518500249
 1187 05cc A1EBD96E 		.word	1859775393
 1188 05d0 DCBC1B8F 		.word	-1894007588
 1189              	.L3:
 1190 05d4 4A40     		eors	r2, r1
 1191 05d6 C141     		rors	r1, r1, r0
 1192              	.LVL275:
 1193 05d8 9219     		adds	r2, r2, r6
 1194              	.LVL276:
 1195 05da EA41     		rors	r2, r2, r5
 1196              	.LVL277:
 1197 05dc 8C46     		mov	ip, r1
 1198 05de 009D     		ldr	r5, [sp]
ARM GAS  C:\Users\Ray\AppData\Local\Temp\ccn0usL8.s 			page 25


 1199 05e0 FE4E     		ldr	r6, .L5
 1200 05e2 AA18     		adds	r2, r5, r2
 1201              	.LVL278:
 1202 05e4 019D     		ldr	r5, [sp, #4]
 1203 05e6 0099     		ldr	r1, [sp]
 1204              	.LVL279:
 1205 05e8 AE19     		adds	r6, r5, r6
 1206 05ea 7518     		adds	r5, r6, r1
 1207              	.LVL280:
 132:strong-arm\src\ripemd160/ripemd160.c **** 	II(dd, ee, aa, bb, cc, X[ 0], 14);
 1208              		.loc 1 132 0
 1209 05ec 1E00     		movs	r6, r3
 1210 05ee 6146     		mov	r1, ip
 1211 05f0 5640     		eors	r6, r2
 1212 05f2 0E40     		ands	r6, r1
 1213 05f4 5E40     		eors	r6, r3
 1214 05f6 7519     		adds	r5, r6, r5
 1215              	.LVL281:
 1216 05f8 1226     		movs	r6, #18
 1217 05fa C341     		rors	r3, r3, r0
 1218              	.LVL282:
 1219 05fc F541     		rors	r5, r5, r6
 1220              	.LVL283:
 1221 05fe F749     		ldr	r1, .L5
 1222 0600 1E00     		movs	r6, r3
 1223 0602 099B     		ldr	r3, [sp, #36]
 1224 0604 7D19     		adds	r5, r7, r5
 1225              	.LVL284:
 1226 0606 5B18     		adds	r3, r3, r1
 1227 0608 DF19     		adds	r7, r3, r7
 1228              	.LVL285:
 133:strong-arm\src\ripemd160/ripemd160.c **** 	II(cc, dd, ee, aa, bb, X[ 8], 15);
 1229              		.loc 1 133 0
 1230 060a 1300     		movs	r3, r2
 1231 060c 1121     		movs	r1, #17
 1232 060e 6B40     		eors	r3, r5
 1233 0610 3340     		ands	r3, r6
 1234 0612 5340     		eors	r3, r2
 1235 0614 DB19     		adds	r3, r3, r7
 1236              	.LVL286:
 1237 0616 CB41     		rors	r3, r3, r1
 1238              	.LVL287:
 1239 0618 F04F     		ldr	r7, .L5
 1240              	.LVL288:
 1241 061a 0D99     		ldr	r1, [sp, #52]
 1242 061c C241     		rors	r2, r2, r0
 1243              	.LVL289:
 1244 061e CF19     		adds	r7, r1, r7
 1245 0620 3900     		movs	r1, r7
 134:strong-arm\src\ripemd160/ripemd160.c **** 	II(bb, cc, dd, ee, aa, X[12],  9);
 1246              		.loc 1 134 0
 1247 0622 2F00     		movs	r7, r5
 133:strong-arm\src\ripemd160/ripemd160.c **** 	II(cc, dd, ee, aa, bb, X[ 8], 15);
 1248              		.loc 1 133 0
 1249 0624 6344     		add	r3, r3, ip
 1250              	.LVL290:
 1251              		.loc 1 134 0
ARM GAS  C:\Users\Ray\AppData\Local\Temp\ccn0usL8.s 			page 26


 1252 0626 5F40     		eors	r7, r3
 1253 0628 1740     		ands	r7, r2
 1254 062a 6F40     		eors	r7, r5
 1255 062c 6144     		add	r1, r1, ip
 1256 062e 7918     		adds	r1, r7, r1
 1257 0630 1727     		movs	r7, #23
 1258 0632 C541     		rors	r5, r5, r0
 1259              	.LVL291:
 1260 0634 F941     		rors	r1, r1, r7
 133:strong-arm\src\ripemd160/ripemd160.c **** 	II(cc, dd, ee, aa, bb, X[ 8], 15);
 1261              		.loc 1 133 0
 1262 0636 0092     		str	r2, [sp]
 1263              	.LVL292:
 1264              		.loc 1 134 0
 1265 0638 2F00     		movs	r7, r5
 1266 063a E84A     		ldr	r2, .L5
 1267              	.LVL293:
 1268 063c 059D     		ldr	r5, [sp, #20]
 1269 063e 7118     		adds	r1, r6, r1
 1270              	.LVL294:
 1271 0640 AD18     		adds	r5, r5, r2
 1272 0642 AE19     		adds	r6, r5, r6
 1273              	.LVL295:
 135:strong-arm\src\ripemd160/ripemd160.c **** 	II(aa, bb, cc, dd, ee, X[ 4],  8);
 1274              		.loc 1 135 0
 1275 0644 1D00     		movs	r5, r3
 1276 0646 1822     		movs	r2, #24
 1277 0648 4D40     		eors	r5, r1
 1278 064a 3D40     		ands	r5, r7
 1279 064c 5D40     		eors	r5, r3
 1280 064e C341     		rors	r3, r3, r0
 1281              	.LVL296:
 1282 0650 AD19     		adds	r5, r5, r6
 1283              	.LVL297:
 1284 0652 D541     		rors	r5, r5, r2
 1285              	.LVL298:
 1286 0654 9C46     		mov	ip, r3
 1287 0656 009A     		ldr	r2, [sp]
 1288 0658 E04E     		ldr	r6, .L5
 1289 065a 5519     		adds	r5, r2, r5
 1290              	.LVL299:
 1291 065c 0E9A     		ldr	r2, [sp, #56]
 1292 065e 009B     		ldr	r3, [sp]
 1293              	.LVL300:
 1294 0660 9619     		adds	r6, r2, r6
 1295 0662 F218     		adds	r2, r6, r3
 1296              	.LVL301:
 136:strong-arm\src\ripemd160/ripemd160.c **** 	II(ee, aa, bb, cc, dd, X[13],  9);
 1297              		.loc 1 136 0
 1298 0664 0E00     		movs	r6, r1
 1299 0666 6346     		mov	r3, ip
 1300 0668 6E40     		eors	r6, r5
 1301 066a 1E40     		ands	r6, r3
 1302 066c 4E40     		eors	r6, r1
 1303 066e B218     		adds	r2, r6, r2
 1304              	.LVL302:
 1305 0670 1726     		movs	r6, #23
ARM GAS  C:\Users\Ray\AppData\Local\Temp\ccn0usL8.s 			page 27


 1306 0672 C141     		rors	r1, r1, r0
 1307              	.LVL303:
 1308 0674 F241     		rors	r2, r2, r6
 1309              	.LVL304:
 1310 0676 D94B     		ldr	r3, .L5
 1311 0678 0E00     		movs	r6, r1
 1312 067a 0499     		ldr	r1, [sp, #16]
 1313 067c BA18     		adds	r2, r7, r2
 1314              	.LVL305:
 1315 067e C918     		adds	r1, r1, r3
 1316 0680 CF19     		adds	r7, r1, r7
 1317              	.LVL306:
 137:strong-arm\src\ripemd160/ripemd160.c **** 	II(dd, ee, aa, bb, cc, X[ 3], 14);
 1318              		.loc 1 137 0
 1319 0682 2900     		movs	r1, r5
 1320 0684 1223     		movs	r3, #18
 1321 0686 5140     		eors	r1, r2
 1322 0688 3140     		ands	r1, r6
 1323 068a 6940     		eors	r1, r5
 1324 068c C919     		adds	r1, r1, r7
 1325              	.LVL307:
 1326 068e D941     		rors	r1, r1, r3
 1327              	.LVL308:
 1328 0690 D24F     		ldr	r7, .L5
 1329              	.LVL309:
 1330 0692 089B     		ldr	r3, [sp, #32]
 1331 0694 C541     		rors	r5, r5, r0
 1332              	.LVL310:
 1333 0696 DF19     		adds	r7, r3, r7
 1334 0698 3B00     		movs	r3, r7
 138:strong-arm\src\ripemd160/ripemd160.c **** 	II(cc, dd, ee, aa, bb, X[ 7],  5);
 1335              		.loc 1 138 0
 1336 069a 1700     		movs	r7, r2
 137:strong-arm\src\ripemd160/ripemd160.c **** 	II(dd, ee, aa, bb, cc, X[ 3], 14);
 1337              		.loc 1 137 0
 1338 069c 6144     		add	r1, r1, ip
 1339              	.LVL311:
 1340              		.loc 1 138 0
 1341 069e 4F40     		eors	r7, r1
 1342 06a0 2F40     		ands	r7, r5
 1343 06a2 5740     		eors	r7, r2
 1344 06a4 6344     		add	r3, r3, ip
 1345 06a6 FB18     		adds	r3, r7, r3
 1346 06a8 1B27     		movs	r7, #27
 1347 06aa C241     		rors	r2, r2, r0
 1348              	.LVL312:
 1349 06ac FB41     		rors	r3, r3, r7
 137:strong-arm\src\ripemd160/ripemd160.c **** 	II(dd, ee, aa, bb, cc, X[ 3], 14);
 1350              		.loc 1 137 0
 1351 06ae 0095     		str	r5, [sp]
 1352              	.LVL313:
 1353              		.loc 1 138 0
 1354 06b0 1700     		movs	r7, r2
 1355 06b2 CA4D     		ldr	r5, .L5
 1356              	.LVL314:
 1357 06b4 109A     		ldr	r2, [sp, #64]
 1358 06b6 F318     		adds	r3, r6, r3
ARM GAS  C:\Users\Ray\AppData\Local\Temp\ccn0usL8.s 			page 28


 1359              	.LVL315:
 1360 06b8 5219     		adds	r2, r2, r5
 1361 06ba 9619     		adds	r6, r2, r6
 1362              	.LVL316:
 139:strong-arm\src\ripemd160/ripemd160.c **** 	II(bb, cc, dd, ee, aa, X[15],  6);
 1363              		.loc 1 139 0
 1364 06bc 0A00     		movs	r2, r1
 1365 06be 1A25     		movs	r5, #26
 1366 06c0 5A40     		eors	r2, r3
 1367 06c2 3A40     		ands	r2, r7
 1368 06c4 4A40     		eors	r2, r1
 1369 06c6 C141     		rors	r1, r1, r0
 1370              	.LVL317:
 1371 06c8 9219     		adds	r2, r2, r6
 1372              	.LVL318:
 1373 06ca EA41     		rors	r2, r2, r5
 1374              	.LVL319:
 1375 06cc 8C46     		mov	ip, r1
 1376 06ce 009D     		ldr	r5, [sp]
 1377 06d0 C24E     		ldr	r6, .L5
 1378 06d2 AA18     		adds	r2, r5, r2
 1379              	.LVL320:
 1380 06d4 0F9D     		ldr	r5, [sp, #60]
 1381 06d6 0099     		ldr	r1, [sp]
 1382              	.LVL321:
 1383 06d8 AE19     		adds	r6, r5, r6
 1384 06da 7518     		adds	r5, r6, r1
 1385              	.LVL322:
 140:strong-arm\src\ripemd160/ripemd160.c **** 	II(aa, bb, cc, dd, ee, X[14],  8);
 1386              		.loc 1 140 0
 1387 06dc 1E00     		movs	r6, r3
 1388 06de 6146     		mov	r1, ip
 1389 06e0 5640     		eors	r6, r2
 1390 06e2 0E40     		ands	r6, r1
 1391 06e4 5E40     		eors	r6, r3
 1392 06e6 7519     		adds	r5, r6, r5
 1393              	.LVL323:
 1394 06e8 1826     		movs	r6, #24
 1395 06ea C341     		rors	r3, r3, r0
 1396              	.LVL324:
 1397 06ec F541     		rors	r5, r5, r6
 1398              	.LVL325:
 1399 06ee BB49     		ldr	r1, .L5
 1400 06f0 1E00     		movs	r6, r3
 1401 06f2 069B     		ldr	r3, [sp, #24]
 1402 06f4 7D19     		adds	r5, r7, r5
 1403              	.LVL326:
 1404 06f6 5B18     		adds	r3, r3, r1
 1405 06f8 DF19     		adds	r7, r3, r7
 1406              	.LVL327:
 141:strong-arm\src\ripemd160/ripemd160.c **** 	II(ee, aa, bb, cc, dd, X[ 5],  6);
 1407              		.loc 1 141 0
 1408 06fa 1300     		movs	r3, r2
 1409 06fc 1A21     		movs	r1, #26
 1410 06fe 6B40     		eors	r3, r5
 1411 0700 3340     		ands	r3, r6
 1412 0702 5340     		eors	r3, r2
ARM GAS  C:\Users\Ray\AppData\Local\Temp\ccn0usL8.s 			page 29


 1413 0704 DB19     		adds	r3, r3, r7
 1414              	.LVL328:
 1415 0706 CB41     		rors	r3, r3, r1
 1416              	.LVL329:
 1417 0708 B44F     		ldr	r7, .L5
 1418              	.LVL330:
 1419 070a 0799     		ldr	r1, [sp, #28]
 1420 070c C241     		rors	r2, r2, r0
 1421              	.LVL331:
 1422 070e CF19     		adds	r7, r1, r7
 1423 0710 3900     		movs	r1, r7
 142:strong-arm\src\ripemd160/ripemd160.c **** 	II(dd, ee, aa, bb, cc, X[ 6],  5);
 1424              		.loc 1 142 0
 1425 0712 2F00     		movs	r7, r5
 141:strong-arm\src\ripemd160/ripemd160.c **** 	II(ee, aa, bb, cc, dd, X[ 5],  6);
 1426              		.loc 1 141 0
 1427 0714 6344     		add	r3, r3, ip
 1428              	.LVL332:
 1429              		.loc 1 142 0
 1430 0716 5F40     		eors	r7, r3
 1431 0718 1740     		ands	r7, r2
 1432 071a 6F40     		eors	r7, r5
 1433 071c 6144     		add	r1, r1, ip
 1434 071e 7918     		adds	r1, r7, r1
 1435 0720 1B27     		movs	r7, #27
 1436 0722 F941     		rors	r1, r1, r7
 141:strong-arm\src\ripemd160/ripemd160.c **** 	II(ee, aa, bb, cc, dd, X[ 5],  6);
 1437              		.loc 1 141 0
 1438 0724 0092     		str	r2, [sp]
 1439              	.LVL333:
 1440 0726 039F     		ldr	r7, [sp, #12]
 1441 0728 AC4A     		ldr	r2, .L5
 1442              	.LVL334:
 1443              		.loc 1 142 0
 1444 072a 7118     		adds	r1, r6, r1
 1445              	.LVL335:
 1446 072c BF18     		adds	r7, r7, r2
 1447 072e BE19     		adds	r6, r7, r6
 1448              	.LVL336:
 143:strong-arm\src\ripemd160/ripemd160.c **** 	II(cc, dd, ee, aa, bb, X[ 2], 12);
 1449              		.loc 1 143 0
 1450 0730 1F00     		movs	r7, r3
 142:strong-arm\src\ripemd160/ripemd160.c **** 	II(dd, ee, aa, bb, cc, X[ 6],  5);
 1451              		.loc 1 142 0
 1452 0732 C541     		rors	r5, r5, r0
 1453              	.LVL337:
 1454              		.loc 1 143 0
 1455 0734 1422     		movs	r2, #20
 1456 0736 4F40     		eors	r7, r1
 1457 0738 2F40     		ands	r7, r5
 1458 073a 5F40     		eors	r7, r3
 1459 073c C341     		rors	r3, r3, r0
 1460              	.LVL338:
 1461 073e BE19     		adds	r6, r7, r6
 1462              	.LVL339:
 1463 0740 D641     		rors	r6, r6, r2
 1464              	.LVL340:
ARM GAS  C:\Users\Ray\AppData\Local\Temp\ccn0usL8.s 			page 30


 1465 0742 9C46     		mov	ip, r3
 1466 0744 009A     		ldr	r2, [sp]
 1467 0746 A64F     		ldr	r7, .L5+4
 1468 0748 9619     		adds	r6, r2, r6
 1469              	.LVL341:
 1470 074a 059A     		ldr	r2, [sp, #20]
 1471 074c 009B     		ldr	r3, [sp]
 1472              	.LVL342:
 1473 074e D719     		adds	r7, r2, r7
 1474 0750 FA18     		adds	r2, r7, r3
 1475              	.LVL343:
 144:strong-arm\src\ripemd160/ripemd160.c **** 	
 145:strong-arm\src\ripemd160/ripemd160.c **** 	/* round 5 */
 146:strong-arm\src\ripemd160/ripemd160.c **** 	JJ(bb, cc, dd, ee, aa, X[ 4],  9);
 1476              		.loc 1 146 0
 1477 0752 6346     		mov	r3, ip
 1478 0754 DF43     		mvns	r7, r3
 1479 0756 0F43     		orrs	r7, r1
 1480 0758 7740     		eors	r7, r6
 1481 075a BA18     		adds	r2, r7, r2
 1482              	.LVL344:
 1483 075c 1727     		movs	r7, #23
 1484 075e C141     		rors	r1, r1, r0
 1485              	.LVL345:
 1486 0760 FA41     		rors	r2, r2, r7
 1487              	.LVL346:
 1488 0762 9F4B     		ldr	r3, .L5+4
 1489 0764 019F     		ldr	r7, [sp, #4]
 1490 0766 AA18     		adds	r2, r5, r2
 1491              	.LVL347:
 1492 0768 FF18     		adds	r7, r7, r3
 1493 076a 7D19     		adds	r5, r7, r5
 1494              	.LVL348:
 147:strong-arm\src\ripemd160/ripemd160.c **** 	JJ(aa, bb, cc, dd, ee, X[ 0], 15);
 1495              		.loc 1 147 0
 1496 076c CF43     		mvns	r7, r1
 1497 076e 1123     		movs	r3, #17
 1498 0770 3743     		orrs	r7, r6
 1499 0772 C641     		rors	r6, r6, r0
 1500              	.LVL349:
 1501 0774 5740     		eors	r7, r2
 1502 0776 7D19     		adds	r5, r7, r5
 1503              	.LVL350:
 1504 0778 DD41     		rors	r5, r5, r3
 1505              	.LVL351:
 1506 077a 994F     		ldr	r7, .L5+4
 1507 077c 069B     		ldr	r3, [sp, #24]
 1508 077e 6544     		add	r5, r5, ip
 1509              	.LVL352:
 1510 0780 DF19     		adds	r7, r3, r7
 1511 0782 3B00     		movs	r3, r7
 148:strong-arm\src\ripemd160/ripemd160.c **** 	JJ(ee, aa, bb, cc, dd, X[ 5],  5);
 1512              		.loc 1 148 0
 1513 0784 F743     		mvns	r7, r6
 1514 0786 1743     		orrs	r7, r2
 1515 0788 6F40     		eors	r7, r5
 1516 078a 6344     		add	r3, r3, ip
ARM GAS  C:\Users\Ray\AppData\Local\Temp\ccn0usL8.s 			page 31


 1517              	.LVL353:
 1518 078c FB18     		adds	r3, r7, r3
 1519              	.LVL354:
 1520 078e 1B27     		movs	r7, #27
 1521 0790 FB41     		rors	r3, r3, r7
 1522              	.LVL355:
 1523 0792 C241     		rors	r2, r2, r0
 1524              	.LVL356:
 1525 0794 CB18     		adds	r3, r1, r3
 1526 0796 9C46     		mov	ip, r3
 1527              	.LVL357:
 1528 0798 0A9F     		ldr	r7, [sp, #40]
 1529 079a 914B     		ldr	r3, .L5+4
 1530              	.LVL358:
 1531 079c FF18     		adds	r7, r7, r3
 1532 079e 7918     		adds	r1, r7, r1
 1533              	.LVL359:
 149:strong-arm\src\ripemd160/ripemd160.c **** 	JJ(dd, ee, aa, bb, cc, X[ 9], 11);
 1534              		.loc 1 149 0
 1535 07a0 D743     		mvns	r7, r2
 1536 07a2 6346     		mov	r3, ip
 1537 07a4 2F43     		orrs	r7, r5
 1538 07a6 5F40     		eors	r7, r3
 1539 07a8 1523     		movs	r3, #21
 1540 07aa 7918     		adds	r1, r7, r1
 1541              	.LVL360:
 1542 07ac C541     		rors	r5, r5, r0
 1543              	.LVL361:
 1544 07ae D941     		rors	r1, r1, r3
 1545              	.LVL362:
 1546 07b0 8B4F     		ldr	r7, .L5+4
 1547 07b2 089B     		ldr	r3, [sp, #32]
 1548 07b4 7118     		adds	r1, r6, r1
 1549              	.LVL363:
 1550 07b6 DF19     		adds	r7, r3, r7
 1551 07b8 BE19     		adds	r6, r7, r6
 1552              	.LVL364:
 150:strong-arm\src\ripemd160/ripemd160.c **** 	JJ(cc, dd, ee, aa, bb, X[ 7],  6);
 1553              		.loc 1 150 0
 1554 07ba 6346     		mov	r3, ip
 1555 07bc EF43     		mvns	r7, r5
 1556 07be 1F43     		orrs	r7, r3
 1557 07c0 1A23     		movs	r3, #26
 1558 07c2 4F40     		eors	r7, r1
 1559 07c4 BE19     		adds	r6, r7, r6
 1560              	.LVL365:
 1561 07c6 DE41     		rors	r6, r6, r3
 1562              	.LVL366:
 1563 07c8 6346     		mov	r3, ip
 1564 07ca C341     		rors	r3, r3, r0
 1565 07cc 9C46     		mov	ip, r3
 1566              	.LVL367:
 1567 07ce 0D9F     		ldr	r7, [sp, #52]
 1568 07d0 834B     		ldr	r3, .L5+4
 1569 07d2 9619     		adds	r6, r2, r6
 1570              	.LVL368:
 1571 07d4 FF18     		adds	r7, r7, r3
ARM GAS  C:\Users\Ray\AppData\Local\Temp\ccn0usL8.s 			page 32


 151:strong-arm\src\ripemd160/ripemd160.c **** 	JJ(bb, cc, dd, ee, aa, X[12],  8);
 1572              		.loc 1 151 0
 1573 07d6 6346     		mov	r3, ip
 1574 07d8 BA18     		adds	r2, r7, r2
 1575              	.LVL369:
 1576 07da DF43     		mvns	r7, r3
 1577 07dc 1823     		movs	r3, #24
 1578 07de 0F43     		orrs	r7, r1
 1579 07e0 C141     		rors	r1, r1, r0
 1580              	.LVL370:
 1581 07e2 7740     		eors	r7, r6
 1582 07e4 BA18     		adds	r2, r7, r2
 1583              	.LVL371:
 1584 07e6 DA41     		rors	r2, r2, r3
 1585              	.LVL372:
 1586 07e8 0F00     		movs	r7, r1
 1587 07ea 039B     		ldr	r3, [sp, #12]
 1588 07ec 7C49     		ldr	r1, .L5+4
 1589 07ee AA18     		adds	r2, r5, r2
 1590              	.LVL373:
 1591 07f0 5918     		adds	r1, r3, r1
 1592 07f2 4D19     		adds	r5, r1, r5
 1593              	.LVL374:
 152:strong-arm\src\ripemd160/ripemd160.c **** 	JJ(aa, bb, cc, dd, ee, X[ 2], 13);
 1594              		.loc 1 152 0
 1595 07f4 F943     		mvns	r1, r7
 1596 07f6 1323     		movs	r3, #19
 1597 07f8 3143     		orrs	r1, r6
 1598 07fa C641     		rors	r6, r6, r0
 1599              	.LVL375:
 1600 07fc 5140     		eors	r1, r2
 1601 07fe 4919     		adds	r1, r1, r5
 1602              	.LVL376:
 1603 0800 D941     		rors	r1, r1, r3
 1604              	.LVL377:
 1605 0802 774D     		ldr	r5, .L5+4
 1606 0804 0B9B     		ldr	r3, [sp, #44]
 1607 0806 6144     		add	r1, r1, ip
 1608              	.LVL378:
 1609 0808 5D19     		adds	r5, r3, r5
 1610 080a 2B00     		movs	r3, r5
 153:strong-arm\src\ripemd160/ripemd160.c **** 	JJ(ee, aa, bb, cc, dd, X[10], 12);
 1611              		.loc 1 153 0
 1612 080c F543     		mvns	r5, r6
 1613 080e 1543     		orrs	r5, r2
 1614 0810 4D40     		eors	r5, r1
 1615 0812 6344     		add	r3, r3, ip
 1616              	.LVL379:
 1617 0814 EB18     		adds	r3, r5, r3
 1618              	.LVL380:
 1619 0816 1425     		movs	r5, #20
 1620 0818 C241     		rors	r2, r2, r0
 1621              	.LVL381:
 1622 081a EB41     		rors	r3, r3, r5
 1623              	.LVL382:
 1624 081c 1500     		movs	r5, r2
 1625 081e FB18     		adds	r3, r7, r3
ARM GAS  C:\Users\Ray\AppData\Local\Temp\ccn0usL8.s 			page 33


 1626 0820 9C46     		mov	ip, r3
 1627              	.LVL383:
 1628 0822 0F9A     		ldr	r2, [sp, #60]
 1629              	.LVL384:
 1630 0824 6E4B     		ldr	r3, .L5+4
 1631              	.LVL385:
 1632 0826 D218     		adds	r2, r2, r3
 1633 0828 D719     		adds	r7, r2, r7
 1634              	.LVL386:
 154:strong-arm\src\ripemd160/ripemd160.c **** 	JJ(dd, ee, aa, bb, cc, X[14],  5);
 1635              		.loc 1 154 0
 1636 082a EA43     		mvns	r2, r5
 1637 082c 6346     		mov	r3, ip
 1638 082e 0A43     		orrs	r2, r1
 1639 0830 5A40     		eors	r2, r3
 1640 0832 1B23     		movs	r3, #27
 1641 0834 D219     		adds	r2, r2, r7
 1642              	.LVL387:
 1643 0836 DA41     		rors	r2, r2, r3
 1644              	.LVL388:
 1645 0838 C141     		rors	r1, r1, r0
 1646              	.LVL389:
 1647 083a B318     		adds	r3, r6, r2
 1648 083c 0093     		str	r3, [sp]
 1649              	.LVL390:
 1650 083e 684F     		ldr	r7, .L5+4
 1651 0840 029B     		ldr	r3, [sp, #8]
 1652              	.LVL391:
 1653 0842 674A     		ldr	r2, .L5+4
 1654 0844 DF19     		adds	r7, r3, r7
 1655 0846 BE19     		adds	r6, r7, r6
 1656              	.LVL392:
 155:strong-arm\src\ripemd160/ripemd160.c **** 	JJ(cc, dd, ee, aa, bb, X[ 1], 12);
 1657              		.loc 1 155 0
 1658 0848 6346     		mov	r3, ip
 1659 084a CF43     		mvns	r7, r1
 1660 084c 1F43     		orrs	r7, r3
 1661 084e 009B     		ldr	r3, [sp]
 1662 0850 5F40     		eors	r7, r3
 1663 0852 1423     		movs	r3, #20
 1664 0854 BE19     		adds	r6, r7, r6
 1665              	.LVL393:
 1666 0856 DE41     		rors	r6, r6, r3
 1667              	.LVL394:
 1668 0858 6346     		mov	r3, ip
 1669 085a C341     		rors	r3, r3, r0
 1670 085c 1F00     		movs	r7, r3
 1671 085e 049B     		ldr	r3, [sp, #16]
 1672 0860 AE19     		adds	r6, r5, r6
 1673              	.LVL395:
 1674 0862 9B18     		adds	r3, r3, r2
 1675 0864 5D19     		adds	r5, r3, r5
 1676              	.LVL396:
 156:strong-arm\src\ripemd160/ripemd160.c **** 	JJ(bb, cc, dd, ee, aa, X[ 3], 13);
 1677              		.loc 1 156 0
 1678 0866 FB43     		mvns	r3, r7
 1679 0868 009A     		ldr	r2, [sp]
ARM GAS  C:\Users\Ray\AppData\Local\Temp\ccn0usL8.s 			page 34


 1680 086a 1343     		orrs	r3, r2
 1681 086c 1322     		movs	r2, #19
 1682 086e 7340     		eors	r3, r6
 1683 0870 5B19     		adds	r3, r3, r5
 1684              	.LVL397:
 1685 0872 D341     		rors	r3, r3, r2
 1686              	.LVL398:
 1687 0874 009A     		ldr	r2, [sp]
 1688 0876 CB18     		adds	r3, r1, r3
 1689 0878 C241     		rors	r2, r2, r0
 1690 087a 9C46     		mov	ip, r3
 1691              	.LVL399:
 1692 087c 099D     		ldr	r5, [sp, #36]
 1693 087e 584B     		ldr	r3, .L5+4
 1694              	.LVL400:
 1695 0880 ED18     		adds	r5, r5, r3
 1696 0882 6918     		adds	r1, r5, r1
 1697              	.LVL401:
 157:strong-arm\src\ripemd160/ripemd160.c **** 	JJ(aa, bb, cc, dd, ee, X[ 8], 14);
 1698              		.loc 1 157 0
 1699 0884 D543     		mvns	r5, r2
 1700 0886 6346     		mov	r3, ip
 1701 0888 3543     		orrs	r5, r6
 1702 088a 5D40     		eors	r5, r3
 1703 088c 1223     		movs	r3, #18
 1704 088e 6918     		adds	r1, r5, r1
 1705              	.LVL402:
 1706 0890 C641     		rors	r6, r6, r0
 1707              	.LVL403:
 1708 0892 D941     		rors	r1, r1, r3
 1709              	.LVL404:
 1710 0894 524D     		ldr	r5, .L5+4
 1711 0896 0C9B     		ldr	r3, [sp, #48]
 1712 0898 7918     		adds	r1, r7, r1
 1713              	.LVL405:
 1714 089a 5D19     		adds	r5, r3, r5
 1715 089c EF19     		adds	r7, r5, r7
 1716              	.LVL406:
 158:strong-arm\src\ripemd160/ripemd160.c **** 	JJ(ee, aa, bb, cc, dd, X[11], 11);
 1717              		.loc 1 158 0
 1718 089e 6346     		mov	r3, ip
 1719 08a0 F543     		mvns	r5, r6
 1720 08a2 1D43     		orrs	r5, r3
 1721 08a4 1523     		movs	r3, #21
 1722 08a6 4D40     		eors	r5, r1
 1723 08a8 ED19     		adds	r5, r5, r7
 1724              	.LVL407:
 1725 08aa DD41     		rors	r5, r5, r3
 1726              	.LVL408:
 1727 08ac 6346     		mov	r3, ip
 1728 08ae C341     		rors	r3, r3, r0
 1729 08b0 9C46     		mov	ip, r3
 1730              	.LVL409:
 1731 08b2 079F     		ldr	r7, [sp, #28]
 1732 08b4 4A4B     		ldr	r3, .L5+4
 1733 08b6 5519     		adds	r5, r2, r5
 1734              	.LVL410:
ARM GAS  C:\Users\Ray\AppData\Local\Temp\ccn0usL8.s 			page 35


 1735 08b8 FF18     		adds	r7, r7, r3
 159:strong-arm\src\ripemd160/ripemd160.c **** 	JJ(dd, ee, aa, bb, cc, X[ 6],  8);
 1736              		.loc 1 159 0
 1737 08ba 6346     		mov	r3, ip
 1738 08bc BA18     		adds	r2, r7, r2
 1739              	.LVL411:
 1740 08be DF43     		mvns	r7, r3
 1741 08c0 1823     		movs	r3, #24
 1742 08c2 0F43     		orrs	r7, r1
 1743 08c4 6F40     		eors	r7, r5
 1744 08c6 BA18     		adds	r2, r7, r2
 1745              	.LVL412:
 1746 08c8 DA41     		rors	r2, r2, r3
 1747              	.LVL413:
 1748 08ca C141     		rors	r1, r1, r0
 1749              	.LVL414:
 1750 08cc B318     		adds	r3, r6, r2
 1751 08ce 1393     		str	r3, [sp, #76]
 1752              	.LVL415:
 1753 08d0 434A     		ldr	r2, .L5+4
 1754 08d2 109B     		ldr	r3, [sp, #64]
 1755              	.LVL416:
 1756 08d4 1491     		str	r1, [sp, #80]
 1757              	.LVL417:
 1758 08d6 9A18     		adds	r2, r3, r2
 1759 08d8 9619     		adds	r6, r2, r6
 1760              	.LVL418:
 160:strong-arm\src\ripemd160/ripemd160.c **** 	JJ(cc, dd, ee, aa, bb, X[15],  5);
 1761              		.loc 1 160 0
 1762 08da CA43     		mvns	r2, r1
 1763 08dc 139B     		ldr	r3, [sp, #76]
 1764 08de 2A43     		orrs	r2, r5
 1765 08e0 5A40     		eors	r2, r3
 1766 08e2 1B23     		movs	r3, #27
 1767 08e4 9619     		adds	r6, r2, r6
 1768              	.LVL419:
 1769 08e6 DE41     		rors	r6, r6, r3
 1770              	.LVL420:
 1771 08e8 3D4A     		ldr	r2, .L5+4
 1772 08ea 0E9B     		ldr	r3, [sp, #56]
 161:strong-arm\src\ripemd160/ripemd160.c **** 	JJ(bb, cc, dd, ee, aa, X[13],  6);
 162:strong-arm\src\ripemd160/ripemd160.c **** 	
 163:strong-arm\src\ripemd160/ripemd160.c **** 	/* parallel round 1 */
 164:strong-arm\src\ripemd160/ripemd160.c **** 	JJJ(aaa, bbb, ccc, ddd, eee, X[ 5],  8);
 1773              		.loc 1 164 0
 1774 08ec 3D49     		ldr	r1, .L5+8
 1775              	.LVL421:
 1776 08ee 9A18     		adds	r2, r3, r2
 1777 08f0 E368     		ldr	r3, [r4, #12]
 1778 08f2 6244     		add	r2, r2, ip
 1779 08f4 DB43     		mvns	r3, r3
 1780 08f6 1792     		str	r2, [sp, #92]
 1781 08f8 A268     		ldr	r2, [r4, #8]
 160:strong-arm\src\ripemd160/ripemd160.c **** 	JJ(cc, dd, ee, aa, bb, X[15],  5);
 1782              		.loc 1 160 0
 1783 08fa C541     		rors	r5, r5, r0
 1784              	.LVL422:
ARM GAS  C:\Users\Ray\AppData\Local\Temp\ccn0usL8.s 			page 36


 1785              		.loc 1 164 0
 1786 08fc 1343     		orrs	r3, r2
 1787 08fe 6268     		ldr	r2, [r4, #4]
 160:strong-arm\src\ripemd160/ripemd160.c **** 	JJ(cc, dd, ee, aa, bb, X[15],  5);
 1788              		.loc 1 160 0
 1789 0900 6644     		add	r6, r6, ip
 1790              		.loc 1 164 0
 1791 0902 5340     		eors	r3, r2
 1792 0904 069A     		ldr	r2, [sp, #24]
 160:strong-arm\src\ripemd160/ripemd160.c **** 	JJ(cc, dd, ee, aa, bb, X[15],  5);
 1793              		.loc 1 160 0
 1794 0906 1596     		str	r6, [sp, #84]
 1795              	.LVL423:
 1796              		.loc 1 164 0
 1797 0908 5218     		adds	r2, r2, r1
 1798 090a 2168     		ldr	r1, [r4]
 160:strong-arm\src\ripemd160/ripemd160.c **** 	JJ(cc, dd, ee, aa, bb, X[15],  5);
 1799              		.loc 1 160 0
 1800 090c 1695     		str	r5, [sp, #88]
 1801              	.LVL424:
 1802              		.loc 1 164 0
 1803 090e 5218     		adds	r2, r2, r1
 1804 0910 9B18     		adds	r3, r3, r2
 1805 0912 1822     		movs	r2, #24
 1806 0914 D341     		rors	r3, r3, r2
 1807 0916 2269     		ldr	r2, [r4, #16]
 165:strong-arm\src\ripemd160/ripemd160.c **** 	JJJ(eee, aaa, bbb, ccc, ddd, X[14],  9);
 1808              		.loc 1 165 0
 1809 0918 3249     		ldr	r1, .L5+8
 164:strong-arm\src\ripemd160/ripemd160.c **** 	JJJ(eee, aaa, bbb, ccc, ddd, X[14],  9);
 1810              		.loc 1 164 0
 1811 091a D318     		adds	r3, r2, r3
 1812              	.LVL425:
 1813              		.loc 1 165 0
 1814 091c 119A     		ldr	r2, [sp, #68]
 166:strong-arm\src\ripemd160/ripemd160.c **** 	JJJ(ddd, eee, aaa, bbb, ccc, X[ 7],  9);
 167:strong-arm\src\ripemd160/ripemd160.c **** 	JJJ(ccc, ddd, eee, aaa, bbb, X[ 0], 11);
 168:strong-arm\src\ripemd160/ripemd160.c **** 	JJJ(bbb, ccc, ddd, eee, aaa, X[ 9], 13);
 169:strong-arm\src\ripemd160/ripemd160.c **** 	JJJ(aaa, bbb, ccc, ddd, eee, X[ 2], 15);
 170:strong-arm\src\ripemd160/ripemd160.c **** 	JJJ(eee, aaa, bbb, ccc, ddd, X[11], 15);
 171:strong-arm\src\ripemd160/ripemd160.c **** 	JJJ(ddd, eee, aaa, bbb, ccc, X[ 4],  5);
 172:strong-arm\src\ripemd160/ripemd160.c **** 	JJJ(ccc, ddd, eee, aaa, bbb, X[13],  7);
 173:strong-arm\src\ripemd160/ripemd160.c **** 	JJJ(bbb, ccc, ddd, eee, aaa, X[ 6],  7);
 174:strong-arm\src\ripemd160/ripemd160.c **** 	JJJ(aaa, bbb, ccc, ddd, eee, X[15],  8);
 175:strong-arm\src\ripemd160/ripemd160.c **** 	JJJ(eee, aaa, bbb, ccc, ddd, X[ 8], 11);
 176:strong-arm\src\ripemd160/ripemd160.c **** 	JJJ(ddd, eee, aaa, bbb, ccc, X[ 1], 14);
 177:strong-arm\src\ripemd160/ripemd160.c **** 	JJJ(ccc, ddd, eee, aaa, bbb, X[10], 14);
 1815              		.loc 1 177 0
 1816 091e 0090     		str	r0, [sp]
 165:strong-arm\src\ripemd160/ripemd160.c **** 	JJJ(ddd, eee, aaa, bbb, ccc, X[ 7],  9);
 1817              		.loc 1 165 0
 1818 0920 D543     		mvns	r5, r2
 1819              	.LVL426:
 1820 0922 6268     		ldr	r2, [r4, #4]
 1821 0924 1543     		orrs	r5, r2
 1822              	.LVL427:
 1823 0926 0F9A     		ldr	r2, [sp, #60]
ARM GAS  C:\Users\Ray\AppData\Local\Temp\ccn0usL8.s 			page 37


 1824 0928 5D40     		eors	r5, r3
 1825              	.LVL428:
 1826 092a 5218     		adds	r2, r2, r1
 1827 092c 2169     		ldr	r1, [r4, #16]
 1828 092e 5218     		adds	r2, r2, r1
 1829 0930 AD18     		adds	r5, r5, r2
 1830 0932 1722     		movs	r2, #23
 1831 0934 D541     		rors	r5, r5, r2
 1832 0936 E268     		ldr	r2, [r4, #12]
 166:strong-arm\src\ripemd160/ripemd160.c **** 	JJJ(ddd, eee, aaa, bbb, ccc, X[ 7],  9);
 1833              		.loc 1 166 0
 1834 0938 2A49     		ldr	r1, .L5+8
 165:strong-arm\src\ripemd160/ripemd160.c **** 	JJJ(ddd, eee, aaa, bbb, ccc, X[ 7],  9);
 1835              		.loc 1 165 0
 1836 093a 5519     		adds	r5, r2, r5
 1837              	.LVL429:
 166:strong-arm\src\ripemd160/ripemd160.c **** 	JJJ(ddd, eee, aaa, bbb, ccc, X[ 7],  9);
 1838              		.loc 1 166 0
 1839 093c 129A     		ldr	r2, [sp, #72]
 1840 093e D743     		mvns	r7, r2
 1841 0940 1F43     		orrs	r7, r3
 1842              	.LVL430:
 1843 0942 C341     		rors	r3, r3, r0
 1844              	.LVL431:
 1845 0944 089A     		ldr	r2, [sp, #32]
 1846 0946 6F40     		eors	r7, r5
 1847              	.LVL432:
 1848 0948 5218     		adds	r2, r2, r1
 1849 094a E168     		ldr	r1, [r4, #12]
 1850              	.LVL433:
 167:strong-arm\src\ripemd160/ripemd160.c **** 	JJJ(bbb, ccc, ddd, eee, aaa, X[ 9], 13);
 1851              		.loc 1 167 0
 1852 094c DE43     		mvns	r6, r3
 1853              	.LVL434:
 166:strong-arm\src\ripemd160/ripemd160.c **** 	JJJ(ddd, eee, aaa, bbb, ccc, X[ 7],  9);
 1854              		.loc 1 166 0
 1855 094e 5218     		adds	r2, r2, r1
 1856 0950 BF18     		adds	r7, r7, r2
 1857 0952 1722     		movs	r2, #23
 1858 0954 D741     		rors	r7, r7, r2
 167:strong-arm\src\ripemd160/ripemd160.c **** 	JJJ(bbb, ccc, ddd, eee, aaa, X[ 9], 13);
 1859              		.loc 1 167 0
 1860 0956 2E43     		orrs	r6, r5
 1861 0958 C541     		rors	r5, r5, r0
 1862              	.LVL435:
 166:strong-arm\src\ripemd160/ripemd160.c **** 	JJJ(ddd, eee, aaa, bbb, ccc, X[ 7],  9);
 1863              		.loc 1 166 0
 1864 095a 119A     		ldr	r2, [sp, #68]
 1865              	.LVL436:
 167:strong-arm\src\ripemd160/ripemd160.c **** 	JJJ(bbb, ccc, ddd, eee, aaa, X[ 9], 13);
 1866              		.loc 1 167 0
 1867 095c 2149     		ldr	r1, .L5+8
 1868              	.LVL437:
 166:strong-arm\src\ripemd160/ripemd160.c **** 	JJJ(ddd, eee, aaa, bbb, ccc, X[ 7],  9);
 1869              		.loc 1 166 0
 1870 095e D719     		adds	r7, r2, r7
 1871              	.LVL438:
ARM GAS  C:\Users\Ray\AppData\Local\Temp\ccn0usL8.s 			page 38


 167:strong-arm\src\ripemd160/ripemd160.c **** 	JJJ(bbb, ccc, ddd, eee, aaa, X[ 9], 13);
 1872              		.loc 1 167 0
 1873 0960 019A     		ldr	r2, [sp, #4]
 1874 0962 7E40     		eors	r6, r7
 1875 0964 5218     		adds	r2, r2, r1
 1876 0966 1199     		ldr	r1, [sp, #68]
 1877              	.LVL439:
 166:strong-arm\src\ripemd160/ripemd160.c **** 	JJJ(ddd, eee, aaa, bbb, ccc, X[ 7],  9);
 1878              		.loc 1 166 0
 1879 0968 9C46     		mov	ip, r3
 1880              	.LVL440:
 167:strong-arm\src\ripemd160/ripemd160.c **** 	JJJ(bbb, ccc, ddd, eee, aaa, X[ 9], 13);
 1881              		.loc 1 167 0
 1882 096a 5218     		adds	r2, r2, r1
 1883 096c B618     		adds	r6, r6, r2
 1884 096e 1522     		movs	r2, #21
 168:strong-arm\src\ripemd160/ripemd160.c **** 	JJJ(aaa, bbb, ccc, ddd, eee, X[ 2], 15);
 1885              		.loc 1 168 0
 1886 0970 E943     		mvns	r1, r5
 167:strong-arm\src\ripemd160/ripemd160.c **** 	JJJ(bbb, ccc, ddd, eee, aaa, X[ 9], 13);
 1887              		.loc 1 167 0
 1888 0972 D641     		rors	r6, r6, r2
 168:strong-arm\src\ripemd160/ripemd160.c **** 	JJJ(aaa, bbb, ccc, ddd, eee, X[ 2], 15);
 1889              		.loc 1 168 0
 1890 0974 3943     		orrs	r1, r7
 1891 0976 0B00     		movs	r3, r1
 1892              	.LVL441:
 167:strong-arm\src\ripemd160/ripemd160.c **** 	JJJ(bbb, ccc, ddd, eee, aaa, X[ 9], 13);
 1893              		.loc 1 167 0
 1894 0978 129A     		ldr	r2, [sp, #72]
 168:strong-arm\src\ripemd160/ripemd160.c **** 	JJJ(aaa, bbb, ccc, ddd, eee, X[ 2], 15);
 1895              		.loc 1 168 0
 1896 097a 1A49     		ldr	r1, .L5+8
 1897              	.LVL442:
 167:strong-arm\src\ripemd160/ripemd160.c **** 	JJJ(bbb, ccc, ddd, eee, aaa, X[ 9], 13);
 1898              		.loc 1 167 0
 1899 097c 9619     		adds	r6, r2, r6
 1900              	.LVL443:
 168:strong-arm\src\ripemd160/ripemd160.c **** 	JJJ(aaa, bbb, ccc, ddd, eee, X[ 2], 15);
 1901              		.loc 1 168 0
 1902 097e 0A9A     		ldr	r2, [sp, #40]
 1903 0980 7340     		eors	r3, r6
 1904              	.LVL444:
 1905 0982 5218     		adds	r2, r2, r1
 1906 0984 1299     		ldr	r1, [sp, #72]
 1907 0986 C741     		rors	r7, r7, r0
 1908              	.LVL445:
 1909 0988 5218     		adds	r2, r2, r1
 1910 098a 9918     		adds	r1, r3, r2
 1911 098c 1322     		movs	r2, #19
 1912 098e 154B     		ldr	r3, .L5+8
 1913 0990 D141     		rors	r1, r1, r2
 1914 0992 039A     		ldr	r2, [sp, #12]
 1915 0994 6144     		add	r1, r1, ip
 1916              	.LVL446:
 1917 0996 D218     		adds	r2, r2, r3
 1918 0998 1300     		movs	r3, r2
ARM GAS  C:\Users\Ray\AppData\Local\Temp\ccn0usL8.s 			page 39


 169:strong-arm\src\ripemd160/ripemd160.c **** 	JJJ(eee, aaa, bbb, ccc, ddd, X[11], 15);
 1919              		.loc 1 169 0
 1920 099a FA43     		mvns	r2, r7
 1921 099c 3243     		orrs	r2, r6
 1922 099e 4A40     		eors	r2, r1
 1923 09a0 6344     		add	r3, r3, ip
 1924              	.LVL447:
 1925 09a2 D318     		adds	r3, r2, r3
 1926              	.LVL448:
 1927 09a4 1122     		movs	r2, #17
 1928 09a6 D341     		rors	r3, r3, r2
 1929              	.LVL449:
 1930 09a8 C641     		rors	r6, r6, r0
 1931              	.LVL450:
 1932 09aa EB18     		adds	r3, r5, r3
 1933 09ac 9C46     		mov	ip, r3
 1934              	.LVL451:
 1935 09ae 0C9A     		ldr	r2, [sp, #48]
 1936 09b0 0C4B     		ldr	r3, .L5+8
 1937              	.LVL452:
 1938 09b2 D218     		adds	r2, r2, r3
 1939 09b4 5519     		adds	r5, r2, r5
 1940              	.LVL453:
 170:strong-arm\src\ripemd160/ripemd160.c **** 	JJJ(ddd, eee, aaa, bbb, ccc, X[ 4],  5);
 1941              		.loc 1 170 0
 1942 09b6 F243     		mvns	r2, r6
 1943 09b8 6346     		mov	r3, ip
 1944 09ba 0A43     		orrs	r2, r1
 1945 09bc 5A40     		eors	r2, r3
 1946 09be 1123     		movs	r3, #17
 1947 09c0 5519     		adds	r5, r2, r5
 1948              	.LVL454:
 1949 09c2 C141     		rors	r1, r1, r0
 1950              	.LVL455:
 1951 09c4 DD41     		rors	r5, r5, r3
 1952              	.LVL456:
 1953 09c6 074A     		ldr	r2, .L5+8
 1954 09c8 059B     		ldr	r3, [sp, #20]
 1955 09ca 7D19     		adds	r5, r7, r5
 1956              	.LVL457:
 1957 09cc 9A18     		adds	r2, r3, r2
 1958 09ce D719     		adds	r7, r2, r7
 1959              	.LVL458:
 171:strong-arm\src\ripemd160/ripemd160.c **** 	JJJ(ccc, ddd, eee, aaa, bbb, X[13],  7);
 1960              		.loc 1 171 0
 1961 09d0 6346     		mov	r3, ip
 1962 09d2 CA43     		mvns	r2, r1
 1963 09d4 1A43     		orrs	r2, r3
 1964 09d6 1B23     		movs	r3, #27
 1965 09d8 06E0     		b	.L6
 1966              	.L7:
 1967 09da C046     		.align	2
 1968              	.L5:
 1969 09dc DCBC1B8F 		.word	-1894007588
 1970 09e0 4EFD53A9 		.word	-1454113458
 1971 09e4 E68BA250 		.word	1352829926
 1972              	.L6:
ARM GAS  C:\Users\Ray\AppData\Local\Temp\ccn0usL8.s 			page 40


 1973 09e8 6A40     		eors	r2, r5
 1974 09ea D719     		adds	r7, r2, r7
 1975              	.LVL459:
 1976 09ec DF41     		rors	r7, r7, r3
 1977              	.LVL460:
 1978 09ee 6346     		mov	r3, ip
 1979 09f0 C341     		rors	r3, r3, r0
 1980 09f2 9C46     		mov	ip, r3
 1981              	.LVL461:
 1982 09f4 0E9A     		ldr	r2, [sp, #56]
 1983 09f6 FE4B     		ldr	r3, .L8
 1984 09f8 F719     		adds	r7, r6, r7
 1985              	.LVL462:
 1986 09fa D218     		adds	r2, r2, r3
 172:strong-arm\src\ripemd160/ripemd160.c **** 	JJJ(bbb, ccc, ddd, eee, aaa, X[ 6],  7);
 1987              		.loc 1 172 0
 1988 09fc 6346     		mov	r3, ip
 1989 09fe 9619     		adds	r6, r2, r6
 1990              	.LVL463:
 1991 0a00 DA43     		mvns	r2, r3
 1992 0a02 1923     		movs	r3, #25
 1993 0a04 2A43     		orrs	r2, r5
 1994 0a06 7A40     		eors	r2, r7
 1995 0a08 9619     		adds	r6, r2, r6
 1996              	.LVL464:
 1997 0a0a C541     		rors	r5, r5, r0
 1998              	.LVL465:
 1999 0a0c DE41     		rors	r6, r6, r3
 2000              	.LVL466:
 2001 0a0e F84A     		ldr	r2, .L8
 2002 0a10 079B     		ldr	r3, [sp, #28]
 2003 0a12 8E19     		adds	r6, r1, r6
 2004              	.LVL467:
 2005 0a14 9A18     		adds	r2, r3, r2
 2006 0a16 5118     		adds	r1, r2, r1
 2007              	.LVL468:
 173:strong-arm\src\ripemd160/ripemd160.c **** 	JJJ(aaa, bbb, ccc, ddd, eee, X[15],  8);
 2008              		.loc 1 173 0
 2009 0a18 EA43     		mvns	r2, r5
 2010 0a1a 1923     		movs	r3, #25
 2011 0a1c 3A43     		orrs	r2, r7
 2012 0a1e C741     		rors	r7, r7, r0
 2013              	.LVL469:
 2014 0a20 7240     		eors	r2, r6
 2015 0a22 5118     		adds	r1, r2, r1
 2016              	.LVL470:
 2017 0a24 D941     		rors	r1, r1, r3
 2018              	.LVL471:
 2019 0a26 F24A     		ldr	r2, .L8
 2020 0a28 109B     		ldr	r3, [sp, #64]
 2021 0a2a 6144     		add	r1, r1, ip
 2022              	.LVL472:
 2023 0a2c 9A18     		adds	r2, r3, r2
 2024 0a2e 1300     		movs	r3, r2
 174:strong-arm\src\ripemd160/ripemd160.c **** 	JJJ(eee, aaa, bbb, ccc, ddd, X[ 8], 11);
 2025              		.loc 1 174 0
 2026 0a30 FA43     		mvns	r2, r7
ARM GAS  C:\Users\Ray\AppData\Local\Temp\ccn0usL8.s 			page 41


 2027 0a32 3243     		orrs	r2, r6
 2028 0a34 6344     		add	r3, r3, ip
 2029              	.LVL473:
 2030 0a36 4A40     		eors	r2, r1
 2031 0a38 D218     		adds	r2, r2, r3
 2032              	.LVL474:
 2033 0a3a 1823     		movs	r3, #24
 2034 0a3c DA41     		rors	r2, r2, r3
 2035              	.LVL475:
 2036 0a3e C641     		rors	r6, r6, r0
 2037              	.LVL476:
 2038 0a40 AB18     		adds	r3, r5, r2
 2039 0a42 9C46     		mov	ip, r3
 2040              	.LVL477:
 2041 0a44 EA4A     		ldr	r2, .L8
 2042 0a46 099B     		ldr	r3, [sp, #36]
 2043              	.LVL478:
 2044 0a48 9B18     		adds	r3, r3, r2
 2045 0a4a 5D19     		adds	r5, r3, r5
 2046              	.LVL479:
 175:strong-arm\src\ripemd160/ripemd160.c **** 	JJJ(ddd, eee, aaa, bbb, ccc, X[ 1], 14);
 2047              		.loc 1 175 0
 2048 0a4c F343     		mvns	r3, r6
 2049 0a4e 6246     		mov	r2, ip
 2050 0a50 0B43     		orrs	r3, r1
 2051 0a52 5340     		eors	r3, r2
 2052 0a54 5D19     		adds	r5, r3, r5
 2053              	.LVL480:
 2054 0a56 1523     		movs	r3, #21
 2055 0a58 C141     		rors	r1, r1, r0
 2056              	.LVL481:
 2057 0a5a DD41     		rors	r5, r5, r3
 2058              	.LVL482:
 2059 0a5c E44A     		ldr	r2, .L8
 2060 0a5e 029B     		ldr	r3, [sp, #8]
 2061 0a60 7D19     		adds	r5, r7, r5
 2062              	.LVL483:
 2063 0a62 9B18     		adds	r3, r3, r2
 2064 0a64 DF19     		adds	r7, r3, r7
 2065              	.LVL484:
 176:strong-arm\src\ripemd160/ripemd160.c **** 	JJJ(ccc, ddd, eee, aaa, bbb, X[10], 14);
 2066              		.loc 1 176 0
 2067 0a66 6246     		mov	r2, ip
 2068 0a68 CB43     		mvns	r3, r1
 2069 0a6a 1343     		orrs	r3, r2
 2070 0a6c 6B40     		eors	r3, r5
 2071 0a6e DF19     		adds	r7, r3, r7
 2072              	.LVL485:
 2073 0a70 1223     		movs	r3, #18
 2074 0a72 DF41     		rors	r7, r7, r3
 2075              	.LVL486:
 2076 0a74 6346     		mov	r3, ip
 2077 0a76 C341     		rors	r3, r3, r0
 2078 0a78 DD4A     		ldr	r2, .L8
 2079 0a7a 1193     		str	r3, [sp, #68]
 2080 0a7c 0B9B     		ldr	r3, [sp, #44]
 2081 0a7e F719     		adds	r7, r6, r7
ARM GAS  C:\Users\Ray\AppData\Local\Temp\ccn0usL8.s 			page 42


 2082              	.LVL487:
 2083 0a80 9B18     		adds	r3, r3, r2
 2084 0a82 9E19     		adds	r6, r3, r6
 2085              	.LVL488:
 2086              		.loc 1 177 0
 2087 0a84 119B     		ldr	r3, [sp, #68]
 2088 0a86 DB43     		mvns	r3, r3
 2089 0a88 2B43     		orrs	r3, r5
 2090 0a8a C541     		rors	r5, r5, r0
 2091              	.LVL489:
 2092 0a8c 1000     		movs	r0, r2
 2093 0a8e 049A     		ldr	r2, [sp, #16]
 2094 0a90 7B40     		eors	r3, r7
 2095 0a92 9446     		mov	ip, r2
 2096 0a94 9E19     		adds	r6, r3, r6
 2097              	.LVL490:
 178:strong-arm\src\ripemd160/ripemd160.c **** 	JJJ(bbb, ccc, ddd, eee, aaa, X[ 3], 12);
 2098              		.loc 1 178 0
 2099 0a96 EA43     		mvns	r2, r5
 177:strong-arm\src\ripemd160/ripemd160.c **** 	JJJ(bbb, ccc, ddd, eee, aaa, X[ 3], 12);
 2100              		.loc 1 177 0
 2101 0a98 1223     		movs	r3, #18
 2102 0a9a 6044     		add	r0, r0, ip
 2103 0a9c 8446     		mov	ip, r0
 2104 0a9e DE41     		rors	r6, r6, r3
 2105              	.LVL491:
 2106              		.loc 1 178 0
 2107 0aa0 1000     		movs	r0, r2
 177:strong-arm\src\ripemd160/ripemd160.c **** 	JJJ(bbb, ccc, ddd, eee, aaa, X[ 3], 12);
 2108              		.loc 1 177 0
 2109 0aa2 8E19     		adds	r6, r1, r6
 2110              	.LVL492:
 2111              		.loc 1 178 0
 2112 0aa4 3843     		orrs	r0, r7
 2113 0aa6 7040     		eors	r0, r6
 2114 0aa8 6144     		add	r1, r1, ip
 2115              	.LVL493:
 2116 0aaa 8446     		mov	ip, r0
 2117 0aac 1422     		movs	r2, #20
 2118 0aae 6144     		add	r1, r1, ip
 2119              	.LVL494:
 2120 0ab0 D141     		rors	r1, r1, r2
 2121              	.LVL495:
 2122 0ab2 119B     		ldr	r3, [sp, #68]
 2123 0ab4 0D9A     		ldr	r2, [sp, #52]
 2124 0ab6 5918     		adds	r1, r3, r1
 2125              	.LVL496:
 2126 0ab8 1623     		movs	r3, #22
 2127 0aba 9446     		mov	ip, r2
 2128 0abc DF41     		rors	r7, r7, r3
 2129              	.LVL497:
 2130 0abe CC48     		ldr	r0, .L8
 2131 0ac0 119B     		ldr	r3, [sp, #68]
 2132 0ac2 6044     		add	r0, r0, ip
 2133 0ac4 8446     		mov	ip, r0
 179:strong-arm\src\ripemd160/ripemd160.c **** 	JJJ(aaa, bbb, ccc, ddd, eee, X[12],  6);
 2134              		.loc 1 179 0
ARM GAS  C:\Users\Ray\AppData\Local\Temp\ccn0usL8.s 			page 43


 2135 0ac6 F843     		mvns	r0, r7
 2136 0ac8 6344     		add	r3, r3, ip
 2137 0aca 1A00     		movs	r2, r3
 2138              	.LVL498:
 2139 0acc 3043     		orrs	r0, r6
 2140 0ace 1623     		movs	r3, #22
 2141 0ad0 4840     		eors	r0, r1
 2142 0ad2 8446     		mov	ip, r0
 2143 0ad4 DE41     		rors	r6, r6, r3
 2144              	.LVL499:
 2145 0ad6 1A20     		movs	r0, #26
 2146 0ad8 079B     		ldr	r3, [sp, #28]
 2147 0ada 6244     		add	r2, r2, ip
 2148              	.LVL500:
 2149 0adc 9C46     		mov	ip, r3
 2150 0ade C241     		rors	r2, r2, r0
 2151              	.LVL501:
 2152 0ae0 C448     		ldr	r0, .L8+4
 2153 0ae2 AA18     		adds	r2, r5, r2
 2154              	.LVL502:
 2155 0ae4 6044     		add	r0, r0, ip
 2156 0ae6 8446     		mov	ip, r0
 180:strong-arm\src\ripemd160/ripemd160.c **** 	
 181:strong-arm\src\ripemd160/ripemd160.c **** 	/* parallel round 2 */
 182:strong-arm\src\ripemd160/ripemd160.c **** 	III(eee, aaa, bbb, ccc, ddd, X[ 6],  9); 
 2157              		.loc 1 182 0
 2158 0ae8 0800     		movs	r0, r1
 2159 0aea 5040     		eors	r0, r2
 2160 0aec 3040     		ands	r0, r6
 2161 0aee 4840     		eors	r0, r1
 2162 0af0 6544     		add	r5, r5, ip
 2163              	.LVL503:
 2164 0af2 8446     		mov	ip, r0
 2165 0af4 1723     		movs	r3, #23
 2166 0af6 6544     		add	r5, r5, ip
 2167              	.LVL504:
 2168 0af8 DD41     		rors	r5, r5, r3
 2169              	.LVL505:
 2170 0afa 013B     		subs	r3, r3, #1
 2171 0afc D941     		rors	r1, r1, r3
 2172              	.LVL506:
 2173 0afe 0C9B     		ldr	r3, [sp, #48]
 2174 0b00 BC48     		ldr	r0, .L8+4
 2175 0b02 9C46     		mov	ip, r3
 2176 0b04 6044     		add	r0, r0, ip
 2177 0b06 8446     		mov	ip, r0
 183:strong-arm\src\ripemd160/ripemd160.c **** 	III(ddd, eee, aaa, bbb, ccc, X[11], 13);
 2178              		.loc 1 183 0
 2179 0b08 1000     		movs	r0, r2
 182:strong-arm\src\ripemd160/ripemd160.c **** 	III(ddd, eee, aaa, bbb, ccc, X[11], 13);
 2180              		.loc 1 182 0
 2181 0b0a 7D19     		adds	r5, r7, r5
 2182              	.LVL507:
 2183              		.loc 1 183 0
 2184 0b0c 6840     		eors	r0, r5
 2185 0b0e 0840     		ands	r0, r1
 2186 0b10 5040     		eors	r0, r2
ARM GAS  C:\Users\Ray\AppData\Local\Temp\ccn0usL8.s 			page 44


 2187 0b12 6744     		add	r7, r7, ip
 2188              	.LVL508:
 2189 0b14 8446     		mov	ip, r0
 2190 0b16 1323     		movs	r3, #19
 2191 0b18 6744     		add	r7, r7, ip
 2192              	.LVL509:
 2193 0b1a DF41     		rors	r7, r7, r3
 2194              	.LVL510:
 2195 0b1c 0333     		adds	r3, r3, #3
 2196 0b1e DA41     		rors	r2, r2, r3
 2197              	.LVL511:
 2198 0b20 049B     		ldr	r3, [sp, #16]
 2199 0b22 B448     		ldr	r0, .L8+4
 2200 0b24 9C46     		mov	ip, r3
 2201 0b26 6044     		add	r0, r0, ip
 2202 0b28 8446     		mov	ip, r0
 184:strong-arm\src\ripemd160/ripemd160.c **** 	III(ccc, ddd, eee, aaa, bbb, X[ 3], 15);
 2203              		.loc 1 184 0
 2204 0b2a 2800     		movs	r0, r5
 183:strong-arm\src\ripemd160/ripemd160.c **** 	III(ddd, eee, aaa, bbb, ccc, X[11], 13);
 2205              		.loc 1 183 0
 2206 0b2c F719     		adds	r7, r6, r7
 2207              	.LVL512:
 2208              		.loc 1 184 0
 2209 0b2e 7840     		eors	r0, r7
 2210 0b30 1040     		ands	r0, r2
 2211 0b32 6840     		eors	r0, r5
 2212 0b34 6644     		add	r6, r6, ip
 2213              	.LVL513:
 2214 0b36 8446     		mov	ip, r0
 2215 0b38 1123     		movs	r3, #17
 2216 0b3a 6644     		add	r6, r6, ip
 2217              	.LVL514:
 2218 0b3c DE41     		rors	r6, r6, r3
 2219              	.LVL515:
 2220 0b3e 0533     		adds	r3, r3, #5
 2221 0b40 DD41     		rors	r5, r5, r3
 2222              	.LVL516:
 2223 0b42 089B     		ldr	r3, [sp, #32]
 2224 0b44 AB48     		ldr	r0, .L8+4
 2225 0b46 9C46     		mov	ip, r3
 2226 0b48 6044     		add	r0, r0, ip
 2227 0b4a 8446     		mov	ip, r0
 2228 0b4c 8E19     		adds	r6, r1, r6
 2229              	.LVL517:
 2230 0b4e 8C44     		add	ip, ip, r1
 2231              	.LVL518:
 185:strong-arm\src\ripemd160/ripemd160.c **** 	III(bbb, ccc, ddd, eee, aaa, X[ 7],  7);
 2232              		.loc 1 185 0
 2233 0b50 3900     		movs	r1, r7
 2234 0b52 1923     		movs	r3, #25
 2235 0b54 7140     		eors	r1, r6
 2236 0b56 2940     		ands	r1, r5
 2237 0b58 7940     		eors	r1, r7
 2238 0b5a 6144     		add	r1, r1, ip
 2239              	.LVL519:
 2240 0b5c D941     		rors	r1, r1, r3
ARM GAS  C:\Users\Ray\AppData\Local\Temp\ccn0usL8.s 			page 45


 2241              	.LVL520:
 2242 0b5e 033B     		subs	r3, r3, #3
 2243 0b60 DF41     		rors	r7, r7, r3
 2244              	.LVL521:
 2245 0b62 019B     		ldr	r3, [sp, #4]
 2246 0b64 A348     		ldr	r0, .L8+4
 2247 0b66 9C46     		mov	ip, r3
 2248 0b68 6044     		add	r0, r0, ip
 2249 0b6a 8446     		mov	ip, r0
 186:strong-arm\src\ripemd160/ripemd160.c **** 	III(aaa, bbb, ccc, ddd, eee, X[ 0], 12);
 2250              		.loc 1 186 0
 2251 0b6c 3000     		movs	r0, r6
 185:strong-arm\src\ripemd160/ripemd160.c **** 	III(bbb, ccc, ddd, eee, aaa, X[ 7],  7);
 2252              		.loc 1 185 0
 2253 0b6e 5118     		adds	r1, r2, r1
 2254              	.LVL522:
 2255              		.loc 1 186 0
 2256 0b70 4840     		eors	r0, r1
 2257 0b72 3840     		ands	r0, r7
 2258 0b74 7040     		eors	r0, r6
 2259 0b76 6244     		add	r2, r2, ip
 2260              	.LVL523:
 2261 0b78 8446     		mov	ip, r0
 2262 0b7a 1423     		movs	r3, #20
 2263 0b7c 6244     		add	r2, r2, ip
 2264              	.LVL524:
 2265 0b7e DA41     		rors	r2, r2, r3
 2266              	.LVL525:
 2267 0b80 0233     		adds	r3, r3, #2
 2268 0b82 DE41     		rors	r6, r6, r3
 2269              	.LVL526:
 2270 0b84 0E9B     		ldr	r3, [sp, #56]
 2271 0b86 9B48     		ldr	r0, .L8+4
 2272 0b88 9C46     		mov	ip, r3
 2273 0b8a 6044     		add	r0, r0, ip
 2274 0b8c 8446     		mov	ip, r0
 187:strong-arm\src\ripemd160/ripemd160.c **** 	III(eee, aaa, bbb, ccc, ddd, X[13],  8);
 2275              		.loc 1 187 0
 2276 0b8e 0800     		movs	r0, r1
 186:strong-arm\src\ripemd160/ripemd160.c **** 	III(aaa, bbb, ccc, ddd, eee, X[ 0], 12);
 2277              		.loc 1 186 0
 2278 0b90 AA18     		adds	r2, r5, r2
 2279              	.LVL527:
 2280              		.loc 1 187 0
 2281 0b92 5040     		eors	r0, r2
 2282 0b94 3040     		ands	r0, r6
 2283 0b96 4840     		eors	r0, r1
 2284 0b98 6544     		add	r5, r5, ip
 2285              	.LVL528:
 2286 0b9a 8446     		mov	ip, r0
 2287 0b9c 1823     		movs	r3, #24
 2288 0b9e 6544     		add	r5, r5, ip
 2289              	.LVL529:
 2290 0ba0 DD41     		rors	r5, r5, r3
 2291              	.LVL530:
 2292 0ba2 023B     		subs	r3, r3, #2
 2293 0ba4 D941     		rors	r1, r1, r3
ARM GAS  C:\Users\Ray\AppData\Local\Temp\ccn0usL8.s 			page 46


 2294              	.LVL531:
 2295 0ba6 069B     		ldr	r3, [sp, #24]
 2296 0ba8 9248     		ldr	r0, .L8+4
 2297 0baa 9C46     		mov	ip, r3
 2298 0bac 6044     		add	r0, r0, ip
 2299 0bae 8446     		mov	ip, r0
 188:strong-arm\src\ripemd160/ripemd160.c **** 	III(ddd, eee, aaa, bbb, ccc, X[ 5],  9);
 2300              		.loc 1 188 0
 2301 0bb0 1000     		movs	r0, r2
 187:strong-arm\src\ripemd160/ripemd160.c **** 	III(eee, aaa, bbb, ccc, ddd, X[13],  8);
 2302              		.loc 1 187 0
 2303 0bb2 7D19     		adds	r5, r7, r5
 2304              	.LVL532:
 2305              		.loc 1 188 0
 2306 0bb4 6840     		eors	r0, r5
 2307 0bb6 0840     		ands	r0, r1
 2308 0bb8 5040     		eors	r0, r2
 2309 0bba 6744     		add	r7, r7, ip
 2310              	.LVL533:
 2311 0bbc 8446     		mov	ip, r0
 2312 0bbe 1723     		movs	r3, #23
 2313 0bc0 6744     		add	r7, r7, ip
 2314              	.LVL534:
 2315 0bc2 DF41     		rors	r7, r7, r3
 2316              	.LVL535:
 2317 0bc4 013B     		subs	r3, r3, #1
 2318 0bc6 DA41     		rors	r2, r2, r3
 2319              	.LVL536:
 2320 0bc8 0B9B     		ldr	r3, [sp, #44]
 2321 0bca 8A48     		ldr	r0, .L8+4
 2322 0bcc 9C46     		mov	ip, r3
 2323 0bce 6044     		add	r0, r0, ip
 2324 0bd0 8446     		mov	ip, r0
 189:strong-arm\src\ripemd160/ripemd160.c **** 	III(ccc, ddd, eee, aaa, bbb, X[10], 11);
 2325              		.loc 1 189 0
 2326 0bd2 2800     		movs	r0, r5
 188:strong-arm\src\ripemd160/ripemd160.c **** 	III(ddd, eee, aaa, bbb, ccc, X[ 5],  9);
 2327              		.loc 1 188 0
 2328 0bd4 F719     		adds	r7, r6, r7
 2329              	.LVL537:
 2330              		.loc 1 189 0
 2331 0bd6 7840     		eors	r0, r7
 2332 0bd8 1040     		ands	r0, r2
 2333 0bda 6840     		eors	r0, r5
 2334 0bdc 6644     		add	r6, r6, ip
 2335              	.LVL538:
 2336 0bde 8446     		mov	ip, r0
 2337 0be0 1523     		movs	r3, #21
 2338 0be2 6644     		add	r6, r6, ip
 2339              	.LVL539:
 2340 0be4 DE41     		rors	r6, r6, r3
 2341              	.LVL540:
 2342 0be6 8B19     		adds	r3, r1, r6
 2343 0be8 9C46     		mov	ip, r3
 2344              	.LVL541:
 2345 0bea 1623     		movs	r3, #22
 2346              	.LVL542:
ARM GAS  C:\Users\Ray\AppData\Local\Temp\ccn0usL8.s 			page 47


 2347 0bec 8148     		ldr	r0, .L8+4
 2348 0bee DD41     		rors	r5, r5, r3
 2349              	.LVL543:
 2350 0bf0 0F9B     		ldr	r3, [sp, #60]
 2351 0bf2 1E18     		adds	r6, r3, r0
 2352 0bf4 7118     		adds	r1, r6, r1
 2353              	.LVL544:
 190:strong-arm\src\ripemd160/ripemd160.c **** 	III(bbb, ccc, ddd, eee, aaa, X[14],  7);
 2354              		.loc 1 190 0
 2355 0bf6 6646     		mov	r6, ip
 2356 0bf8 1923     		movs	r3, #25
 2357 0bfa 7E40     		eors	r6, r7
 2358 0bfc 2E40     		ands	r6, r5
 2359 0bfe 7E40     		eors	r6, r7
 2360 0c00 7118     		adds	r1, r6, r1
 2361              	.LVL545:
 2362 0c02 D941     		rors	r1, r1, r3
 2363              	.LVL546:
 2364 0c04 033B     		subs	r3, r3, #3
 2365 0c06 DF41     		rors	r7, r7, r3
 2366              	.LVL547:
 2367 0c08 109B     		ldr	r3, [sp, #64]
 2368 0c0a 5118     		adds	r1, r2, r1
 2369              	.LVL548:
 2370 0c0c 1E18     		adds	r6, r3, r0
 2371 0c0e B218     		adds	r2, r6, r2
 2372              	.LVL549:
 191:strong-arm\src\ripemd160/ripemd160.c **** 	III(aaa, bbb, ccc, ddd, eee, X[15],  7);
 2373              		.loc 1 191 0
 2374 0c10 6646     		mov	r6, ip
 2375 0c12 6346     		mov	r3, ip
 2376 0c14 4E40     		eors	r6, r1
 2377 0c16 3E40     		ands	r6, r7
 2378 0c18 5E40     		eors	r6, r3
 2379 0c1a 1923     		movs	r3, #25
 2380 0c1c B618     		adds	r6, r6, r2
 2381              	.LVL550:
 2382 0c1e 6246     		mov	r2, ip
 2383 0c20 DE41     		rors	r6, r6, r3
 2384              	.LVL551:
 2385 0c22 033B     		subs	r3, r3, #3
 2386 0c24 DA41     		rors	r2, r2, r3
 2387 0c26 099B     		ldr	r3, [sp, #36]
 2388 0c28 AE19     		adds	r6, r5, r6
 2389              	.LVL552:
 2390 0c2a 9C46     		mov	ip, r3
 2391 0c2c 6044     		add	r0, r0, ip
 2392 0c2e 8446     		mov	ip, r0
 192:strong-arm\src\ripemd160/ripemd160.c **** 	III(eee, aaa, bbb, ccc, ddd, X[ 8], 12);
 2393              		.loc 1 192 0
 2394 0c30 0800     		movs	r0, r1
 2395 0c32 7040     		eors	r0, r6
 2396 0c34 1040     		ands	r0, r2
 2397 0c36 4840     		eors	r0, r1
 2398 0c38 6544     		add	r5, r5, ip
 2399              	.LVL553:
 2400 0c3a 8446     		mov	ip, r0
ARM GAS  C:\Users\Ray\AppData\Local\Temp\ccn0usL8.s 			page 48


 2401 0c3c 1423     		movs	r3, #20
 2402 0c3e 6544     		add	r5, r5, ip
 2403              	.LVL554:
 2404 0c40 DD41     		rors	r5, r5, r3
 2405              	.LVL555:
 2406 0c42 0233     		adds	r3, r3, #2
 2407 0c44 D941     		rors	r1, r1, r3
 2408              	.LVL556:
 2409 0c46 0D9B     		ldr	r3, [sp, #52]
 2410 0c48 6A48     		ldr	r0, .L8+4
 2411 0c4a 9C46     		mov	ip, r3
 2412 0c4c 6044     		add	r0, r0, ip
 2413 0c4e 8446     		mov	ip, r0
 193:strong-arm\src\ripemd160/ripemd160.c **** 	III(ddd, eee, aaa, bbb, ccc, X[12],  7);
 2414              		.loc 1 193 0
 2415 0c50 3000     		movs	r0, r6
 192:strong-arm\src\ripemd160/ripemd160.c **** 	III(eee, aaa, bbb, ccc, ddd, X[ 8], 12);
 2416              		.loc 1 192 0
 2417 0c52 7D19     		adds	r5, r7, r5
 2418              	.LVL557:
 2419              		.loc 1 193 0
 2420 0c54 6840     		eors	r0, r5
 2421 0c56 0840     		ands	r0, r1
 2422 0c58 7040     		eors	r0, r6
 2423 0c5a 6744     		add	r7, r7, ip
 2424              	.LVL558:
 2425 0c5c 8446     		mov	ip, r0
 2426 0c5e 1923     		movs	r3, #25
 2427 0c60 6744     		add	r7, r7, ip
 2428              	.LVL559:
 2429 0c62 DF41     		rors	r7, r7, r3
 2430              	.LVL560:
 2431 0c64 033B     		subs	r3, r3, #3
 2432 0c66 DE41     		rors	r6, r6, r3
 2433              	.LVL561:
 2434 0c68 059B     		ldr	r3, [sp, #20]
 2435 0c6a 6248     		ldr	r0, .L8+4
 2436 0c6c 9C46     		mov	ip, r3
 2437 0c6e 6044     		add	r0, r0, ip
 2438 0c70 8446     		mov	ip, r0
 194:strong-arm\src\ripemd160/ripemd160.c **** 	III(ccc, ddd, eee, aaa, bbb, X[ 4],  6);
 2439              		.loc 1 194 0
 2440 0c72 2800     		movs	r0, r5
 193:strong-arm\src\ripemd160/ripemd160.c **** 	III(ddd, eee, aaa, bbb, ccc, X[12],  7);
 2441              		.loc 1 193 0
 2442 0c74 D719     		adds	r7, r2, r7
 2443              	.LVL562:
 2444              		.loc 1 194 0
 2445 0c76 7840     		eors	r0, r7
 2446 0c78 3040     		ands	r0, r6
 2447 0c7a 6840     		eors	r0, r5
 2448 0c7c 6244     		add	r2, r2, ip
 2449              	.LVL563:
 2450 0c7e 8446     		mov	ip, r0
 2451 0c80 1A23     		movs	r3, #26
 2452 0c82 6244     		add	r2, r2, ip
 2453              	.LVL564:
ARM GAS  C:\Users\Ray\AppData\Local\Temp\ccn0usL8.s 			page 49


 2454 0c84 DA41     		rors	r2, r2, r3
 2455              	.LVL565:
 2456 0c86 043B     		subs	r3, r3, #4
 2457 0c88 DD41     		rors	r5, r5, r3
 2458              	.LVL566:
 2459 0c8a 0A9B     		ldr	r3, [sp, #40]
 2460 0c8c 5948     		ldr	r0, .L8+4
 2461 0c8e 9C46     		mov	ip, r3
 2462 0c90 6044     		add	r0, r0, ip
 2463 0c92 8446     		mov	ip, r0
 195:strong-arm\src\ripemd160/ripemd160.c **** 	III(bbb, ccc, ddd, eee, aaa, X[ 9], 15);
 2464              		.loc 1 195 0
 2465 0c94 3800     		movs	r0, r7
 194:strong-arm\src\ripemd160/ripemd160.c **** 	III(ccc, ddd, eee, aaa, bbb, X[ 4],  6);
 2466              		.loc 1 194 0
 2467 0c96 8A18     		adds	r2, r1, r2
 2468              	.LVL567:
 2469              		.loc 1 195 0
 2470 0c98 5040     		eors	r0, r2
 2471 0c9a 2840     		ands	r0, r5
 2472 0c9c 7840     		eors	r0, r7
 2473 0c9e 6144     		add	r1, r1, ip
 2474              	.LVL568:
 2475 0ca0 8446     		mov	ip, r0
 2476 0ca2 1123     		movs	r3, #17
 2477 0ca4 6144     		add	r1, r1, ip
 2478              	.LVL569:
 2479 0ca6 D941     		rors	r1, r1, r3
 2480              	.LVL570:
 2481 0ca8 0533     		adds	r3, r3, #5
 2482 0caa DF41     		rors	r7, r7, r3
 2483              	.LVL571:
 2484 0cac 029B     		ldr	r3, [sp, #8]
 2485 0cae 5148     		ldr	r0, .L8+4
 2486 0cb0 9C46     		mov	ip, r3
 2487 0cb2 6044     		add	r0, r0, ip
 2488 0cb4 8446     		mov	ip, r0
 196:strong-arm\src\ripemd160/ripemd160.c **** 	III(aaa, bbb, ccc, ddd, eee, X[ 1], 13);
 2489              		.loc 1 196 0
 2490 0cb6 1000     		movs	r0, r2
 195:strong-arm\src\ripemd160/ripemd160.c **** 	III(bbb, ccc, ddd, eee, aaa, X[ 9], 15);
 2491              		.loc 1 195 0
 2492 0cb8 7118     		adds	r1, r6, r1
 2493              	.LVL572:
 2494              		.loc 1 196 0
 2495 0cba 4840     		eors	r0, r1
 2496 0cbc 3840     		ands	r0, r7
 2497 0cbe 5040     		eors	r0, r2
 2498 0cc0 6644     		add	r6, r6, ip
 2499              	.LVL573:
 2500 0cc2 8446     		mov	ip, r0
 2501 0cc4 1323     		movs	r3, #19
 2502 0cc6 6644     		add	r6, r6, ip
 2503              	.LVL574:
 2504 0cc8 DE41     		rors	r6, r6, r3
 2505              	.LVL575:
 2506 0cca 0333     		adds	r3, r3, #3
ARM GAS  C:\Users\Ray\AppData\Local\Temp\ccn0usL8.s 			page 50


 2507 0ccc DA41     		rors	r2, r2, r3
 2508              	.LVL576:
 2509 0cce 039B     		ldr	r3, [sp, #12]
 2510 0cd0 4848     		ldr	r0, .L8+4
 2511 0cd2 9C46     		mov	ip, r3
 2512 0cd4 6044     		add	r0, r0, ip
 2513 0cd6 8446     		mov	ip, r0
 197:strong-arm\src\ripemd160/ripemd160.c **** 	III(eee, aaa, bbb, ccc, ddd, X[ 2], 11);
 2514              		.loc 1 197 0
 2515 0cd8 0800     		movs	r0, r1
 196:strong-arm\src\ripemd160/ripemd160.c **** 	III(aaa, bbb, ccc, ddd, eee, X[ 1], 13);
 2516              		.loc 1 196 0
 2517 0cda AE19     		adds	r6, r5, r6
 2518              	.LVL577:
 2519              		.loc 1 197 0
 2520 0cdc 7040     		eors	r0, r6
 2521 0cde 1040     		ands	r0, r2
 2522 0ce0 4840     		eors	r0, r1
 2523 0ce2 6544     		add	r5, r5, ip
 2524              	.LVL578:
 2525 0ce4 8446     		mov	ip, r0
 2526 0ce6 1523     		movs	r3, #21
 2527 0ce8 6544     		add	r5, r5, ip
 2528              	.LVL579:
 2529 0cea DD41     		rors	r5, r5, r3
 2530              	.LVL580:
 2531 0cec 0133     		adds	r3, r3, #1
 2532 0cee D941     		rors	r1, r1, r3
 2533              	.LVL581:
 2534 0cf0 109B     		ldr	r3, [sp, #64]
 2535 0cf2 4148     		ldr	r0, .L8+8
 2536 0cf4 9C46     		mov	ip, r3
 198:strong-arm\src\ripemd160/ripemd160.c **** 	
 199:strong-arm\src\ripemd160/ripemd160.c **** 	/* parallel round 3 */
 200:strong-arm\src\ripemd160/ripemd160.c **** 	HHH(ddd, eee, aaa, bbb, ccc, X[15],  9);
 2537              		.loc 1 200 0
 2538 0cf6 F343     		mvns	r3, r6
 2539 0cf8 6044     		add	r0, r0, ip
 2540 0cfa 8446     		mov	ip, r0
 2541 0cfc 1800     		movs	r0, r3
 197:strong-arm\src\ripemd160/ripemd160.c **** 	III(eee, aaa, bbb, ccc, ddd, X[ 2], 11);
 2542              		.loc 1 197 0
 2543 0cfe 7D19     		adds	r5, r7, r5
 2544              	.LVL582:
 2545              		.loc 1 200 0
 2546 0d00 2843     		orrs	r0, r5
 2547 0d02 4840     		eors	r0, r1
 2548 0d04 6744     		add	r7, r7, ip
 2549              	.LVL583:
 2550 0d06 8446     		mov	ip, r0
 2551 0d08 1723     		movs	r3, #23
 2552 0d0a 6744     		add	r7, r7, ip
 2553              	.LVL584:
 2554 0d0c DF41     		rors	r7, r7, r3
 2555              	.LVL585:
 2556 0d0e 013B     		subs	r3, r3, #1
 2557 0d10 DE41     		rors	r6, r6, r3
ARM GAS  C:\Users\Ray\AppData\Local\Temp\ccn0usL8.s 			page 51


 2558              	.LVL586:
 2559 0d12 B446     		mov	ip, r6
 2560 0d14 069B     		ldr	r3, [sp, #24]
 2561 0d16 3848     		ldr	r0, .L8+8
 2562 0d18 D719     		adds	r7, r2, r7
 2563              	.LVL587:
 2564 0d1a 1E18     		adds	r6, r3, r0
 2565              	.LVL588:
 2566 0d1c B218     		adds	r2, r6, r2
 2567              	.LVL589:
 201:strong-arm\src\ripemd160/ripemd160.c **** 	HHH(ccc, ddd, eee, aaa, bbb, X[ 5],  7);
 2568              		.loc 1 201 0
 2569 0d1e EE43     		mvns	r6, r5
 2570 0d20 6346     		mov	r3, ip
 2571 0d22 3E43     		orrs	r6, r7
 2572 0d24 5E40     		eors	r6, r3
 2573 0d26 1923     		movs	r3, #25
 2574 0d28 B218     		adds	r2, r6, r2
 2575              	.LVL590:
 2576 0d2a DA41     		rors	r2, r2, r3
 2577              	.LVL591:
 2578 0d2c 033B     		subs	r3, r3, #3
 2579 0d2e DD41     		rors	r5, r5, r3
 2580              	.LVL592:
 2581 0d30 029B     		ldr	r3, [sp, #8]
 2582 0d32 8A18     		adds	r2, r1, r2
 2583              	.LVL593:
 2584 0d34 1E18     		adds	r6, r3, r0
 2585 0d36 7118     		adds	r1, r6, r1
 2586              	.LVL594:
 202:strong-arm\src\ripemd160/ripemd160.c **** 	HHH(bbb, ccc, ddd, eee, aaa, X[ 1], 15);
 2587              		.loc 1 202 0
 2588 0d38 FE43     		mvns	r6, r7
 2589 0d3a 1123     		movs	r3, #17
 2590 0d3c 1643     		orrs	r6, r2
 2591 0d3e 6E40     		eors	r6, r5
 2592 0d40 7618     		adds	r6, r6, r1
 2593              	.LVL595:
 2594 0d42 DE41     		rors	r6, r6, r3
 2595              	.LVL596:
 2596 0d44 0533     		adds	r3, r3, #5
 2597 0d46 DF41     		rors	r7, r7, r3
 2598              	.LVL597:
 2599 0d48 049B     		ldr	r3, [sp, #16]
 2600 0d4a 6644     		add	r6, r6, ip
 2601              	.LVL598:
 2602 0d4c 1918     		adds	r1, r3, r0
 203:strong-arm\src\ripemd160/ripemd160.c **** 	HHH(aaa, bbb, ccc, ddd, eee, X[ 3], 11);
 2603              		.loc 1 203 0
 2604 0d4e D343     		mvns	r3, r2
 2605 0d50 1800     		movs	r0, r3
 2606 0d52 3043     		orrs	r0, r6
 2607 0d54 7840     		eors	r0, r7
 2608 0d56 6144     		add	r1, r1, ip
 2609              	.LVL599:
 2610 0d58 8446     		mov	ip, r0
 2611 0d5a 1523     		movs	r3, #21
ARM GAS  C:\Users\Ray\AppData\Local\Temp\ccn0usL8.s 			page 52


 2612 0d5c 6144     		add	r1, r1, ip
 2613              	.LVL600:
 2614 0d5e D941     		rors	r1, r1, r3
 2615              	.LVL601:
 2616 0d60 0133     		adds	r3, r3, #1
 2617 0d62 DA41     		rors	r2, r2, r3
 2618              	.LVL602:
 2619 0d64 089B     		ldr	r3, [sp, #32]
 2620 0d66 2448     		ldr	r0, .L8+8
 2621 0d68 9C46     		mov	ip, r3
 204:strong-arm\src\ripemd160/ripemd160.c **** 	HHH(eee, aaa, bbb, ccc, ddd, X[ 7],  8);
 2622              		.loc 1 204 0
 2623 0d6a F343     		mvns	r3, r6
 2624 0d6c 6044     		add	r0, r0, ip
 2625 0d6e 8446     		mov	ip, r0
 2626 0d70 1800     		movs	r0, r3
 203:strong-arm\src\ripemd160/ripemd160.c **** 	HHH(aaa, bbb, ccc, ddd, eee, X[ 3], 11);
 2627              		.loc 1 203 0
 2628 0d72 6918     		adds	r1, r5, r1
 2629              	.LVL603:
 2630              		.loc 1 204 0
 2631 0d74 0843     		orrs	r0, r1
 2632 0d76 5040     		eors	r0, r2
 2633 0d78 6544     		add	r5, r5, ip
 2634              	.LVL604:
 2635 0d7a 8446     		mov	ip, r0
 2636 0d7c 1823     		movs	r3, #24
 2637 0d7e 6544     		add	r5, r5, ip
 2638              	.LVL605:
 2639 0d80 DD41     		rors	r5, r5, r3
 2640              	.LVL606:
 2641 0d82 023B     		subs	r3, r3, #2
 2642 0d84 DE41     		rors	r6, r6, r3
 2643              	.LVL607:
 2644 0d86 0F9B     		ldr	r3, [sp, #60]
 2645 0d88 1B48     		ldr	r0, .L8+8
 2646 0d8a 9C46     		mov	ip, r3
 205:strong-arm\src\ripemd160/ripemd160.c **** 	HHH(ddd, eee, aaa, bbb, ccc, X[14],  6);
 2647              		.loc 1 205 0
 2648 0d8c CB43     		mvns	r3, r1
 2649 0d8e 6044     		add	r0, r0, ip
 2650 0d90 8446     		mov	ip, r0
 2651 0d92 1800     		movs	r0, r3
 204:strong-arm\src\ripemd160/ripemd160.c **** 	HHH(eee, aaa, bbb, ccc, ddd, X[ 7],  8);
 2652              		.loc 1 204 0
 2653 0d94 7D19     		adds	r5, r7, r5
 2654              	.LVL608:
 2655              		.loc 1 205 0
 2656 0d96 2843     		orrs	r0, r5
 2657 0d98 7040     		eors	r0, r6
 2658 0d9a 6744     		add	r7, r7, ip
 2659              	.LVL609:
 2660 0d9c 8446     		mov	ip, r0
 2661 0d9e 1A23     		movs	r3, #26
 2662 0da0 6744     		add	r7, r7, ip
 2663              	.LVL610:
 2664 0da2 DF41     		rors	r7, r7, r3
ARM GAS  C:\Users\Ray\AppData\Local\Temp\ccn0usL8.s 			page 53


 2665              	.LVL611:
 2666 0da4 043B     		subs	r3, r3, #4
 2667 0da6 D941     		rors	r1, r1, r3
 2668              	.LVL612:
 2669 0da8 079B     		ldr	r3, [sp, #28]
 2670 0daa 1348     		ldr	r0, .L8+8
 2671 0dac 9C46     		mov	ip, r3
 206:strong-arm\src\ripemd160/ripemd160.c **** 	HHH(ccc, ddd, eee, aaa, bbb, X[ 6],  6);
 2672              		.loc 1 206 0
 2673 0dae EB43     		mvns	r3, r5
 2674 0db0 6044     		add	r0, r0, ip
 2675 0db2 8446     		mov	ip, r0
 2676 0db4 1800     		movs	r0, r3
 205:strong-arm\src\ripemd160/ripemd160.c **** 	HHH(ddd, eee, aaa, bbb, ccc, X[14],  6);
 2677              		.loc 1 205 0
 2678 0db6 D719     		adds	r7, r2, r7
 2679              	.LVL613:
 2680              		.loc 1 206 0
 2681 0db8 3843     		orrs	r0, r7
 2682 0dba 4840     		eors	r0, r1
 2683 0dbc 6244     		add	r2, r2, ip
 2684              	.LVL614:
 2685 0dbe 8446     		mov	ip, r0
 2686 0dc0 1A23     		movs	r3, #26
 2687 0dc2 6244     		add	r2, r2, ip
 2688              	.LVL615:
 2689 0dc4 DA41     		rors	r2, r2, r3
 2690              	.LVL616:
 2691 0dc6 043B     		subs	r3, r3, #4
 2692 0dc8 DD41     		rors	r5, r5, r3
 2693              	.LVL617:
 2694 0dca 0A9B     		ldr	r3, [sp, #40]
 2695 0dcc 0A48     		ldr	r0, .L8+8
 2696 0dce 9C46     		mov	ip, r3
 207:strong-arm\src\ripemd160/ripemd160.c **** 	HHH(bbb, ccc, ddd, eee, aaa, X[ 9], 14);
 2697              		.loc 1 207 0
 2698 0dd0 FB43     		mvns	r3, r7
 2699 0dd2 6044     		add	r0, r0, ip
 2700 0dd4 8446     		mov	ip, r0
 2701 0dd6 1800     		movs	r0, r3
 206:strong-arm\src\ripemd160/ripemd160.c **** 	HHH(ccc, ddd, eee, aaa, bbb, X[ 6],  6);
 2702              		.loc 1 206 0
 2703 0dd8 B218     		adds	r2, r6, r2
 2704              	.LVL618:
 2705              		.loc 1 207 0
 2706 0dda 1043     		orrs	r0, r2
 2707 0ddc 6840     		eors	r0, r5
 2708 0dde 6644     		add	r6, r6, ip
 2709              	.LVL619:
 2710 0de0 8446     		mov	ip, r0
 2711 0de2 1223     		movs	r3, #18
 2712 0de4 6644     		add	r6, r6, ip
 2713              	.LVL620:
 2714 0de6 DE41     		rors	r6, r6, r3
 2715              	.LVL621:
 2716 0de8 0433     		adds	r3, r3, #4
 2717 0dea DF41     		rors	r7, r7, r3
ARM GAS  C:\Users\Ray\AppData\Local\Temp\ccn0usL8.s 			page 54


 2718              	.LVL622:
 2719 0dec 0C9B     		ldr	r3, [sp, #48]
 2720 0dee 05E0     		b	.L9
 2721              	.L10:
 2722              		.align	2
 2723              	.L8:
 2724 0df0 E68BA250 		.word	1352829926
 2725 0df4 24D14D5C 		.word	1548603684
 2726 0df8 F33E706D 		.word	1836072691
 2727              	.L9:
 2728 0dfc FE48     		ldr	r0, .L11
 2729 0dfe 9C46     		mov	ip, r3
 208:strong-arm\src\ripemd160/ripemd160.c **** 	HHH(aaa, bbb, ccc, ddd, eee, X[11], 12);
 2730              		.loc 1 208 0
 2731 0e00 D343     		mvns	r3, r2
 2732 0e02 6044     		add	r0, r0, ip
 2733 0e04 8446     		mov	ip, r0
 2734 0e06 1800     		movs	r0, r3
 207:strong-arm\src\ripemd160/ripemd160.c **** 	HHH(bbb, ccc, ddd, eee, aaa, X[ 9], 14);
 2735              		.loc 1 207 0
 2736 0e08 8E19     		adds	r6, r1, r6
 2737              	.LVL623:
 2738              		.loc 1 208 0
 2739 0e0a 3043     		orrs	r0, r6
 2740 0e0c 7840     		eors	r0, r7
 2741 0e0e 6144     		add	r1, r1, ip
 2742              	.LVL624:
 2743 0e10 8446     		mov	ip, r0
 2744 0e12 1423     		movs	r3, #20
 2745 0e14 6144     		add	r1, r1, ip
 2746              	.LVL625:
 2747 0e16 D941     		rors	r1, r1, r3
 2748              	.LVL626:
 2749 0e18 0233     		adds	r3, r3, #2
 2750 0e1a DA41     		rors	r2, r2, r3
 2751              	.LVL627:
 2752 0e1c 099B     		ldr	r3, [sp, #36]
 2753 0e1e F648     		ldr	r0, .L11
 2754 0e20 9C46     		mov	ip, r3
 209:strong-arm\src\ripemd160/ripemd160.c **** 	HHH(eee, aaa, bbb, ccc, ddd, X[ 8], 13);
 2755              		.loc 1 209 0
 2756 0e22 F343     		mvns	r3, r6
 2757 0e24 6044     		add	r0, r0, ip
 2758 0e26 8446     		mov	ip, r0
 2759 0e28 1800     		movs	r0, r3
 208:strong-arm\src\ripemd160/ripemd160.c **** 	HHH(aaa, bbb, ccc, ddd, eee, X[11], 12);
 2760              		.loc 1 208 0
 2761 0e2a 6918     		adds	r1, r5, r1
 2762              	.LVL628:
 2763              		.loc 1 209 0
 2764 0e2c 0843     		orrs	r0, r1
 2765 0e2e 5040     		eors	r0, r2
 2766 0e30 6544     		add	r5, r5, ip
 2767              	.LVL629:
 2768 0e32 8446     		mov	ip, r0
 2769 0e34 1323     		movs	r3, #19
 2770 0e36 6544     		add	r5, r5, ip
ARM GAS  C:\Users\Ray\AppData\Local\Temp\ccn0usL8.s 			page 55


 2771              	.LVL630:
 2772 0e38 DD41     		rors	r5, r5, r3
 2773              	.LVL631:
 2774 0e3a 0333     		adds	r3, r3, #3
 2775 0e3c DE41     		rors	r6, r6, r3
 2776              	.LVL632:
 2777 0e3e 0D9B     		ldr	r3, [sp, #52]
 2778 0e40 ED48     		ldr	r0, .L11
 2779 0e42 9C46     		mov	ip, r3
 2780 0e44 6044     		add	r0, r0, ip
 2781 0e46 8446     		mov	ip, r0
 2782 0e48 7D19     		adds	r5, r7, r5
 2783              	.LVL633:
 2784 0e4a BC44     		add	ip, ip, r7
 2785              	.LVL634:
 210:strong-arm\src\ripemd160/ripemd160.c **** 	HHH(ddd, eee, aaa, bbb, ccc, X[12],  5);
 2786              		.loc 1 210 0
 2787 0e4c CF43     		mvns	r7, r1
 2788 0e4e 1B23     		movs	r3, #27
 2789 0e50 2F43     		orrs	r7, r5
 2790 0e52 7740     		eors	r7, r6
 2791 0e54 6744     		add	r7, r7, ip
 2792              	.LVL635:
 2793 0e56 DF41     		rors	r7, r7, r3
 2794              	.LVL636:
 2795 0e58 053B     		subs	r3, r3, #5
 2796 0e5a D941     		rors	r1, r1, r3
 2797              	.LVL637:
 2798 0e5c 039B     		ldr	r3, [sp, #12]
 2799 0e5e E648     		ldr	r0, .L11
 2800 0e60 9C46     		mov	ip, r3
 211:strong-arm\src\ripemd160/ripemd160.c **** 	HHH(ccc, ddd, eee, aaa, bbb, X[ 2], 14);
 2801              		.loc 1 211 0
 2802 0e62 EB43     		mvns	r3, r5
 2803 0e64 6044     		add	r0, r0, ip
 2804 0e66 8446     		mov	ip, r0
 2805 0e68 1800     		movs	r0, r3
 210:strong-arm\src\ripemd160/ripemd160.c **** 	HHH(ddd, eee, aaa, bbb, ccc, X[12],  5);
 2806              		.loc 1 210 0
 2807 0e6a D719     		adds	r7, r2, r7
 2808              	.LVL638:
 2809              		.loc 1 211 0
 2810 0e6c 3843     		orrs	r0, r7
 2811 0e6e 4840     		eors	r0, r1
 2812 0e70 6244     		add	r2, r2, ip
 2813              	.LVL639:
 2814 0e72 8446     		mov	ip, r0
 2815 0e74 1223     		movs	r3, #18
 2816 0e76 6244     		add	r2, r2, ip
 2817              	.LVL640:
 2818 0e78 DA41     		rors	r2, r2, r3
 2819              	.LVL641:
 2820 0e7a 0433     		adds	r3, r3, #4
 2821 0e7c DD41     		rors	r5, r5, r3
 2822              	.LVL642:
 2823 0e7e 0B9B     		ldr	r3, [sp, #44]
 2824 0e80 DD48     		ldr	r0, .L11
ARM GAS  C:\Users\Ray\AppData\Local\Temp\ccn0usL8.s 			page 56


 2825 0e82 9C46     		mov	ip, r3
 212:strong-arm\src\ripemd160/ripemd160.c **** 	HHH(bbb, ccc, ddd, eee, aaa, X[10], 13);
 2826              		.loc 1 212 0
 2827 0e84 FB43     		mvns	r3, r7
 2828 0e86 6044     		add	r0, r0, ip
 2829 0e88 8446     		mov	ip, r0
 2830 0e8a 1800     		movs	r0, r3
 211:strong-arm\src\ripemd160/ripemd160.c **** 	HHH(ccc, ddd, eee, aaa, bbb, X[ 2], 14);
 2831              		.loc 1 211 0
 2832 0e8c B218     		adds	r2, r6, r2
 2833              	.LVL643:
 2834              		.loc 1 212 0
 2835 0e8e 1043     		orrs	r0, r2
 2836 0e90 6840     		eors	r0, r5
 2837 0e92 6644     		add	r6, r6, ip
 2838              	.LVL644:
 2839 0e94 8446     		mov	ip, r0
 2840 0e96 1323     		movs	r3, #19
 2841 0e98 6644     		add	r6, r6, ip
 2842              	.LVL645:
 2843 0e9a DE41     		rors	r6, r6, r3
 2844              	.LVL646:
 2845 0e9c 0333     		adds	r3, r3, #3
 2846 0e9e DF41     		rors	r7, r7, r3
 2847              	.LVL647:
 2848 0ea0 019B     		ldr	r3, [sp, #4]
 2849 0ea2 D548     		ldr	r0, .L11
 2850 0ea4 9C46     		mov	ip, r3
 213:strong-arm\src\ripemd160/ripemd160.c **** 	HHH(aaa, bbb, ccc, ddd, eee, X[ 0], 13);
 2851              		.loc 1 213 0
 2852 0ea6 D343     		mvns	r3, r2
 2853 0ea8 6044     		add	r0, r0, ip
 2854 0eaa 8446     		mov	ip, r0
 2855 0eac 1800     		movs	r0, r3
 212:strong-arm\src\ripemd160/ripemd160.c **** 	HHH(bbb, ccc, ddd, eee, aaa, X[10], 13);
 2856              		.loc 1 212 0
 2857 0eae 8E19     		adds	r6, r1, r6
 2858              	.LVL648:
 2859              		.loc 1 213 0
 2860 0eb0 3043     		orrs	r0, r6
 2861 0eb2 7840     		eors	r0, r7
 2862 0eb4 6144     		add	r1, r1, ip
 2863              	.LVL649:
 2864 0eb6 8446     		mov	ip, r0
 2865 0eb8 1323     		movs	r3, #19
 2866 0eba 6144     		add	r1, r1, ip
 2867              	.LVL650:
 2868 0ebc D941     		rors	r1, r1, r3
 2869              	.LVL651:
 2870 0ebe 0333     		adds	r3, r3, #3
 2871 0ec0 DA41     		rors	r2, r2, r3
 2872              	.LVL652:
 2873 0ec2 059B     		ldr	r3, [sp, #20]
 2874 0ec4 CC48     		ldr	r0, .L11
 2875 0ec6 9C46     		mov	ip, r3
 214:strong-arm\src\ripemd160/ripemd160.c **** 	HHH(eee, aaa, bbb, ccc, ddd, X[ 4],  7);
 2876              		.loc 1 214 0
ARM GAS  C:\Users\Ray\AppData\Local\Temp\ccn0usL8.s 			page 57


 2877 0ec8 F343     		mvns	r3, r6
 2878 0eca 6044     		add	r0, r0, ip
 2879 0ecc 8446     		mov	ip, r0
 2880 0ece 1800     		movs	r0, r3
 213:strong-arm\src\ripemd160/ripemd160.c **** 	HHH(aaa, bbb, ccc, ddd, eee, X[ 0], 13);
 2881              		.loc 1 213 0
 2882 0ed0 6918     		adds	r1, r5, r1
 2883              	.LVL653:
 2884              		.loc 1 214 0
 2885 0ed2 0843     		orrs	r0, r1
 2886 0ed4 5040     		eors	r0, r2
 2887 0ed6 6544     		add	r5, r5, ip
 2888              	.LVL654:
 2889 0ed8 8446     		mov	ip, r0
 2890 0eda 1923     		movs	r3, #25
 2891 0edc 6544     		add	r5, r5, ip
 2892              	.LVL655:
 2893 0ede DD41     		rors	r5, r5, r3
 2894              	.LVL656:
 2895 0ee0 033B     		subs	r3, r3, #3
 2896 0ee2 DE41     		rors	r6, r6, r3
 2897              	.LVL657:
 2898 0ee4 B446     		mov	ip, r6
 2899 0ee6 0E9B     		ldr	r3, [sp, #56]
 2900 0ee8 C348     		ldr	r0, .L11
 2901 0eea 7D19     		adds	r5, r7, r5
 2902              	.LVL658:
 2903 0eec 1E18     		adds	r6, r3, r0
 2904              	.LVL659:
 2905 0eee F719     		adds	r7, r6, r7
 2906              	.LVL660:
 215:strong-arm\src\ripemd160/ripemd160.c **** 	HHH(ddd, eee, aaa, bbb, ccc, X[13],  5);
 2907              		.loc 1 215 0
 2908 0ef0 CE43     		mvns	r6, r1
 2909 0ef2 6346     		mov	r3, ip
 2910 0ef4 2E43     		orrs	r6, r5
 2911 0ef6 5E40     		eors	r6, r3
 2912 0ef8 1B23     		movs	r3, #27
 2913 0efa F719     		adds	r7, r6, r7
 2914              	.LVL661:
 2915 0efc DF41     		rors	r7, r7, r3
 2916              	.LVL662:
 2917 0efe 053B     		subs	r3, r3, #5
 2918 0f00 D941     		rors	r1, r1, r3
 2919              	.LVL663:
 2920 0f02 BE48     		ldr	r0, .L11+4
 2921 0f04 099B     		ldr	r3, [sp, #36]
 2922 0f06 D719     		adds	r7, r2, r7
 2923              	.LVL664:
 2924 0f08 1E18     		adds	r6, r3, r0
 2925 0f0a B218     		adds	r2, r6, r2
 2926              	.LVL665:
 216:strong-arm\src\ripemd160/ripemd160.c **** 	
 217:strong-arm\src\ripemd160/ripemd160.c **** 	/* parallel round 4 */   
 218:strong-arm\src\ripemd160/ripemd160.c **** 	GGG(ccc, ddd, eee, aaa, bbb, X[ 8], 15);
 2927              		.loc 1 218 0
 2928 0f0c 2E00     		movs	r6, r5
ARM GAS  C:\Users\Ray\AppData\Local\Temp\ccn0usL8.s 			page 58


 2929 0f0e 1123     		movs	r3, #17
 2930 0f10 4E40     		eors	r6, r1
 2931 0f12 3E40     		ands	r6, r7
 2932 0f14 4E40     		eors	r6, r1
 2933 0f16 B618     		adds	r6, r6, r2
 2934              	.LVL666:
 2935 0f18 DE41     		rors	r6, r6, r3
 2936              	.LVL667:
 2937 0f1a 0533     		adds	r3, r3, #5
 2938 0f1c DD41     		rors	r5, r5, r3
 2939              	.LVL668:
 2940 0f1e 079B     		ldr	r3, [sp, #28]
 2941 0f20 6644     		add	r6, r6, ip
 2942              	.LVL669:
 2943 0f22 1A18     		adds	r2, r3, r0
 219:strong-arm\src\ripemd160/ripemd160.c **** 	GGG(bbb, ccc, ddd, eee, aaa, X[ 6],  5);
 2944              		.loc 1 219 0
 2945 0f24 3800     		movs	r0, r7
 2946 0f26 6840     		eors	r0, r5
 2947 0f28 3040     		ands	r0, r6
 2948 0f2a 6840     		eors	r0, r5
 2949 0f2c 6244     		add	r2, r2, ip
 2950              	.LVL670:
 2951 0f2e 8446     		mov	ip, r0
 2952 0f30 1B23     		movs	r3, #27
 2953 0f32 6244     		add	r2, r2, ip
 2954              	.LVL671:
 2955 0f34 DA41     		rors	r2, r2, r3
 2956              	.LVL672:
 2957 0f36 053B     		subs	r3, r3, #5
 2958 0f38 DF41     		rors	r7, r7, r3
 2959              	.LVL673:
 2960 0f3a 059B     		ldr	r3, [sp, #20]
 2961 0f3c AF48     		ldr	r0, .L11+4
 2962 0f3e 9C46     		mov	ip, r3
 2963 0f40 6044     		add	r0, r0, ip
 2964 0f42 8446     		mov	ip, r0
 220:strong-arm\src\ripemd160/ripemd160.c **** 	GGG(aaa, bbb, ccc, ddd, eee, X[ 4],  8);
 2965              		.loc 1 220 0
 2966 0f44 3000     		movs	r0, r6
 219:strong-arm\src\ripemd160/ripemd160.c **** 	GGG(bbb, ccc, ddd, eee, aaa, X[ 6],  5);
 2967              		.loc 1 219 0
 2968 0f46 8A18     		adds	r2, r1, r2
 2969              	.LVL674:
 2970              		.loc 1 220 0
 2971 0f48 7840     		eors	r0, r7
 2972 0f4a 1040     		ands	r0, r2
 2973 0f4c 7840     		eors	r0, r7
 2974 0f4e 6144     		add	r1, r1, ip
 2975              	.LVL675:
 2976 0f50 8446     		mov	ip, r0
 2977 0f52 1823     		movs	r3, #24
 2978 0f54 6144     		add	r1, r1, ip
 2979              	.LVL676:
 2980 0f56 D941     		rors	r1, r1, r3
 2981              	.LVL677:
 2982 0f58 023B     		subs	r3, r3, #2
ARM GAS  C:\Users\Ray\AppData\Local\Temp\ccn0usL8.s 			page 59


 2983 0f5a DE41     		rors	r6, r6, r3
 2984              	.LVL678:
 2985 0f5c 029B     		ldr	r3, [sp, #8]
 2986 0f5e A748     		ldr	r0, .L11+4
 2987 0f60 9C46     		mov	ip, r3
 2988 0f62 6044     		add	r0, r0, ip
 2989 0f64 8446     		mov	ip, r0
 221:strong-arm\src\ripemd160/ripemd160.c **** 	GGG(eee, aaa, bbb, ccc, ddd, X[ 1], 11);
 2990              		.loc 1 221 0
 2991 0f66 1000     		movs	r0, r2
 220:strong-arm\src\ripemd160/ripemd160.c **** 	GGG(aaa, bbb, ccc, ddd, eee, X[ 4],  8);
 2992              		.loc 1 220 0
 2993 0f68 6918     		adds	r1, r5, r1
 2994              	.LVL679:
 2995              		.loc 1 221 0
 2996 0f6a 7040     		eors	r0, r6
 2997 0f6c 0840     		ands	r0, r1
 2998 0f6e 7040     		eors	r0, r6
 2999 0f70 6544     		add	r5, r5, ip
 3000              	.LVL680:
 3001 0f72 8446     		mov	ip, r0
 3002 0f74 1523     		movs	r3, #21
 3003 0f76 6544     		add	r5, r5, ip
 3004              	.LVL681:
 3005 0f78 DD41     		rors	r5, r5, r3
 3006              	.LVL682:
 3007 0f7a 0133     		adds	r3, r3, #1
 3008 0f7c DA41     		rors	r2, r2, r3
 3009              	.LVL683:
 3010 0f7e 049B     		ldr	r3, [sp, #16]
 3011 0f80 9E48     		ldr	r0, .L11+4
 3012 0f82 9C46     		mov	ip, r3
 3013 0f84 6044     		add	r0, r0, ip
 3014 0f86 8446     		mov	ip, r0
 222:strong-arm\src\ripemd160/ripemd160.c **** 	GGG(ddd, eee, aaa, bbb, ccc, X[ 3], 14);
 3015              		.loc 1 222 0
 3016 0f88 0800     		movs	r0, r1
 221:strong-arm\src\ripemd160/ripemd160.c **** 	GGG(eee, aaa, bbb, ccc, ddd, X[ 1], 11);
 3017              		.loc 1 221 0
 3018 0f8a 7D19     		adds	r5, r7, r5
 3019              	.LVL684:
 3020              		.loc 1 222 0
 3021 0f8c 5040     		eors	r0, r2
 3022 0f8e 2840     		ands	r0, r5
 3023 0f90 5040     		eors	r0, r2
 3024 0f92 6744     		add	r7, r7, ip
 3025              	.LVL685:
 3026 0f94 8446     		mov	ip, r0
 3027 0f96 1223     		movs	r3, #18
 3028 0f98 6744     		add	r7, r7, ip
 3029              	.LVL686:
 3030 0f9a DF41     		rors	r7, r7, r3
 3031              	.LVL687:
 3032 0f9c 0433     		adds	r3, r3, #4
 3033 0f9e D941     		rors	r1, r1, r3
 3034              	.LVL688:
 3035 0fa0 0C9B     		ldr	r3, [sp, #48]
ARM GAS  C:\Users\Ray\AppData\Local\Temp\ccn0usL8.s 			page 60


 3036 0fa2 9648     		ldr	r0, .L11+4
 3037 0fa4 9C46     		mov	ip, r3
 3038 0fa6 6044     		add	r0, r0, ip
 3039 0fa8 8446     		mov	ip, r0
 223:strong-arm\src\ripemd160/ripemd160.c **** 	GGG(ccc, ddd, eee, aaa, bbb, X[11], 14);
 3040              		.loc 1 223 0
 3041 0faa 2800     		movs	r0, r5
 222:strong-arm\src\ripemd160/ripemd160.c **** 	GGG(ddd, eee, aaa, bbb, ccc, X[ 3], 14);
 3042              		.loc 1 222 0
 3043 0fac F719     		adds	r7, r6, r7
 3044              	.LVL689:
 3045              		.loc 1 223 0
 3046 0fae 4840     		eors	r0, r1
 3047 0fb0 3840     		ands	r0, r7
 3048 0fb2 4840     		eors	r0, r1
 3049 0fb4 6644     		add	r6, r6, ip
 3050              	.LVL690:
 3051 0fb6 8446     		mov	ip, r0
 3052 0fb8 1223     		movs	r3, #18
 3053 0fba 6644     		add	r6, r6, ip
 3054              	.LVL691:
 3055 0fbc DE41     		rors	r6, r6, r3
 3056              	.LVL692:
 3057 0fbe 0433     		adds	r3, r3, #4
 3058 0fc0 DD41     		rors	r5, r5, r3
 3059              	.LVL693:
 3060 0fc2 109B     		ldr	r3, [sp, #64]
 3061 0fc4 8D48     		ldr	r0, .L11+4
 3062 0fc6 9C46     		mov	ip, r3
 3063 0fc8 6044     		add	r0, r0, ip
 3064 0fca 8446     		mov	ip, r0
 224:strong-arm\src\ripemd160/ripemd160.c **** 	GGG(bbb, ccc, ddd, eee, aaa, X[15],  6);
 3065              		.loc 1 224 0
 3066 0fcc 3800     		movs	r0, r7
 223:strong-arm\src\ripemd160/ripemd160.c **** 	GGG(ccc, ddd, eee, aaa, bbb, X[11], 14);
 3067              		.loc 1 223 0
 3068 0fce 9619     		adds	r6, r2, r6
 3069              	.LVL694:
 3070              		.loc 1 224 0
 3071 0fd0 6840     		eors	r0, r5
 3072 0fd2 3040     		ands	r0, r6
 3073 0fd4 6840     		eors	r0, r5
 3074 0fd6 6244     		add	r2, r2, ip
 3075              	.LVL695:
 3076 0fd8 8446     		mov	ip, r0
 3077 0fda 1A23     		movs	r3, #26
 3078 0fdc 6244     		add	r2, r2, ip
 3079              	.LVL696:
 3080 0fde DA41     		rors	r2, r2, r3
 3081              	.LVL697:
 3082 0fe0 043B     		subs	r3, r3, #4
 3083 0fe2 DF41     		rors	r7, r7, r3
 3084              	.LVL698:
 3085 0fe4 019B     		ldr	r3, [sp, #4]
 3086 0fe6 8548     		ldr	r0, .L11+4
 3087 0fe8 9C46     		mov	ip, r3
 3088 0fea 6044     		add	r0, r0, ip
ARM GAS  C:\Users\Ray\AppData\Local\Temp\ccn0usL8.s 			page 61


 3089 0fec 8446     		mov	ip, r0
 225:strong-arm\src\ripemd160/ripemd160.c **** 	GGG(aaa, bbb, ccc, ddd, eee, X[ 0], 14);
 3090              		.loc 1 225 0
 3091 0fee 3000     		movs	r0, r6
 224:strong-arm\src\ripemd160/ripemd160.c **** 	GGG(bbb, ccc, ddd, eee, aaa, X[15],  6);
 3092              		.loc 1 224 0
 3093 0ff0 8A18     		adds	r2, r1, r2
 3094              	.LVL699:
 3095              		.loc 1 225 0
 3096 0ff2 7840     		eors	r0, r7
 3097 0ff4 1040     		ands	r0, r2
 3098 0ff6 7840     		eors	r0, r7
 3099 0ff8 6144     		add	r1, r1, ip
 3100              	.LVL700:
 3101 0ffa 8446     		mov	ip, r0
 3102 0ffc 1223     		movs	r3, #18
 3103 0ffe 6144     		add	r1, r1, ip
 3104              	.LVL701:
 3105 1000 D941     		rors	r1, r1, r3
 3106              	.LVL702:
 3107 1002 0433     		adds	r3, r3, #4
 3108 1004 DE41     		rors	r6, r6, r3
 3109              	.LVL703:
 3110 1006 069B     		ldr	r3, [sp, #24]
 3111 1008 7C48     		ldr	r0, .L11+4
 3112 100a 9C46     		mov	ip, r3
 3113 100c 6044     		add	r0, r0, ip
 3114 100e 8446     		mov	ip, r0
 226:strong-arm\src\ripemd160/ripemd160.c **** 	GGG(eee, aaa, bbb, ccc, ddd, X[ 5],  6);
 3115              		.loc 1 226 0
 3116 1010 1000     		movs	r0, r2
 225:strong-arm\src\ripemd160/ripemd160.c **** 	GGG(aaa, bbb, ccc, ddd, eee, X[ 0], 14);
 3117              		.loc 1 225 0
 3118 1012 6918     		adds	r1, r5, r1
 3119              	.LVL704:
 3120              		.loc 1 226 0
 3121 1014 7040     		eors	r0, r6
 3122 1016 0840     		ands	r0, r1
 3123 1018 7040     		eors	r0, r6
 3124 101a 6544     		add	r5, r5, ip
 3125              	.LVL705:
 3126 101c 8446     		mov	ip, r0
 3127 101e 1A23     		movs	r3, #26
 3128 1020 6544     		add	r5, r5, ip
 3129              	.LVL706:
 3130 1022 DD41     		rors	r5, r5, r3
 3131              	.LVL707:
 3132 1024 043B     		subs	r3, r3, #4
 3133 1026 DA41     		rors	r2, r2, r3
 3134              	.LVL708:
 3135 1028 0D9B     		ldr	r3, [sp, #52]
 3136 102a 7448     		ldr	r0, .L11+4
 3137 102c 9C46     		mov	ip, r3
 3138 102e 6044     		add	r0, r0, ip
 3139 1030 8446     		mov	ip, r0
 227:strong-arm\src\ripemd160/ripemd160.c **** 	GGG(ddd, eee, aaa, bbb, ccc, X[12],  9);
 3140              		.loc 1 227 0
ARM GAS  C:\Users\Ray\AppData\Local\Temp\ccn0usL8.s 			page 62


 3141 1032 0800     		movs	r0, r1
 226:strong-arm\src\ripemd160/ripemd160.c **** 	GGG(eee, aaa, bbb, ccc, ddd, X[ 5],  6);
 3142              		.loc 1 226 0
 3143 1034 7D19     		adds	r5, r7, r5
 3144              	.LVL709:
 3145              		.loc 1 227 0
 3146 1036 5040     		eors	r0, r2
 3147 1038 2840     		ands	r0, r5
 3148 103a 5040     		eors	r0, r2
 3149 103c 6744     		add	r7, r7, ip
 3150              	.LVL710:
 3151 103e 8446     		mov	ip, r0
 3152 1040 1723     		movs	r3, #23
 3153 1042 6744     		add	r7, r7, ip
 3154              	.LVL711:
 3155 1044 DF41     		rors	r7, r7, r3
 3156              	.LVL712:
 3157 1046 013B     		subs	r3, r3, #1
 3158 1048 D941     		rors	r1, r1, r3
 3159              	.LVL713:
 3160 104a 039B     		ldr	r3, [sp, #12]
 3161 104c 6B48     		ldr	r0, .L11+4
 3162 104e 9C46     		mov	ip, r3
 3163 1050 6044     		add	r0, r0, ip
 3164 1052 8446     		mov	ip, r0
 228:strong-arm\src\ripemd160/ripemd160.c **** 	GGG(ccc, ddd, eee, aaa, bbb, X[ 2], 12);
 3165              		.loc 1 228 0
 3166 1054 2800     		movs	r0, r5
 227:strong-arm\src\ripemd160/ripemd160.c **** 	GGG(ddd, eee, aaa, bbb, ccc, X[12],  9);
 3167              		.loc 1 227 0
 3168 1056 F719     		adds	r7, r6, r7
 3169              	.LVL714:
 3170              		.loc 1 228 0
 3171 1058 4840     		eors	r0, r1
 3172 105a 3840     		ands	r0, r7
 3173 105c 4840     		eors	r0, r1
 3174 105e 6644     		add	r6, r6, ip
 3175              	.LVL715:
 3176 1060 8446     		mov	ip, r0
 3177 1062 1423     		movs	r3, #20
 3178 1064 6644     		add	r6, r6, ip
 3179              	.LVL716:
 3180 1066 DE41     		rors	r6, r6, r3
 3181              	.LVL717:
 3182 1068 0233     		adds	r3, r3, #2
 3183 106a DD41     		rors	r5, r5, r3
 3184              	.LVL718:
 3185 106c 0E9B     		ldr	r3, [sp, #56]
 3186 106e 6348     		ldr	r0, .L11+4
 3187 1070 9C46     		mov	ip, r3
 3188 1072 6044     		add	r0, r0, ip
 3189 1074 8446     		mov	ip, r0
 229:strong-arm\src\ripemd160/ripemd160.c **** 	GGG(bbb, ccc, ddd, eee, aaa, X[13],  9);
 3190              		.loc 1 229 0
 3191 1076 3800     		movs	r0, r7
 228:strong-arm\src\ripemd160/ripemd160.c **** 	GGG(ccc, ddd, eee, aaa, bbb, X[ 2], 12);
 3192              		.loc 1 228 0
ARM GAS  C:\Users\Ray\AppData\Local\Temp\ccn0usL8.s 			page 63


 3193 1078 9619     		adds	r6, r2, r6
 3194              	.LVL719:
 3195              		.loc 1 229 0
 3196 107a 6840     		eors	r0, r5
 3197 107c 3040     		ands	r0, r6
 3198 107e 6840     		eors	r0, r5
 3199 1080 6244     		add	r2, r2, ip
 3200              	.LVL720:
 3201 1082 8446     		mov	ip, r0
 3202 1084 1723     		movs	r3, #23
 3203 1086 6244     		add	r2, r2, ip
 3204              	.LVL721:
 3205 1088 DA41     		rors	r2, r2, r3
 3206              	.LVL722:
 3207 108a 013B     		subs	r3, r3, #1
 3208 108c DF41     		rors	r7, r7, r3
 3209              	.LVL723:
 3210 108e 0A9B     		ldr	r3, [sp, #40]
 3211 1090 5A48     		ldr	r0, .L11+4
 3212 1092 9C46     		mov	ip, r3
 3213 1094 6044     		add	r0, r0, ip
 3214 1096 8446     		mov	ip, r0
 230:strong-arm\src\ripemd160/ripemd160.c **** 	GGG(aaa, bbb, ccc, ddd, eee, X[ 9], 12);
 3215              		.loc 1 230 0
 3216 1098 3000     		movs	r0, r6
 229:strong-arm\src\ripemd160/ripemd160.c **** 	GGG(bbb, ccc, ddd, eee, aaa, X[13],  9);
 3217              		.loc 1 229 0
 3218 109a 8A18     		adds	r2, r1, r2
 3219              	.LVL724:
 3220              		.loc 1 230 0
 3221 109c 7840     		eors	r0, r7
 3222 109e 1040     		ands	r0, r2
 3223 10a0 7840     		eors	r0, r7
 3224 10a2 6144     		add	r1, r1, ip
 3225              	.LVL725:
 3226 10a4 8446     		mov	ip, r0
 3227 10a6 1423     		movs	r3, #20
 3228 10a8 6144     		add	r1, r1, ip
 3229              	.LVL726:
 3230 10aa D941     		rors	r1, r1, r3
 3231              	.LVL727:
 3232 10ac 0233     		adds	r3, r3, #2
 3233 10ae DE41     		rors	r6, r6, r3
 3234              	.LVL728:
 3235 10b0 089B     		ldr	r3, [sp, #32]
 3236 10b2 5248     		ldr	r0, .L11+4
 3237 10b4 9C46     		mov	ip, r3
 3238 10b6 6044     		add	r0, r0, ip
 3239 10b8 8446     		mov	ip, r0
 231:strong-arm\src\ripemd160/ripemd160.c **** 	GGG(eee, aaa, bbb, ccc, ddd, X[ 7],  5);
 3240              		.loc 1 231 0
 3241 10ba 1000     		movs	r0, r2
 230:strong-arm\src\ripemd160/ripemd160.c **** 	GGG(aaa, bbb, ccc, ddd, eee, X[ 9], 12);
 3242              		.loc 1 230 0
 3243 10bc 6918     		adds	r1, r5, r1
 3244              	.LVL729:
 3245              		.loc 1 231 0
ARM GAS  C:\Users\Ray\AppData\Local\Temp\ccn0usL8.s 			page 64


 3246 10be 7040     		eors	r0, r6
 3247 10c0 0840     		ands	r0, r1
 3248 10c2 7040     		eors	r0, r6
 3249 10c4 6544     		add	r5, r5, ip
 3250              	.LVL730:
 3251 10c6 8446     		mov	ip, r0
 3252 10c8 1B23     		movs	r3, #27
 3253 10ca 6544     		add	r5, r5, ip
 3254              	.LVL731:
 3255 10cc DD41     		rors	r5, r5, r3
 3256              	.LVL732:
 3257 10ce 053B     		subs	r3, r3, #5
 3258 10d0 DA41     		rors	r2, r2, r3
 3259              	.LVL733:
 3260 10d2 0B9B     		ldr	r3, [sp, #44]
 3261 10d4 4948     		ldr	r0, .L11+4
 3262 10d6 9C46     		mov	ip, r3
 3263 10d8 6044     		add	r0, r0, ip
 3264 10da 8446     		mov	ip, r0
 232:strong-arm\src\ripemd160/ripemd160.c **** 	GGG(ddd, eee, aaa, bbb, ccc, X[10], 15);
 3265              		.loc 1 232 0
 3266 10dc 0800     		movs	r0, r1
 231:strong-arm\src\ripemd160/ripemd160.c **** 	GGG(eee, aaa, bbb, ccc, ddd, X[ 7],  5);
 3267              		.loc 1 231 0
 3268 10de 7D19     		adds	r5, r7, r5
 3269              	.LVL734:
 3270              		.loc 1 232 0
 3271 10e0 5040     		eors	r0, r2
 3272 10e2 2840     		ands	r0, r5
 3273 10e4 5040     		eors	r0, r2
 3274 10e6 6744     		add	r7, r7, ip
 3275              	.LVL735:
 3276 10e8 8446     		mov	ip, r0
 3277 10ea 1123     		movs	r3, #17
 3278 10ec 6744     		add	r7, r7, ip
 3279              	.LVL736:
 3280 10ee DF41     		rors	r7, r7, r3
 3281              	.LVL737:
 3282 10f0 0533     		adds	r3, r3, #5
 3283 10f2 D941     		rors	r1, r1, r3
 3284              	.LVL738:
 3285 10f4 0F9B     		ldr	r3, [sp, #60]
 3286 10f6 4148     		ldr	r0, .L11+4
 3287 10f8 9C46     		mov	ip, r3
 3288 10fa 6044     		add	r0, r0, ip
 3289 10fc 8446     		mov	ip, r0
 233:strong-arm\src\ripemd160/ripemd160.c **** 	GGG(ccc, ddd, eee, aaa, bbb, X[14],  8);
 3290              		.loc 1 233 0
 3291 10fe 2800     		movs	r0, r5
 232:strong-arm\src\ripemd160/ripemd160.c **** 	GGG(ddd, eee, aaa, bbb, ccc, X[10], 15);
 3292              		.loc 1 232 0
 3293 1100 F719     		adds	r7, r6, r7
 3294              	.LVL739:
 3295              		.loc 1 233 0
 3296 1102 4840     		eors	r0, r1
 3297 1104 3840     		ands	r0, r7
 3298 1106 4840     		eors	r0, r1
ARM GAS  C:\Users\Ray\AppData\Local\Temp\ccn0usL8.s 			page 65


 3299 1108 6644     		add	r6, r6, ip
 3300              	.LVL740:
 3301 110a 8446     		mov	ip, r0
 3302 110c 1823     		movs	r3, #24
 3303 110e 6644     		add	r6, r6, ip
 3304              	.LVL741:
 3305 1110 DE41     		rors	r6, r6, r3
 3306              	.LVL742:
 3307 1112 023B     		subs	r3, r3, #2
 3308 1114 DD41     		rors	r5, r5, r3
 3309              	.LVL743:
 234:strong-arm\src\ripemd160/ripemd160.c **** 	
 235:strong-arm\src\ripemd160/ripemd160.c **** 	/* parallel round 5 */
 236:strong-arm\src\ripemd160/ripemd160.c **** 	FFF(bbb, ccc, ddd, eee, aaa, X[12] ,  8);
 3310              		.loc 1 236 0
 3311 1116 3800     		movs	r0, r7
 233:strong-arm\src\ripemd160/ripemd160.c **** 	GGG(ccc, ddd, eee, aaa, bbb, X[14],  8);
 3312              		.loc 1 233 0
 3313 1118 9619     		adds	r6, r2, r6
 3314              	.LVL744:
 3315              		.loc 1 236 0
 3316 111a 6840     		eors	r0, r5
 3317 111c 0D9B     		ldr	r3, [sp, #52]
 3318 111e 7040     		eors	r0, r6
 3319 1120 8446     		mov	ip, r0
 3320 1122 9A18     		adds	r2, r3, r2
 3321              	.LVL745:
 3322 1124 1823     		movs	r3, #24
 3323 1126 6244     		add	r2, r2, ip
 3324              	.LVL746:
 3325 1128 DA41     		rors	r2, r2, r3
 3326              	.LVL747:
 3327 112a 023B     		subs	r3, r3, #2
 3328 112c DF41     		rors	r7, r7, r3
 3329              	.LVL748:
 237:strong-arm\src\ripemd160/ripemd160.c **** 	FFF(aaa, bbb, ccc, ddd, eee, X[15] ,  5);
 3330              		.loc 1 237 0
 3331 112e 3000     		movs	r0, r6
 236:strong-arm\src\ripemd160/ripemd160.c **** 	FFF(aaa, bbb, ccc, ddd, eee, X[15] ,  5);
 3332              		.loc 1 236 0
 3333 1130 8A18     		adds	r2, r1, r2
 3334              	.LVL749:
 3335              		.loc 1 237 0
 3336 1132 7840     		eors	r0, r7
 3337 1134 109B     		ldr	r3, [sp, #64]
 3338 1136 5040     		eors	r0, r2
 3339 1138 8446     		mov	ip, r0
 3340 113a 5918     		adds	r1, r3, r1
 3341              	.LVL750:
 3342 113c 1B23     		movs	r3, #27
 3343 113e 6144     		add	r1, r1, ip
 3344              	.LVL751:
 3345 1140 D941     		rors	r1, r1, r3
 3346              	.LVL752:
 3347 1142 053B     		subs	r3, r3, #5
 3348 1144 DE41     		rors	r6, r6, r3
 3349              	.LVL753:
ARM GAS  C:\Users\Ray\AppData\Local\Temp\ccn0usL8.s 			page 66


 238:strong-arm\src\ripemd160/ripemd160.c **** 	FFF(eee, aaa, bbb, ccc, ddd, X[10] , 12);
 3350              		.loc 1 238 0
 3351 1146 1000     		movs	r0, r2
 237:strong-arm\src\ripemd160/ripemd160.c **** 	FFF(aaa, bbb, ccc, ddd, eee, X[15] ,  5);
 3352              		.loc 1 237 0
 3353 1148 6918     		adds	r1, r5, r1
 3354              	.LVL754:
 3355              		.loc 1 238 0
 3356 114a 7040     		eors	r0, r6
 3357 114c 0B9B     		ldr	r3, [sp, #44]
 3358 114e 4840     		eors	r0, r1
 3359 1150 8446     		mov	ip, r0
 3360 1152 5D19     		adds	r5, r3, r5
 3361              	.LVL755:
 3362 1154 1423     		movs	r3, #20
 3363 1156 6544     		add	r5, r5, ip
 3364              	.LVL756:
 3365 1158 DD41     		rors	r5, r5, r3
 3366              	.LVL757:
 3367 115a 0233     		adds	r3, r3, #2
 3368 115c DA41     		rors	r2, r2, r3
 3369              	.LVL758:
 239:strong-arm\src\ripemd160/ripemd160.c **** 	FFF(ddd, eee, aaa, bbb, ccc, X[ 4] ,  9);
 3370              		.loc 1 239 0
 3371 115e 0800     		movs	r0, r1
 238:strong-arm\src\ripemd160/ripemd160.c **** 	FFF(eee, aaa, bbb, ccc, ddd, X[10] , 12);
 3372              		.loc 1 238 0
 3373 1160 7D19     		adds	r5, r7, r5
 3374              	.LVL759:
 3375              		.loc 1 239 0
 3376 1162 5040     		eors	r0, r2
 3377 1164 059B     		ldr	r3, [sp, #20]
 3378 1166 6840     		eors	r0, r5
 3379 1168 8446     		mov	ip, r0
 3380 116a DF19     		adds	r7, r3, r7
 3381              	.LVL760:
 3382 116c 1723     		movs	r3, #23
 3383 116e 6744     		add	r7, r7, ip
 3384              	.LVL761:
 3385 1170 DF41     		rors	r7, r7, r3
 3386              	.LVL762:
 3387 1172 013B     		subs	r3, r3, #1
 3388 1174 D941     		rors	r1, r1, r3
 3389              	.LVL763:
 240:strong-arm\src\ripemd160/ripemd160.c **** 	FFF(ccc, ddd, eee, aaa, bbb, X[ 1] , 12);
 3390              		.loc 1 240 0
 3391 1176 2800     		movs	r0, r5
 239:strong-arm\src\ripemd160/ripemd160.c **** 	FFF(ddd, eee, aaa, bbb, ccc, X[ 4] ,  9);
 3392              		.loc 1 239 0
 3393 1178 F719     		adds	r7, r6, r7
 3394              	.LVL764:
 3395              		.loc 1 240 0
 3396 117a 4840     		eors	r0, r1
 3397 117c 029B     		ldr	r3, [sp, #8]
 3398 117e 7840     		eors	r0, r7
 3399 1180 8446     		mov	ip, r0
 3400 1182 9E19     		adds	r6, r3, r6
ARM GAS  C:\Users\Ray\AppData\Local\Temp\ccn0usL8.s 			page 67


 3401              	.LVL765:
 3402 1184 1423     		movs	r3, #20
 3403 1186 6644     		add	r6, r6, ip
 3404              	.LVL766:
 3405 1188 DE41     		rors	r6, r6, r3
 3406              	.LVL767:
 3407 118a 0233     		adds	r3, r3, #2
 3408 118c DD41     		rors	r5, r5, r3
 3409              	.LVL768:
 241:strong-arm\src\ripemd160/ripemd160.c **** 	FFF(bbb, ccc, ddd, eee, aaa, X[ 5] ,  5);
 3410              		.loc 1 241 0
 3411 118e 3800     		movs	r0, r7
 240:strong-arm\src\ripemd160/ripemd160.c **** 	FFF(ccc, ddd, eee, aaa, bbb, X[ 1] , 12);
 3412              		.loc 1 240 0
 3413 1190 9619     		adds	r6, r2, r6
 3414              	.LVL769:
 3415              		.loc 1 241 0
 3416 1192 6840     		eors	r0, r5
 3417 1194 069B     		ldr	r3, [sp, #24]
 3418 1196 7040     		eors	r0, r6
 3419 1198 8446     		mov	ip, r0
 3420 119a 9A18     		adds	r2, r3, r2
 3421              	.LVL770:
 3422 119c 1B23     		movs	r3, #27
 3423 119e 6244     		add	r2, r2, ip
 3424              	.LVL771:
 3425 11a0 DA41     		rors	r2, r2, r3
 3426              	.LVL772:
 3427 11a2 053B     		subs	r3, r3, #5
 3428 11a4 DF41     		rors	r7, r7, r3
 3429              	.LVL773:
 242:strong-arm\src\ripemd160/ripemd160.c **** 	FFF(aaa, bbb, ccc, ddd, eee, X[ 8] , 14);
 3430              		.loc 1 242 0
 3431 11a6 3000     		movs	r0, r6
 241:strong-arm\src\ripemd160/ripemd160.c **** 	FFF(bbb, ccc, ddd, eee, aaa, X[ 5] ,  5);
 3432              		.loc 1 241 0
 3433 11a8 8A18     		adds	r2, r1, r2
 3434              	.LVL774:
 3435              		.loc 1 242 0
 3436 11aa 7840     		eors	r0, r7
 3437 11ac 099B     		ldr	r3, [sp, #36]
 3438 11ae 5040     		eors	r0, r2
 3439 11b0 8446     		mov	ip, r0
 3440 11b2 5918     		adds	r1, r3, r1
 3441              	.LVL775:
 3442 11b4 1223     		movs	r3, #18
 3443 11b6 6144     		add	r1, r1, ip
 3444              	.LVL776:
 3445 11b8 D941     		rors	r1, r1, r3
 3446              	.LVL777:
 3447 11ba 0433     		adds	r3, r3, #4
 3448 11bc DE41     		rors	r6, r6, r3
 3449              	.LVL778:
 243:strong-arm\src\ripemd160/ripemd160.c **** 	FFF(eee, aaa, bbb, ccc, ddd, X[ 7] ,  6);
 3450              		.loc 1 243 0
 3451 11be 1000     		movs	r0, r2
 242:strong-arm\src\ripemd160/ripemd160.c **** 	FFF(aaa, bbb, ccc, ddd, eee, X[ 8] , 14);
ARM GAS  C:\Users\Ray\AppData\Local\Temp\ccn0usL8.s 			page 68


 3452              		.loc 1 242 0
 3453 11c0 6918     		adds	r1, r5, r1
 3454              	.LVL779:
 3455              		.loc 1 243 0
 3456 11c2 7040     		eors	r0, r6
 3457 11c4 089B     		ldr	r3, [sp, #32]
 3458 11c6 4840     		eors	r0, r1
 3459 11c8 8446     		mov	ip, r0
 3460 11ca 5D19     		adds	r5, r3, r5
 3461              	.LVL780:
 3462 11cc 1A23     		movs	r3, #26
 3463 11ce 6544     		add	r5, r5, ip
 3464              	.LVL781:
 3465 11d0 DD41     		rors	r5, r5, r3
 3466              	.LVL782:
 3467 11d2 043B     		subs	r3, r3, #4
 3468 11d4 DA41     		rors	r2, r2, r3
 3469              	.LVL783:
 244:strong-arm\src\ripemd160/ripemd160.c **** 	FFF(ddd, eee, aaa, bbb, ccc, X[ 6] ,  8);
 3470              		.loc 1 244 0
 3471 11d6 0800     		movs	r0, r1
 243:strong-arm\src\ripemd160/ripemd160.c **** 	FFF(eee, aaa, bbb, ccc, ddd, X[ 7] ,  6);
 3472              		.loc 1 243 0
 3473 11d8 7D19     		adds	r5, r7, r5
 3474              	.LVL784:
 3475              		.loc 1 244 0
 3476 11da 5040     		eors	r0, r2
 3477 11dc 079B     		ldr	r3, [sp, #28]
 3478 11de 6840     		eors	r0, r5
 3479 11e0 8446     		mov	ip, r0
 3480 11e2 DF19     		adds	r7, r3, r7
 3481              	.LVL785:
 3482 11e4 1823     		movs	r3, #24
 3483 11e6 6744     		add	r7, r7, ip
 3484              	.LVL786:
 3485 11e8 DF41     		rors	r7, r7, r3
 3486              	.LVL787:
 3487 11ea 023B     		subs	r3, r3, #2
 3488 11ec D941     		rors	r1, r1, r3
 3489              	.LVL788:
 245:strong-arm\src\ripemd160/ripemd160.c **** 	FFF(ccc, ddd, eee, aaa, bbb, X[ 2] , 13);
 3490              		.loc 1 245 0
 3491 11ee 2800     		movs	r0, r5
 244:strong-arm\src\ripemd160/ripemd160.c **** 	FFF(ddd, eee, aaa, bbb, ccc, X[ 6] ,  8);
 3492              		.loc 1 244 0
 3493 11f0 F719     		adds	r7, r6, r7
 3494              	.LVL789:
 3495              		.loc 1 245 0
 3496 11f2 4840     		eors	r0, r1
 3497 11f4 04E0     		b	.L12
 3498              	.L13:
 3499 11f6 C046     		.align	2
 3500              	.L11:
 3501 11f8 F33E706D 		.word	1836072691
 3502 11fc E9766D7A 		.word	2053994217
 3503              	.L12:
 3504 1200 039B     		ldr	r3, [sp, #12]
ARM GAS  C:\Users\Ray\AppData\Local\Temp\ccn0usL8.s 			page 69


 3505 1202 7840     		eors	r0, r7
 3506 1204 8446     		mov	ip, r0
 3507 1206 9E19     		adds	r6, r3, r6
 3508              	.LVL790:
 3509 1208 1323     		movs	r3, #19
 3510 120a 6644     		add	r6, r6, ip
 3511              	.LVL791:
 3512 120c DE41     		rors	r6, r6, r3
 3513              	.LVL792:
 3514 120e 0333     		adds	r3, r3, #3
 3515 1210 DD41     		rors	r5, r5, r3
 3516              	.LVL793:
 246:strong-arm\src\ripemd160/ripemd160.c **** 	FFF(bbb, ccc, ddd, eee, aaa, X[13] ,  6);
 3517              		.loc 1 246 0
 3518 1212 3800     		movs	r0, r7
 245:strong-arm\src\ripemd160/ripemd160.c **** 	FFF(ccc, ddd, eee, aaa, bbb, X[ 2] , 13);
 3519              		.loc 1 245 0
 3520 1214 9619     		adds	r6, r2, r6
 3521              	.LVL794:
 3522              		.loc 1 246 0
 3523 1216 6840     		eors	r0, r5
 3524 1218 0E9B     		ldr	r3, [sp, #56]
 3525 121a 7040     		eors	r0, r6
 3526 121c 8446     		mov	ip, r0
 3527 121e 9A18     		adds	r2, r3, r2
 3528              	.LVL795:
 3529 1220 1A23     		movs	r3, #26
 3530 1222 6244     		add	r2, r2, ip
 3531              	.LVL796:
 3532 1224 DA41     		rors	r2, r2, r3
 3533              	.LVL797:
 3534 1226 043B     		subs	r3, r3, #4
 3535 1228 DF41     		rors	r7, r7, r3
 3536              	.LVL798:
 247:strong-arm\src\ripemd160/ripemd160.c **** 	FFF(aaa, bbb, ccc, ddd, eee, X[14] ,  5);
 3537              		.loc 1 247 0
 3538 122a 3000     		movs	r0, r6
 246:strong-arm\src\ripemd160/ripemd160.c **** 	FFF(bbb, ccc, ddd, eee, aaa, X[13] ,  6);
 3539              		.loc 1 246 0
 3540 122c 8A18     		adds	r2, r1, r2
 3541              	.LVL799:
 3542              		.loc 1 247 0
 3543 122e 7840     		eors	r0, r7
 3544 1230 0F9B     		ldr	r3, [sp, #60]
 3545 1232 5040     		eors	r0, r2
 3546 1234 8446     		mov	ip, r0
 3547 1236 5918     		adds	r1, r3, r1
 3548              	.LVL800:
 3549 1238 1B23     		movs	r3, #27
 3550 123a 6144     		add	r1, r1, ip
 3551              	.LVL801:
 3552 123c D941     		rors	r1, r1, r3
 3553              	.LVL802:
 3554 123e 053B     		subs	r3, r3, #5
 3555 1240 DE41     		rors	r6, r6, r3
 3556              	.LVL803:
 248:strong-arm\src\ripemd160/ripemd160.c **** 	FFF(eee, aaa, bbb, ccc, ddd, X[ 0] , 15);
ARM GAS  C:\Users\Ray\AppData\Local\Temp\ccn0usL8.s 			page 70


 3557              		.loc 1 248 0
 3558 1242 1000     		movs	r0, r2
 247:strong-arm\src\ripemd160/ripemd160.c **** 	FFF(aaa, bbb, ccc, ddd, eee, X[14] ,  5);
 3559              		.loc 1 247 0
 3560 1244 6918     		adds	r1, r5, r1
 3561              	.LVL804:
 3562              		.loc 1 248 0
 3563 1246 7040     		eors	r0, r6
 3564 1248 019B     		ldr	r3, [sp, #4]
 3565 124a 4840     		eors	r0, r1
 3566 124c 8446     		mov	ip, r0
 3567 124e 5D19     		adds	r5, r3, r5
 3568              	.LVL805:
 3569 1250 1123     		movs	r3, #17
 3570 1252 6544     		add	r5, r5, ip
 3571              	.LVL806:
 3572 1254 DD41     		rors	r5, r5, r3
 3573              	.LVL807:
 3574 1256 0533     		adds	r3, r3, #5
 3575 1258 DA41     		rors	r2, r2, r3
 3576              	.LVL808:
 249:strong-arm\src\ripemd160/ripemd160.c **** 	FFF(ddd, eee, aaa, bbb, ccc, X[ 3] , 13);
 3577              		.loc 1 249 0
 3578 125a 0800     		movs	r0, r1
 248:strong-arm\src\ripemd160/ripemd160.c **** 	FFF(eee, aaa, bbb, ccc, ddd, X[ 0] , 15);
 3579              		.loc 1 248 0
 3580 125c 7D19     		adds	r5, r7, r5
 3581              	.LVL809:
 3582              		.loc 1 249 0
 3583 125e 5040     		eors	r0, r2
 3584 1260 049B     		ldr	r3, [sp, #16]
 3585 1262 6840     		eors	r0, r5
 3586 1264 8446     		mov	ip, r0
 3587 1266 DF19     		adds	r7, r3, r7
 3588              	.LVL810:
 3589 1268 1323     		movs	r3, #19
 3590 126a 6744     		add	r7, r7, ip
 3591              	.LVL811:
 3592 126c DF41     		rors	r7, r7, r3
 3593              	.LVL812:
 3594 126e 0333     		adds	r3, r3, #3
 3595 1270 D941     		rors	r1, r1, r3
 3596              	.LVL813:
 250:strong-arm\src\ripemd160/ripemd160.c **** 	FFF(ccc, ddd, eee, aaa, bbb, X[ 9] , 11);
 3597              		.loc 1 250 0
 3598 1272 2800     		movs	r0, r5
 249:strong-arm\src\ripemd160/ripemd160.c **** 	FFF(ddd, eee, aaa, bbb, ccc, X[ 3] , 13);
 3599              		.loc 1 249 0
 3600 1274 F719     		adds	r7, r6, r7
 3601              	.LVL814:
 3602              		.loc 1 250 0
 3603 1276 4840     		eors	r0, r1
 3604 1278 0A9B     		ldr	r3, [sp, #40]
 3605 127a 7840     		eors	r0, r7
 3606 127c 8446     		mov	ip, r0
 3607 127e 9E19     		adds	r6, r3, r6
 3608              	.LVL815:
ARM GAS  C:\Users\Ray\AppData\Local\Temp\ccn0usL8.s 			page 71


 3609 1280 1523     		movs	r3, #21
 3610 1282 6644     		add	r6, r6, ip
 3611              	.LVL816:
 3612 1284 DE41     		rors	r6, r6, r3
 3613              	.LVL817:
 3614 1286 0133     		adds	r3, r3, #1
 3615 1288 DD41     		rors	r5, r5, r3
 3616              	.LVL818:
 3617 128a 0C9B     		ldr	r3, [sp, #48]
 3618 128c 9619     		adds	r6, r2, r6
 3619              	.LVL819:
 3620 128e 3800     		movs	r0, r7
 3621 1290 9A18     		adds	r2, r3, r2
 3622              	.LVL820:
 3623 1292 1623     		movs	r3, #22
 3624 1294 D841     		rors	r0, r0, r3
 3625              	.LVL821:
 3626 1296 8446     		mov	ip, r0
 3627 1298 6368     		ldr	r3, [r4, #4]
 3628 129a 6344     		add	r3, r3, ip
 3629 129c 0193     		str	r3, [sp, #4]
 3630              	.LVL822:
 251:strong-arm\src\ripemd160/ripemd160.c **** 	FFF(bbb, ccc, ddd, eee, aaa, X[11] , 11);
 252:strong-arm\src\ripemd160/ripemd160.c **** 	
 253:strong-arm\src\ripemd160/ripemd160.c **** 	/* combine results */
 254:strong-arm\src\ripemd160/ripemd160.c **** 	ddd += cc + MDbuf[1];
 255:strong-arm\src\ripemd160/ripemd160.c **** 	MDbuf[1] = MDbuf[2] + dd + eee;
 3631              		.loc 1 255 0
 3632 129e 1623     		movs	r3, #22
 3633              	.LVL823:
 3634 12a0 1398     		ldr	r0, [sp, #76]
 3635 12a2 D841     		rors	r0, r0, r3
 3636              	.LVL824:
 3637 12a4 0300     		movs	r3, r0
 3638 12a6 A068     		ldr	r0, [r4, #8]
 3639              	.LVL825:
 3640 12a8 4019     		adds	r0, r0, r5
 3641 12aa 1B18     		adds	r3, r3, r0
 3642              	.LVL826:
 3643 12ac 6360     		str	r3, [r4, #4]
 256:strong-arm\src\ripemd160/ripemd160.c **** 	MDbuf[2] = MDbuf[3] + ee + aaa;
 3644              		.loc 1 256 0
 3645 12ae E368     		ldr	r3, [r4, #12]
 3646 12b0 1698     		ldr	r0, [sp, #88]
 3647 12b2 5B18     		adds	r3, r3, r1
 3648 12b4 1B18     		adds	r3, r3, r0
 3649 12b6 A360     		str	r3, [r4, #8]
 257:strong-arm\src\ripemd160/ripemd160.c **** 	MDbuf[3] = MDbuf[4] + aa + bbb;
 3650              		.loc 1 257 0
 3651 12b8 1523     		movs	r3, #21
 3652 12ba 7D40     		eors	r5, r7
 3653              	.LVL827:
 3654 12bc 7540     		eors	r5, r6
 3655              	.LVL828:
 3656 12be AA18     		adds	r2, r5, r2
 3657 12c0 DA41     		rors	r2, r2, r3
 3658 12c2 1498     		ldr	r0, [sp, #80]
ARM GAS  C:\Users\Ray\AppData\Local\Temp\ccn0usL8.s 			page 72


 3659 12c4 2369     		ldr	r3, [r4, #16]
 3660 12c6 1B18     		adds	r3, r3, r0
 3661 12c8 5918     		adds	r1, r3, r1
 3662              	.LVL829:
 258:strong-arm\src\ripemd160/ripemd160.c **** 	MDbuf[4] = MDbuf[0] + bb + ccc;
 3663              		.loc 1 258 0
 3664 12ca 169B     		ldr	r3, [sp, #88]
 257:strong-arm\src\ripemd160/ripemd160.c **** 	MDbuf[3] = MDbuf[4] + aa + bbb;
 3665              		.loc 1 257 0
 3666 12cc 5118     		adds	r1, r2, r1
 3667              		.loc 1 258 0
 3668 12ce DA43     		mvns	r2, r3
 3669 12d0 139B     		ldr	r3, [sp, #76]
 257:strong-arm\src\ripemd160/ripemd160.c **** 	MDbuf[3] = MDbuf[4] + aa + bbb;
 3670              		.loc 1 257 0
 3671 12d2 E160     		str	r1, [r4, #12]
 3672              		.loc 1 258 0
 3673 12d4 1A43     		orrs	r2, r3
 3674              	.LVL830:
 3675 12d6 159B     		ldr	r3, [sp, #84]
 3676 12d8 2168     		ldr	r1, [r4]
 3677 12da 5A40     		eors	r2, r3
 3678              	.LVL831:
 3679 12dc 179B     		ldr	r3, [sp, #92]
 3680 12de 8C46     		mov	ip, r1
 3681 12e0 D218     		adds	r2, r2, r3
 3682 12e2 1A23     		movs	r3, #26
 3683 12e4 DA41     		rors	r2, r2, r3
 3684 12e6 0300     		movs	r3, r0
 3685 12e8 6344     		add	r3, r3, ip
 3686 12ea 9E19     		adds	r6, r3, r6
 3687              	.LVL832:
 3688 12ec 9619     		adds	r6, r2, r6
 259:strong-arm\src\ripemd160/ripemd160.c **** 	MDbuf[0] = ddd;
 3689              		.loc 1 259 0
 3690 12ee 159B     		ldr	r3, [sp, #84]
 3691 12f0 019A     		ldr	r2, [sp, #4]
 258:strong-arm\src\ripemd160/ripemd160.c **** 	MDbuf[4] = MDbuf[0] + bb + ccc;
 3692              		.loc 1 258 0
 3693 12f2 2661     		str	r6, [r4, #16]
 3694              		.loc 1 259 0
 3695 12f4 9B18     		adds	r3, r3, r2
 3696              	.LVL833:
 3697 12f6 2360     		str	r3, [r4]
 260:strong-arm\src\ripemd160/ripemd160.c **** }
 3698              		.loc 1 260 0
 3699 12f8 19B0     		add	sp, sp, #100
 3700              		@ sp needed
 3701              	.LVL834:
 3702 12fa F0BD     		pop	{r4, r5, r6, r7, pc}
 3703              		.cfi_endproc
 3704              	.LFE0:
 3705              		.size	compress, .-compress
 3706              		.section	.text.RIPEMD160,"ax",%progbits
 3707              		.align	1
 3708              		.global	RIPEMD160
 3709              		.code	16
ARM GAS  C:\Users\Ray\AppData\Local\Temp\ccn0usL8.s 			page 73


 3710              		.thumb_func
 3711              		.type	RIPEMD160, %function
 3712              	RIPEMD160:
 3713              	.LFB1:
 261:strong-arm\src\ripemd160/ripemd160.c **** 
 262:strong-arm\src\ripemd160/ripemd160.c **** // TODO: We can't really handle data when len == 2^32-1.
 263:strong-arm\src\ripemd160/ripemd160.c **** void RIPEMD160 (uint8_t *hash, uint8_t const *msg, uint32_t len)
 264:strong-arm\src\ripemd160/ripemd160.c **** {
 3714              		.loc 1 264 0
 3715              		.cfi_startproc
 3716              		@ args = 0, pretend = 0, frame = 96
 3717              		@ frame_needed = 0, uses_anonymous_args = 0
 3718              	.LVL835:
 3719 0000 F0B5     		push	{r4, r5, r6, r7, lr}
 3720              		.cfi_def_cfa_offset 20
 3721              		.cfi_offset 4, -20
 3722              		.cfi_offset 5, -16
 3723              		.cfi_offset 6, -12
 3724              		.cfi_offset 7, -8
 3725              		.cfi_offset 14, -4
 3726 0002 1500     		movs	r5, r2
 3727 0004 0E00     		movs	r6, r1
 3728 0006 99B0     		sub	sp, sp, #100
 3729              		.cfi_def_cfa_offset 120
 265:strong-arm\src\ripemd160/ripemd160.c **** 	uint32_t digest[5] = {0x67452301, 0xefcdab89, 0x98badcfe, 0x10325476, 0xc3d2e1f0UL};
 3730              		.loc 1 265 0
 3731 0008 384B     		ldr	r3, .L27
 264:strong-arm\src\ripemd160/ripemd160.c **** 	uint32_t digest[5] = {0x67452301, 0xefcdab89, 0x98badcfe, 0x10325476, 0xc3d2e1f0UL};
 3732              		.loc 1 264 0
 3733 000a 0190     		str	r0, [sp, #4]
 3734              		.loc 1 265 0
 3735 000c 03AA     		add	r2, sp, #12
 3736              	.LVL836:
 3737 000e 13CB     		ldmia	r3!, {r0, r1, r4}
 3738 0010 13C2     		stmia	r2!, {r0, r1, r4}
 3739              	.LVL837:
 3740 0012 AC09     		lsrs	r4, r5, #6
 3741 0014 03CB     		ldmia	r3!, {r0, r1}
 3742 0016 03C2     		stmia	r2!, {r0, r1}
 3743              	.LVL838:
 3744 0018 A401     		lsls	r4, r4, #6
 3745 001a 3419     		adds	r4, r6, r4
 3746              	.LVL839:
 3747              	.L15:
 3748              	.LBB2:
 266:strong-arm\src\ripemd160/ripemd160.c **** 	
 267:strong-arm\src\ripemd160/ripemd160.c **** 	for (uint32_t i = 0; i < (len >> 6); ++i)
 3749              		.loc 1 267 0 discriminator 1
 3750 001c A642     		cmp	r6, r4
 3751 001e 15D0     		beq	.L25
 3752 0020 0020     		movs	r0, #0
 3753              	.LVL840:
 3754              	.L16:
 3755              	.LBB3:
 3756              	.LBB4:
 268:strong-arm\src\ripemd160/ripemd160.c **** 	{
 269:strong-arm\src\ripemd160/ripemd160.c **** 		uint32_t chunk[16];
ARM GAS  C:\Users\Ray\AppData\Local\Temp\ccn0usL8.s 			page 74


 270:strong-arm\src\ripemd160/ripemd160.c **** 		
 271:strong-arm\src\ripemd160/ripemd160.c **** 		for (int j = 0; j < 16; ++j)
 272:strong-arm\src\ripemd160/ripemd160.c **** 		{
 273:strong-arm\src\ripemd160/ripemd160.c **** 			chunk[j] = (uint32_t)(*(msg++));
 274:strong-arm\src\ripemd160/ripemd160.c **** 			chunk[j] |= (uint32_t)(*(msg++)) << 8;
 275:strong-arm\src\ripemd160/ripemd160.c **** 			chunk[j] |= (uint32_t)(*(msg++)) << 16;
 276:strong-arm\src\ripemd160/ripemd160.c **** 			chunk[j] |= (uint32_t)(*(msg++)) << 24;
 3757              		.loc 1 276 0 discriminator 3
 3758 0022 3718     		adds	r7, r6, r0
 3759 0024 7A78     		ldrb	r2, [r7, #1]
 3760 0026 335C     		ldrb	r3, [r6, r0]
 3761 0028 1202     		lsls	r2, r2, #8
 3762 002a 1A43     		orrs	r2, r3
 3763 002c BB78     		ldrb	r3, [r7, #2]
 3764 002e 08A9     		add	r1, sp, #32
 3765 0030 1B04     		lsls	r3, r3, #16
 3766 0032 1A43     		orrs	r2, r3
 3767 0034 FB78     		ldrb	r3, [r7, #3]
 3768 0036 1B06     		lsls	r3, r3, #24
 3769 0038 1343     		orrs	r3, r2
 3770 003a 4350     		str	r3, [r0, r1]
 3771              	.LVL841:
 3772 003c 0430     		adds	r0, r0, #4
 3773              	.LVL842:
 271:strong-arm\src\ripemd160/ripemd160.c **** 		{
 3774              		.loc 1 271 0 discriminator 3
 3775 003e 4028     		cmp	r0, #64
 3776 0040 EFD1     		bne	.L16
 3777              	.LBE4:
 277:strong-arm\src\ripemd160/ripemd160.c **** 		}
 278:strong-arm\src\ripemd160/ripemd160.c **** 	 
 279:strong-arm\src\ripemd160/ripemd160.c **** 		compress (digest, chunk);
 3778              		.loc 1 279 0 discriminator 2
 3779 0042 03A8     		add	r0, sp, #12
 3780              	.LVL843:
 3781 0044 4036     		adds	r6, r6, #64
 3782 0046 FFF7FEFF 		bl	compress
 3783              	.LVL844:
 3784 004a E7E7     		b	.L15
 3785              	.LVL845:
 3786              	.L25:
 3787              	.LBE3:
 3788              	.LBE2:
 3789              	.LBB5:
 280:strong-arm\src\ripemd160/ripemd160.c **** 	}
 281:strong-arm\src\ripemd160/ripemd160.c **** 	
 282:strong-arm\src\ripemd160/ripemd160.c **** 	// Last chunk
 283:strong-arm\src\ripemd160/ripemd160.c **** 	{
 284:strong-arm\src\ripemd160/ripemd160.c **** 		uint32_t chunk[16] = {0};
 3790              		.loc 1 284 0
 3791 004c 08AC     		add	r4, sp, #32
 3792 004e 4022     		movs	r2, #64
 3793 0050 0021     		movs	r1, #0
 3794 0052 2000     		movs	r0, r4
 3795 0054 FFF7FEFF 		bl	memset
 3796              	.LVL846:
 3797              	.LBB6:
ARM GAS  C:\Users\Ray\AppData\Local\Temp\ccn0usL8.s 			page 75


 285:strong-arm\src\ripemd160/ripemd160.c **** 		
 286:strong-arm\src\ripemd160/ripemd160.c **** 		for (uint32_t i = 0; i < (len & 63); ++i)
 3798              		.loc 1 286 0
 3799 0058 3F22     		movs	r2, #63
 3800 005a 3100     		movs	r1, r6
 3801 005c 2A40     		ands	r2, r5
 3802 005e 0092     		str	r2, [sp]
 3803              	.LVL847:
 3804              	.L18:
 3805              		.loc 1 286 0 is_stmt 0 discriminator 1
 3806 0060 009A     		ldr	r2, [sp]
 3807 0062 8B1B     		subs	r3, r1, r6
 3808              	.LVL848:
 3809 0064 9A42     		cmp	r2, r3
 3810 0066 0FD9     		bls	.L26
 3811              	.LVL849:
 287:strong-arm\src\ripemd160/ripemd160.c **** 			chunk[i >> 2] ^= (uint32_t) *msg++ << ((i&3) << 3);
 3812              		.loc 1 287 0 is_stmt 1 discriminator 3
 3813 0068 0A78     		ldrb	r2, [r1]
 3814 006a 9808     		lsrs	r0, r3, #2
 3815 006c 9446     		mov	ip, r2
 3816 006e 1822     		movs	r2, #24
 3817 0070 DB00     		lsls	r3, r3, #3
 3818              	.LVL850:
 3819 0072 1340     		ands	r3, r2
 3820 0074 6246     		mov	r2, ip
 3821 0076 9A40     		lsls	r2, r2, r3
 3822 0078 1300     		movs	r3, r2
 3823 007a 08AF     		add	r7, sp, #32
 3824 007c 8000     		lsls	r0, r0, #2
 3825 007e C259     		ldr	r2, [r0, r7]
 3826 0080 0131     		adds	r1, r1, #1
 3827              	.LVL851:
 3828 0082 5340     		eors	r3, r2
 3829 0084 C351     		str	r3, [r0, r7]
 3830              	.LVL852:
 3831 0086 EBE7     		b	.L18
 3832              	.LVL853:
 3833              	.L26:
 3834              	.LBE6:
 288:strong-arm\src\ripemd160/ripemd160.c **** 		
 289:strong-arm\src\ripemd160/ripemd160.c **** 		chunk[(len >> 2)&15] ^= (uint32_t)1 << (8*(len&3) + 7);
 3835              		.loc 1 289 0
 3836 0088 0323     		movs	r3, #3
 3837              	.LVL854:
 3838 008a 0120     		movs	r0, #1
 3839 008c 2B40     		ands	r3, r5
 3840 008e DB00     		lsls	r3, r3, #3
 3841 0090 0733     		adds	r3, r3, #7
 3842 0092 9840     		lsls	r0, r0, r3
 3843 0094 3C21     		movs	r1, #60
 3844              	.LVL855:
 3845 0096 0300     		movs	r3, r0
 3846 0098 2940     		ands	r1, r5
 3847 009a 6258     		ldr	r2, [r4, r1]
 3848 009c 5340     		eors	r3, r2
 3849 009e 6350     		str	r3, [r4, r1]
ARM GAS  C:\Users\Ray\AppData\Local\Temp\ccn0usL8.s 			page 76


 290:strong-arm\src\ripemd160/ripemd160.c **** 		
 291:strong-arm\src\ripemd160/ripemd160.c **** 		if ((len & 63) > 55)
 3850              		.loc 1 291 0
 3851 00a0 009B     		ldr	r3, [sp]
 3852 00a2 372B     		cmp	r3, #55
 3853 00a4 08D9     		bls	.L20
 292:strong-arm\src\ripemd160/ripemd160.c **** 		{
 293:strong-arm\src\ripemd160/ripemd160.c **** 			compress (digest, chunk);
 3854              		.loc 1 293 0
 3855 00a6 2100     		movs	r1, r4
 3856 00a8 03A8     		add	r0, sp, #12
 3857 00aa FFF7FEFF 		bl	compress
 3858              	.LVL856:
 294:strong-arm\src\ripemd160/ripemd160.c **** 			memset (chunk, 0, 64);
 3859              		.loc 1 294 0
 3860 00ae 4022     		movs	r2, #64
 3861 00b0 0021     		movs	r1, #0
 3862 00b2 2000     		movs	r0, r4
 3863 00b4 FFF7FEFF 		bl	memset
 3864              	.LVL857:
 3865              	.L20:
 295:strong-arm\src\ripemd160/ripemd160.c **** 		}
 296:strong-arm\src\ripemd160/ripemd160.c **** 		
 297:strong-arm\src\ripemd160/ripemd160.c **** 		chunk[14] = len << 3;
 3866              		.loc 1 297 0
 3867 00b8 EB00     		lsls	r3, r5, #3
 298:strong-arm\src\ripemd160/ripemd160.c **** 		chunk[15] = (len >> 29);
 299:strong-arm\src\ripemd160/ripemd160.c **** 		compress (digest, chunk);
 3868              		.loc 1 299 0
 3869 00ba 2100     		movs	r1, r4
 298:strong-arm\src\ripemd160/ripemd160.c **** 		chunk[15] = (len >> 29);
 3870              		.loc 1 298 0
 3871 00bc 6D0F     		lsrs	r5, r5, #29
 3872              	.LVL858:
 3873              		.loc 1 299 0
 3874 00be 03A8     		add	r0, sp, #12
 297:strong-arm\src\ripemd160/ripemd160.c **** 		chunk[15] = (len >> 29);
 3875              		.loc 1 297 0
 3876 00c0 A363     		str	r3, [r4, #56]
 298:strong-arm\src\ripemd160/ripemd160.c **** 		chunk[15] = (len >> 29);
 3877              		.loc 1 298 0
 3878 00c2 E563     		str	r5, [r4, #60]
 3879              		.loc 1 299 0
 3880 00c4 FFF7FEFF 		bl	compress
 3881              	.LVL859:
 3882 00c8 0021     		movs	r1, #0
 3883 00ca 019B     		ldr	r3, [sp, #4]
 3884              	.LVL860:
 3885              	.L21:
 3886              	.LBE5:
 3887              	.LBB7:
 300:strong-arm\src\ripemd160/ripemd160.c **** 	}
 301:strong-arm\src\ripemd160/ripemd160.c **** 	
 302:strong-arm\src\ripemd160/ripemd160.c **** 	for (int i = 0; i < 5; ++i)
 303:strong-arm\src\ripemd160/ripemd160.c **** 	{
 304:strong-arm\src\ripemd160/ripemd160.c **** 		*(hash++) = digest[i];
 3888              		.loc 1 304 0 discriminator 3
ARM GAS  C:\Users\Ray\AppData\Local\Temp\ccn0usL8.s 			page 77


 3889 00cc 03AA     		add	r2, sp, #12
 3890 00ce 5258     		ldr	r2, [r2, r1]
 3891 00d0 0431     		adds	r1, r1, #4
 3892              	.LVL861:
 305:strong-arm\src\ripemd160/ripemd160.c **** 		*(hash++) = digest[i] >> 8;
 3893              		.loc 1 305 0 discriminator 3
 3894 00d2 100A     		lsrs	r0, r2, #8
 304:strong-arm\src\ripemd160/ripemd160.c **** 		*(hash++) = digest[i] >> 8;
 3895              		.loc 1 304 0 discriminator 3
 3896 00d4 1A70     		strb	r2, [r3]
 3897              	.LVL862:
 3898              		.loc 1 305 0 discriminator 3
 3899 00d6 5870     		strb	r0, [r3, #1]
 3900              	.LVL863:
 306:strong-arm\src\ripemd160/ripemd160.c **** 		*(hash++) = digest[i] >> 16;
 3901              		.loc 1 306 0 discriminator 3
 3902 00d8 100C     		lsrs	r0, r2, #16
 307:strong-arm\src\ripemd160/ripemd160.c **** 		*(hash++) = digest[i] >> 24;
 3903              		.loc 1 307 0 discriminator 3
 3904 00da 120E     		lsrs	r2, r2, #24
 306:strong-arm\src\ripemd160/ripemd160.c **** 		*(hash++) = digest[i] >> 16;
 3905              		.loc 1 306 0 discriminator 3
 3906 00dc 9870     		strb	r0, [r3, #2]
 3907              	.LVL864:
 3908              		.loc 1 307 0 discriminator 3
 3909 00de DA70     		strb	r2, [r3, #3]
 3910 00e0 0433     		adds	r3, r3, #4
 302:strong-arm\src\ripemd160/ripemd160.c **** 	{
 3911              		.loc 1 302 0 discriminator 3
 3912 00e2 1429     		cmp	r1, #20
 3913 00e4 F2D1     		bne	.L21
 3914              	.LBE7:
 308:strong-arm\src\ripemd160/ripemd160.c **** 	}
 309:strong-arm\src\ripemd160/ripemd160.c **** }
 3915              		.loc 1 309 0
 3916 00e6 19B0     		add	sp, sp, #100
 3917              		@ sp needed
 3918 00e8 F0BD     		pop	{r4, r5, r6, r7, pc}
 3919              	.L28:
 3920 00ea C046     		.align	2
 3921              	.L27:
 3922 00ec 00000000 		.word	.LANCHOR0
 3923              		.cfi_endproc
 3924              	.LFE1:
 3925              		.size	RIPEMD160, .-RIPEMD160
 3926              		.section	.rodata
 3927              		.align	2
 3928              		.set	.LANCHOR0,. + 0
 3929              	.LC0:
 3930 0000 01234567 		.word	1732584193
 3931 0004 89ABCDEF 		.word	-271733879
 3932 0008 FEDCBA98 		.word	-1732584194
 3933 000c 76543210 		.word	271733878
 3934 0010 F0E1D2C3 		.word	-1009589776
 3935              		.text
 3936              	.Letext0:
 3937              		.file 2 "c:\\program files (x86)\\cypress\\psoc creator\\4.1\\psoc creator\\import\\gnu\\arm\\5.4.
ARM GAS  C:\Users\Ray\AppData\Local\Temp\ccn0usL8.s 			page 78


 3938              		.file 3 "c:\\program files (x86)\\cypress\\psoc creator\\4.1\\psoc creator\\import\\gnu\\arm\\5.4.
 3939              		.section	.debug_info,"",%progbits
 3940              	.Ldebug_info0:
 3941 0000 2B030000 		.4byte	0x32b
 3942 0004 0400     		.2byte	0x4
 3943 0006 00000000 		.4byte	.Ldebug_abbrev0
 3944 000a 04       		.byte	0x4
 3945 000b 01       		.uleb128 0x1
 3946 000c 52010000 		.4byte	.LASF20
 3947 0010 0C       		.byte	0xc
 3948 0011 54000000 		.4byte	.LASF21
 3949 0015 14000000 		.4byte	.LASF22
 3950 0019 00000000 		.4byte	.Ldebug_ranges0+0
 3951 001d 00000000 		.4byte	0
 3952 0021 00000000 		.4byte	.Ldebug_line0
 3953 0025 02       		.uleb128 0x2
 3954 0026 01       		.byte	0x1
 3955 0027 06       		.byte	0x6
 3956 0028 46010000 		.4byte	.LASF0
 3957 002c 03       		.uleb128 0x3
 3958 002d 00000000 		.4byte	.LASF5
 3959 0031 02       		.byte	0x2
 3960 0032 1D       		.byte	0x1d
 3961 0033 37000000 		.4byte	0x37
 3962 0037 02       		.uleb128 0x2
 3963 0038 01       		.byte	0x1
 3964 0039 08       		.byte	0x8
 3965 003a 79000000 		.4byte	.LASF1
 3966 003e 02       		.uleb128 0x2
 3967 003f 02       		.byte	0x2
 3968 0040 05       		.byte	0x5
 3969 0041 26010000 		.4byte	.LASF2
 3970 0045 02       		.uleb128 0x2
 3971 0046 02       		.byte	0x2
 3972 0047 07       		.byte	0x7
 3973 0048 99000000 		.4byte	.LASF3
 3974 004c 02       		.uleb128 0x2
 3975 004d 04       		.byte	0x4
 3976 004e 05       		.byte	0x5
 3977 004f 3D010000 		.4byte	.LASF4
 3978 0053 03       		.uleb128 0x3
 3979 0054 BC000000 		.4byte	.LASF6
 3980 0058 02       		.byte	0x2
 3981 0059 41       		.byte	0x41
 3982 005a 5E000000 		.4byte	0x5e
 3983 005e 02       		.uleb128 0x2
 3984 005f 04       		.byte	0x4
 3985 0060 07       		.byte	0x7
 3986 0061 87000000 		.4byte	.LASF7
 3987 0065 02       		.uleb128 0x2
 3988 0066 08       		.byte	0x8
 3989 0067 05       		.byte	0x5
 3990 0068 13010000 		.4byte	.LASF8
 3991 006c 02       		.uleb128 0x2
 3992 006d 08       		.byte	0x8
 3993 006e 07       		.byte	0x7
 3994 006f DA000000 		.4byte	.LASF9
ARM GAS  C:\Users\Ray\AppData\Local\Temp\ccn0usL8.s 			page 79


 3995 0073 04       		.uleb128 0x4
 3996 0074 04       		.byte	0x4
 3997 0075 05       		.byte	0x5
 3998 0076 696E7400 		.ascii	"int\000"
 3999 007a 02       		.uleb128 0x2
 4000 007b 04       		.byte	0x4
 4001 007c 07       		.byte	0x7
 4002 007d CD000000 		.4byte	.LASF10
 4003 0081 03       		.uleb128 0x3
 4004 0082 F1000000 		.4byte	.LASF11
 4005 0086 03       		.byte	0x3
 4006 0087 18       		.byte	0x18
 4007 0088 2C000000 		.4byte	0x2c
 4008 008c 03       		.uleb128 0x3
 4009 008d AC000000 		.4byte	.LASF12
 4010 0091 03       		.byte	0x3
 4011 0092 30       		.byte	0x30
 4012 0093 53000000 		.4byte	0x53
 4013 0097 02       		.uleb128 0x2
 4014 0098 08       		.byte	0x8
 4015 0099 04       		.byte	0x4
 4016 009a FE000000 		.4byte	.LASF13
 4017 009e 02       		.uleb128 0x2
 4018 009f 04       		.byte	0x4
 4019 00a0 07       		.byte	0x7
 4020 00a1 0A010000 		.4byte	.LASF14
 4021 00a5 02       		.uleb128 0x2
 4022 00a6 01       		.byte	0x1
 4023 00a7 08       		.byte	0x8
 4024 00a8 21010000 		.4byte	.LASF15
 4025 00ac 05       		.uleb128 0x5
 4026 00ad 4B000000 		.4byte	.LASF23
 4027 00b1 01       		.byte	0x1
 4028 00b2 44       		.byte	0x44
 4029 00b3 00000000 		.4byte	.LFB0
 4030 00b7 FC120000 		.4byte	.LFE0-.LFB0
 4031 00bb 01       		.uleb128 0x1
 4032 00bc 9C       		.byte	0x9c
 4033 00bd 6F010000 		.4byte	0x16f
 4034 00c1 06       		.uleb128 0x6
 4035 00c2 30010000 		.4byte	.LASF16
 4036 00c6 01       		.byte	0x1
 4037 00c7 44       		.byte	0x44
 4038 00c8 6F010000 		.4byte	0x16f
 4039 00cc 00000000 		.4byte	.LLST0
 4040 00d0 07       		.uleb128 0x7
 4041 00d1 5800     		.ascii	"X\000"
 4042 00d3 01       		.byte	0x1
 4043 00d4 44       		.byte	0x44
 4044 00d5 6F010000 		.4byte	0x16f
 4045 00d9 2C000000 		.4byte	.LLST1
 4046 00dd 08       		.uleb128 0x8
 4047 00de 616100   		.ascii	"aa\000"
 4048 00e1 01       		.byte	0x1
 4049 00e2 46       		.byte	0x46
 4050 00e3 8C000000 		.4byte	0x8c
 4051 00e7 59000000 		.4byte	.LLST2
ARM GAS  C:\Users\Ray\AppData\Local\Temp\ccn0usL8.s 			page 80


 4052 00eb 08       		.uleb128 0x8
 4053 00ec 626200   		.ascii	"bb\000"
 4054 00ef 01       		.byte	0x1
 4055 00f0 46       		.byte	0x46
 4056 00f1 8C000000 		.4byte	0x8c
 4057 00f5 98040000 		.4byte	.LLST3
 4058 00f9 08       		.uleb128 0x8
 4059 00fa 636300   		.ascii	"cc\000"
 4060 00fd 01       		.byte	0x1
 4061 00fe 46       		.byte	0x46
 4062 00ff 8C000000 		.4byte	0x8c
 4063 0103 5C090000 		.4byte	.LLST4
 4064 0107 08       		.uleb128 0x8
 4065 0108 646400   		.ascii	"dd\000"
 4066 010b 01       		.byte	0x1
 4067 010c 46       		.byte	0x46
 4068 010d 8C000000 		.4byte	0x8c
 4069 0111 6C0D0000 		.4byte	.LLST5
 4070 0115 08       		.uleb128 0x8
 4071 0116 656500   		.ascii	"ee\000"
 4072 0119 01       		.byte	0x1
 4073 011a 46       		.byte	0x46
 4074 011b 8C000000 		.4byte	0x8c
 4075 011f 04120000 		.4byte	.LLST6
 4076 0123 08       		.uleb128 0x8
 4077 0124 61616100 		.ascii	"aaa\000"
 4078 0128 01       		.byte	0x1
 4079 0129 47       		.byte	0x47
 4080 012a 8C000000 		.4byte	0x8c
 4081 012e D2170000 		.4byte	.LLST7
 4082 0132 08       		.uleb128 0x8
 4083 0133 62626200 		.ascii	"bbb\000"
 4084 0137 01       		.byte	0x1
 4085 0138 47       		.byte	0x47
 4086 0139 8C000000 		.4byte	0x8c
 4087 013d B91C0000 		.4byte	.LLST8
 4088 0141 08       		.uleb128 0x8
 4089 0142 63636300 		.ascii	"ccc\000"
 4090 0146 01       		.byte	0x1
 4091 0147 47       		.byte	0x47
 4092 0148 8C000000 		.4byte	0x8c
 4093 014c D4200000 		.4byte	.LLST9
 4094 0150 08       		.uleb128 0x8
 4095 0151 64646400 		.ascii	"ddd\000"
 4096 0155 01       		.byte	0x1
 4097 0156 47       		.byte	0x47
 4098 0157 8C000000 		.4byte	0x8c
 4099 015b 83240000 		.4byte	.LLST10
 4100 015f 08       		.uleb128 0x8
 4101 0160 65656500 		.ascii	"eee\000"
 4102 0164 01       		.byte	0x1
 4103 0165 47       		.byte	0x47
 4104 0166 8C000000 		.4byte	0x8c
 4105 016a EF2A0000 		.4byte	.LLST11
 4106 016e 00       		.byte	0
 4107 016f 09       		.uleb128 0x9
 4108 0170 04       		.byte	0x4
ARM GAS  C:\Users\Ray\AppData\Local\Temp\ccn0usL8.s 			page 81


 4109 0171 8C000000 		.4byte	0x8c
 4110 0175 0A       		.uleb128 0xa
 4111 0176 0A000000 		.4byte	.LASF24
 4112 017a 01       		.byte	0x1
 4113 017b 0701     		.2byte	0x107
 4114 017d 00000000 		.4byte	.LFB1
 4115 0181 F0000000 		.4byte	.LFE1-.LFB1
 4116 0185 01       		.uleb128 0x1
 4117 0186 9C       		.byte	0x9c
 4118 0187 F4020000 		.4byte	0x2f4
 4119 018b 0B       		.uleb128 0xb
 4120 018c F9000000 		.4byte	.LASF17
 4121 0190 01       		.byte	0x1
 4122 0191 0701     		.2byte	0x107
 4123 0193 F4020000 		.4byte	0x2f4
 4124 0197 85300000 		.4byte	.LLST12
 4125 019b 0C       		.uleb128 0xc
 4126 019c 6D736700 		.ascii	"msg\000"
 4127 01a0 01       		.byte	0x1
 4128 01a1 0701     		.2byte	0x107
 4129 01a3 FA020000 		.4byte	0x2fa
 4130 01a7 F5300000 		.4byte	.LLST13
 4131 01ab 0C       		.uleb128 0xc
 4132 01ac 6C656E00 		.ascii	"len\000"
 4133 01b0 01       		.byte	0x1
 4134 01b1 0701     		.2byte	0x107
 4135 01b3 8C000000 		.4byte	0x8c
 4136 01b7 63310000 		.4byte	.LLST14
 4137 01bb 0D       		.uleb128 0xd
 4138 01bc 36010000 		.4byte	.LASF18
 4139 01c0 01       		.byte	0x1
 4140 01c1 0901     		.2byte	0x109
 4141 01c3 05030000 		.4byte	0x305
 4142 01c7 03       		.uleb128 0x3
 4143 01c8 91       		.byte	0x91
 4144 01c9 947F     		.sleb128 -108
 4145 01cb 0E       		.uleb128 0xe
 4146 01cc 1C000000 		.4byte	.LBB2
 4147 01d0 30000000 		.4byte	.LBE2-.LBB2
 4148 01d4 31020000 		.4byte	0x231
 4149 01d8 0F       		.uleb128 0xf
 4150 01d9 6900     		.ascii	"i\000"
 4151 01db 01       		.byte	0x1
 4152 01dc 0B01     		.2byte	0x10b
 4153 01de 8C000000 		.4byte	0x8c
 4154 01e2 8F310000 		.4byte	.LLST15
 4155 01e6 10       		.uleb128 0x10
 4156 01e7 22000000 		.4byte	.LBB3
 4157 01eb 2A000000 		.4byte	.LBE3-.LBB3
 4158 01ef 0D       		.uleb128 0xd
 4159 01f0 C7000000 		.4byte	.LASF19
 4160 01f4 01       		.byte	0x1
 4161 01f5 0D01     		.2byte	0x10d
 4162 01f7 15030000 		.4byte	0x315
 4163 01fb 03       		.uleb128 0x3
 4164 01fc 91       		.byte	0x91
 4165 01fd A87F     		.sleb128 -88
ARM GAS  C:\Users\Ray\AppData\Local\Temp\ccn0usL8.s 			page 82


 4166 01ff 0E       		.uleb128 0xe
 4167 0200 22000000 		.4byte	.LBB4
 4168 0204 20000000 		.4byte	.LBE4-.LBB4
 4169 0208 17020000 		.4byte	0x217
 4170 020c 11       		.uleb128 0x11
 4171 020d 6A00     		.ascii	"j\000"
 4172 020f 01       		.byte	0x1
 4173 0210 0F01     		.2byte	0x10f
 4174 0212 73000000 		.4byte	0x73
 4175 0216 00       		.byte	0
 4176 0217 12       		.uleb128 0x12
 4177 0218 4A000000 		.4byte	.LVL844
 4178 021c AC000000 		.4byte	0xac
 4179 0220 13       		.uleb128 0x13
 4180 0221 01       		.uleb128 0x1
 4181 0222 50       		.byte	0x50
 4182 0223 03       		.uleb128 0x3
 4183 0224 91       		.byte	0x91
 4184 0225 947F     		.sleb128 -108
 4185 0227 13       		.uleb128 0x13
 4186 0228 01       		.uleb128 0x1
 4187 0229 51       		.byte	0x51
 4188 022a 03       		.uleb128 0x3
 4189 022b 91       		.byte	0x91
 4190 022c A87F     		.sleb128 -88
 4191 022e 00       		.byte	0
 4192 022f 00       		.byte	0
 4193 0230 00       		.byte	0
 4194 0231 0E       		.uleb128 0xe
 4195 0232 4C000000 		.4byte	.LBB5
 4196 0236 80000000 		.4byte	.LBE5-.LBB5
 4197 023a DB020000 		.4byte	0x2db
 4198 023e 0D       		.uleb128 0xd
 4199 023f C7000000 		.4byte	.LASF19
 4200 0243 01       		.byte	0x1
 4201 0244 1C01     		.2byte	0x11c
 4202 0246 15030000 		.4byte	0x315
 4203 024a 03       		.uleb128 0x3
 4204 024b 91       		.byte	0x91
 4205 024c A87F     		.sleb128 -88
 4206 024e 0E       		.uleb128 0xe
 4207 024f 58000000 		.4byte	.LBB6
 4208 0253 30000000 		.4byte	.LBE6-.LBB6
 4209 0257 6A020000 		.4byte	0x26a
 4210 025b 0F       		.uleb128 0xf
 4211 025c 6900     		.ascii	"i\000"
 4212 025e 01       		.byte	0x1
 4213 025f 1E01     		.2byte	0x11e
 4214 0261 8C000000 		.4byte	0x8c
 4215 0265 A3310000 		.4byte	.LLST16
 4216 0269 00       		.byte	0
 4217 026a 14       		.uleb128 0x14
 4218 026b 58000000 		.4byte	.LVL846
 4219 026f 25030000 		.4byte	0x325
 4220 0273 89020000 		.4byte	0x289
 4221 0277 13       		.uleb128 0x13
 4222 0278 01       		.uleb128 0x1
ARM GAS  C:\Users\Ray\AppData\Local\Temp\ccn0usL8.s 			page 83


 4223 0279 50       		.byte	0x50
 4224 027a 02       		.uleb128 0x2
 4225 027b 74       		.byte	0x74
 4226 027c 00       		.sleb128 0
 4227 027d 13       		.uleb128 0x13
 4228 027e 01       		.uleb128 0x1
 4229 027f 51       		.byte	0x51
 4230 0280 01       		.uleb128 0x1
 4231 0281 30       		.byte	0x30
 4232 0282 13       		.uleb128 0x13
 4233 0283 01       		.uleb128 0x1
 4234 0284 52       		.byte	0x52
 4235 0285 02       		.uleb128 0x2
 4236 0286 08       		.byte	0x8
 4237 0287 40       		.byte	0x40
 4238 0288 00       		.byte	0
 4239 0289 14       		.uleb128 0x14
 4240 028a AE000000 		.4byte	.LVL856
 4241 028e AC000000 		.4byte	0xac
 4242 0292 A4020000 		.4byte	0x2a4
 4243 0296 13       		.uleb128 0x13
 4244 0297 01       		.uleb128 0x1
 4245 0298 50       		.byte	0x50
 4246 0299 03       		.uleb128 0x3
 4247 029a 91       		.byte	0x91
 4248 029b 947F     		.sleb128 -108
 4249 029d 13       		.uleb128 0x13
 4250 029e 01       		.uleb128 0x1
 4251 029f 51       		.byte	0x51
 4252 02a0 02       		.uleb128 0x2
 4253 02a1 74       		.byte	0x74
 4254 02a2 00       		.sleb128 0
 4255 02a3 00       		.byte	0
 4256 02a4 14       		.uleb128 0x14
 4257 02a5 B8000000 		.4byte	.LVL857
 4258 02a9 25030000 		.4byte	0x325
 4259 02ad C3020000 		.4byte	0x2c3
 4260 02b1 13       		.uleb128 0x13
 4261 02b2 01       		.uleb128 0x1
 4262 02b3 50       		.byte	0x50
 4263 02b4 02       		.uleb128 0x2
 4264 02b5 74       		.byte	0x74
 4265 02b6 00       		.sleb128 0
 4266 02b7 13       		.uleb128 0x13
 4267 02b8 01       		.uleb128 0x1
 4268 02b9 51       		.byte	0x51
 4269 02ba 01       		.uleb128 0x1
 4270 02bb 30       		.byte	0x30
 4271 02bc 13       		.uleb128 0x13
 4272 02bd 01       		.uleb128 0x1
 4273 02be 52       		.byte	0x52
 4274 02bf 02       		.uleb128 0x2
 4275 02c0 08       		.byte	0x8
 4276 02c1 40       		.byte	0x40
 4277 02c2 00       		.byte	0
 4278 02c3 12       		.uleb128 0x12
 4279 02c4 C8000000 		.4byte	.LVL859
ARM GAS  C:\Users\Ray\AppData\Local\Temp\ccn0usL8.s 			page 84


 4280 02c8 AC000000 		.4byte	0xac
 4281 02cc 13       		.uleb128 0x13
 4282 02cd 01       		.uleb128 0x1
 4283 02ce 50       		.byte	0x50
 4284 02cf 03       		.uleb128 0x3
 4285 02d0 91       		.byte	0x91
 4286 02d1 947F     		.sleb128 -108
 4287 02d3 13       		.uleb128 0x13
 4288 02d4 01       		.uleb128 0x1
 4289 02d5 51       		.byte	0x51
 4290 02d6 02       		.uleb128 0x2
 4291 02d7 74       		.byte	0x74
 4292 02d8 00       		.sleb128 0
 4293 02d9 00       		.byte	0
 4294 02da 00       		.byte	0
 4295 02db 10       		.uleb128 0x10
 4296 02dc CC000000 		.4byte	.LBB7
 4297 02e0 1A000000 		.4byte	.LBE7-.LBB7
 4298 02e4 0F       		.uleb128 0xf
 4299 02e5 6900     		.ascii	"i\000"
 4300 02e7 01       		.byte	0x1
 4301 02e8 2E01     		.2byte	0x12e
 4302 02ea 73000000 		.4byte	0x73
 4303 02ee FE310000 		.4byte	.LLST17
 4304 02f2 00       		.byte	0
 4305 02f3 00       		.byte	0
 4306 02f4 09       		.uleb128 0x9
 4307 02f5 04       		.byte	0x4
 4308 02f6 81000000 		.4byte	0x81
 4309 02fa 09       		.uleb128 0x9
 4310 02fb 04       		.byte	0x4
 4311 02fc 00030000 		.4byte	0x300
 4312 0300 15       		.uleb128 0x15
 4313 0301 81000000 		.4byte	0x81
 4314 0305 16       		.uleb128 0x16
 4315 0306 8C000000 		.4byte	0x8c
 4316 030a 15030000 		.4byte	0x315
 4317 030e 17       		.uleb128 0x17
 4318 030f 9E000000 		.4byte	0x9e
 4319 0313 04       		.byte	0x4
 4320 0314 00       		.byte	0
 4321 0315 16       		.uleb128 0x16
 4322 0316 8C000000 		.4byte	0x8c
 4323 031a 25030000 		.4byte	0x325
 4324 031e 17       		.uleb128 0x17
 4325 031f 9E000000 		.4byte	0x9e
 4326 0323 0F       		.byte	0xf
 4327 0324 00       		.byte	0
 4328 0325 18       		.uleb128 0x18
 4329 0326 B5000000 		.4byte	.LASF25
 4330 032a B5000000 		.4byte	.LASF25
 4331 032e 00       		.byte	0
 4332              		.section	.debug_abbrev,"",%progbits
 4333              	.Ldebug_abbrev0:
 4334 0000 01       		.uleb128 0x1
 4335 0001 11       		.uleb128 0x11
 4336 0002 01       		.byte	0x1
ARM GAS  C:\Users\Ray\AppData\Local\Temp\ccn0usL8.s 			page 85


 4337 0003 25       		.uleb128 0x25
 4338 0004 0E       		.uleb128 0xe
 4339 0005 13       		.uleb128 0x13
 4340 0006 0B       		.uleb128 0xb
 4341 0007 03       		.uleb128 0x3
 4342 0008 0E       		.uleb128 0xe
 4343 0009 1B       		.uleb128 0x1b
 4344 000a 0E       		.uleb128 0xe
 4345 000b 55       		.uleb128 0x55
 4346 000c 17       		.uleb128 0x17
 4347 000d 11       		.uleb128 0x11
 4348 000e 01       		.uleb128 0x1
 4349 000f 10       		.uleb128 0x10
 4350 0010 17       		.uleb128 0x17
 4351 0011 00       		.byte	0
 4352 0012 00       		.byte	0
 4353 0013 02       		.uleb128 0x2
 4354 0014 24       		.uleb128 0x24
 4355 0015 00       		.byte	0
 4356 0016 0B       		.uleb128 0xb
 4357 0017 0B       		.uleb128 0xb
 4358 0018 3E       		.uleb128 0x3e
 4359 0019 0B       		.uleb128 0xb
 4360 001a 03       		.uleb128 0x3
 4361 001b 0E       		.uleb128 0xe
 4362 001c 00       		.byte	0
 4363 001d 00       		.byte	0
 4364 001e 03       		.uleb128 0x3
 4365 001f 16       		.uleb128 0x16
 4366 0020 00       		.byte	0
 4367 0021 03       		.uleb128 0x3
 4368 0022 0E       		.uleb128 0xe
 4369 0023 3A       		.uleb128 0x3a
 4370 0024 0B       		.uleb128 0xb
 4371 0025 3B       		.uleb128 0x3b
 4372 0026 0B       		.uleb128 0xb
 4373 0027 49       		.uleb128 0x49
 4374 0028 13       		.uleb128 0x13
 4375 0029 00       		.byte	0
 4376 002a 00       		.byte	0
 4377 002b 04       		.uleb128 0x4
 4378 002c 24       		.uleb128 0x24
 4379 002d 00       		.byte	0
 4380 002e 0B       		.uleb128 0xb
 4381 002f 0B       		.uleb128 0xb
 4382 0030 3E       		.uleb128 0x3e
 4383 0031 0B       		.uleb128 0xb
 4384 0032 03       		.uleb128 0x3
 4385 0033 08       		.uleb128 0x8
 4386 0034 00       		.byte	0
 4387 0035 00       		.byte	0
 4388 0036 05       		.uleb128 0x5
 4389 0037 2E       		.uleb128 0x2e
 4390 0038 01       		.byte	0x1
 4391 0039 03       		.uleb128 0x3
 4392 003a 0E       		.uleb128 0xe
 4393 003b 3A       		.uleb128 0x3a
ARM GAS  C:\Users\Ray\AppData\Local\Temp\ccn0usL8.s 			page 86


 4394 003c 0B       		.uleb128 0xb
 4395 003d 3B       		.uleb128 0x3b
 4396 003e 0B       		.uleb128 0xb
 4397 003f 27       		.uleb128 0x27
 4398 0040 19       		.uleb128 0x19
 4399 0041 11       		.uleb128 0x11
 4400 0042 01       		.uleb128 0x1
 4401 0043 12       		.uleb128 0x12
 4402 0044 06       		.uleb128 0x6
 4403 0045 40       		.uleb128 0x40
 4404 0046 18       		.uleb128 0x18
 4405 0047 9742     		.uleb128 0x2117
 4406 0049 19       		.uleb128 0x19
 4407 004a 01       		.uleb128 0x1
 4408 004b 13       		.uleb128 0x13
 4409 004c 00       		.byte	0
 4410 004d 00       		.byte	0
 4411 004e 06       		.uleb128 0x6
 4412 004f 05       		.uleb128 0x5
 4413 0050 00       		.byte	0
 4414 0051 03       		.uleb128 0x3
 4415 0052 0E       		.uleb128 0xe
 4416 0053 3A       		.uleb128 0x3a
 4417 0054 0B       		.uleb128 0xb
 4418 0055 3B       		.uleb128 0x3b
 4419 0056 0B       		.uleb128 0xb
 4420 0057 49       		.uleb128 0x49
 4421 0058 13       		.uleb128 0x13
 4422 0059 02       		.uleb128 0x2
 4423 005a 17       		.uleb128 0x17
 4424 005b 00       		.byte	0
 4425 005c 00       		.byte	0
 4426 005d 07       		.uleb128 0x7
 4427 005e 05       		.uleb128 0x5
 4428 005f 00       		.byte	0
 4429 0060 03       		.uleb128 0x3
 4430 0061 08       		.uleb128 0x8
 4431 0062 3A       		.uleb128 0x3a
 4432 0063 0B       		.uleb128 0xb
 4433 0064 3B       		.uleb128 0x3b
 4434 0065 0B       		.uleb128 0xb
 4435 0066 49       		.uleb128 0x49
 4436 0067 13       		.uleb128 0x13
 4437 0068 02       		.uleb128 0x2
 4438 0069 17       		.uleb128 0x17
 4439 006a 00       		.byte	0
 4440 006b 00       		.byte	0
 4441 006c 08       		.uleb128 0x8
 4442 006d 34       		.uleb128 0x34
 4443 006e 00       		.byte	0
 4444 006f 03       		.uleb128 0x3
 4445 0070 08       		.uleb128 0x8
 4446 0071 3A       		.uleb128 0x3a
 4447 0072 0B       		.uleb128 0xb
 4448 0073 3B       		.uleb128 0x3b
 4449 0074 0B       		.uleb128 0xb
 4450 0075 49       		.uleb128 0x49
ARM GAS  C:\Users\Ray\AppData\Local\Temp\ccn0usL8.s 			page 87


 4451 0076 13       		.uleb128 0x13
 4452 0077 02       		.uleb128 0x2
 4453 0078 17       		.uleb128 0x17
 4454 0079 00       		.byte	0
 4455 007a 00       		.byte	0
 4456 007b 09       		.uleb128 0x9
 4457 007c 0F       		.uleb128 0xf
 4458 007d 00       		.byte	0
 4459 007e 0B       		.uleb128 0xb
 4460 007f 0B       		.uleb128 0xb
 4461 0080 49       		.uleb128 0x49
 4462 0081 13       		.uleb128 0x13
 4463 0082 00       		.byte	0
 4464 0083 00       		.byte	0
 4465 0084 0A       		.uleb128 0xa
 4466 0085 2E       		.uleb128 0x2e
 4467 0086 01       		.byte	0x1
 4468 0087 3F       		.uleb128 0x3f
 4469 0088 19       		.uleb128 0x19
 4470 0089 03       		.uleb128 0x3
 4471 008a 0E       		.uleb128 0xe
 4472 008b 3A       		.uleb128 0x3a
 4473 008c 0B       		.uleb128 0xb
 4474 008d 3B       		.uleb128 0x3b
 4475 008e 05       		.uleb128 0x5
 4476 008f 27       		.uleb128 0x27
 4477 0090 19       		.uleb128 0x19
 4478 0091 11       		.uleb128 0x11
 4479 0092 01       		.uleb128 0x1
 4480 0093 12       		.uleb128 0x12
 4481 0094 06       		.uleb128 0x6
 4482 0095 40       		.uleb128 0x40
 4483 0096 18       		.uleb128 0x18
 4484 0097 9742     		.uleb128 0x2117
 4485 0099 19       		.uleb128 0x19
 4486 009a 01       		.uleb128 0x1
 4487 009b 13       		.uleb128 0x13
 4488 009c 00       		.byte	0
 4489 009d 00       		.byte	0
 4490 009e 0B       		.uleb128 0xb
 4491 009f 05       		.uleb128 0x5
 4492 00a0 00       		.byte	0
 4493 00a1 03       		.uleb128 0x3
 4494 00a2 0E       		.uleb128 0xe
 4495 00a3 3A       		.uleb128 0x3a
 4496 00a4 0B       		.uleb128 0xb
 4497 00a5 3B       		.uleb128 0x3b
 4498 00a6 05       		.uleb128 0x5
 4499 00a7 49       		.uleb128 0x49
 4500 00a8 13       		.uleb128 0x13
 4501 00a9 02       		.uleb128 0x2
 4502 00aa 17       		.uleb128 0x17
 4503 00ab 00       		.byte	0
 4504 00ac 00       		.byte	0
 4505 00ad 0C       		.uleb128 0xc
 4506 00ae 05       		.uleb128 0x5
 4507 00af 00       		.byte	0
ARM GAS  C:\Users\Ray\AppData\Local\Temp\ccn0usL8.s 			page 88


 4508 00b0 03       		.uleb128 0x3
 4509 00b1 08       		.uleb128 0x8
 4510 00b2 3A       		.uleb128 0x3a
 4511 00b3 0B       		.uleb128 0xb
 4512 00b4 3B       		.uleb128 0x3b
 4513 00b5 05       		.uleb128 0x5
 4514 00b6 49       		.uleb128 0x49
 4515 00b7 13       		.uleb128 0x13
 4516 00b8 02       		.uleb128 0x2
 4517 00b9 17       		.uleb128 0x17
 4518 00ba 00       		.byte	0
 4519 00bb 00       		.byte	0
 4520 00bc 0D       		.uleb128 0xd
 4521 00bd 34       		.uleb128 0x34
 4522 00be 00       		.byte	0
 4523 00bf 03       		.uleb128 0x3
 4524 00c0 0E       		.uleb128 0xe
 4525 00c1 3A       		.uleb128 0x3a
 4526 00c2 0B       		.uleb128 0xb
 4527 00c3 3B       		.uleb128 0x3b
 4528 00c4 05       		.uleb128 0x5
 4529 00c5 49       		.uleb128 0x49
 4530 00c6 13       		.uleb128 0x13
 4531 00c7 02       		.uleb128 0x2
 4532 00c8 18       		.uleb128 0x18
 4533 00c9 00       		.byte	0
 4534 00ca 00       		.byte	0
 4535 00cb 0E       		.uleb128 0xe
 4536 00cc 0B       		.uleb128 0xb
 4537 00cd 01       		.byte	0x1
 4538 00ce 11       		.uleb128 0x11
 4539 00cf 01       		.uleb128 0x1
 4540 00d0 12       		.uleb128 0x12
 4541 00d1 06       		.uleb128 0x6
 4542 00d2 01       		.uleb128 0x1
 4543 00d3 13       		.uleb128 0x13
 4544 00d4 00       		.byte	0
 4545 00d5 00       		.byte	0
 4546 00d6 0F       		.uleb128 0xf
 4547 00d7 34       		.uleb128 0x34
 4548 00d8 00       		.byte	0
 4549 00d9 03       		.uleb128 0x3
 4550 00da 08       		.uleb128 0x8
 4551 00db 3A       		.uleb128 0x3a
 4552 00dc 0B       		.uleb128 0xb
 4553 00dd 3B       		.uleb128 0x3b
 4554 00de 05       		.uleb128 0x5
 4555 00df 49       		.uleb128 0x49
 4556 00e0 13       		.uleb128 0x13
 4557 00e1 02       		.uleb128 0x2
 4558 00e2 17       		.uleb128 0x17
 4559 00e3 00       		.byte	0
 4560 00e4 00       		.byte	0
 4561 00e5 10       		.uleb128 0x10
 4562 00e6 0B       		.uleb128 0xb
 4563 00e7 01       		.byte	0x1
 4564 00e8 11       		.uleb128 0x11
ARM GAS  C:\Users\Ray\AppData\Local\Temp\ccn0usL8.s 			page 89


 4565 00e9 01       		.uleb128 0x1
 4566 00ea 12       		.uleb128 0x12
 4567 00eb 06       		.uleb128 0x6
 4568 00ec 00       		.byte	0
 4569 00ed 00       		.byte	0
 4570 00ee 11       		.uleb128 0x11
 4571 00ef 34       		.uleb128 0x34
 4572 00f0 00       		.byte	0
 4573 00f1 03       		.uleb128 0x3
 4574 00f2 08       		.uleb128 0x8
 4575 00f3 3A       		.uleb128 0x3a
 4576 00f4 0B       		.uleb128 0xb
 4577 00f5 3B       		.uleb128 0x3b
 4578 00f6 05       		.uleb128 0x5
 4579 00f7 49       		.uleb128 0x49
 4580 00f8 13       		.uleb128 0x13
 4581 00f9 00       		.byte	0
 4582 00fa 00       		.byte	0
 4583 00fb 12       		.uleb128 0x12
 4584 00fc 898201   		.uleb128 0x4109
 4585 00ff 01       		.byte	0x1
 4586 0100 11       		.uleb128 0x11
 4587 0101 01       		.uleb128 0x1
 4588 0102 31       		.uleb128 0x31
 4589 0103 13       		.uleb128 0x13
 4590 0104 00       		.byte	0
 4591 0105 00       		.byte	0
 4592 0106 13       		.uleb128 0x13
 4593 0107 8A8201   		.uleb128 0x410a
 4594 010a 00       		.byte	0
 4595 010b 02       		.uleb128 0x2
 4596 010c 18       		.uleb128 0x18
 4597 010d 9142     		.uleb128 0x2111
 4598 010f 18       		.uleb128 0x18
 4599 0110 00       		.byte	0
 4600 0111 00       		.byte	0
 4601 0112 14       		.uleb128 0x14
 4602 0113 898201   		.uleb128 0x4109
 4603 0116 01       		.byte	0x1
 4604 0117 11       		.uleb128 0x11
 4605 0118 01       		.uleb128 0x1
 4606 0119 31       		.uleb128 0x31
 4607 011a 13       		.uleb128 0x13
 4608 011b 01       		.uleb128 0x1
 4609 011c 13       		.uleb128 0x13
 4610 011d 00       		.byte	0
 4611 011e 00       		.byte	0
 4612 011f 15       		.uleb128 0x15
 4613 0120 26       		.uleb128 0x26
 4614 0121 00       		.byte	0
 4615 0122 49       		.uleb128 0x49
 4616 0123 13       		.uleb128 0x13
 4617 0124 00       		.byte	0
 4618 0125 00       		.byte	0
 4619 0126 16       		.uleb128 0x16
 4620 0127 01       		.uleb128 0x1
 4621 0128 01       		.byte	0x1
ARM GAS  C:\Users\Ray\AppData\Local\Temp\ccn0usL8.s 			page 90


 4622 0129 49       		.uleb128 0x49
 4623 012a 13       		.uleb128 0x13
 4624 012b 01       		.uleb128 0x1
 4625 012c 13       		.uleb128 0x13
 4626 012d 00       		.byte	0
 4627 012e 00       		.byte	0
 4628 012f 17       		.uleb128 0x17
 4629 0130 21       		.uleb128 0x21
 4630 0131 00       		.byte	0
 4631 0132 49       		.uleb128 0x49
 4632 0133 13       		.uleb128 0x13
 4633 0134 2F       		.uleb128 0x2f
 4634 0135 0B       		.uleb128 0xb
 4635 0136 00       		.byte	0
 4636 0137 00       		.byte	0
 4637 0138 18       		.uleb128 0x18
 4638 0139 2E       		.uleb128 0x2e
 4639 013a 00       		.byte	0
 4640 013b 3F       		.uleb128 0x3f
 4641 013c 19       		.uleb128 0x19
 4642 013d 3C       		.uleb128 0x3c
 4643 013e 19       		.uleb128 0x19
 4644 013f 6E       		.uleb128 0x6e
 4645 0140 0E       		.uleb128 0xe
 4646 0141 03       		.uleb128 0x3
 4647 0142 0E       		.uleb128 0xe
 4648 0143 00       		.byte	0
 4649 0144 00       		.byte	0
 4650 0145 00       		.byte	0
 4651              		.section	.debug_loc,"",%progbits
 4652              	.Ldebug_loc0:
 4653              	.LLST0:
 4654 0000 00000000 		.4byte	.LVL0
 4655 0004 26000000 		.4byte	.LVL5
 4656 0008 0100     		.2byte	0x1
 4657 000a 50       		.byte	0x50
 4658 000b 26000000 		.4byte	.LVL5
 4659 000f FA120000 		.4byte	.LVL834
 4660 0013 0100     		.2byte	0x1
 4661 0015 54       		.byte	0x54
 4662 0016 FA120000 		.4byte	.LVL834
 4663 001a FC120000 		.4byte	.LFE0
 4664 001e 0400     		.2byte	0x4
 4665 0020 F3       		.byte	0xf3
 4666 0021 01       		.uleb128 0x1
 4667 0022 50       		.byte	0x50
 4668 0023 9F       		.byte	0x9f
 4669 0024 00000000 		.4byte	0
 4670 0028 00000000 		.4byte	0
 4671              	.LLST1:
 4672 002c 00000000 		.4byte	.LVL0
 4673 0030 12000000 		.4byte	.LVL2
 4674 0034 0100     		.2byte	0x1
 4675 0036 51       		.byte	0x51
 4676 0037 12000000 		.4byte	.LVL2
 4677 003b 08020000 		.4byte	.LVL93
 4678 003f 0200     		.2byte	0x2
ARM GAS  C:\Users\Ray\AppData\Local\Temp\ccn0usL8.s 			page 91


 4679 0041 7D       		.byte	0x7d
 4680 0042 00       		.sleb128 0
 4681 0043 08020000 		.4byte	.LVL93
 4682 0047 FC120000 		.4byte	.LFE0
 4683 004b 0400     		.2byte	0x4
 4684 004d F3       		.byte	0xf3
 4685 004e 01       		.uleb128 0x1
 4686 004f 51       		.byte	0x51
 4687 0050 9F       		.byte	0x9f
 4688 0051 00000000 		.4byte	0
 4689 0055 00000000 		.4byte	0
 4690              	.LLST2:
 4691 0059 00000000 		.4byte	.LVL0
 4692 005d 10000000 		.4byte	.LVL1
 4693 0061 0200     		.2byte	0x2
 4694 0063 70       		.byte	0x70
 4695 0064 00       		.sleb128 0
 4696 0065 10000000 		.4byte	.LVL1
 4697 0069 1E000000 		.4byte	.LVL3
 4698 006d 0F00     		.2byte	0xf
 4699 006f 70       		.byte	0x70
 4700 0070 04       		.sleb128 4
 4701 0071 06       		.byte	0x6
 4702 0072 70       		.byte	0x70
 4703 0073 08       		.sleb128 8
 4704 0074 06       		.byte	0x6
 4705 0075 27       		.byte	0x27
 4706 0076 70       		.byte	0x70
 4707 0077 0C       		.sleb128 12
 4708 0078 06       		.byte	0x6
 4709 0079 27       		.byte	0x27
 4710 007a 73       		.byte	0x73
 4711 007b 00       		.sleb128 0
 4712 007c 22       		.byte	0x22
 4713 007d 9F       		.byte	0x9f
 4714 007e 1E000000 		.4byte	.LVL3
 4715 0082 22000000 		.4byte	.LVL4
 4716 0086 0100     		.2byte	0x1
 4717 0088 52       		.byte	0x52
 4718 0089 22000000 		.4byte	.LVL4
 4719 008d 26000000 		.4byte	.LVL5
 4720 0091 1500     		.2byte	0x15
 4721 0093 70       		.byte	0x70
 4722 0094 04       		.sleb128 4
 4723 0095 06       		.byte	0x6
 4724 0096 70       		.byte	0x70
 4725 0097 08       		.sleb128 8
 4726 0098 06       		.byte	0x6
 4727 0099 27       		.byte	0x27
 4728 009a 70       		.byte	0x70
 4729 009b 0C       		.sleb128 12
 4730 009c 06       		.byte	0x6
 4731 009d 27       		.byte	0x27
 4732 009e 70       		.byte	0x70
 4733 009f 00       		.sleb128 0
 4734 00a0 06       		.byte	0x6
 4735 00a1 7D       		.byte	0x7d
ARM GAS  C:\Users\Ray\AppData\Local\Temp\ccn0usL8.s 			page 92


 4736 00a2 00       		.sleb128 0
 4737 00a3 06       		.byte	0x6
 4738 00a4 06       		.byte	0x6
 4739 00a5 22       		.byte	0x22
 4740 00a6 22       		.byte	0x22
 4741 00a7 9F       		.byte	0x9f
 4742 00a8 26000000 		.4byte	.LVL5
 4743 00ac 28000000 		.4byte	.LVL6
 4744 00b0 1400     		.2byte	0x14
 4745 00b2 74       		.byte	0x74
 4746 00b3 04       		.sleb128 4
 4747 00b4 06       		.byte	0x6
 4748 00b5 74       		.byte	0x74
 4749 00b6 08       		.sleb128 8
 4750 00b7 06       		.byte	0x6
 4751 00b8 27       		.byte	0x27
 4752 00b9 71       		.byte	0x71
 4753 00ba 00       		.sleb128 0
 4754 00bb 27       		.byte	0x27
 4755 00bc 74       		.byte	0x74
 4756 00bd 00       		.sleb128 0
 4757 00be 06       		.byte	0x6
 4758 00bf 7D       		.byte	0x7d
 4759 00c0 00       		.sleb128 0
 4760 00c1 06       		.byte	0x6
 4761 00c2 06       		.byte	0x6
 4762 00c3 22       		.byte	0x22
 4763 00c4 22       		.byte	0x22
 4764 00c5 9F       		.byte	0x9f
 4765 00c6 28000000 		.4byte	.LVL6
 4766 00ca 70000000 		.4byte	.LVL19
 4767 00ce 0100     		.2byte	0x1
 4768 00d0 52       		.byte	0x52
 4769 00d1 70000000 		.4byte	.LVL19
 4770 00d5 72000000 		.4byte	.LVL20
 4771 00d9 2300     		.2byte	0x23
 4772 00db 74       		.byte	0x74
 4773 00dc 04       		.sleb128 4
 4774 00dd 06       		.byte	0x6
 4775 00de 74       		.byte	0x74
 4776 00df 08       		.sleb128 8
 4777 00e0 06       		.byte	0x6
 4778 00e1 27       		.byte	0x27
 4779 00e2 74       		.byte	0x74
 4780 00e3 0C       		.sleb128 12
 4781 00e4 06       		.byte	0x6
 4782 00e5 27       		.byte	0x27
 4783 00e6 74       		.byte	0x74
 4784 00e7 00       		.sleb128 0
 4785 00e8 06       		.byte	0x6
 4786 00e9 7D       		.byte	0x7d
 4787 00ea 00       		.sleb128 0
 4788 00eb 06       		.byte	0x6
 4789 00ec 06       		.byte	0x6
 4790 00ed 22       		.byte	0x22
 4791 00ee 22       		.byte	0x22
 4792 00ef 45       		.byte	0x45
ARM GAS  C:\Users\Ray\AppData\Local\Temp\ccn0usL8.s 			page 93


 4793 00f0 14       		.byte	0x14
 4794 00f1 14       		.byte	0x14
 4795 00f2 1F       		.byte	0x1f
 4796 00f3 23       		.byte	0x23
 4797 00f4 20       		.uleb128 0x20
 4798 00f5 24       		.byte	0x24
 4799 00f6 17       		.byte	0x17
 4800 00f7 25       		.byte	0x25
 4801 00f8 21       		.byte	0x21
 4802 00f9 74       		.byte	0x74
 4803 00fa 10       		.sleb128 16
 4804 00fb 06       		.byte	0x6
 4805 00fc 22       		.byte	0x22
 4806 00fd 9F       		.byte	0x9f
 4807 00fe 72000000 		.4byte	.LVL20
 4808 0102 B4000000 		.4byte	.LVL29
 4809 0106 0100     		.2byte	0x1
 4810 0108 52       		.byte	0x52
 4811 0109 B4000000 		.4byte	.LVL29
 4812 010d C0000000 		.4byte	.LVL30
 4813 0111 0C00     		.2byte	0xc
 4814 0113 77       		.byte	0x77
 4815 0114 00       		.sleb128 0
 4816 0115 75       		.byte	0x75
 4817 0116 00       		.sleb128 0
 4818 0117 27       		.byte	0x27
 4819 0118 76       		.byte	0x76
 4820 0119 00       		.sleb128 0
 4821 011a 27       		.byte	0x27
 4822 011b 72       		.byte	0x72
 4823 011c 00       		.sleb128 0
 4824 011d 22       		.byte	0x22
 4825 011e 9F       		.byte	0x9f
 4826 011f C0000000 		.4byte	.LVL30
 4827 0123 C2000000 		.4byte	.LVL31
 4828 0127 0100     		.2byte	0x1
 4829 0129 52       		.byte	0x52
 4830 012a C2000000 		.4byte	.LVL31
 4831 012e C6000000 		.4byte	.LVL32
 4832 0132 3E00     		.2byte	0x3e
 4833 0134 77       		.byte	0x77
 4834 0135 00       		.sleb128 0
 4835 0136 75       		.byte	0x75
 4836 0137 00       		.sleb128 0
 4837 0138 27       		.byte	0x27
 4838 0139 76       		.byte	0x76
 4839 013a 00       		.sleb128 0
 4840 013b 27       		.byte	0x27
 4841 013c 74       		.byte	0x74
 4842 013d 04       		.sleb128 4
 4843 013e 06       		.byte	0x6
 4844 013f 74       		.byte	0x74
 4845 0140 08       		.sleb128 8
 4846 0141 06       		.byte	0x6
 4847 0142 27       		.byte	0x27
 4848 0143 74       		.byte	0x74
 4849 0144 0C       		.sleb128 12
ARM GAS  C:\Users\Ray\AppData\Local\Temp\ccn0usL8.s 			page 94


 4850 0145 06       		.byte	0x6
 4851 0146 27       		.byte	0x27
 4852 0147 74       		.byte	0x74
 4853 0148 00       		.sleb128 0
 4854 0149 06       		.byte	0x6
 4855 014a 7D       		.byte	0x7d
 4856 014b 00       		.sleb128 0
 4857 014c 06       		.byte	0x6
 4858 014d 06       		.byte	0x6
 4859 014e 22       		.byte	0x22
 4860 014f 22       		.byte	0x22
 4861 0150 45       		.byte	0x45
 4862 0151 14       		.byte	0x14
 4863 0152 14       		.byte	0x14
 4864 0153 1F       		.byte	0x1f
 4865 0154 23       		.byte	0x23
 4866 0155 20       		.uleb128 0x20
 4867 0156 24       		.byte	0x24
 4868 0157 17       		.byte	0x17
 4869 0158 25       		.byte	0x25
 4870 0159 21       		.byte	0x21
 4871 015a 74       		.byte	0x74
 4872 015b 10       		.sleb128 16
 4873 015c 06       		.byte	0x6
 4874 015d 22       		.byte	0x22
 4875 015e 70       		.byte	0x70
 4876 015f 00       		.sleb128 0
 4877 0160 14       		.byte	0x14
 4878 0161 14       		.byte	0x14
 4879 0162 1F       		.byte	0x1f
 4880 0163 23       		.byte	0x23
 4881 0164 20       		.uleb128 0x20
 4882 0165 24       		.byte	0x24
 4883 0166 17       		.byte	0x17
 4884 0167 25       		.byte	0x25
 4885 0168 21       		.byte	0x21
 4886 0169 7D       		.byte	0x7d
 4887 016a 00       		.sleb128 0
 4888 016b 06       		.byte	0x6
 4889 016c 23       		.byte	0x23
 4890 016d 14       		.uleb128 0x14
 4891 016e 06       		.byte	0x6
 4892 016f 22       		.byte	0x22
 4893 0170 22       		.byte	0x22
 4894 0171 9F       		.byte	0x9f
 4895 0172 C6000000 		.4byte	.LVL32
 4896 0176 36010000 		.4byte	.LVL54
 4897 017a 0100     		.2byte	0x1
 4898 017c 52       		.byte	0x52
 4899 017d 36010000 		.4byte	.LVL54
 4900 0181 42010000 		.4byte	.LVL55
 4901 0185 0C00     		.2byte	0xc
 4902 0187 77       		.byte	0x77
 4903 0188 00       		.sleb128 0
 4904 0189 75       		.byte	0x75
 4905 018a 00       		.sleb128 0
 4906 018b 27       		.byte	0x27
ARM GAS  C:\Users\Ray\AppData\Local\Temp\ccn0usL8.s 			page 95


 4907 018c 76       		.byte	0x76
 4908 018d 00       		.sleb128 0
 4909 018e 27       		.byte	0x27
 4910 018f 72       		.byte	0x72
 4911 0190 00       		.sleb128 0
 4912 0191 22       		.byte	0x22
 4913 0192 9F       		.byte	0x9f
 4914 0193 42010000 		.4byte	.LVL55
 4915 0197 44010000 		.4byte	.LVL56
 4916 019b 0100     		.2byte	0x1
 4917 019d 52       		.byte	0x52
 4918 019e 48010000 		.4byte	.LVL57
 4919 01a2 BC010000 		.4byte	.LVL79
 4920 01a6 0100     		.2byte	0x1
 4921 01a8 52       		.byte	0x52
 4922 01a9 BC010000 		.4byte	.LVL79
 4923 01ad C4010000 		.4byte	.LVL80
 4924 01b1 0C00     		.2byte	0xc
 4925 01b3 77       		.byte	0x77
 4926 01b4 00       		.sleb128 0
 4927 01b5 75       		.byte	0x75
 4928 01b6 00       		.sleb128 0
 4929 01b7 27       		.byte	0x27
 4930 01b8 76       		.byte	0x76
 4931 01b9 00       		.sleb128 0
 4932 01ba 27       		.byte	0x27
 4933 01bb 72       		.byte	0x72
 4934 01bc 00       		.sleb128 0
 4935 01bd 22       		.byte	0x22
 4936 01be 9F       		.byte	0x9f
 4937 01bf C4010000 		.4byte	.LVL80
 4938 01c3 C8010000 		.4byte	.LVL81
 4939 01c7 0100     		.2byte	0x1
 4940 01c9 52       		.byte	0x52
 4941 01ca CE010000 		.4byte	.LVL82
 4942 01ce 4E020000 		.4byte	.LVL106
 4943 01d2 0100     		.2byte	0x1
 4944 01d4 52       		.byte	0x52
 4945 01d5 4E020000 		.4byte	.LVL106
 4946 01d9 5A020000 		.4byte	.LVL107
 4947 01dd 0F00     		.2byte	0xf
 4948 01df 77       		.byte	0x77
 4949 01e0 00       		.sleb128 0
 4950 01e1 75       		.byte	0x75
 4951 01e2 00       		.sleb128 0
 4952 01e3 27       		.byte	0x27
 4953 01e4 7C       		.byte	0x7c
 4954 01e5 00       		.sleb128 0
 4955 01e6 1A       		.byte	0x1a
 4956 01e7 75       		.byte	0x75
 4957 01e8 00       		.sleb128 0
 4958 01e9 27       		.byte	0x27
 4959 01ea 72       		.byte	0x72
 4960 01eb 00       		.sleb128 0
 4961 01ec 22       		.byte	0x22
 4962 01ed 9F       		.byte	0x9f
 4963 01ee 5A020000 		.4byte	.LVL107
ARM GAS  C:\Users\Ray\AppData\Local\Temp\ccn0usL8.s 			page 96


 4964 01f2 5E020000 		.4byte	.LVL108
 4965 01f6 0100     		.2byte	0x1
 4966 01f8 56       		.byte	0x56
 4967 01f9 68020000 		.4byte	.LVL110
 4968 01fd E2020000 		.4byte	.LVL133
 4969 0201 0100     		.2byte	0x1
 4970 0203 56       		.byte	0x56
 4971 0204 E2020000 		.4byte	.LVL133
 4972 0208 EE020000 		.4byte	.LVL134
 4973 020c 1000     		.2byte	0x10
 4974 020e 77       		.byte	0x77
 4975 020f 00       		.sleb128 0
 4976 0210 75       		.byte	0x75
 4977 0211 00       		.sleb128 0
 4978 0212 27       		.byte	0x27
 4979 0213 7D       		.byte	0x7d
 4980 0214 00       		.sleb128 0
 4981 0215 06       		.byte	0x6
 4982 0216 1A       		.byte	0x1a
 4983 0217 75       		.byte	0x75
 4984 0218 00       		.sleb128 0
 4985 0219 27       		.byte	0x27
 4986 021a 76       		.byte	0x76
 4987 021b 00       		.sleb128 0
 4988 021c 22       		.byte	0x22
 4989 021d 9F       		.byte	0x9f
 4990 021e EE020000 		.4byte	.LVL134
 4991 0222 F2020000 		.4byte	.LVL135
 4992 0226 0100     		.2byte	0x1
 4993 0228 56       		.byte	0x56
 4994 0229 FA020000 		.4byte	.LVL137
 4995 022d 32030000 		.4byte	.LVL147
 4996 0231 0100     		.2byte	0x1
 4997 0233 56       		.byte	0x56
 4998 0234 36030000 		.4byte	.LVL148
 4999 0238 76030000 		.4byte	.LVL161
 5000 023c 0100     		.2byte	0x1
 5001 023e 56       		.byte	0x56
 5002 023f 76030000 		.4byte	.LVL161
 5003 0243 84030000 		.4byte	.LVL162
 5004 0247 1000     		.2byte	0x10
 5005 0249 7D       		.byte	0x7d
 5006 024a 00       		.sleb128 0
 5007 024b 06       		.byte	0x6
 5008 024c 75       		.byte	0x75
 5009 024d 00       		.sleb128 0
 5010 024e 27       		.byte	0x27
 5011 024f 7C       		.byte	0x7c
 5012 0250 00       		.sleb128 0
 5013 0251 1A       		.byte	0x1a
 5014 0252 75       		.byte	0x75
 5015 0253 00       		.sleb128 0
 5016 0254 27       		.byte	0x27
 5017 0255 76       		.byte	0x76
 5018 0256 00       		.sleb128 0
 5019 0257 22       		.byte	0x22
 5020 0258 9F       		.byte	0x9f
ARM GAS  C:\Users\Ray\AppData\Local\Temp\ccn0usL8.s 			page 97


 5021 0259 84030000 		.4byte	.LVL162
 5022 025d 86030000 		.4byte	.LVL163
 5023 0261 0100     		.2byte	0x1
 5024 0263 56       		.byte	0x56
 5025 0264 90030000 		.4byte	.LVL164
 5026 0268 02040000 		.4byte	.LVL186
 5027 026c 0100     		.2byte	0x1
 5028 026e 56       		.byte	0x56
 5029 026f 06040000 		.4byte	.LVL187
 5030 0273 0E040000 		.4byte	.LVL188
 5031 0277 0D00     		.2byte	0xd
 5032 0279 7C       		.byte	0x7c
 5033 027a 00       		.sleb128 0
 5034 027b 20       		.byte	0x20
 5035 027c 71       		.byte	0x71
 5036 027d 00       		.sleb128 0
 5037 027e 21       		.byte	0x21
 5038 027f 75       		.byte	0x75
 5039 0280 00       		.sleb128 0
 5040 0281 27       		.byte	0x27
 5041 0282 76       		.byte	0x76
 5042 0283 00       		.sleb128 0
 5043 0284 22       		.byte	0x22
 5044 0285 9F       		.byte	0x9f
 5045 0286 0E040000 		.4byte	.LVL188
 5046 028a 10040000 		.4byte	.LVL189
 5047 028e 0100     		.2byte	0x1
 5048 0290 57       		.byte	0x57
 5049 0291 10040000 		.4byte	.LVL189
 5050 0295 16040000 		.4byte	.LVL190
 5051 0299 0D00     		.2byte	0xd
 5052 029b 7C       		.byte	0x7c
 5053 029c 00       		.sleb128 0
 5054 029d 20       		.byte	0x20
 5055 029e 71       		.byte	0x71
 5056 029f 00       		.sleb128 0
 5057 02a0 21       		.byte	0x21
 5058 02a1 75       		.byte	0x75
 5059 02a2 00       		.sleb128 0
 5060 02a3 27       		.byte	0x27
 5061 02a4 76       		.byte	0x76
 5062 02a5 00       		.sleb128 0
 5063 02a6 22       		.byte	0x22
 5064 02a7 9F       		.byte	0x9f
 5065 02a8 1C040000 		.4byte	.LVL191
 5066 02ac 4C040000 		.4byte	.LVL202
 5067 02b0 0100     		.2byte	0x1
 5068 02b2 57       		.byte	0x57
 5069 02b3 54040000 		.4byte	.LVL203
 5070 02b7 88040000 		.4byte	.LVL215
 5071 02bb 0100     		.2byte	0x1
 5072 02bd 57       		.byte	0x57
 5073 02be 8C040000 		.4byte	.LVL216
 5074 02c2 94040000 		.4byte	.LVL217
 5075 02c6 0D00     		.2byte	0xd
 5076 02c8 7C       		.byte	0x7c
 5077 02c9 00       		.sleb128 0
ARM GAS  C:\Users\Ray\AppData\Local\Temp\ccn0usL8.s 			page 98


 5078 02ca 20       		.byte	0x20
 5079 02cb 75       		.byte	0x75
 5080 02cc 00       		.sleb128 0
 5081 02cd 21       		.byte	0x21
 5082 02ce 76       		.byte	0x76
 5083 02cf 00       		.sleb128 0
 5084 02d0 27       		.byte	0x27
 5085 02d1 77       		.byte	0x77
 5086 02d2 00       		.sleb128 0
 5087 02d3 22       		.byte	0x22
 5088 02d4 9F       		.byte	0x9f
 5089 02d5 94040000 		.4byte	.LVL217
 5090 02d9 96040000 		.4byte	.LVL218
 5091 02dd 0100     		.2byte	0x1
 5092 02df 57       		.byte	0x57
 5093 02e0 A2040000 		.4byte	.LVL220
 5094 02e4 D2040000 		.4byte	.LVL230
 5095 02e8 0100     		.2byte	0x1
 5096 02ea 57       		.byte	0x57
 5097 02eb DA040000 		.4byte	.LVL231
 5098 02ef 0C050000 		.4byte	.LVL242
 5099 02f3 0100     		.2byte	0x1
 5100 02f5 57       		.byte	0x57
 5101 02f6 12050000 		.4byte	.LVL243
 5102 02fa 1A050000 		.4byte	.LVL244
 5103 02fe 0D00     		.2byte	0xd
 5104 0300 7C       		.byte	0x7c
 5105 0301 00       		.sleb128 0
 5106 0302 20       		.byte	0x20
 5107 0303 75       		.byte	0x75
 5108 0304 00       		.sleb128 0
 5109 0305 21       		.byte	0x21
 5110 0306 76       		.byte	0x76
 5111 0307 00       		.sleb128 0
 5112 0308 27       		.byte	0x27
 5113 0309 77       		.byte	0x77
 5114 030a 00       		.sleb128 0
 5115 030b 22       		.byte	0x22
 5116 030c 9F       		.byte	0x9f
 5117 030d 1A050000 		.4byte	.LVL244
 5118 0311 1C050000 		.4byte	.LVL245
 5119 0315 0100     		.2byte	0x1
 5120 0317 53       		.byte	0x53
 5121 0318 1C050000 		.4byte	.LVL245
 5122 031c 20050000 		.4byte	.LVL246
 5123 0320 0D00     		.2byte	0xd
 5124 0322 7C       		.byte	0x7c
 5125 0323 00       		.sleb128 0
 5126 0324 20       		.byte	0x20
 5127 0325 75       		.byte	0x75
 5128 0326 00       		.sleb128 0
 5129 0327 21       		.byte	0x21
 5130 0328 76       		.byte	0x76
 5131 0329 00       		.sleb128 0
 5132 032a 27       		.byte	0x27
 5133 032b 77       		.byte	0x77
 5134 032c 00       		.sleb128 0
ARM GAS  C:\Users\Ray\AppData\Local\Temp\ccn0usL8.s 			page 99


 5135 032d 22       		.byte	0x22
 5136 032e 9F       		.byte	0x9f
 5137 032f 20050000 		.4byte	.LVL246
 5138 0333 24050000 		.4byte	.LVL247
 5139 0337 0100     		.2byte	0x1
 5140 0339 53       		.byte	0x53
 5141 033a 24050000 		.4byte	.LVL247
 5142 033e 62050000 		.4byte	.LVL258
 5143 0342 0200     		.2byte	0x2
 5144 0344 7D       		.byte	0x7d
 5145 0345 00       		.sleb128 0
 5146 0346 62050000 		.4byte	.LVL258
 5147 034a B2050000 		.4byte	.LVL271
 5148 034e 0100     		.2byte	0x1
 5149 0350 5C       		.byte	0x5c
 5150 0351 BA050000 		.4byte	.LVL273
 5151 0355 FC050000 		.4byte	.LVL282
 5152 0359 0100     		.2byte	0x1
 5153 035b 53       		.byte	0x53
 5154 035c 06060000 		.4byte	.LVL284
 5155 0360 44060000 		.4byte	.LVL295
 5156 0364 0100     		.2byte	0x1
 5157 0366 56       		.byte	0x56
 5158 0367 44060000 		.4byte	.LVL295
 5159 036b 50060000 		.4byte	.LVL296
 5160 036f 0F00     		.2byte	0xf
 5161 0371 73       		.byte	0x73
 5162 0372 00       		.sleb128 0
 5163 0373 71       		.byte	0x71
 5164 0374 00       		.sleb128 0
 5165 0375 27       		.byte	0x27
 5166 0376 77       		.byte	0x77
 5167 0377 00       		.sleb128 0
 5168 0378 1A       		.byte	0x1a
 5169 0379 73       		.byte	0x73
 5170 037a 00       		.sleb128 0
 5171 037b 27       		.byte	0x27
 5172 037c 76       		.byte	0x76
 5173 037d 00       		.sleb128 0
 5174 037e 22       		.byte	0x22
 5175 037f 9F       		.byte	0x9f
 5176 0380 52060000 		.4byte	.LVL297
 5177 0384 54060000 		.4byte	.LVL298
 5178 0388 0100     		.2byte	0x1
 5179 038a 55       		.byte	0x55
 5180 038b 5C060000 		.4byte	.LVL299
 5181 038f 96060000 		.4byte	.LVL310
 5182 0393 0100     		.2byte	0x1
 5183 0395 55       		.byte	0x55
 5184 0396 B0060000 		.4byte	.LVL313
 5185 039a B4060000 		.4byte	.LVL314
 5186 039e 0100     		.2byte	0x1
 5187 03a0 55       		.byte	0x55
 5188 03a1 B4060000 		.4byte	.LVL314
 5189 03a5 DC060000 		.4byte	.LVL322
 5190 03a9 0200     		.2byte	0x2
 5191 03ab 7D       		.byte	0x7d
ARM GAS  C:\Users\Ray\AppData\Local\Temp\ccn0usL8.s 			page 100


 5192 03ac 00       		.sleb128 0
 5193 03ad DC060000 		.4byte	.LVL322
 5194 03b1 E8060000 		.4byte	.LVL323
 5195 03b5 0F00     		.2byte	0xf
 5196 03b7 73       		.byte	0x73
 5197 03b8 00       		.sleb128 0
 5198 03b9 72       		.byte	0x72
 5199 03ba 00       		.sleb128 0
 5200 03bb 27       		.byte	0x27
 5201 03bc 7C       		.byte	0x7c
 5202 03bd 00       		.sleb128 0
 5203 03be 1A       		.byte	0x1a
 5204 03bf 73       		.byte	0x73
 5205 03c0 00       		.sleb128 0
 5206 03c1 27       		.byte	0x27
 5207 03c2 75       		.byte	0x75
 5208 03c3 00       		.sleb128 0
 5209 03c4 22       		.byte	0x22
 5210 03c5 9F       		.byte	0x9f
 5211 03c6 E8060000 		.4byte	.LVL323
 5212 03ca EE060000 		.4byte	.LVL325
 5213 03ce 0100     		.2byte	0x1
 5214 03d0 55       		.byte	0x55
 5215 03d1 F6060000 		.4byte	.LVL326
 5216 03d5 6C070000 		.4byte	.LVL348
 5217 03d9 0100     		.2byte	0x1
 5218 03db 55       		.byte	0x55
 5219 03dc 6C070000 		.4byte	.LVL348
 5220 03e0 74070000 		.4byte	.LVL349
 5221 03e4 0D00     		.2byte	0xd
 5222 03e6 71       		.byte	0x71
 5223 03e7 00       		.sleb128 0
 5224 03e8 20       		.byte	0x20
 5225 03e9 76       		.byte	0x76
 5226 03ea 00       		.sleb128 0
 5227 03eb 21       		.byte	0x21
 5228 03ec 72       		.byte	0x72
 5229 03ed 00       		.sleb128 0
 5230 03ee 27       		.byte	0x27
 5231 03ef 75       		.byte	0x75
 5232 03f0 00       		.sleb128 0
 5233 03f1 22       		.byte	0x22
 5234 03f2 9F       		.byte	0x9f
 5235 03f3 78070000 		.4byte	.LVL350
 5236 03f7 7A070000 		.4byte	.LVL351
 5237 03fb 0100     		.2byte	0x1
 5238 03fd 55       		.byte	0x55
 5239 03fe 80070000 		.4byte	.LVL352
 5240 0402 AE070000 		.4byte	.LVL361
 5241 0406 0100     		.2byte	0x1
 5242 0408 55       		.byte	0x55
 5243 0409 B6070000 		.4byte	.LVL363
 5244 040d F4070000 		.4byte	.LVL374
 5245 0411 0100     		.2byte	0x1
 5246 0413 55       		.byte	0x55
 5247 0414 F4070000 		.4byte	.LVL374
 5248 0418 FC070000 		.4byte	.LVL375
ARM GAS  C:\Users\Ray\AppData\Local\Temp\ccn0usL8.s 			page 101


 5249 041c 0D00     		.2byte	0xd
 5250 041e 77       		.byte	0x77
 5251 041f 00       		.sleb128 0
 5252 0420 20       		.byte	0x20
 5253 0421 76       		.byte	0x76
 5254 0422 00       		.sleb128 0
 5255 0423 21       		.byte	0x21
 5256 0424 72       		.byte	0x72
 5257 0425 00       		.sleb128 0
 5258 0426 27       		.byte	0x27
 5259 0427 75       		.byte	0x75
 5260 0428 00       		.sleb128 0
 5261 0429 22       		.byte	0x22
 5262 042a 9F       		.byte	0x9f
 5263 042b 00080000 		.4byte	.LVL376
 5264 042f 02080000 		.4byte	.LVL377
 5265 0433 0100     		.2byte	0x1
 5266 0435 51       		.byte	0x51
 5267 0436 08080000 		.4byte	.LVL378
 5268 043a 3A080000 		.4byte	.LVL389
 5269 043e 0100     		.2byte	0x1
 5270 0440 51       		.byte	0x51
 5271 0441 3E080000 		.4byte	.LVL390
 5272 0445 84080000 		.4byte	.LVL401
 5273 0449 0100     		.2byte	0x1
 5274 044b 51       		.byte	0x51
 5275 044c 84080000 		.4byte	.LVL401
 5276 0450 90080000 		.4byte	.LVL402
 5277 0454 0D00     		.2byte	0xd
 5278 0456 72       		.byte	0x72
 5279 0457 00       		.sleb128 0
 5280 0458 20       		.byte	0x20
 5281 0459 76       		.byte	0x76
 5282 045a 00       		.sleb128 0
 5283 045b 21       		.byte	0x21
 5284 045c 7C       		.byte	0x7c
 5285 045d 00       		.sleb128 0
 5286 045e 27       		.byte	0x27
 5287 045f 71       		.byte	0x71
 5288 0460 00       		.sleb128 0
 5289 0461 22       		.byte	0x22
 5290 0462 9F       		.byte	0x9f
 5291 0463 90080000 		.4byte	.LVL402
 5292 0467 94080000 		.4byte	.LVL404
 5293 046b 0100     		.2byte	0x1
 5294 046d 51       		.byte	0x51
 5295 046e 9A080000 		.4byte	.LVL405
 5296 0472 CC080000 		.4byte	.LVL414
 5297 0476 0100     		.2byte	0x1
 5298 0478 51       		.byte	0x51
 5299 0479 D6080000 		.4byte	.LVL417
 5300 047d EE080000 		.4byte	.LVL421
 5301 0481 0100     		.2byte	0x1
 5302 0483 51       		.byte	0x51
 5303 0484 EE080000 		.4byte	.LVL421
 5304 0488 FC120000 		.4byte	.LFE0
 5305 048c 0200     		.2byte	0x2
ARM GAS  C:\Users\Ray\AppData\Local\Temp\ccn0usL8.s 			page 102


 5306 048e 91       		.byte	0x91
 5307 048f 58       		.sleb128 -40
 5308 0490 00000000 		.4byte	0
 5309 0494 00000000 		.4byte	0
 5310              	.LLST3:
 5311 0498 00000000 		.4byte	.LVL0
 5312 049c 26000000 		.4byte	.LVL5
 5313 04a0 0200     		.2byte	0x2
 5314 04a2 70       		.byte	0x70
 5315 04a3 04       		.sleb128 4
 5316 04a4 26000000 		.4byte	.LVL5
 5317 04a8 54000000 		.4byte	.LVL14
 5318 04ac 0200     		.2byte	0x2
 5319 04ae 74       		.byte	0x74
 5320 04af 04       		.sleb128 4
 5321 04b0 54000000 		.4byte	.LVL14
 5322 04b4 5C000000 		.4byte	.LVL15
 5323 04b8 0100     		.2byte	0x1
 5324 04ba 55       		.byte	0x55
 5325 04bb 5C000000 		.4byte	.LVL15
 5326 04bf 9A000000 		.4byte	.LVL24
 5327 04c3 0200     		.2byte	0x2
 5328 04c5 91       		.byte	0x91
 5329 04c6 50       		.sleb128 -48
 5330 04c7 9A000000 		.4byte	.LVL24
 5331 04cb A6000000 		.4byte	.LVL25
 5332 04cf 0C00     		.2byte	0xc
 5333 04d1 75       		.byte	0x75
 5334 04d2 00       		.sleb128 0
 5335 04d3 73       		.byte	0x73
 5336 04d4 00       		.sleb128 0
 5337 04d5 27       		.byte	0x27
 5338 04d6 77       		.byte	0x77
 5339 04d7 00       		.sleb128 0
 5340 04d8 27       		.byte	0x27
 5341 04d9 76       		.byte	0x76
 5342 04da 00       		.sleb128 0
 5343 04db 22       		.byte	0x22
 5344 04dc 9F       		.byte	0x9f
 5345 04dd A6000000 		.4byte	.LVL25
 5346 04e1 A8000000 		.4byte	.LVL26
 5347 04e5 0100     		.2byte	0x1
 5348 04e7 56       		.byte	0x56
 5349 04e8 A8000000 		.4byte	.LVL26
 5350 04ec AC000000 		.4byte	.LVL27
 5351 04f0 1400     		.2byte	0x14
 5352 04f2 75       		.byte	0x75
 5353 04f3 00       		.sleb128 0
 5354 04f4 73       		.byte	0x73
 5355 04f5 00       		.sleb128 0
 5356 04f6 27       		.byte	0x27
 5357 04f7 77       		.byte	0x77
 5358 04f8 00       		.sleb128 0
 5359 04f9 27       		.byte	0x27
 5360 04fa 91       		.byte	0x91
 5361 04fb 50       		.sleb128 -48
 5362 04fc 06       		.byte	0x6
ARM GAS  C:\Users\Ray\AppData\Local\Temp\ccn0usL8.s 			page 103


 5363 04fd 7D       		.byte	0x7d
 5364 04fe 00       		.sleb128 0
 5365 04ff 06       		.byte	0x6
 5366 0500 23       		.byte	0x23
 5367 0501 10       		.uleb128 0x10
 5368 0502 06       		.byte	0x6
 5369 0503 22       		.byte	0x22
 5370 0504 22       		.byte	0x22
 5371 0505 9F       		.byte	0x9f
 5372 0506 AC000000 		.4byte	.LVL27
 5373 050a 1C010000 		.4byte	.LVL49
 5374 050e 0100     		.2byte	0x1
 5375 0510 56       		.byte	0x56
 5376 0511 1C010000 		.4byte	.LVL49
 5377 0515 28010000 		.4byte	.LVL50
 5378 0519 0C00     		.2byte	0xc
 5379 051b 75       		.byte	0x75
 5380 051c 00       		.sleb128 0
 5381 051d 73       		.byte	0x73
 5382 051e 00       		.sleb128 0
 5383 051f 27       		.byte	0x27
 5384 0520 77       		.byte	0x77
 5385 0521 00       		.sleb128 0
 5386 0522 27       		.byte	0x27
 5387 0523 76       		.byte	0x76
 5388 0524 00       		.sleb128 0
 5389 0525 22       		.byte	0x22
 5390 0526 9F       		.byte	0x9f
 5391 0527 28010000 		.4byte	.LVL50
 5392 052b 2A010000 		.4byte	.LVL51
 5393 052f 0100     		.2byte	0x1
 5394 0531 56       		.byte	0x56
 5395 0532 2E010000 		.4byte	.LVL52
 5396 0536 A2010000 		.4byte	.LVL74
 5397 053a 0100     		.2byte	0x1
 5398 053c 56       		.byte	0x56
 5399 053d A2010000 		.4byte	.LVL74
 5400 0541 AE010000 		.4byte	.LVL75
 5401 0545 0D00     		.2byte	0xd
 5402 0547 75       		.byte	0x75
 5403 0548 00       		.sleb128 0
 5404 0549 91       		.byte	0x91
 5405 054a 54       		.sleb128 -44
 5406 054b 06       		.byte	0x6
 5407 054c 27       		.byte	0x27
 5408 054d 77       		.byte	0x77
 5409 054e 00       		.sleb128 0
 5410 054f 27       		.byte	0x27
 5411 0550 76       		.byte	0x76
 5412 0551 00       		.sleb128 0
 5413 0552 22       		.byte	0x22
 5414 0553 9F       		.byte	0x9f
 5415 0554 AE010000 		.4byte	.LVL75
 5416 0558 B0010000 		.4byte	.LVL76
 5417 055c 0100     		.2byte	0x1
 5418 055e 56       		.byte	0x56
 5419 055f B4010000 		.4byte	.LVL77
ARM GAS  C:\Users\Ray\AppData\Local\Temp\ccn0usL8.s 			page 104


 5420 0563 32020000 		.4byte	.LVL100
 5421 0567 0100     		.2byte	0x1
 5422 0569 56       		.byte	0x56
 5423 056a 32020000 		.4byte	.LVL100
 5424 056e 3C020000 		.4byte	.LVL101
 5425 0572 1000     		.2byte	0x10
 5426 0574 7D       		.byte	0x7d
 5427 0575 00       		.sleb128 0
 5428 0576 06       		.byte	0x6
 5429 0577 73       		.byte	0x73
 5430 0578 00       		.sleb128 0
 5431 0579 27       		.byte	0x27
 5432 057a 77       		.byte	0x77
 5433 057b 00       		.sleb128 0
 5434 057c 1A       		.byte	0x1a
 5435 057d 73       		.byte	0x73
 5436 057e 00       		.sleb128 0
 5437 057f 27       		.byte	0x27
 5438 0580 76       		.byte	0x76
 5439 0581 00       		.sleb128 0
 5440 0582 22       		.byte	0x22
 5441 0583 9F       		.byte	0x9f
 5442 0584 3C020000 		.4byte	.LVL101
 5443 0588 3E020000 		.4byte	.LVL102
 5444 058c 0100     		.2byte	0x1
 5445 058e 51       		.byte	0x51
 5446 058f 3E020000 		.4byte	.LVL102
 5447 0593 42020000 		.4byte	.LVL103
 5448 0597 1000     		.2byte	0x10
 5449 0599 7D       		.byte	0x7d
 5450 059a 00       		.sleb128 0
 5451 059b 06       		.byte	0x6
 5452 059c 73       		.byte	0x73
 5453 059d 00       		.sleb128 0
 5454 059e 27       		.byte	0x27
 5455 059f 77       		.byte	0x77
 5456 05a0 00       		.sleb128 0
 5457 05a1 1A       		.byte	0x1a
 5458 05a2 73       		.byte	0x73
 5459 05a3 00       		.sleb128 0
 5460 05a4 27       		.byte	0x27
 5461 05a5 76       		.byte	0x76
 5462 05a6 00       		.sleb128 0
 5463 05a7 22       		.byte	0x22
 5464 05a8 9F       		.byte	0x9f
 5465 05a9 42020000 		.4byte	.LVL103
 5466 05ad 46020000 		.4byte	.LVL104
 5467 05b1 0100     		.2byte	0x1
 5468 05b3 51       		.byte	0x51
 5469 05b4 46020000 		.4byte	.LVL104
 5470 05b8 84020000 		.4byte	.LVL116
 5471 05bc 0100     		.2byte	0x1
 5472 05be 5C       		.byte	0x5c
 5473 05bf 84020000 		.4byte	.LVL116
 5474 05c3 C4020000 		.4byte	.LVL127
 5475 05c7 0100     		.2byte	0x1
 5476 05c9 51       		.byte	0x51
ARM GAS  C:\Users\Ray\AppData\Local\Temp\ccn0usL8.s 			page 105


 5477 05ca C4020000 		.4byte	.LVL127
 5478 05ce CE020000 		.4byte	.LVL128
 5479 05d2 0F00     		.2byte	0xf
 5480 05d4 7C       		.byte	0x7c
 5481 05d5 00       		.sleb128 0
 5482 05d6 73       		.byte	0x73
 5483 05d7 00       		.sleb128 0
 5484 05d8 27       		.byte	0x27
 5485 05d9 77       		.byte	0x77
 5486 05da 00       		.sleb128 0
 5487 05db 1A       		.byte	0x1a
 5488 05dc 73       		.byte	0x73
 5489 05dd 00       		.sleb128 0
 5490 05de 27       		.byte	0x27
 5491 05df 71       		.byte	0x71
 5492 05e0 00       		.sleb128 0
 5493 05e1 22       		.byte	0x22
 5494 05e2 9F       		.byte	0x9f
 5495 05e3 CE020000 		.4byte	.LVL128
 5496 05e7 D2020000 		.4byte	.LVL129
 5497 05eb 0100     		.2byte	0x1
 5498 05ed 51       		.byte	0x51
 5499 05ee D8020000 		.4byte	.LVL130
 5500 05f2 DC020000 		.4byte	.LVL131
 5501 05f6 0100     		.2byte	0x1
 5502 05f8 52       		.byte	0x52
 5503 05f9 DC020000 		.4byte	.LVL131
 5504 05fd 18030000 		.4byte	.LVL143
 5505 0601 0200     		.2byte	0x2
 5506 0603 7D       		.byte	0x7d
 5507 0604 00       		.sleb128 0
 5508 0605 18030000 		.4byte	.LVL143
 5509 0609 56030000 		.4byte	.LVL155
 5510 060d 0100     		.2byte	0x1
 5511 060f 51       		.byte	0x51
 5512 0610 56030000 		.4byte	.LVL155
 5513 0614 64030000 		.4byte	.LVL156
 5514 0618 1000     		.2byte	0x10
 5515 061a 75       		.byte	0x75
 5516 061b 00       		.sleb128 0
 5517 061c 72       		.byte	0x72
 5518 061d 00       		.sleb128 0
 5519 061e 27       		.byte	0x27
 5520 061f 7D       		.byte	0x7d
 5521 0620 00       		.sleb128 0
 5522 0621 06       		.byte	0x6
 5523 0622 1A       		.byte	0x1a
 5524 0623 72       		.byte	0x72
 5525 0624 00       		.sleb128 0
 5526 0625 27       		.byte	0x27
 5527 0626 71       		.byte	0x71
 5528 0627 00       		.sleb128 0
 5529 0628 22       		.byte	0x22
 5530 0629 9F       		.byte	0x9f
 5531 062a 64030000 		.4byte	.LVL156
 5532 062e 66030000 		.4byte	.LVL157
 5533 0632 0100     		.2byte	0x1
ARM GAS  C:\Users\Ray\AppData\Local\Temp\ccn0usL8.s 			page 106


 5534 0634 51       		.byte	0x51
 5535 0635 6A030000 		.4byte	.LVL158
 5536 0639 6E030000 		.4byte	.LVL159
 5537 063d 0100     		.2byte	0x1
 5538 063f 53       		.byte	0x53
 5539 0640 6E030000 		.4byte	.LVL159
 5540 0644 B4030000 		.4byte	.LVL171
 5541 0648 0100     		.2byte	0x1
 5542 064a 5C       		.byte	0x5c
 5543 064b B4030000 		.4byte	.LVL171
 5544 064f E6030000 		.4byte	.LVL181
 5545 0653 0100     		.2byte	0x1
 5546 0655 51       		.byte	0x51
 5547 0656 EC030000 		.4byte	.LVL182
 5548 065a F4030000 		.4byte	.LVL183
 5549 065e 0D00     		.2byte	0xd
 5550 0660 75       		.byte	0x75
 5551 0661 00       		.sleb128 0
 5552 0662 20       		.byte	0x20
 5553 0663 7C       		.byte	0x7c
 5554 0664 00       		.sleb128 0
 5555 0665 21       		.byte	0x21
 5556 0666 72       		.byte	0x72
 5557 0667 00       		.sleb128 0
 5558 0668 27       		.byte	0x27
 5559 0669 71       		.byte	0x71
 5560 066a 00       		.sleb128 0
 5561 066b 22       		.byte	0x22
 5562 066c 9F       		.byte	0x9f
 5563 066d F4030000 		.4byte	.LVL183
 5564 0671 F6030000 		.4byte	.LVL184
 5565 0675 0100     		.2byte	0x1
 5566 0677 51       		.byte	0x51
 5567 0678 FC030000 		.4byte	.LVL185
 5568 067c 6E040000 		.4byte	.LVL210
 5569 0680 0100     		.2byte	0x1
 5570 0682 51       		.byte	0x51
 5571 0683 6E040000 		.4byte	.LVL210
 5572 0687 7A040000 		.4byte	.LVL211
 5573 068b 0D00     		.2byte	0xd
 5574 068d 76       		.byte	0x76
 5575 068e 00       		.sleb128 0
 5576 068f 20       		.byte	0x20
 5577 0690 7C       		.byte	0x7c
 5578 0691 00       		.sleb128 0
 5579 0692 21       		.byte	0x21
 5580 0693 72       		.byte	0x72
 5581 0694 00       		.sleb128 0
 5582 0695 27       		.byte	0x27
 5583 0696 71       		.byte	0x71
 5584 0697 00       		.sleb128 0
 5585 0698 22       		.byte	0x22
 5586 0699 9F       		.byte	0x9f
 5587 069a 7A040000 		.4byte	.LVL211
 5588 069e 7C040000 		.4byte	.LVL212
 5589 06a2 0100     		.2byte	0x1
 5590 06a4 55       		.byte	0x55
ARM GAS  C:\Users\Ray\AppData\Local\Temp\ccn0usL8.s 			page 107


 5591 06a5 7C040000 		.4byte	.LVL212
 5592 06a9 7E040000 		.4byte	.LVL213
 5593 06ad 0D00     		.2byte	0xd
 5594 06af 76       		.byte	0x76
 5595 06b0 00       		.sleb128 0
 5596 06b1 20       		.byte	0x20
 5597 06b2 7C       		.byte	0x7c
 5598 06b3 00       		.sleb128 0
 5599 06b4 21       		.byte	0x21
 5600 06b5 72       		.byte	0x72
 5601 06b6 00       		.sleb128 0
 5602 06b7 27       		.byte	0x27
 5603 06b8 71       		.byte	0x71
 5604 06b9 00       		.sleb128 0
 5605 06ba 22       		.byte	0x22
 5606 06bb 9F       		.byte	0x9f
 5607 06bc 82040000 		.4byte	.LVL214
 5608 06c0 F4040000 		.4byte	.LVL238
 5609 06c4 0100     		.2byte	0x1
 5610 06c6 55       		.byte	0x55
 5611 06c7 F4040000 		.4byte	.LVL238
 5612 06cb FE040000 		.4byte	.LVL239
 5613 06cf 0D00     		.2byte	0xd
 5614 06d1 76       		.byte	0x76
 5615 06d2 00       		.sleb128 0
 5616 06d3 20       		.byte	0x20
 5617 06d4 7C       		.byte	0x7c
 5618 06d5 00       		.sleb128 0
 5619 06d6 21       		.byte	0x21
 5620 06d7 71       		.byte	0x71
 5621 06d8 00       		.sleb128 0
 5622 06d9 27       		.byte	0x27
 5623 06da 75       		.byte	0x75
 5624 06db 00       		.sleb128 0
 5625 06dc 22       		.byte	0x22
 5626 06dd 9F       		.byte	0x9f
 5627 06de FE040000 		.4byte	.LVL239
 5628 06e2 02050000 		.4byte	.LVL240
 5629 06e6 0100     		.2byte	0x1
 5630 06e8 55       		.byte	0x55
 5631 06e9 08050000 		.4byte	.LVL241
 5632 06ed 36050000 		.4byte	.LVL250
 5633 06f1 0100     		.2byte	0x1
 5634 06f3 55       		.byte	0x55
 5635 06f4 44050000 		.4byte	.LVL253
 5636 06f8 84050000 		.4byte	.LVL264
 5637 06fc 0100     		.2byte	0x1
 5638 06fe 57       		.byte	0x57
 5639 06ff 84050000 		.4byte	.LVL264
 5640 0703 90050000 		.4byte	.LVL265
 5641 0707 0F00     		.2byte	0xf
 5642 0709 75       		.byte	0x75
 5643 070a 00       		.sleb128 0
 5644 070b 72       		.byte	0x72
 5645 070c 00       		.sleb128 0
 5646 070d 27       		.byte	0x27
 5647 070e 76       		.byte	0x76
ARM GAS  C:\Users\Ray\AppData\Local\Temp\ccn0usL8.s 			page 108


 5648 070f 00       		.sleb128 0
 5649 0710 1A       		.byte	0x1a
 5650 0711 75       		.byte	0x75
 5651 0712 00       		.sleb128 0
 5652 0713 27       		.byte	0x27
 5653 0714 77       		.byte	0x77
 5654 0715 00       		.sleb128 0
 5655 0716 22       		.byte	0x22
 5656 0717 9F       		.byte	0x9f
 5657 0718 90050000 		.4byte	.LVL265
 5658 071c 92050000 		.4byte	.LVL266
 5659 0720 0100     		.2byte	0x1
 5660 0722 51       		.byte	0x51
 5661 0723 92050000 		.4byte	.LVL266
 5662 0727 94050000 		.4byte	.LVL267
 5663 072b 0F00     		.2byte	0xf
 5664 072d 75       		.byte	0x75
 5665 072e 00       		.sleb128 0
 5666 072f 72       		.byte	0x72
 5667 0730 00       		.sleb128 0
 5668 0731 27       		.byte	0x27
 5669 0732 76       		.byte	0x76
 5670 0733 00       		.sleb128 0
 5671 0734 1A       		.byte	0x1a
 5672 0735 75       		.byte	0x75
 5673 0736 00       		.sleb128 0
 5674 0737 27       		.byte	0x27
 5675 0738 77       		.byte	0x77
 5676 0739 00       		.sleb128 0
 5677 073a 22       		.byte	0x22
 5678 073b 9F       		.byte	0x9f
 5679 073c A0050000 		.4byte	.LVL269
 5680 0740 D8050000 		.4byte	.LVL275
 5681 0744 0100     		.2byte	0x1
 5682 0746 51       		.byte	0x51
 5683 0747 E4050000 		.4byte	.LVL278
 5684 074b E8050000 		.4byte	.LVL279
 5685 074f 0100     		.2byte	0x1
 5686 0751 51       		.byte	0x51
 5687 0752 E8050000 		.4byte	.LVL279
 5688 0756 38060000 		.4byte	.LVL292
 5689 075a 0100     		.2byte	0x1
 5690 075c 5C       		.byte	0x5c
 5691 075d 40060000 		.4byte	.LVL294
 5692 0761 74060000 		.4byte	.LVL303
 5693 0765 0100     		.2byte	0x1
 5694 0767 51       		.byte	0x51
 5695 0768 7E060000 		.4byte	.LVL305
 5696 076c BC060000 		.4byte	.LVL316
 5697 0770 0100     		.2byte	0x1
 5698 0772 56       		.byte	0x56
 5699 0773 BC060000 		.4byte	.LVL316
 5700 0777 C8060000 		.4byte	.LVL317
 5701 077b 0F00     		.2byte	0xf
 5702 077d 71       		.byte	0x71
 5703 077e 00       		.sleb128 0
 5704 077f 73       		.byte	0x73
ARM GAS  C:\Users\Ray\AppData\Local\Temp\ccn0usL8.s 			page 109


 5705 0780 00       		.sleb128 0
 5706 0781 27       		.byte	0x27
 5707 0782 77       		.byte	0x77
 5708 0783 00       		.sleb128 0
 5709 0784 1A       		.byte	0x1a
 5710 0785 71       		.byte	0x71
 5711 0786 00       		.sleb128 0
 5712 0787 27       		.byte	0x27
 5713 0788 76       		.byte	0x76
 5714 0789 00       		.sleb128 0
 5715 078a 22       		.byte	0x22
 5716 078b 9F       		.byte	0x9f
 5717 078c CA060000 		.4byte	.LVL318
 5718 0790 CC060000 		.4byte	.LVL319
 5719 0794 0100     		.2byte	0x1
 5720 0796 52       		.byte	0x52
 5721 0797 D4060000 		.4byte	.LVL320
 5722 079b 0E070000 		.4byte	.LVL331
 5723 079f 0100     		.2byte	0x1
 5724 07a1 52       		.byte	0x52
 5725 07a2 26070000 		.4byte	.LVL333
 5726 07a6 2A070000 		.4byte	.LVL334
 5727 07aa 0100     		.2byte	0x1
 5728 07ac 52       		.byte	0x52
 5729 07ad 2A070000 		.4byte	.LVL334
 5730 07b1 52070000 		.4byte	.LVL343
 5731 07b5 0200     		.2byte	0x2
 5732 07b7 7D       		.byte	0x7d
 5733 07b8 00       		.sleb128 0
 5734 07b9 52070000 		.4byte	.LVL343
 5735 07bd 5C070000 		.4byte	.LVL344
 5736 07c1 0D00     		.2byte	0xd
 5737 07c3 7C       		.byte	0x7c
 5738 07c4 00       		.sleb128 0
 5739 07c5 20       		.byte	0x20
 5740 07c6 71       		.byte	0x71
 5741 07c7 00       		.sleb128 0
 5742 07c8 21       		.byte	0x21
 5743 07c9 76       		.byte	0x76
 5744 07ca 00       		.sleb128 0
 5745 07cb 27       		.byte	0x27
 5746 07cc 72       		.byte	0x72
 5747 07cd 00       		.sleb128 0
 5748 07ce 22       		.byte	0x22
 5749 07cf 9F       		.byte	0x9f
 5750 07d0 5C070000 		.4byte	.LVL344
 5751 07d4 62070000 		.4byte	.LVL346
 5752 07d8 0100     		.2byte	0x1
 5753 07da 52       		.byte	0x52
 5754 07db 68070000 		.4byte	.LVL347
 5755 07df 94070000 		.4byte	.LVL356
 5756 07e3 0100     		.2byte	0x1
 5757 07e5 52       		.byte	0x52
 5758 07e6 98070000 		.4byte	.LVL357
 5759 07ea DA070000 		.4byte	.LVL369
 5760 07ee 0100     		.2byte	0x1
 5761 07f0 52       		.byte	0x52
ARM GAS  C:\Users\Ray\AppData\Local\Temp\ccn0usL8.s 			page 110


 5762 07f1 DA070000 		.4byte	.LVL369
 5763 07f5 E2070000 		.4byte	.LVL370
 5764 07f9 0D00     		.2byte	0xd
 5765 07fb 7C       		.byte	0x7c
 5766 07fc 00       		.sleb128 0
 5767 07fd 20       		.byte	0x20
 5768 07fe 71       		.byte	0x71
 5769 07ff 00       		.sleb128 0
 5770 0800 21       		.byte	0x21
 5771 0801 76       		.byte	0x76
 5772 0802 00       		.sleb128 0
 5773 0803 27       		.byte	0x27
 5774 0804 72       		.byte	0x72
 5775 0805 00       		.sleb128 0
 5776 0806 22       		.byte	0x22
 5777 0807 9F       		.byte	0x9f
 5778 0808 E6070000 		.4byte	.LVL371
 5779 080c E8070000 		.4byte	.LVL372
 5780 0810 0100     		.2byte	0x1
 5781 0812 52       		.byte	0x52
 5782 0813 F0070000 		.4byte	.LVL373
 5783 0817 1A080000 		.4byte	.LVL381
 5784 081b 0100     		.2byte	0x1
 5785 081d 52       		.byte	0x52
 5786 081e 22080000 		.4byte	.LVL383
 5787 0822 24080000 		.4byte	.LVL384
 5788 0826 0100     		.2byte	0x1
 5789 0828 52       		.byte	0x52
 5790 0829 24080000 		.4byte	.LVL384
 5791 082d 66080000 		.4byte	.LVL396
 5792 0831 0100     		.2byte	0x1
 5793 0833 55       		.byte	0x55
 5794 0834 66080000 		.4byte	.LVL396
 5795 0838 72080000 		.4byte	.LVL397
 5796 083c 0E00     		.2byte	0xe
 5797 083e 77       		.byte	0x77
 5798 083f 00       		.sleb128 0
 5799 0840 20       		.byte	0x20
 5800 0841 7D       		.byte	0x7d
 5801 0842 00       		.sleb128 0
 5802 0843 06       		.byte	0x6
 5803 0844 21       		.byte	0x21
 5804 0845 76       		.byte	0x76
 5805 0846 00       		.sleb128 0
 5806 0847 27       		.byte	0x27
 5807 0848 75       		.byte	0x75
 5808 0849 00       		.sleb128 0
 5809 084a 22       		.byte	0x22
 5810 084b 9F       		.byte	0x9f
 5811 084c 72080000 		.4byte	.LVL397
 5812 0850 74080000 		.4byte	.LVL398
 5813 0854 0100     		.2byte	0x1
 5814 0856 53       		.byte	0x53
 5815 0857 74080000 		.4byte	.LVL398
 5816 085b 7C080000 		.4byte	.LVL399
 5817 085f 0E00     		.2byte	0xe
 5818 0861 77       		.byte	0x77
ARM GAS  C:\Users\Ray\AppData\Local\Temp\ccn0usL8.s 			page 111


 5819 0862 00       		.sleb128 0
 5820 0863 20       		.byte	0x20
 5821 0864 7D       		.byte	0x7d
 5822 0865 00       		.sleb128 0
 5823 0866 06       		.byte	0x6
 5824 0867 21       		.byte	0x21
 5825 0868 76       		.byte	0x76
 5826 0869 00       		.sleb128 0
 5827 086a 27       		.byte	0x27
 5828 086b 75       		.byte	0x75
 5829 086c 00       		.sleb128 0
 5830 086d 22       		.byte	0x22
 5831 086e 9F       		.byte	0x9f
 5832 086f 7C080000 		.4byte	.LVL399
 5833 0873 80080000 		.4byte	.LVL400
 5834 0877 0100     		.2byte	0x1
 5835 0879 53       		.byte	0x53
 5836 087a 80080000 		.4byte	.LVL400
 5837 087e B2080000 		.4byte	.LVL409
 5838 0882 0100     		.2byte	0x1
 5839 0884 5C       		.byte	0x5c
 5840 0885 B8080000 		.4byte	.LVL410
 5841 0889 0E090000 		.4byte	.LVL424
 5842 088d 0100     		.2byte	0x1
 5843 088f 5C       		.byte	0x5c
 5844 0890 0E090000 		.4byte	.LVL424
 5845 0894 22090000 		.4byte	.LVL426
 5846 0898 1D00     		.2byte	0x1d
 5847 089a 75       		.byte	0x75
 5848 089b 00       		.sleb128 0
 5849 089c 20       		.byte	0x20
 5850 089d 91       		.byte	0x91
 5851 089e 54       		.sleb128 -44
 5852 089f 06       		.byte	0x6
 5853 08a0 21       		.byte	0x21
 5854 08a1 76       		.byte	0x76
 5855 08a2 00       		.sleb128 0
 5856 08a3 27       		.byte	0x27
 5857 08a4 91       		.byte	0x91
 5858 08a5 64       		.sleb128 -28
 5859 08a6 06       		.byte	0x6
 5860 08a7 22       		.byte	0x22
 5861 08a8 4A       		.byte	0x4a
 5862 08a9 14       		.byte	0x14
 5863 08aa 14       		.byte	0x14
 5864 08ab 1F       		.byte	0x1f
 5865 08ac 23       		.byte	0x23
 5866 08ad 20       		.uleb128 0x20
 5867 08ae 24       		.byte	0x24
 5868 08af 17       		.byte	0x17
 5869 08b0 25       		.byte	0x25
 5870 08b1 21       		.byte	0x21
 5871 08b2 91       		.byte	0x91
 5872 08b3 58       		.sleb128 -40
 5873 08b4 06       		.byte	0x6
 5874 08b5 22       		.byte	0x22
 5875 08b6 9F       		.byte	0x9f
ARM GAS  C:\Users\Ray\AppData\Local\Temp\ccn0usL8.s 			page 112


 5876 08b7 22090000 		.4byte	.LVL426
 5877 08bb 4E090000 		.4byte	.LVL434
 5878 08bf 1E00     		.2byte	0x1e
 5879 08c1 91       		.byte	0x91
 5880 08c2 60       		.sleb128 -32
 5881 08c3 06       		.byte	0x6
 5882 08c4 20       		.byte	0x20
 5883 08c5 91       		.byte	0x91
 5884 08c6 54       		.sleb128 -44
 5885 08c7 06       		.byte	0x6
 5886 08c8 21       		.byte	0x21
 5887 08c9 76       		.byte	0x76
 5888 08ca 00       		.sleb128 0
 5889 08cb 27       		.byte	0x27
 5890 08cc 91       		.byte	0x91
 5891 08cd 64       		.sleb128 -28
 5892 08ce 06       		.byte	0x6
 5893 08cf 22       		.byte	0x22
 5894 08d0 4A       		.byte	0x4a
 5895 08d1 14       		.byte	0x14
 5896 08d2 14       		.byte	0x14
 5897 08d3 1F       		.byte	0x1f
 5898 08d4 23       		.byte	0x23
 5899 08d5 20       		.uleb128 0x20
 5900 08d6 24       		.byte	0x24
 5901 08d7 17       		.byte	0x17
 5902 08d8 25       		.byte	0x25
 5903 08d9 21       		.byte	0x21
 5904 08da 91       		.byte	0x91
 5905 08db 58       		.sleb128 -40
 5906 08dc 06       		.byte	0x6
 5907 08dd 22       		.byte	0x22
 5908 08de 9F       		.byte	0x9f
 5909 08df 4E090000 		.4byte	.LVL434
 5910 08e3 D6120000 		.4byte	.LVL830
 5911 08e7 1F00     		.2byte	0x1f
 5912 08e9 91       		.byte	0x91
 5913 08ea 60       		.sleb128 -32
 5914 08eb 06       		.byte	0x6
 5915 08ec 20       		.byte	0x20
 5916 08ed 91       		.byte	0x91
 5917 08ee 54       		.sleb128 -44
 5918 08ef 06       		.byte	0x6
 5919 08f0 21       		.byte	0x21
 5920 08f1 91       		.byte	0x91
 5921 08f2 5C       		.sleb128 -36
 5922 08f3 06       		.byte	0x6
 5923 08f4 27       		.byte	0x27
 5924 08f5 91       		.byte	0x91
 5925 08f6 64       		.sleb128 -28
 5926 08f7 06       		.byte	0x6
 5927 08f8 22       		.byte	0x22
 5928 08f9 4A       		.byte	0x4a
 5929 08fa 14       		.byte	0x14
 5930 08fb 14       		.byte	0x14
 5931 08fc 1F       		.byte	0x1f
 5932 08fd 23       		.byte	0x23
ARM GAS  C:\Users\Ray\AppData\Local\Temp\ccn0usL8.s 			page 113


 5933 08fe 20       		.uleb128 0x20
 5934 08ff 24       		.byte	0x24
 5935 0900 17       		.byte	0x17
 5936 0901 25       		.byte	0x25
 5937 0902 21       		.byte	0x21
 5938 0903 91       		.byte	0x91
 5939 0904 58       		.sleb128 -40
 5940 0905 06       		.byte	0x6
 5941 0906 22       		.byte	0x22
 5942 0907 9F       		.byte	0x9f
 5943 0908 D6120000 		.4byte	.LVL830
 5944 090c DC120000 		.4byte	.LVL831
 5945 0910 1900     		.2byte	0x19
 5946 0912 72       		.byte	0x72
 5947 0913 00       		.sleb128 0
 5948 0914 91       		.byte	0x91
 5949 0915 5C       		.sleb128 -36
 5950 0916 06       		.byte	0x6
 5951 0917 27       		.byte	0x27
 5952 0918 91       		.byte	0x91
 5953 0919 64       		.sleb128 -28
 5954 091a 06       		.byte	0x6
 5955 091b 22       		.byte	0x22
 5956 091c 4A       		.byte	0x4a
 5957 091d 14       		.byte	0x14
 5958 091e 14       		.byte	0x14
 5959 091f 1F       		.byte	0x1f
 5960 0920 23       		.byte	0x23
 5961 0921 20       		.uleb128 0x20
 5962 0922 24       		.byte	0x24
 5963 0923 17       		.byte	0x17
 5964 0924 25       		.byte	0x25
 5965 0925 21       		.byte	0x21
 5966 0926 91       		.byte	0x91
 5967 0927 58       		.sleb128 -40
 5968 0928 06       		.byte	0x6
 5969 0929 22       		.byte	0x22
 5970 092a 9F       		.byte	0x9f
 5971 092b DC120000 		.4byte	.LVL831
 5972 092f FC120000 		.4byte	.LFE0
 5973 0933 1F00     		.2byte	0x1f
 5974 0935 91       		.byte	0x91
 5975 0936 60       		.sleb128 -32
 5976 0937 06       		.byte	0x6
 5977 0938 20       		.byte	0x20
 5978 0939 91       		.byte	0x91
 5979 093a 54       		.sleb128 -44
 5980 093b 06       		.byte	0x6
 5981 093c 21       		.byte	0x21
 5982 093d 91       		.byte	0x91
 5983 093e 5C       		.sleb128 -36
 5984 093f 06       		.byte	0x6
 5985 0940 27       		.byte	0x27
 5986 0941 91       		.byte	0x91
 5987 0942 64       		.sleb128 -28
 5988 0943 06       		.byte	0x6
 5989 0944 22       		.byte	0x22
ARM GAS  C:\Users\Ray\AppData\Local\Temp\ccn0usL8.s 			page 114


 5990 0945 4A       		.byte	0x4a
 5991 0946 14       		.byte	0x14
 5992 0947 14       		.byte	0x14
 5993 0948 1F       		.byte	0x1f
 5994 0949 23       		.byte	0x23
 5995 094a 20       		.uleb128 0x20
 5996 094b 24       		.byte	0x24
 5997 094c 17       		.byte	0x17
 5998 094d 25       		.byte	0x25
 5999 094e 21       		.byte	0x21
 6000 094f 91       		.byte	0x91
 6001 0950 58       		.sleb128 -40
 6002 0951 06       		.byte	0x6
 6003 0952 22       		.byte	0x22
 6004 0953 9F       		.byte	0x9f
 6005 0954 00000000 		.4byte	0
 6006 0958 00000000 		.4byte	0
 6007              	.LLST4:
 6008 095c 00000000 		.4byte	.LVL0
 6009 0960 26000000 		.4byte	.LVL5
 6010 0964 0200     		.2byte	0x2
 6011 0966 70       		.byte	0x70
 6012 0967 08       		.sleb128 8
 6013 0968 26000000 		.4byte	.LVL5
 6014 096c 2E000000 		.4byte	.LVL7
 6015 0970 0200     		.2byte	0x2
 6016 0972 74       		.byte	0x74
 6017 0973 08       		.sleb128 8
 6018 0974 2E000000 		.4byte	.LVL7
 6019 0978 30000000 		.4byte	.LVL8
 6020 097c 0100     		.2byte	0x1
 6021 097e 53       		.byte	0x53
 6022 097f 30000000 		.4byte	.LVL8
 6023 0983 84000000 		.4byte	.LVL22
 6024 0987 0200     		.2byte	0x2
 6025 0989 91       		.byte	0x91
 6026 098a 4C       		.sleb128 -52
 6027 098b 8E000000 		.4byte	.LVL23
 6028 098f 02010000 		.4byte	.LVL44
 6029 0993 0100     		.2byte	0x1
 6030 0995 57       		.byte	0x57
 6031 0996 02010000 		.4byte	.LVL44
 6032 099a 0E010000 		.4byte	.LVL45
 6033 099e 0C00     		.2byte	0xc
 6034 09a0 73       		.byte	0x73
 6035 09a1 00       		.sleb128 0
 6036 09a2 72       		.byte	0x72
 6037 09a3 00       		.sleb128 0
 6038 09a4 27       		.byte	0x27
 6039 09a5 75       		.byte	0x75
 6040 09a6 00       		.sleb128 0
 6041 09a7 27       		.byte	0x27
 6042 09a8 77       		.byte	0x77
 6043 09a9 00       		.sleb128 0
 6044 09aa 22       		.byte	0x22
 6045 09ab 9F       		.byte	0x9f
 6046 09ac 0E010000 		.4byte	.LVL45
ARM GAS  C:\Users\Ray\AppData\Local\Temp\ccn0usL8.s 			page 115


 6047 09b0 10010000 		.4byte	.LVL46
 6048 09b4 0100     		.2byte	0x1
 6049 09b6 57       		.byte	0x57
 6050 09b7 14010000 		.4byte	.LVL47
 6051 09bb 84010000 		.4byte	.LVL69
 6052 09bf 0100     		.2byte	0x1
 6053 09c1 57       		.byte	0x57
 6054 09c2 84010000 		.4byte	.LVL69
 6055 09c6 90010000 		.4byte	.LVL70
 6056 09ca 0C00     		.2byte	0xc
 6057 09cc 73       		.byte	0x73
 6058 09cd 00       		.sleb128 0
 6059 09ce 72       		.byte	0x72
 6060 09cf 00       		.sleb128 0
 6061 09d0 27       		.byte	0x27
 6062 09d1 75       		.byte	0x75
 6063 09d2 00       		.sleb128 0
 6064 09d3 27       		.byte	0x27
 6065 09d4 77       		.byte	0x77
 6066 09d5 00       		.sleb128 0
 6067 09d6 22       		.byte	0x22
 6068 09d7 9F       		.byte	0x9f
 6069 09d8 92010000 		.4byte	.LVL71
 6070 09dc 94010000 		.4byte	.LVL72
 6071 09e0 0100     		.2byte	0x1
 6072 09e2 57       		.byte	0x57
 6073 09e3 9A010000 		.4byte	.LVL73
 6074 09e7 12020000 		.4byte	.LVL96
 6075 09eb 0100     		.2byte	0x1
 6076 09ed 57       		.byte	0x57
 6077 09ee 12020000 		.4byte	.LVL96
 6078 09f2 20020000 		.4byte	.LVL97
 6079 09f6 1000     		.2byte	0x10
 6080 09f8 7C       		.byte	0x7c
 6081 09f9 00       		.sleb128 0
 6082 09fa 72       		.byte	0x72
 6083 09fb 00       		.sleb128 0
 6084 09fc 27       		.byte	0x27
 6085 09fd 7D       		.byte	0x7d
 6086 09fe 00       		.sleb128 0
 6087 09ff 06       		.byte	0x6
 6088 0a00 1A       		.byte	0x1a
 6089 0a01 72       		.byte	0x72
 6090 0a02 00       		.sleb128 0
 6091 0a03 27       		.byte	0x27
 6092 0a04 77       		.byte	0x77
 6093 0a05 00       		.sleb128 0
 6094 0a06 22       		.byte	0x22
 6095 0a07 9F       		.byte	0x9f
 6096 0a08 20020000 		.4byte	.LVL97
 6097 0a0c 22020000 		.4byte	.LVL98
 6098 0a10 0100     		.2byte	0x1
 6099 0a12 57       		.byte	0x57
 6100 0a13 2C020000 		.4byte	.LVL99
 6101 0a17 64020000 		.4byte	.LVL109
 6102 0a1b 0100     		.2byte	0x1
 6103 0a1d 57       		.byte	0x57
ARM GAS  C:\Users\Ray\AppData\Local\Temp\ccn0usL8.s 			page 116


 6104 0a1e 68020000 		.4byte	.LVL110
 6105 0a22 A8020000 		.4byte	.LVL123
 6106 0a26 0100     		.2byte	0x1
 6107 0a28 57       		.byte	0x57
 6108 0a29 A8020000 		.4byte	.LVL123
 6109 0a2d B6020000 		.4byte	.LVL124
 6110 0a31 1000     		.2byte	0x10
 6111 0a33 7D       		.byte	0x7d
 6112 0a34 00       		.sleb128 0
 6113 0a35 06       		.byte	0x6
 6114 0a36 76       		.byte	0x76
 6115 0a37 00       		.sleb128 0
 6116 0a38 27       		.byte	0x27
 6117 0a39 7C       		.byte	0x7c
 6118 0a3a 00       		.sleb128 0
 6119 0a3b 1A       		.byte	0x1a
 6120 0a3c 76       		.byte	0x76
 6121 0a3d 00       		.sleb128 0
 6122 0a3e 27       		.byte	0x27
 6123 0a3f 77       		.byte	0x77
 6124 0a40 00       		.sleb128 0
 6125 0a41 22       		.byte	0x22
 6126 0a42 9F       		.byte	0x9f
 6127 0a43 B6020000 		.4byte	.LVL124
 6128 0a47 B8020000 		.4byte	.LVL125
 6129 0a4b 0100     		.2byte	0x1
 6130 0a4d 57       		.byte	0x57
 6131 0a4e C2020000 		.4byte	.LVL126
 6132 0a52 F4020000 		.4byte	.LVL136
 6133 0a56 0100     		.2byte	0x1
 6134 0a58 57       		.byte	0x57
 6135 0a59 FA020000 		.4byte	.LVL137
 6136 0a5d 38030000 		.4byte	.LVL149
 6137 0a61 0100     		.2byte	0x1
 6138 0a63 57       		.byte	0x57
 6139 0a64 38030000 		.4byte	.LVL149
 6140 0a68 44030000 		.4byte	.LVL150
 6141 0a6c 0F00     		.2byte	0xf
 6142 0a6e 7C       		.byte	0x7c
 6143 0a6f 00       		.sleb128 0
 6144 0a70 76       		.byte	0x76
 6145 0a71 00       		.sleb128 0
 6146 0a72 27       		.byte	0x27
 6147 0a73 75       		.byte	0x75
 6148 0a74 00       		.sleb128 0
 6149 0a75 1A       		.byte	0x1a
 6150 0a76 76       		.byte	0x76
 6151 0a77 00       		.sleb128 0
 6152 0a78 27       		.byte	0x27
 6153 0a79 77       		.byte	0x77
 6154 0a7a 00       		.sleb128 0
 6155 0a7b 22       		.byte	0x22
 6156 0a7c 9F       		.byte	0x9f
 6157 0a7d 44030000 		.4byte	.LVL150
 6158 0a81 46030000 		.4byte	.LVL151
 6159 0a85 0100     		.2byte	0x1
 6160 0a87 53       		.byte	0x53
ARM GAS  C:\Users\Ray\AppData\Local\Temp\ccn0usL8.s 			page 117


 6161 0a88 46030000 		.4byte	.LVL151
 6162 0a8c 4C030000 		.4byte	.LVL152
 6163 0a90 0F00     		.2byte	0xf
 6164 0a92 7C       		.byte	0x7c
 6165 0a93 00       		.sleb128 0
 6166 0a94 76       		.byte	0x76
 6167 0a95 00       		.sleb128 0
 6168 0a96 27       		.byte	0x27
 6169 0a97 75       		.byte	0x75
 6170 0a98 00       		.sleb128 0
 6171 0a99 1A       		.byte	0x1a
 6172 0a9a 76       		.byte	0x76
 6173 0a9b 00       		.sleb128 0
 6174 0a9c 27       		.byte	0x27
 6175 0a9d 77       		.byte	0x77
 6176 0a9e 00       		.sleb128 0
 6177 0a9f 22       		.byte	0x22
 6178 0aa0 9F       		.byte	0x9f
 6179 0aa1 4C030000 		.4byte	.LVL152
 6180 0aa5 50030000 		.4byte	.LVL153
 6181 0aa9 0100     		.2byte	0x1
 6182 0aab 53       		.byte	0x53
 6183 0aac 50030000 		.4byte	.LVL153
 6184 0ab0 90030000 		.4byte	.LVL164
 6185 0ab4 0200     		.2byte	0x2
 6186 0ab6 7D       		.byte	0x7d
 6187 0ab7 00       		.sleb128 0
 6188 0ab8 90030000 		.4byte	.LVL164
 6189 0abc CA030000 		.4byte	.LVL175
 6190 0ac0 0100     		.2byte	0x1
 6191 0ac2 53       		.byte	0x53
 6192 0ac3 CE030000 		.4byte	.LVL176
 6193 0ac7 D6030000 		.4byte	.LVL177
 6194 0acb 0E00     		.2byte	0xe
 6195 0acd 7D       		.byte	0x7d
 6196 0ace 00       		.sleb128 0
 6197 0acf 06       		.byte	0x6
 6198 0ad0 20       		.byte	0x20
 6199 0ad1 75       		.byte	0x75
 6200 0ad2 00       		.sleb128 0
 6201 0ad3 21       		.byte	0x21
 6202 0ad4 76       		.byte	0x76
 6203 0ad5 00       		.sleb128 0
 6204 0ad6 27       		.byte	0x27
 6205 0ad7 73       		.byte	0x73
 6206 0ad8 00       		.sleb128 0
 6207 0ad9 22       		.byte	0x22
 6208 0ada 9F       		.byte	0x9f
 6209 0adb D6030000 		.4byte	.LVL177
 6210 0adf D8030000 		.4byte	.LVL178
 6211 0ae3 0100     		.2byte	0x1
 6212 0ae5 53       		.byte	0x53
 6213 0ae6 DC030000 		.4byte	.LVL179
 6214 0aea E0030000 		.4byte	.LVL180
 6215 0aee 0100     		.2byte	0x1
 6216 0af0 53       		.byte	0x53
 6217 0af1 E0030000 		.4byte	.LVL180
ARM GAS  C:\Users\Ray\AppData\Local\Temp\ccn0usL8.s 			page 118


 6218 0af5 16040000 		.4byte	.LVL190
 6219 0af9 0100     		.2byte	0x1
 6220 0afb 5C       		.byte	0x5c
 6221 0afc 1C040000 		.4byte	.LVL191
 6222 0b00 5A040000 		.4byte	.LVL204
 6223 0b04 0100     		.2byte	0x1
 6224 0b06 5C       		.byte	0x5c
 6225 0b07 5A040000 		.4byte	.LVL204
 6226 0b0b 5C040000 		.4byte	.LVL205
 6227 0b0f 0D00     		.2byte	0xd
 6228 0b11 72       		.byte	0x72
 6229 0b12 00       		.sleb128 0
 6230 0b13 20       		.byte	0x20
 6231 0b14 76       		.byte	0x76
 6232 0b15 00       		.sleb128 0
 6233 0b16 21       		.byte	0x21
 6234 0b17 77       		.byte	0x77
 6235 0b18 00       		.sleb128 0
 6236 0b19 27       		.byte	0x27
 6237 0b1a 73       		.byte	0x73
 6238 0b1b 00       		.sleb128 0
 6239 0b1c 22       		.byte	0x22
 6240 0b1d 9F       		.byte	0x9f
 6241 0b1e 5C040000 		.4byte	.LVL205
 6242 0b22 60040000 		.4byte	.LVL206
 6243 0b26 0100     		.2byte	0x1
 6244 0b28 53       		.byte	0x53
 6245 0b29 60040000 		.4byte	.LVL206
 6246 0b2d 64040000 		.4byte	.LVL207
 6247 0b31 1800     		.2byte	0x18
 6248 0b33 72       		.byte	0x72
 6249 0b34 00       		.sleb128 0
 6250 0b35 20       		.byte	0x20
 6251 0b36 76       		.byte	0x76
 6252 0b37 00       		.sleb128 0
 6253 0b38 21       		.byte	0x21
 6254 0b39 77       		.byte	0x77
 6255 0b3a 00       		.sleb128 0
 6256 0b3b 27       		.byte	0x27
 6257 0b3c 91       		.byte	0x91
 6258 0b3d AC7F     		.sleb128 -84
 6259 0b3f 06       		.byte	0x6
 6260 0b40 22       		.byte	0x22
 6261 0b41 7C       		.byte	0x7c
 6262 0b42 00       		.sleb128 0
 6263 0b43 22       		.byte	0x22
 6264 0b44 23       		.byte	0x23
 6265 0b45 A1D7E7F6 		.uleb128 0x6ed9eba1
 6265      06
 6266 0b4a 9F       		.byte	0x9f
 6267 0b4b 64040000 		.4byte	.LVL207
 6268 0b4f 68040000 		.4byte	.LVL208
 6269 0b53 0100     		.2byte	0x1
 6270 0b55 53       		.byte	0x53
 6271 0b56 68040000 		.4byte	.LVL208
 6272 0b5a 9C040000 		.4byte	.LVL219
 6273 0b5e 0100     		.2byte	0x1
ARM GAS  C:\Users\Ray\AppData\Local\Temp\ccn0usL8.s 			page 119


 6274 0b60 5C       		.byte	0x5c
 6275 0b61 A2040000 		.4byte	.LVL220
 6276 0b65 DE040000 		.4byte	.LVL232
 6277 0b69 0100     		.2byte	0x1
 6278 0b6b 5C       		.byte	0x5c
 6279 0b6c DE040000 		.4byte	.LVL232
 6280 0b70 E2040000 		.4byte	.LVL233
 6281 0b74 0D00     		.2byte	0xd
 6282 0b76 71       		.byte	0x71
 6283 0b77 00       		.sleb128 0
 6284 0b78 20       		.byte	0x20
 6285 0b79 76       		.byte	0x76
 6286 0b7a 00       		.sleb128 0
 6287 0b7b 21       		.byte	0x21
 6288 0b7c 77       		.byte	0x77
 6289 0b7d 00       		.sleb128 0
 6290 0b7e 27       		.byte	0x27
 6291 0b7f 73       		.byte	0x73
 6292 0b80 00       		.sleb128 0
 6293 0b81 22       		.byte	0x22
 6294 0b82 9F       		.byte	0x9f
 6295 0b83 E2040000 		.4byte	.LVL233
 6296 0b87 E6040000 		.4byte	.LVL234
 6297 0b8b 0100     		.2byte	0x1
 6298 0b8d 52       		.byte	0x52
 6299 0b8e E6040000 		.4byte	.LVL234
 6300 0b92 EA040000 		.4byte	.LVL235
 6301 0b96 1800     		.2byte	0x18
 6302 0b98 71       		.byte	0x71
 6303 0b99 00       		.sleb128 0
 6304 0b9a 20       		.byte	0x20
 6305 0b9b 76       		.byte	0x76
 6306 0b9c 00       		.sleb128 0
 6307 0b9d 21       		.byte	0x21
 6308 0b9e 77       		.byte	0x77
 6309 0b9f 00       		.sleb128 0
 6310 0ba0 27       		.byte	0x27
 6311 0ba1 91       		.byte	0x91
 6312 0ba2 A47F     		.sleb128 -92
 6313 0ba4 06       		.byte	0x6
 6314 0ba5 22       		.byte	0x22
 6315 0ba6 7C       		.byte	0x7c
 6316 0ba7 00       		.sleb128 0
 6317 0ba8 22       		.byte	0x22
 6318 0ba9 23       		.byte	0x23
 6319 0baa A1D7E7F6 		.uleb128 0x6ed9eba1
 6319      06
 6320 0baf 9F       		.byte	0x9f
 6321 0bb0 EA040000 		.4byte	.LVL235
 6322 0bb4 EE040000 		.4byte	.LVL236
 6323 0bb8 0100     		.2byte	0x1
 6324 0bba 53       		.byte	0x53
 6325 0bbb EE040000 		.4byte	.LVL236
 6326 0bbf 30050000 		.4byte	.LVL249
 6327 0bc3 0100     		.2byte	0x1
 6328 0bc5 5C       		.byte	0x5c
 6329 0bc6 30050000 		.4byte	.LVL249
ARM GAS  C:\Users\Ray\AppData\Local\Temp\ccn0usL8.s 			page 120


 6330 0bca 66050000 		.4byte	.LVL259
 6331 0bce 0100     		.2byte	0x1
 6332 0bd0 52       		.byte	0x52
 6333 0bd1 66050000 		.4byte	.LVL259
 6334 0bd5 74050000 		.4byte	.LVL260
 6335 0bd9 0F00     		.2byte	0xf
 6336 0bdb 71       		.byte	0x71
 6337 0bdc 00       		.sleb128 0
 6338 0bdd 75       		.byte	0x75
 6339 0bde 00       		.sleb128 0
 6340 0bdf 27       		.byte	0x27
 6341 0be0 7C       		.byte	0x7c
 6342 0be1 00       		.sleb128 0
 6343 0be2 1A       		.byte	0x1a
 6344 0be3 71       		.byte	0x71
 6345 0be4 00       		.sleb128 0
 6346 0be5 27       		.byte	0x27
 6347 0be6 72       		.byte	0x72
 6348 0be7 00       		.sleb128 0
 6349 0be8 22       		.byte	0x22
 6350 0be9 9F       		.byte	0x9f
 6351 0bea 76050000 		.4byte	.LVL261
 6352 0bee 78050000 		.4byte	.LVL262
 6353 0bf2 0100     		.2byte	0x1
 6354 0bf4 52       		.byte	0x52
 6355 0bf5 80050000 		.4byte	.LVL263
 6356 0bf9 AE050000 		.4byte	.LVL270
 6357 0bfd 0100     		.2byte	0x1
 6358 0bff 52       		.byte	0x52
 6359 0c00 BA050000 		.4byte	.LVL273
 6360 0c04 0A060000 		.4byte	.LVL285
 6361 0c08 0100     		.2byte	0x1
 6362 0c0a 57       		.byte	0x57
 6363 0c0b 0A060000 		.4byte	.LVL285
 6364 0c0f 16060000 		.4byte	.LVL286
 6365 0c13 0F00     		.2byte	0xf
 6366 0c15 72       		.byte	0x72
 6367 0c16 00       		.sleb128 0
 6368 0c17 75       		.byte	0x75
 6369 0c18 00       		.sleb128 0
 6370 0c19 27       		.byte	0x27
 6371 0c1a 76       		.byte	0x76
 6372 0c1b 00       		.sleb128 0
 6373 0c1c 1A       		.byte	0x1a
 6374 0c1d 72       		.byte	0x72
 6375 0c1e 00       		.sleb128 0
 6376 0c1f 27       		.byte	0x27
 6377 0c20 77       		.byte	0x77
 6378 0c21 00       		.sleb128 0
 6379 0c22 22       		.byte	0x22
 6380 0c23 9F       		.byte	0x9f
 6381 0c24 16060000 		.4byte	.LVL286
 6382 0c28 18060000 		.4byte	.LVL287
 6383 0c2c 0100     		.2byte	0x1
 6384 0c2e 53       		.byte	0x53
 6385 0c2f 18060000 		.4byte	.LVL287
 6386 0c33 1A060000 		.4byte	.LVL288
ARM GAS  C:\Users\Ray\AppData\Local\Temp\ccn0usL8.s 			page 121


 6387 0c37 0F00     		.2byte	0xf
 6388 0c39 72       		.byte	0x72
 6389 0c3a 00       		.sleb128 0
 6390 0c3b 75       		.byte	0x75
 6391 0c3c 00       		.sleb128 0
 6392 0c3d 27       		.byte	0x27
 6393 0c3e 76       		.byte	0x76
 6394 0c3f 00       		.sleb128 0
 6395 0c40 1A       		.byte	0x1a
 6396 0c41 72       		.byte	0x72
 6397 0c42 00       		.sleb128 0
 6398 0c43 27       		.byte	0x27
 6399 0c44 77       		.byte	0x77
 6400 0c45 00       		.sleb128 0
 6401 0c46 22       		.byte	0x22
 6402 0c47 9F       		.byte	0x9f
 6403 0c48 26060000 		.4byte	.LVL290
 6404 0c4c 50060000 		.4byte	.LVL296
 6405 0c50 0100     		.2byte	0x1
 6406 0c52 53       		.byte	0x53
 6407 0c53 5C060000 		.4byte	.LVL299
 6408 0c57 60060000 		.4byte	.LVL300
 6409 0c5b 0100     		.2byte	0x1
 6410 0c5d 53       		.byte	0x53
 6411 0c5e 60060000 		.4byte	.LVL300
 6412 0c62 B0060000 		.4byte	.LVL313
 6413 0c66 0100     		.2byte	0x1
 6414 0c68 5C       		.byte	0x5c
 6415 0c69 B8060000 		.4byte	.LVL315
 6416 0c6d EC060000 		.4byte	.LVL324
 6417 0c71 0100     		.2byte	0x1
 6418 0c73 53       		.byte	0x53
 6419 0c74 F6060000 		.4byte	.LVL326
 6420 0c78 30070000 		.4byte	.LVL336
 6421 0c7c 0100     		.2byte	0x1
 6422 0c7e 56       		.byte	0x56
 6423 0c7f 34070000 		.4byte	.LVL337
 6424 0c83 3E070000 		.4byte	.LVL338
 6425 0c87 0F00     		.2byte	0xf
 6426 0c89 73       		.byte	0x73
 6427 0c8a 00       		.sleb128 0
 6428 0c8b 71       		.byte	0x71
 6429 0c8c 00       		.sleb128 0
 6430 0c8d 27       		.byte	0x27
 6431 0c8e 75       		.byte	0x75
 6432 0c8f 00       		.sleb128 0
 6433 0c90 1A       		.byte	0x1a
 6434 0c91 73       		.byte	0x73
 6435 0c92 00       		.sleb128 0
 6436 0c93 27       		.byte	0x27
 6437 0c94 76       		.byte	0x76
 6438 0c95 00       		.sleb128 0
 6439 0c96 22       		.byte	0x22
 6440 0c97 9F       		.byte	0x9f
 6441 0c98 40070000 		.4byte	.LVL339
 6442 0c9c 42070000 		.4byte	.LVL340
 6443 0ca0 0100     		.2byte	0x1
ARM GAS  C:\Users\Ray\AppData\Local\Temp\ccn0usL8.s 			page 122


 6444 0ca2 56       		.byte	0x56
 6445 0ca3 4A070000 		.4byte	.LVL341
 6446 0ca7 74070000 		.4byte	.LVL349
 6447 0cab 0100     		.2byte	0x1
 6448 0cad 56       		.byte	0x56
 6449 0cae 80070000 		.4byte	.LVL352
 6450 0cb2 BA070000 		.4byte	.LVL364
 6451 0cb6 0100     		.2byte	0x1
 6452 0cb8 56       		.byte	0x56
 6453 0cb9 BA070000 		.4byte	.LVL364
 6454 0cbd C6070000 		.4byte	.LVL365
 6455 0cc1 0D00     		.2byte	0xd
 6456 0cc3 75       		.byte	0x75
 6457 0cc4 00       		.sleb128 0
 6458 0cc5 20       		.byte	0x20
 6459 0cc6 7C       		.byte	0x7c
 6460 0cc7 00       		.sleb128 0
 6461 0cc8 21       		.byte	0x21
 6462 0cc9 71       		.byte	0x71
 6463 0cca 00       		.sleb128 0
 6464 0ccb 27       		.byte	0x27
 6465 0ccc 76       		.byte	0x76
 6466 0ccd 00       		.sleb128 0
 6467 0cce 22       		.byte	0x22
 6468 0ccf 9F       		.byte	0x9f
 6469 0cd0 C6070000 		.4byte	.LVL365
 6470 0cd4 C8070000 		.4byte	.LVL366
 6471 0cd8 0100     		.2byte	0x1
 6472 0cda 56       		.byte	0x56
 6473 0cdb D4070000 		.4byte	.LVL368
 6474 0cdf FC070000 		.4byte	.LVL375
 6475 0ce3 0100     		.2byte	0x1
 6476 0ce5 56       		.byte	0x56
 6477 0ce6 08080000 		.4byte	.LVL378
 6478 0cea 48080000 		.4byte	.LVL392
 6479 0cee 0100     		.2byte	0x1
 6480 0cf0 56       		.byte	0x56
 6481 0cf1 48080000 		.4byte	.LVL392
 6482 0cf5 56080000 		.4byte	.LVL393
 6483 0cf9 0E00     		.2byte	0xe
 6484 0cfb 71       		.byte	0x71
 6485 0cfc 00       		.sleb128 0
 6486 0cfd 20       		.byte	0x20
 6487 0cfe 7C       		.byte	0x7c
 6488 0cff 00       		.sleb128 0
 6489 0d00 21       		.byte	0x21
 6490 0d01 7D       		.byte	0x7d
 6491 0d02 00       		.sleb128 0
 6492 0d03 06       		.byte	0x6
 6493 0d04 27       		.byte	0x27
 6494 0d05 76       		.byte	0x76
 6495 0d06 00       		.sleb128 0
 6496 0d07 22       		.byte	0x22
 6497 0d08 9F       		.byte	0x9f
 6498 0d09 56080000 		.4byte	.LVL393
 6499 0d0d 58080000 		.4byte	.LVL394
 6500 0d11 0100     		.2byte	0x1
ARM GAS  C:\Users\Ray\AppData\Local\Temp\ccn0usL8.s 			page 123


 6501 0d13 56       		.byte	0x56
 6502 0d14 62080000 		.4byte	.LVL395
 6503 0d18 92080000 		.4byte	.LVL403
 6504 0d1c 0100     		.2byte	0x1
 6505 0d1e 56       		.byte	0x56
 6506 0d1f 9A080000 		.4byte	.LVL405
 6507 0d23 DA080000 		.4byte	.LVL418
 6508 0d27 0100     		.2byte	0x1
 6509 0d29 56       		.byte	0x56
 6510 0d2a DA080000 		.4byte	.LVL418
 6511 0d2e E6080000 		.4byte	.LVL419
 6512 0d32 0E00     		.2byte	0xe
 6513 0d34 71       		.byte	0x71
 6514 0d35 00       		.sleb128 0
 6515 0d36 20       		.byte	0x20
 6516 0d37 75       		.byte	0x75
 6517 0d38 00       		.sleb128 0
 6518 0d39 21       		.byte	0x21
 6519 0d3a 91       		.byte	0x91
 6520 0d3b 54       		.sleb128 -44
 6521 0d3c 06       		.byte	0x6
 6522 0d3d 27       		.byte	0x27
 6523 0d3e 76       		.byte	0x76
 6524 0d3f 00       		.sleb128 0
 6525 0d40 22       		.byte	0x22
 6526 0d41 9F       		.byte	0x9f
 6527 0d42 E6080000 		.4byte	.LVL419
 6528 0d46 E8080000 		.4byte	.LVL420
 6529 0d4a 0100     		.2byte	0x1
 6530 0d4c 56       		.byte	0x56
 6531 0d4d 08090000 		.4byte	.LVL423
 6532 0d51 4E090000 		.4byte	.LVL434
 6533 0d55 0100     		.2byte	0x1
 6534 0d57 56       		.byte	0x56
 6535 0d58 4E090000 		.4byte	.LVL434
 6536 0d5c FC120000 		.4byte	.LFE0
 6537 0d60 0200     		.2byte	0x2
 6538 0d62 91       		.byte	0x91
 6539 0d63 5C       		.sleb128 -36
 6540 0d64 00000000 		.4byte	0
 6541 0d68 00000000 		.4byte	0
 6542              	.LLST5:
 6543 0d6c 00000000 		.4byte	.LVL0
 6544 0d70 26000000 		.4byte	.LVL5
 6545 0d74 0200     		.2byte	0x2
 6546 0d76 70       		.byte	0x70
 6547 0d77 0C       		.sleb128 12
 6548 0d78 26000000 		.4byte	.LVL5
 6549 0d7c 60000000 		.4byte	.LVL16
 6550 0d80 0200     		.2byte	0x2
 6551 0d82 74       		.byte	0x74
 6552 0d83 0C       		.sleb128 12
 6553 0d84 60000000 		.4byte	.LVL16
 6554 0d88 6A000000 		.4byte	.LVL17
 6555 0d8c 0D00     		.2byte	0xd
 6556 0d8e 72       		.byte	0x72
 6557 0d8f 00       		.sleb128 0
ARM GAS  C:\Users\Ray\AppData\Local\Temp\ccn0usL8.s 			page 124


 6558 0d90 91       		.byte	0x91
 6559 0d91 50       		.sleb128 -48
 6560 0d92 06       		.byte	0x6
 6561 0d93 27       		.byte	0x27
 6562 0d94 73       		.byte	0x73
 6563 0d95 00       		.sleb128 0
 6564 0d96 27       		.byte	0x27
 6565 0d97 76       		.byte	0x76
 6566 0d98 00       		.sleb128 0
 6567 0d99 22       		.byte	0x22
 6568 0d9a 9F       		.byte	0x9f
 6569 0d9b 6A000000 		.4byte	.LVL17
 6570 0d9f 6C000000 		.4byte	.LVL18
 6571 0da3 0100     		.2byte	0x1
 6572 0da5 55       		.byte	0x55
 6573 0da6 6C000000 		.4byte	.LVL18
 6574 0daa 70000000 		.4byte	.LVL19
 6575 0dae 0D00     		.2byte	0xd
 6576 0db0 72       		.byte	0x72
 6577 0db1 00       		.sleb128 0
 6578 0db2 91       		.byte	0x91
 6579 0db3 50       		.sleb128 -48
 6580 0db4 06       		.byte	0x6
 6581 0db5 27       		.byte	0x27
 6582 0db6 73       		.byte	0x73
 6583 0db7 00       		.sleb128 0
 6584 0db8 27       		.byte	0x27
 6585 0db9 76       		.byte	0x76
 6586 0dba 00       		.sleb128 0
 6587 0dbb 22       		.byte	0x22
 6588 0dbc 9F       		.byte	0x9f
 6589 0dbd 70000000 		.4byte	.LVL19
 6590 0dc1 72000000 		.4byte	.LVL20
 6591 0dc5 2D00     		.2byte	0x2d
 6592 0dc7 74       		.byte	0x74
 6593 0dc8 04       		.sleb128 4
 6594 0dc9 06       		.byte	0x6
 6595 0dca 74       		.byte	0x74
 6596 0dcb 08       		.sleb128 8
 6597 0dcc 06       		.byte	0x6
 6598 0dcd 27       		.byte	0x27
 6599 0dce 74       		.byte	0x74
 6600 0dcf 0C       		.sleb128 12
 6601 0dd0 06       		.byte	0x6
 6602 0dd1 27       		.byte	0x27
 6603 0dd2 74       		.byte	0x74
 6604 0dd3 00       		.sleb128 0
 6605 0dd4 06       		.byte	0x6
 6606 0dd5 7D       		.byte	0x7d
 6607 0dd6 00       		.sleb128 0
 6608 0dd7 06       		.byte	0x6
 6609 0dd8 06       		.byte	0x6
 6610 0dd9 22       		.byte	0x22
 6611 0dda 22       		.byte	0x22
 6612 0ddb 45       		.byte	0x45
 6613 0ddc 14       		.byte	0x14
 6614 0ddd 14       		.byte	0x14
ARM GAS  C:\Users\Ray\AppData\Local\Temp\ccn0usL8.s 			page 125


 6615 0dde 1F       		.byte	0x1f
 6616 0ddf 23       		.byte	0x23
 6617 0de0 20       		.uleb128 0x20
 6618 0de1 24       		.byte	0x24
 6619 0de2 17       		.byte	0x17
 6620 0de3 25       		.byte	0x25
 6621 0de4 21       		.byte	0x21
 6622 0de5 74       		.byte	0x74
 6623 0de6 10       		.sleb128 16
 6624 0de7 06       		.byte	0x6
 6625 0de8 22       		.byte	0x22
 6626 0de9 91       		.byte	0x91
 6627 0dea 50       		.sleb128 -48
 6628 0deb 06       		.byte	0x6
 6629 0dec 27       		.byte	0x27
 6630 0ded 73       		.byte	0x73
 6631 0dee 00       		.sleb128 0
 6632 0def 27       		.byte	0x27
 6633 0df0 76       		.byte	0x76
 6634 0df1 00       		.sleb128 0
 6635 0df2 22       		.byte	0x22
 6636 0df3 9F       		.byte	0x9f
 6637 0df4 72000000 		.4byte	.LVL20
 6638 0df8 E8000000 		.4byte	.LVL39
 6639 0dfc 0100     		.2byte	0x1
 6640 0dfe 55       		.byte	0x55
 6641 0dff E8000000 		.4byte	.LVL39
 6642 0e03 F4000000 		.4byte	.LVL40
 6643 0e07 0C00     		.2byte	0xc
 6644 0e09 72       		.byte	0x72
 6645 0e0a 00       		.sleb128 0
 6646 0e0b 76       		.byte	0x76
 6647 0e0c 00       		.sleb128 0
 6648 0e0d 27       		.byte	0x27
 6649 0e0e 73       		.byte	0x73
 6650 0e0f 00       		.sleb128 0
 6651 0e10 27       		.byte	0x27
 6652 0e11 75       		.byte	0x75
 6653 0e12 00       		.sleb128 0
 6654 0e13 22       		.byte	0x22
 6655 0e14 9F       		.byte	0x9f
 6656 0e15 F4000000 		.4byte	.LVL40
 6657 0e19 F6000000 		.4byte	.LVL41
 6658 0e1d 0100     		.2byte	0x1
 6659 0e1f 55       		.byte	0x55
 6660 0e20 FA000000 		.4byte	.LVL42
 6661 0e24 6A010000 		.4byte	.LVL64
 6662 0e28 0100     		.2byte	0x1
 6663 0e2a 55       		.byte	0x55
 6664 0e2b 6A010000 		.4byte	.LVL64
 6665 0e2f 76010000 		.4byte	.LVL65
 6666 0e33 0C00     		.2byte	0xc
 6667 0e35 72       		.byte	0x72
 6668 0e36 00       		.sleb128 0
 6669 0e37 76       		.byte	0x76
 6670 0e38 00       		.sleb128 0
 6671 0e39 27       		.byte	0x27
ARM GAS  C:\Users\Ray\AppData\Local\Temp\ccn0usL8.s 			page 126


 6672 0e3a 73       		.byte	0x73
 6673 0e3b 00       		.sleb128 0
 6674 0e3c 27       		.byte	0x27
 6675 0e3d 75       		.byte	0x75
 6676 0e3e 00       		.sleb128 0
 6677 0e3f 22       		.byte	0x22
 6678 0e40 9F       		.byte	0x9f
 6679 0e41 76010000 		.4byte	.LVL65
 6680 0e45 78010000 		.4byte	.LVL66
 6681 0e49 0100     		.2byte	0x1
 6682 0e4b 55       		.byte	0x55
 6683 0e4c 7C010000 		.4byte	.LVL67
 6684 0e50 F4010000 		.4byte	.LVL90
 6685 0e54 0100     		.2byte	0x1
 6686 0e56 55       		.byte	0x55
 6687 0e57 F4010000 		.4byte	.LVL90
 6688 0e5b 02020000 		.4byte	.LVL91
 6689 0e5f 0F00     		.2byte	0xf
 6690 0e61 72       		.byte	0x72
 6691 0e62 00       		.sleb128 0
 6692 0e63 76       		.byte	0x76
 6693 0e64 00       		.sleb128 0
 6694 0e65 27       		.byte	0x27
 6695 0e66 7C       		.byte	0x7c
 6696 0e67 00       		.sleb128 0
 6697 0e68 1A       		.byte	0x1a
 6698 0e69 76       		.byte	0x76
 6699 0e6a 00       		.sleb128 0
 6700 0e6b 27       		.byte	0x27
 6701 0e6c 75       		.byte	0x75
 6702 0e6d 00       		.sleb128 0
 6703 0e6e 22       		.byte	0x22
 6704 0e6f 9F       		.byte	0x9f
 6705 0e70 02020000 		.4byte	.LVL91
 6706 0e74 04020000 		.4byte	.LVL92
 6707 0e78 0100     		.2byte	0x1
 6708 0e7a 55       		.byte	0x55
 6709 0e7b 08020000 		.4byte	.LVL93
 6710 0e7f 0C020000 		.4byte	.LVL94
 6711 0e83 0100     		.2byte	0x1
 6712 0e85 53       		.byte	0x53
 6713 0e86 0C020000 		.4byte	.LVL94
 6714 0e8a 4C020000 		.4byte	.LVL105
 6715 0e8e 0200     		.2byte	0x2
 6716 0e90 7D       		.byte	0x7d
 6717 0e91 00       		.sleb128 0
 6718 0e92 4C020000 		.4byte	.LVL105
 6719 0e96 88020000 		.4byte	.LVL117
 6720 0e9a 0100     		.2byte	0x1
 6721 0e9c 55       		.byte	0x55
 6722 0e9d 88020000 		.4byte	.LVL117
 6723 0ea1 96020000 		.4byte	.LVL118
 6724 0ea5 1000     		.2byte	0x10
 6725 0ea7 76       		.byte	0x76
 6726 0ea8 00       		.sleb128 0
 6727 0ea9 71       		.byte	0x71
 6728 0eaa 00       		.sleb128 0
ARM GAS  C:\Users\Ray\AppData\Local\Temp\ccn0usL8.s 			page 127


 6729 0eab 27       		.byte	0x27
 6730 0eac 7D       		.byte	0x7d
 6731 0ead 00       		.sleb128 0
 6732 0eae 06       		.byte	0x6
 6733 0eaf 1A       		.byte	0x1a
 6734 0eb0 71       		.byte	0x71
 6735 0eb1 00       		.sleb128 0
 6736 0eb2 27       		.byte	0x27
 6737 0eb3 75       		.byte	0x75
 6738 0eb4 00       		.sleb128 0
 6739 0eb5 22       		.byte	0x22
 6740 0eb6 9F       		.byte	0x9f
 6741 0eb7 96020000 		.4byte	.LVL118
 6742 0ebb 98020000 		.4byte	.LVL119
 6743 0ebf 0100     		.2byte	0x1
 6744 0ec1 55       		.byte	0x55
 6745 0ec2 9C020000 		.4byte	.LVL120
 6746 0ec6 A0020000 		.4byte	.LVL121
 6747 0eca 0100     		.2byte	0x1
 6748 0ecc 53       		.byte	0x53
 6749 0ecd A0020000 		.4byte	.LVL121
 6750 0ed1 DE020000 		.4byte	.LVL132
 6751 0ed5 0100     		.2byte	0x1
 6752 0ed7 5C       		.byte	0x5c
 6753 0ed8 DE020000 		.4byte	.LVL132
 6754 0edc 1C030000 		.4byte	.LVL144
 6755 0ee0 0100     		.2byte	0x1
 6756 0ee2 55       		.byte	0x55
 6757 0ee3 1C030000 		.4byte	.LVL144
 6758 0ee7 28030000 		.4byte	.LVL145
 6759 0eeb 0F00     		.2byte	0xf
 6760 0eed 76       		.byte	0x76
 6761 0eee 00       		.sleb128 0
 6762 0eef 71       		.byte	0x71
 6763 0ef0 00       		.sleb128 0
 6764 0ef1 27       		.byte	0x27
 6765 0ef2 7C       		.byte	0x7c
 6766 0ef3 00       		.sleb128 0
 6767 0ef4 1A       		.byte	0x1a
 6768 0ef5 71       		.byte	0x71
 6769 0ef6 00       		.sleb128 0
 6770 0ef7 27       		.byte	0x27
 6771 0ef8 75       		.byte	0x75
 6772 0ef9 00       		.sleb128 0
 6773 0efa 22       		.byte	0x22
 6774 0efb 9F       		.byte	0x9f
 6775 0efc 28030000 		.4byte	.LVL145
 6776 0f00 2C030000 		.4byte	.LVL146
 6777 0f04 0100     		.2byte	0x1
 6778 0f06 55       		.byte	0x55
 6779 0f07 36030000 		.4byte	.LVL148
 6780 0f0b AE030000 		.4byte	.LVL170
 6781 0f0f 0100     		.2byte	0x1
 6782 0f11 55       		.byte	0x55
 6783 0f12 B4030000 		.4byte	.LVL171
 6784 0f16 BC030000 		.4byte	.LVL172
 6785 0f1a 0E00     		.2byte	0xe
ARM GAS  C:\Users\Ray\AppData\Local\Temp\ccn0usL8.s 			page 128


 6786 0f1c 76       		.byte	0x76
 6787 0f1d 00       		.sleb128 0
 6788 0f1e 20       		.byte	0x20
 6789 0f1f 7D       		.byte	0x7d
 6790 0f20 00       		.sleb128 0
 6791 0f21 06       		.byte	0x6
 6792 0f22 21       		.byte	0x21
 6793 0f23 71       		.byte	0x71
 6794 0f24 00       		.sleb128 0
 6795 0f25 27       		.byte	0x27
 6796 0f26 75       		.byte	0x75
 6797 0f27 00       		.sleb128 0
 6798 0f28 22       		.byte	0x22
 6799 0f29 9F       		.byte	0x9f
 6800 0f2a BC030000 		.4byte	.LVL172
 6801 0f2e BE030000 		.4byte	.LVL173
 6802 0f32 0100     		.2byte	0x1
 6803 0f34 55       		.byte	0x55
 6804 0f35 C4030000 		.4byte	.LVL174
 6805 0f39 38040000 		.4byte	.LVL197
 6806 0f3d 0100     		.2byte	0x1
 6807 0f3f 55       		.byte	0x55
 6808 0f40 3C040000 		.4byte	.LVL198
 6809 0f44 44040000 		.4byte	.LVL199
 6810 0f48 0D00     		.2byte	0xd
 6811 0f4a 77       		.byte	0x77
 6812 0f4b 00       		.sleb128 0
 6813 0f4c 20       		.byte	0x20
 6814 0f4d 72       		.byte	0x72
 6815 0f4e 00       		.sleb128 0
 6816 0f4f 21       		.byte	0x21
 6817 0f50 71       		.byte	0x71
 6818 0f51 00       		.sleb128 0
 6819 0f52 27       		.byte	0x27
 6820 0f53 75       		.byte	0x75
 6821 0f54 00       		.sleb128 0
 6822 0f55 22       		.byte	0x22
 6823 0f56 9F       		.byte	0x9f
 6824 0f57 44040000 		.4byte	.LVL199
 6825 0f5b 46040000 		.4byte	.LVL200
 6826 0f5f 0100     		.2byte	0x1
 6827 0f61 56       		.byte	0x56
 6828 0f62 46040000 		.4byte	.LVL200
 6829 0f66 48040000 		.4byte	.LVL201
 6830 0f6a 0D00     		.2byte	0xd
 6831 0f6c 77       		.byte	0x77
 6832 0f6d 00       		.sleb128 0
 6833 0f6e 20       		.byte	0x20
 6834 0f6f 72       		.byte	0x72
 6835 0f70 00       		.sleb128 0
 6836 0f71 21       		.byte	0x21
 6837 0f72 71       		.byte	0x71
 6838 0f73 00       		.sleb128 0
 6839 0f74 27       		.byte	0x27
 6840 0f75 75       		.byte	0x75
 6841 0f76 00       		.sleb128 0
 6842 0f77 22       		.byte	0x22
ARM GAS  C:\Users\Ray\AppData\Local\Temp\ccn0usL8.s 			page 129


 6843 0f78 9F       		.byte	0x9f
 6844 0f79 54040000 		.4byte	.LVL203
 6845 0f7d BE040000 		.4byte	.LVL226
 6846 0f81 0100     		.2byte	0x1
 6847 0f83 56       		.byte	0x56
 6848 0f84 C2040000 		.4byte	.LVL227
 6849 0f88 CA040000 		.4byte	.LVL228
 6850 0f8c 0D00     		.2byte	0xd
 6851 0f8e 77       		.byte	0x77
 6852 0f8f 00       		.sleb128 0
 6853 0f90 20       		.byte	0x20
 6854 0f91 71       		.byte	0x71
 6855 0f92 00       		.sleb128 0
 6856 0f93 21       		.byte	0x21
 6857 0f94 75       		.byte	0x75
 6858 0f95 00       		.sleb128 0
 6859 0f96 27       		.byte	0x27
 6860 0f97 76       		.byte	0x76
 6861 0f98 00       		.sleb128 0
 6862 0f99 22       		.byte	0x22
 6863 0f9a 9F       		.byte	0x9f
 6864 0f9b CA040000 		.4byte	.LVL228
 6865 0f9f CC040000 		.4byte	.LVL229
 6866 0fa3 0100     		.2byte	0x1
 6867 0fa5 56       		.byte	0x56
 6868 0fa6 DA040000 		.4byte	.LVL231
 6869 0faa 4A050000 		.4byte	.LVL254
 6870 0fae 0100     		.2byte	0x1
 6871 0fb0 56       		.byte	0x56
 6872 0fb1 4A050000 		.4byte	.LVL254
 6873 0fb5 54050000 		.4byte	.LVL255
 6874 0fb9 0E00     		.2byte	0xe
 6875 0fbb 7D       		.byte	0x7d
 6876 0fbc 00       		.sleb128 0
 6877 0fbd 06       		.byte	0x6
 6878 0fbe 20       		.byte	0x20
 6879 0fbf 71       		.byte	0x71
 6880 0fc0 00       		.sleb128 0
 6881 0fc1 21       		.byte	0x21
 6882 0fc2 77       		.byte	0x77
 6883 0fc3 00       		.sleb128 0
 6884 0fc4 27       		.byte	0x27
 6885 0fc5 76       		.byte	0x76
 6886 0fc6 00       		.sleb128 0
 6887 0fc7 22       		.byte	0x22
 6888 0fc8 9F       		.byte	0x9f
 6889 0fc9 54050000 		.4byte	.LVL255
 6890 0fcd 56050000 		.4byte	.LVL256
 6891 0fd1 0100     		.2byte	0x1
 6892 0fd3 55       		.byte	0x55
 6893 0fd4 56050000 		.4byte	.LVL256
 6894 0fd8 5A050000 		.4byte	.LVL257
 6895 0fdc 0E00     		.2byte	0xe
 6896 0fde 7D       		.byte	0x7d
 6897 0fdf 00       		.sleb128 0
 6898 0fe0 06       		.byte	0x6
 6899 0fe1 20       		.byte	0x20
ARM GAS  C:\Users\Ray\AppData\Local\Temp\ccn0usL8.s 			page 130


 6900 0fe2 71       		.byte	0x71
 6901 0fe3 00       		.sleb128 0
 6902 0fe4 21       		.byte	0x21
 6903 0fe5 77       		.byte	0x77
 6904 0fe6 00       		.sleb128 0
 6905 0fe7 27       		.byte	0x27
 6906 0fe8 76       		.byte	0x76
 6907 0fe9 00       		.sleb128 0
 6908 0fea 22       		.byte	0x22
 6909 0feb 9F       		.byte	0x9f
 6910 0fec 62050000 		.4byte	.LVL258
 6911 0ff0 98050000 		.4byte	.LVL268
 6912 0ff4 0100     		.2byte	0x1
 6913 0ff6 55       		.byte	0x55
 6914 0ff7 B2050000 		.4byte	.LVL271
 6915 0ffb B6050000 		.4byte	.LVL272
 6916 0fff 0100     		.2byte	0x1
 6917 1001 55       		.byte	0x55
 6918 1002 B6050000 		.4byte	.LVL272
 6919 1006 EC050000 		.4byte	.LVL280
 6920 100a 0200     		.2byte	0x2
 6921 100c 7D       		.byte	0x7d
 6922 100d 00       		.sleb128 0
 6923 100e EC050000 		.4byte	.LVL280
 6924 1012 F8050000 		.4byte	.LVL281
 6925 1016 0F00     		.2byte	0xf
 6926 1018 73       		.byte	0x73
 6927 1019 00       		.sleb128 0
 6928 101a 72       		.byte	0x72
 6929 101b 00       		.sleb128 0
 6930 101c 27       		.byte	0x27
 6931 101d 7C       		.byte	0x7c
 6932 101e 00       		.sleb128 0
 6933 101f 1A       		.byte	0x1a
 6934 1020 73       		.byte	0x73
 6935 1021 00       		.sleb128 0
 6936 1022 27       		.byte	0x27
 6937 1023 75       		.byte	0x75
 6938 1024 00       		.sleb128 0
 6939 1025 22       		.byte	0x22
 6940 1026 9F       		.byte	0x9f
 6941 1027 F8050000 		.4byte	.LVL281
 6942 102b FE050000 		.4byte	.LVL283
 6943 102f 0100     		.2byte	0x1
 6944 1031 55       		.byte	0x55
 6945 1032 06060000 		.4byte	.LVL284
 6946 1036 34060000 		.4byte	.LVL291
 6947 103a 0100     		.2byte	0x1
 6948 103c 55       		.byte	0x55
 6949 103d 40060000 		.4byte	.LVL294
 6950 1041 82060000 		.4byte	.LVL306
 6951 1045 0100     		.2byte	0x1
 6952 1047 57       		.byte	0x57
 6953 1048 82060000 		.4byte	.LVL306
 6954 104c 8E060000 		.4byte	.LVL307
 6955 1050 0F00     		.2byte	0xf
 6956 1052 75       		.byte	0x75
ARM GAS  C:\Users\Ray\AppData\Local\Temp\ccn0usL8.s 			page 131


 6957 1053 00       		.sleb128 0
 6958 1054 72       		.byte	0x72
 6959 1055 00       		.sleb128 0
 6960 1056 27       		.byte	0x27
 6961 1057 76       		.byte	0x76
 6962 1058 00       		.sleb128 0
 6963 1059 1A       		.byte	0x1a
 6964 105a 75       		.byte	0x75
 6965 105b 00       		.sleb128 0
 6966 105c 27       		.byte	0x27
 6967 105d 77       		.byte	0x77
 6968 105e 00       		.sleb128 0
 6969 105f 22       		.byte	0x22
 6970 1060 9F       		.byte	0x9f
 6971 1061 8E060000 		.4byte	.LVL307
 6972 1065 90060000 		.4byte	.LVL308
 6973 1069 0100     		.2byte	0x1
 6974 106b 51       		.byte	0x51
 6975 106c 90060000 		.4byte	.LVL308
 6976 1070 92060000 		.4byte	.LVL309
 6977 1074 0F00     		.2byte	0xf
 6978 1076 75       		.byte	0x75
 6979 1077 00       		.sleb128 0
 6980 1078 72       		.byte	0x72
 6981 1079 00       		.sleb128 0
 6982 107a 27       		.byte	0x27
 6983 107b 76       		.byte	0x76
 6984 107c 00       		.sleb128 0
 6985 107d 1A       		.byte	0x1a
 6986 107e 75       		.byte	0x75
 6987 107f 00       		.sleb128 0
 6988 1080 27       		.byte	0x27
 6989 1081 77       		.byte	0x77
 6990 1082 00       		.sleb128 0
 6991 1083 22       		.byte	0x22
 6992 1084 9F       		.byte	0x9f
 6993 1085 9E060000 		.4byte	.LVL311
 6994 1089 C8060000 		.4byte	.LVL317
 6995 108d 0100     		.2byte	0x1
 6996 108f 51       		.byte	0x51
 6997 1090 D4060000 		.4byte	.LVL320
 6998 1094 D8060000 		.4byte	.LVL321
 6999 1098 0100     		.2byte	0x1
 7000 109a 51       		.byte	0x51
 7001 109b D8060000 		.4byte	.LVL321
 7002 109f 26070000 		.4byte	.LVL333
 7003 10a3 0100     		.2byte	0x1
 7004 10a5 5C       		.byte	0x5c
 7005 10a6 2C070000 		.4byte	.LVL335
 7006 10aa 60070000 		.4byte	.LVL345
 7007 10ae 0100     		.2byte	0x1
 7008 10b0 51       		.byte	0x51
 7009 10b1 68070000 		.4byte	.LVL347
 7010 10b5 A0070000 		.4byte	.LVL359
 7011 10b9 0100     		.2byte	0x1
 7012 10bb 51       		.byte	0x51
 7013 10bc A0070000 		.4byte	.LVL359
ARM GAS  C:\Users\Ray\AppData\Local\Temp\ccn0usL8.s 			page 132


 7014 10c0 AC070000 		.4byte	.LVL360
 7015 10c4 0D00     		.2byte	0xd
 7016 10c6 72       		.byte	0x72
 7017 10c7 00       		.sleb128 0
 7018 10c8 20       		.byte	0x20
 7019 10c9 75       		.byte	0x75
 7020 10ca 00       		.sleb128 0
 7021 10cb 21       		.byte	0x21
 7022 10cc 7C       		.byte	0x7c
 7023 10cd 00       		.sleb128 0
 7024 10ce 27       		.byte	0x27
 7025 10cf 71       		.byte	0x71
 7026 10d0 00       		.sleb128 0
 7027 10d1 22       		.byte	0x22
 7028 10d2 9F       		.byte	0x9f
 7029 10d3 AC070000 		.4byte	.LVL360
 7030 10d7 B0070000 		.4byte	.LVL362
 7031 10db 0100     		.2byte	0x1
 7032 10dd 51       		.byte	0x51
 7033 10de B6070000 		.4byte	.LVL363
 7034 10e2 E2070000 		.4byte	.LVL370
 7035 10e6 0100     		.2byte	0x1
 7036 10e8 51       		.byte	0x51
 7037 10e9 F0070000 		.4byte	.LVL373
 7038 10ed 2A080000 		.4byte	.LVL386
 7039 10f1 0100     		.2byte	0x1
 7040 10f3 57       		.byte	0x57
 7041 10f4 2A080000 		.4byte	.LVL386
 7042 10f8 36080000 		.4byte	.LVL387
 7043 10fc 0D00     		.2byte	0xd
 7044 10fe 75       		.byte	0x75
 7045 10ff 00       		.sleb128 0
 7046 1100 20       		.byte	0x20
 7047 1101 71       		.byte	0x71
 7048 1102 00       		.sleb128 0
 7049 1103 21       		.byte	0x21
 7050 1104 7C       		.byte	0x7c
 7051 1105 00       		.sleb128 0
 7052 1106 27       		.byte	0x27
 7053 1107 77       		.byte	0x77
 7054 1108 00       		.sleb128 0
 7055 1109 22       		.byte	0x22
 7056 110a 9F       		.byte	0x9f
 7057 110b 36080000 		.4byte	.LVL387
 7058 110f 38080000 		.4byte	.LVL388
 7059 1113 0100     		.2byte	0x1
 7060 1115 52       		.byte	0x52
 7061 1116 38080000 		.4byte	.LVL388
 7062 111a 3A080000 		.4byte	.LVL389
 7063 111e 0D00     		.2byte	0xd
 7064 1120 75       		.byte	0x75
 7065 1121 00       		.sleb128 0
 7066 1122 20       		.byte	0x20
 7067 1123 71       		.byte	0x71
 7068 1124 00       		.sleb128 0
 7069 1125 21       		.byte	0x21
 7070 1126 7C       		.byte	0x7c
ARM GAS  C:\Users\Ray\AppData\Local\Temp\ccn0usL8.s 			page 133


 7071 1127 00       		.sleb128 0
 7072 1128 27       		.byte	0x27
 7073 1129 77       		.byte	0x77
 7074 112a 00       		.sleb128 0
 7075 112b 22       		.byte	0x22
 7076 112c 9F       		.byte	0x9f
 7077 112d 3E080000 		.4byte	.LVL390
 7078 1131 42080000 		.4byte	.LVL391
 7079 1135 0100     		.2byte	0x1
 7080 1137 53       		.byte	0x53
 7081 1138 42080000 		.4byte	.LVL391
 7082 113c 7C080000 		.4byte	.LVL399
 7083 1140 0200     		.2byte	0x2
 7084 1142 7D       		.byte	0x7d
 7085 1143 00       		.sleb128 0
 7086 1144 7C080000 		.4byte	.LVL399
 7087 1148 BE080000 		.4byte	.LVL411
 7088 114c 0100     		.2byte	0x1
 7089 114e 52       		.byte	0x52
 7090 114f BE080000 		.4byte	.LVL411
 7091 1153 C8080000 		.4byte	.LVL412
 7092 1157 0D00     		.2byte	0xd
 7093 1159 7C       		.byte	0x7c
 7094 115a 00       		.sleb128 0
 7095 115b 20       		.byte	0x20
 7096 115c 71       		.byte	0x71
 7097 115d 00       		.sleb128 0
 7098 115e 21       		.byte	0x21
 7099 115f 75       		.byte	0x75
 7100 1160 00       		.sleb128 0
 7101 1161 27       		.byte	0x27
 7102 1162 72       		.byte	0x72
 7103 1163 00       		.sleb128 0
 7104 1164 22       		.byte	0x22
 7105 1165 9F       		.byte	0x9f
 7106 1166 C8080000 		.4byte	.LVL412
 7107 116a CA080000 		.4byte	.LVL413
 7108 116e 0100     		.2byte	0x1
 7109 1170 52       		.byte	0x52
 7110 1171 CA080000 		.4byte	.LVL413
 7111 1175 CC080000 		.4byte	.LVL414
 7112 1179 2400     		.2byte	0x24
 7113 117b 7C       		.byte	0x7c
 7114 117c 00       		.sleb128 0
 7115 117d 20       		.byte	0x20
 7116 117e 71       		.byte	0x71
 7117 117f 00       		.sleb128 0
 7118 1180 21       		.byte	0x21
 7119 1181 75       		.byte	0x75
 7120 1182 00       		.sleb128 0
 7121 1183 27       		.byte	0x27
 7122 1184 7D       		.byte	0x7d
 7123 1185 00       		.sleb128 0
 7124 1186 06       		.byte	0x6
 7125 1187 70       		.byte	0x70
 7126 1188 00       		.sleb128 0
 7127 1189 14       		.byte	0x14
ARM GAS  C:\Users\Ray\AppData\Local\Temp\ccn0usL8.s 			page 134


 7128 118a 14       		.byte	0x14
 7129 118b 1F       		.byte	0x1f
 7130 118c 23       		.byte	0x23
 7131 118d 20       		.uleb128 0x20
 7132 118e 24       		.byte	0x24
 7133 118f 17       		.byte	0x17
 7134 1190 25       		.byte	0x25
 7135 1191 21       		.byte	0x21
 7136 1192 22       		.byte	0x22
 7137 1193 91       		.byte	0x91
 7138 1194 A47F     		.sleb128 -92
 7139 1196 06       		.byte	0x6
 7140 1197 22       		.byte	0x22
 7141 1198 0C       		.byte	0xc
 7142 1199 B202AC56 		.4byte	0x56ac02b2
 7143 119d 1C       		.byte	0x1c
 7144 119e 9F       		.byte	0x9f
 7145 119f D0080000 		.4byte	.LVL415
 7146 11a3 D4080000 		.4byte	.LVL416
 7147 11a7 0100     		.2byte	0x1
 7148 11a9 53       		.byte	0x53
 7149 11aa D4080000 		.4byte	.LVL416
 7150 11ae 0E090000 		.4byte	.LVL424
 7151 11b2 0200     		.2byte	0x2
 7152 11b4 91       		.byte	0x91
 7153 11b5 54       		.sleb128 -44
 7154 11b6 0E090000 		.4byte	.LVL424
 7155 11ba A4120000 		.4byte	.LVL824
 7156 11be 0E00     		.2byte	0xe
 7157 11c0 91       		.byte	0x91
 7158 11c1 54       		.sleb128 -44
 7159 11c2 06       		.byte	0x6
 7160 11c3 46       		.byte	0x46
 7161 11c4 14       		.byte	0x14
 7162 11c5 14       		.byte	0x14
 7163 11c6 1F       		.byte	0x1f
 7164 11c7 23       		.byte	0x23
 7165 11c8 20       		.uleb128 0x20
 7166 11c9 24       		.byte	0x24
 7167 11ca 17       		.byte	0x17
 7168 11cb 25       		.byte	0x25
 7169 11cc 21       		.byte	0x21
 7170 11cd 9F       		.byte	0x9f
 7171 11ce A4120000 		.4byte	.LVL824
 7172 11d2 A8120000 		.4byte	.LVL825
 7173 11d6 0100     		.2byte	0x1
 7174 11d8 50       		.byte	0x50
 7175 11d9 A8120000 		.4byte	.LVL825
 7176 11dd AC120000 		.4byte	.LVL826
 7177 11e1 0100     		.2byte	0x1
 7178 11e3 53       		.byte	0x53
 7179 11e4 AC120000 		.4byte	.LVL826
 7180 11e8 FC120000 		.4byte	.LFE0
 7181 11ec 0E00     		.2byte	0xe
 7182 11ee 91       		.byte	0x91
 7183 11ef 54       		.sleb128 -44
 7184 11f0 06       		.byte	0x6
ARM GAS  C:\Users\Ray\AppData\Local\Temp\ccn0usL8.s 			page 135


 7185 11f1 46       		.byte	0x46
 7186 11f2 14       		.byte	0x14
 7187 11f3 14       		.byte	0x14
 7188 11f4 1F       		.byte	0x1f
 7189 11f5 23       		.byte	0x23
 7190 11f6 20       		.uleb128 0x20
 7191 11f7 24       		.byte	0x24
 7192 11f8 17       		.byte	0x17
 7193 11f9 25       		.byte	0x25
 7194 11fa 21       		.byte	0x21
 7195 11fb 9F       		.byte	0x9f
 7196 11fc 00000000 		.4byte	0
 7197 1200 00000000 		.4byte	0
 7198              	.LLST6:
 7199 1204 00000000 		.4byte	.LVL0
 7200 1208 26000000 		.4byte	.LVL5
 7201 120c 0200     		.2byte	0x2
 7202 120e 70       		.byte	0x70
 7203 120f 10       		.sleb128 16
 7204 1210 26000000 		.4byte	.LVL5
 7205 1214 3A000000 		.4byte	.LVL9
 7206 1218 0200     		.2byte	0x2
 7207 121a 74       		.byte	0x74
 7208 121b 10       		.sleb128 16
 7209 121c 3A000000 		.4byte	.LVL9
 7210 1220 46000000 		.4byte	.LVL10
 7211 1224 0E00     		.2byte	0xe
 7212 1226 74       		.byte	0x74
 7213 1227 04       		.sleb128 4
 7214 1228 06       		.byte	0x6
 7215 1229 91       		.byte	0x91
 7216 122a 4C       		.sleb128 -52
 7217 122b 06       		.byte	0x6
 7218 122c 27       		.byte	0x27
 7219 122d 72       		.byte	0x72
 7220 122e 00       		.sleb128 0
 7221 122f 27       		.byte	0x27
 7222 1230 75       		.byte	0x75
 7223 1231 00       		.sleb128 0
 7224 1232 22       		.byte	0x22
 7225 1233 9F       		.byte	0x9f
 7226 1234 46000000 		.4byte	.LVL10
 7227 1238 48000000 		.4byte	.LVL11
 7228 123c 0100     		.2byte	0x1
 7229 123e 53       		.byte	0x53
 7230 123f 48000000 		.4byte	.LVL11
 7231 1243 4A000000 		.4byte	.LVL12
 7232 1247 0E00     		.2byte	0xe
 7233 1249 74       		.byte	0x74
 7234 124a 04       		.sleb128 4
 7235 124b 06       		.byte	0x6
 7236 124c 91       		.byte	0x91
 7237 124d 4C       		.sleb128 -52
 7238 124e 06       		.byte	0x6
 7239 124f 27       		.byte	0x27
 7240 1250 72       		.byte	0x72
 7241 1251 00       		.sleb128 0
ARM GAS  C:\Users\Ray\AppData\Local\Temp\ccn0usL8.s 			page 136


 7242 1252 27       		.byte	0x27
 7243 1253 75       		.byte	0x75
 7244 1254 00       		.sleb128 0
 7245 1255 22       		.byte	0x22
 7246 1256 9F       		.byte	0x9f
 7247 1257 4A000000 		.4byte	.LVL12
 7248 125b 50000000 		.4byte	.LVL13
 7249 125f 1600     		.2byte	0x16
 7250 1261 74       		.byte	0x74
 7251 1262 04       		.sleb128 4
 7252 1263 06       		.byte	0x6
 7253 1264 91       		.byte	0x91
 7254 1265 4C       		.sleb128 -52
 7255 1266 06       		.byte	0x6
 7256 1267 27       		.byte	0x27
 7257 1268 72       		.byte	0x72
 7258 1269 00       		.sleb128 0
 7259 126a 27       		.byte	0x27
 7260 126b 74       		.byte	0x74
 7261 126c 10       		.sleb128 16
 7262 126d 06       		.byte	0x6
 7263 126e 7D       		.byte	0x7d
 7264 126f 00       		.sleb128 0
 7265 1270 06       		.byte	0x6
 7266 1271 23       		.byte	0x23
 7267 1272 04       		.uleb128 0x4
 7268 1273 06       		.byte	0x6
 7269 1274 22       		.byte	0x22
 7270 1275 22       		.byte	0x22
 7271 1276 9F       		.byte	0x9f
 7272 1277 50000000 		.4byte	.LVL13
 7273 127b 82000000 		.4byte	.LVL21
 7274 127f 0100     		.2byte	0x1
 7275 1281 53       		.byte	0x53
 7276 1282 82000000 		.4byte	.LVL21
 7277 1286 8E000000 		.4byte	.LVL23
 7278 128a 4400     		.2byte	0x44
 7279 128c 74       		.byte	0x74
 7280 128d 04       		.sleb128 4
 7281 128e 06       		.byte	0x6
 7282 128f 74       		.byte	0x74
 7283 1290 08       		.sleb128 8
 7284 1291 06       		.byte	0x6
 7285 1292 27       		.byte	0x27
 7286 1293 74       		.byte	0x74
 7287 1294 0C       		.sleb128 12
 7288 1295 06       		.byte	0x6
 7289 1296 27       		.byte	0x27
 7290 1297 74       		.byte	0x74
 7291 1298 00       		.sleb128 0
 7292 1299 06       		.byte	0x6
 7293 129a 7D       		.byte	0x7d
 7294 129b 00       		.sleb128 0
 7295 129c 06       		.byte	0x6
 7296 129d 06       		.byte	0x6
 7297 129e 22       		.byte	0x22
 7298 129f 22       		.byte	0x22
ARM GAS  C:\Users\Ray\AppData\Local\Temp\ccn0usL8.s 			page 137


 7299 12a0 45       		.byte	0x45
 7300 12a1 14       		.byte	0x14
 7301 12a2 14       		.byte	0x14
 7302 12a3 1F       		.byte	0x1f
 7303 12a4 23       		.byte	0x23
 7304 12a5 20       		.uleb128 0x20
 7305 12a6 24       		.byte	0x24
 7306 12a7 17       		.byte	0x17
 7307 12a8 25       		.byte	0x25
 7308 12a9 21       		.byte	0x21
 7309 12aa 74       		.byte	0x74
 7310 12ab 10       		.sleb128 16
 7311 12ac 06       		.byte	0x6
 7312 12ad 22       		.byte	0x22
 7313 12ae 74       		.byte	0x74
 7314 12af 04       		.sleb128 4
 7315 12b0 06       		.byte	0x6
 7316 12b1 27       		.byte	0x27
 7317 12b2 91       		.byte	0x91
 7318 12b3 4C       		.sleb128 -52
 7319 12b4 06       		.byte	0x6
 7320 12b5 27       		.byte	0x27
 7321 12b6 74       		.byte	0x74
 7322 12b7 10       		.sleb128 16
 7323 12b8 06       		.byte	0x6
 7324 12b9 7D       		.byte	0x7d
 7325 12ba 00       		.sleb128 0
 7326 12bb 06       		.byte	0x6
 7327 12bc 23       		.byte	0x23
 7328 12bd 04       		.uleb128 0x4
 7329 12be 06       		.byte	0x6
 7330 12bf 22       		.byte	0x22
 7331 12c0 22       		.byte	0x22
 7332 12c1 42       		.byte	0x42
 7333 12c2 14       		.byte	0x14
 7334 12c3 14       		.byte	0x14
 7335 12c4 1F       		.byte	0x1f
 7336 12c5 23       		.byte	0x23
 7337 12c6 20       		.uleb128 0x20
 7338 12c7 24       		.byte	0x24
 7339 12c8 17       		.byte	0x17
 7340 12c9 25       		.byte	0x25
 7341 12ca 21       		.byte	0x21
 7342 12cb 74       		.byte	0x74
 7343 12cc 0C       		.sleb128 12
 7344 12cd 06       		.byte	0x6
 7345 12ce 22       		.byte	0x22
 7346 12cf 9F       		.byte	0x9f
 7347 12d0 8E000000 		.4byte	.LVL23
 7348 12d4 CE000000 		.4byte	.LVL34
 7349 12d8 0100     		.2byte	0x1
 7350 12da 53       		.byte	0x53
 7351 12db CE000000 		.4byte	.LVL34
 7352 12df DA000000 		.4byte	.LVL35
 7353 12e3 0C00     		.2byte	0xc
 7354 12e5 76       		.byte	0x76
 7355 12e6 00       		.sleb128 0
ARM GAS  C:\Users\Ray\AppData\Local\Temp\ccn0usL8.s 			page 138


 7356 12e7 77       		.byte	0x77
 7357 12e8 00       		.sleb128 0
 7358 12e9 27       		.byte	0x27
 7359 12ea 72       		.byte	0x72
 7360 12eb 00       		.sleb128 0
 7361 12ec 27       		.byte	0x27
 7362 12ed 73       		.byte	0x73
 7363 12ee 00       		.sleb128 0
 7364 12ef 22       		.byte	0x22
 7365 12f0 9F       		.byte	0x9f
 7366 12f1 DA000000 		.4byte	.LVL35
 7367 12f5 DC000000 		.4byte	.LVL36
 7368 12f9 0100     		.2byte	0x1
 7369 12fb 53       		.byte	0x53
 7370 12fc DC000000 		.4byte	.LVL36
 7371 1300 E0000000 		.4byte	.LVL37
 7372 1304 5F00     		.2byte	0x5f
 7373 1306 76       		.byte	0x76
 7374 1307 00       		.sleb128 0
 7375 1308 77       		.byte	0x77
 7376 1309 00       		.sleb128 0
 7377 130a 27       		.byte	0x27
 7378 130b 72       		.byte	0x72
 7379 130c 00       		.sleb128 0
 7380 130d 27       		.byte	0x27
 7381 130e 74       		.byte	0x74
 7382 130f 04       		.sleb128 4
 7383 1310 06       		.byte	0x6
 7384 1311 74       		.byte	0x74
 7385 1312 08       		.sleb128 8
 7386 1313 06       		.byte	0x6
 7387 1314 27       		.byte	0x27
 7388 1315 74       		.byte	0x74
 7389 1316 0C       		.sleb128 12
 7390 1317 06       		.byte	0x6
 7391 1318 27       		.byte	0x27
 7392 1319 74       		.byte	0x74
 7393 131a 00       		.sleb128 0
 7394 131b 06       		.byte	0x6
 7395 131c 7D       		.byte	0x7d
 7396 131d 00       		.sleb128 0
 7397 131e 06       		.byte	0x6
 7398 131f 06       		.byte	0x6
 7399 1320 22       		.byte	0x22
 7400 1321 22       		.byte	0x22
 7401 1322 45       		.byte	0x45
 7402 1323 14       		.byte	0x14
 7403 1324 14       		.byte	0x14
 7404 1325 1F       		.byte	0x1f
 7405 1326 23       		.byte	0x23
 7406 1327 20       		.uleb128 0x20
 7407 1328 24       		.byte	0x24
 7408 1329 17       		.byte	0x17
 7409 132a 25       		.byte	0x25
 7410 132b 21       		.byte	0x21
 7411 132c 74       		.byte	0x74
 7412 132d 10       		.sleb128 16
ARM GAS  C:\Users\Ray\AppData\Local\Temp\ccn0usL8.s 			page 139


 7413 132e 06       		.byte	0x6
 7414 132f 22       		.byte	0x22
 7415 1330 74       		.byte	0x74
 7416 1331 04       		.sleb128 4
 7417 1332 06       		.byte	0x6
 7418 1333 27       		.byte	0x27
 7419 1334 91       		.byte	0x91
 7420 1335 4C       		.sleb128 -52
 7421 1336 06       		.byte	0x6
 7422 1337 27       		.byte	0x27
 7423 1338 74       		.byte	0x74
 7424 1339 10       		.sleb128 16
 7425 133a 06       		.byte	0x6
 7426 133b 7D       		.byte	0x7d
 7427 133c 00       		.sleb128 0
 7428 133d 06       		.byte	0x6
 7429 133e 23       		.byte	0x23
 7430 133f 04       		.uleb128 0x4
 7431 1340 06       		.byte	0x6
 7432 1341 22       		.byte	0x22
 7433 1342 22       		.byte	0x22
 7434 1343 42       		.byte	0x42
 7435 1344 14       		.byte	0x14
 7436 1345 14       		.byte	0x14
 7437 1346 1F       		.byte	0x1f
 7438 1347 23       		.byte	0x23
 7439 1348 20       		.uleb128 0x20
 7440 1349 24       		.byte	0x24
 7441 134a 17       		.byte	0x17
 7442 134b 25       		.byte	0x25
 7443 134c 21       		.byte	0x21
 7444 134d 74       		.byte	0x74
 7445 134e 0C       		.sleb128 12
 7446 134f 06       		.byte	0x6
 7447 1350 22       		.byte	0x22
 7448 1351 70       		.byte	0x70
 7449 1352 00       		.sleb128 0
 7450 1353 14       		.byte	0x14
 7451 1354 14       		.byte	0x14
 7452 1355 1F       		.byte	0x1f
 7453 1356 23       		.byte	0x23
 7454 1357 20       		.uleb128 0x20
 7455 1358 24       		.byte	0x24
 7456 1359 17       		.byte	0x17
 7457 135a 25       		.byte	0x25
 7458 135b 21       		.byte	0x21
 7459 135c 7D       		.byte	0x7d
 7460 135d 00       		.sleb128 0
 7461 135e 06       		.byte	0x6
 7462 135f 23       		.byte	0x23
 7463 1360 18       		.uleb128 0x18
 7464 1361 06       		.byte	0x6
 7465 1362 22       		.byte	0x22
 7466 1363 22       		.byte	0x22
 7467 1364 9F       		.byte	0x9f
 7468 1365 E0000000 		.4byte	.LVL37
 7469 1369 50010000 		.4byte	.LVL59
ARM GAS  C:\Users\Ray\AppData\Local\Temp\ccn0usL8.s 			page 140


 7470 136d 0100     		.2byte	0x1
 7471 136f 53       		.byte	0x53
 7472 1370 50010000 		.4byte	.LVL59
 7473 1374 5C010000 		.4byte	.LVL60
 7474 1378 0C00     		.2byte	0xc
 7475 137a 76       		.byte	0x76
 7476 137b 00       		.sleb128 0
 7477 137c 77       		.byte	0x77
 7478 137d 00       		.sleb128 0
 7479 137e 27       		.byte	0x27
 7480 137f 72       		.byte	0x72
 7481 1380 00       		.sleb128 0
 7482 1381 27       		.byte	0x27
 7483 1382 73       		.byte	0x73
 7484 1383 00       		.sleb128 0
 7485 1384 22       		.byte	0x22
 7486 1385 9F       		.byte	0x9f
 7487 1386 5C010000 		.4byte	.LVL60
 7488 138a 5E010000 		.4byte	.LVL61
 7489 138e 0100     		.2byte	0x1
 7490 1390 53       		.byte	0x53
 7491 1391 62010000 		.4byte	.LVL62
 7492 1395 90010000 		.4byte	.LVL70
 7493 1399 0100     		.2byte	0x1
 7494 139b 53       		.byte	0x53
 7495 139c 9A010000 		.4byte	.LVL73
 7496 13a0 D8010000 		.4byte	.LVL84
 7497 13a4 0200     		.2byte	0x2
 7498 13a6 91       		.byte	0x91
 7499 13a7 54       		.sleb128 -44
 7500 13a8 D8010000 		.4byte	.LVL84
 7501 13ac E2010000 		.4byte	.LVL85
 7502 13b0 0F00     		.2byte	0xf
 7503 13b2 76       		.byte	0x76
 7504 13b3 00       		.sleb128 0
 7505 13b4 77       		.byte	0x77
 7506 13b5 00       		.sleb128 0
 7507 13b6 27       		.byte	0x27
 7508 13b7 72       		.byte	0x72
 7509 13b8 00       		.sleb128 0
 7510 13b9 1A       		.byte	0x1a
 7511 13ba 77       		.byte	0x77
 7512 13bb 00       		.sleb128 0
 7513 13bc 27       		.byte	0x27
 7514 13bd 73       		.byte	0x73
 7515 13be 00       		.sleb128 0
 7516 13bf 22       		.byte	0x22
 7517 13c0 9F       		.byte	0x9f
 7518 13c1 E2010000 		.4byte	.LVL85
 7519 13c5 E6010000 		.4byte	.LVL86
 7520 13c9 0100     		.2byte	0x1
 7521 13cb 53       		.byte	0x53
 7522 13cc E6010000 		.4byte	.LVL86
 7523 13d0 EA010000 		.4byte	.LVL87
 7524 13d4 1D00     		.2byte	0x1d
 7525 13d6 76       		.byte	0x76
 7526 13d7 00       		.sleb128 0
ARM GAS  C:\Users\Ray\AppData\Local\Temp\ccn0usL8.s 			page 141


 7527 13d8 77       		.byte	0x77
 7528 13d9 00       		.sleb128 0
 7529 13da 27       		.byte	0x27
 7530 13db 72       		.byte	0x72
 7531 13dc 00       		.sleb128 0
 7532 13dd 1A       		.byte	0x1a
 7533 13de 77       		.byte	0x77
 7534 13df 00       		.sleb128 0
 7535 13e0 27       		.byte	0x27
 7536 13e1 7D       		.byte	0x7d
 7537 13e2 00       		.sleb128 0
 7538 13e3 06       		.byte	0x6
 7539 13e4 23       		.byte	0x23
 7540 13e5 1C       		.uleb128 0x1c
 7541 13e6 06       		.byte	0x6
 7542 13e7 22       		.byte	0x22
 7543 13e8 91       		.byte	0x91
 7544 13e9 54       		.sleb128 -44
 7545 13ea 06       		.byte	0x6
 7546 13eb 22       		.byte	0x22
 7547 13ec 23       		.byte	0x23
 7548 13ed 99F389D4 		.uleb128 0x5a827999
 7548      05
 7549 13f2 9F       		.byte	0x9f
 7550 13f3 EA010000 		.4byte	.LVL87
 7551 13f7 EE010000 		.4byte	.LVL88
 7552 13fb 0100     		.2byte	0x1
 7553 13fd 53       		.byte	0x53
 7554 13fe EE010000 		.4byte	.LVL88
 7555 1402 2C020000 		.4byte	.LVL99
 7556 1406 0100     		.2byte	0x1
 7557 1408 5C       		.byte	0x5c
 7558 1409 2C020000 		.4byte	.LVL99
 7559 140d 6A020000 		.4byte	.LVL111
 7560 1411 0100     		.2byte	0x1
 7561 1413 53       		.byte	0x53
 7562 1414 6A020000 		.4byte	.LVL111
 7563 1418 74020000 		.4byte	.LVL112
 7564 141c 0F00     		.2byte	0xf
 7565 141e 7C       		.byte	0x7c
 7566 141f 00       		.sleb128 0
 7567 1420 77       		.byte	0x77
 7568 1421 00       		.sleb128 0
 7569 1422 27       		.byte	0x27
 7570 1423 76       		.byte	0x76
 7571 1424 00       		.sleb128 0
 7572 1425 1A       		.byte	0x1a
 7573 1426 77       		.byte	0x77
 7574 1427 00       		.sleb128 0
 7575 1428 27       		.byte	0x27
 7576 1429 73       		.byte	0x73
 7577 142a 00       		.sleb128 0
 7578 142b 22       		.byte	0x22
 7579 142c 9F       		.byte	0x9f
 7580 142d 74020000 		.4byte	.LVL112
 7581 1431 78020000 		.4byte	.LVL113
 7582 1435 0100     		.2byte	0x1
ARM GAS  C:\Users\Ray\AppData\Local\Temp\ccn0usL8.s 			page 142


 7583 1437 53       		.byte	0x53
 7584 1438 7E020000 		.4byte	.LVL114
 7585 143c 82020000 		.4byte	.LVL115
 7586 1440 0100     		.2byte	0x1
 7587 1442 53       		.byte	0x53
 7588 1443 82020000 		.4byte	.LVL115
 7589 1447 C2020000 		.4byte	.LVL126
 7590 144b 0200     		.2byte	0x2
 7591 144d 7D       		.byte	0x7d
 7592 144e 00       		.sleb128 0
 7593 144f C2020000 		.4byte	.LVL126
 7594 1453 FE020000 		.4byte	.LVL138
 7595 1457 0100     		.2byte	0x1
 7596 1459 53       		.byte	0x53
 7597 145a FE020000 		.4byte	.LVL138
 7598 145e 0A030000 		.4byte	.LVL139
 7599 1462 1000     		.2byte	0x10
 7600 1464 7D       		.byte	0x7d
 7601 1465 00       		.sleb128 0
 7602 1466 06       		.byte	0x6
 7603 1467 77       		.byte	0x77
 7604 1468 00       		.sleb128 0
 7605 1469 27       		.byte	0x27
 7606 146a 76       		.byte	0x76
 7607 146b 00       		.sleb128 0
 7608 146c 1A       		.byte	0x1a
 7609 146d 77       		.byte	0x77
 7610 146e 00       		.sleb128 0
 7611 146f 27       		.byte	0x27
 7612 1470 73       		.byte	0x73
 7613 1471 00       		.sleb128 0
 7614 1472 22       		.byte	0x22
 7615 1473 9F       		.byte	0x9f
 7616 1474 0A030000 		.4byte	.LVL139
 7617 1478 0E030000 		.4byte	.LVL140
 7618 147c 0100     		.2byte	0x1
 7619 147e 52       		.byte	0x52
 7620 147f 12030000 		.4byte	.LVL141
 7621 1483 16030000 		.4byte	.LVL142
 7622 1487 0100     		.2byte	0x1
 7623 1489 53       		.byte	0x53
 7624 148a 16030000 		.4byte	.LVL142
 7625 148e 52030000 		.4byte	.LVL154
 7626 1492 0100     		.2byte	0x1
 7627 1494 5C       		.byte	0x5c
 7628 1495 52030000 		.4byte	.LVL154
 7629 1499 92030000 		.4byte	.LVL165
 7630 149d 0100     		.2byte	0x1
 7631 149f 52       		.byte	0x52
 7632 14a0 92030000 		.4byte	.LVL165
 7633 14a4 9E030000 		.4byte	.LVL166
 7634 14a8 0F00     		.2byte	0xf
 7635 14aa 7C       		.byte	0x7c
 7636 14ab 00       		.sleb128 0
 7637 14ac 73       		.byte	0x73
 7638 14ad 00       		.sleb128 0
 7639 14ae 27       		.byte	0x27
ARM GAS  C:\Users\Ray\AppData\Local\Temp\ccn0usL8.s 			page 143


 7640 14af 76       		.byte	0x76
 7641 14b0 00       		.sleb128 0
 7642 14b1 1A       		.byte	0x1a
 7643 14b2 73       		.byte	0x73
 7644 14b3 00       		.sleb128 0
 7645 14b4 27       		.byte	0x27
 7646 14b5 72       		.byte	0x72
 7647 14b6 00       		.sleb128 0
 7648 14b7 22       		.byte	0x22
 7649 14b8 9F       		.byte	0x9f
 7650 14b9 9E030000 		.4byte	.LVL166
 7651 14bd A0030000 		.4byte	.LVL167
 7652 14c1 0100     		.2byte	0x1
 7653 14c3 52       		.byte	0x52
 7654 14c4 A4030000 		.4byte	.LVL168
 7655 14c8 A8030000 		.4byte	.LVL169
 7656 14cc 0100     		.2byte	0x1
 7657 14ce 52       		.byte	0x52
 7658 14cf A8030000 		.4byte	.LVL169
 7659 14d3 EC030000 		.4byte	.LVL182
 7660 14d7 0200     		.2byte	0x2
 7661 14d9 7D       		.byte	0x7d
 7662 14da 00       		.sleb128 0
 7663 14db EC030000 		.4byte	.LVL182
 7664 14df 20040000 		.4byte	.LVL192
 7665 14e3 0100     		.2byte	0x1
 7666 14e5 52       		.byte	0x52
 7667 14e6 20040000 		.4byte	.LVL192
 7668 14ea 2C040000 		.4byte	.LVL193
 7669 14ee 0D00     		.2byte	0xd
 7670 14f0 71       		.byte	0x71
 7671 14f1 00       		.sleb128 0
 7672 14f2 20       		.byte	0x20
 7673 14f3 77       		.byte	0x77
 7674 14f4 00       		.sleb128 0
 7675 14f5 21       		.byte	0x21
 7676 14f6 7C       		.byte	0x7c
 7677 14f7 00       		.sleb128 0
 7678 14f8 27       		.byte	0x27
 7679 14f9 72       		.byte	0x72
 7680 14fa 00       		.sleb128 0
 7681 14fb 22       		.byte	0x22
 7682 14fc 9F       		.byte	0x9f
 7683 14fd 2C040000 		.4byte	.LVL193
 7684 1501 2E040000 		.4byte	.LVL194
 7685 1505 0100     		.2byte	0x1
 7686 1507 52       		.byte	0x52
 7687 1508 2E040000 		.4byte	.LVL194
 7688 150c 30040000 		.4byte	.LVL195
 7689 1510 2400     		.2byte	0x24
 7690 1512 71       		.byte	0x71
 7691 1513 00       		.sleb128 0
 7692 1514 20       		.byte	0x20
 7693 1515 77       		.byte	0x77
 7694 1516 00       		.sleb128 0
 7695 1517 21       		.byte	0x21
 7696 1518 7C       		.byte	0x7c
ARM GAS  C:\Users\Ray\AppData\Local\Temp\ccn0usL8.s 			page 144


 7697 1519 00       		.sleb128 0
 7698 151a 27       		.byte	0x27
 7699 151b 7D       		.byte	0x7d
 7700 151c 00       		.sleb128 0
 7701 151d 06       		.byte	0x6
 7702 151e 70       		.byte	0x70
 7703 151f 00       		.sleb128 0
 7704 1520 14       		.byte	0x14
 7705 1521 14       		.byte	0x14
 7706 1522 1F       		.byte	0x1f
 7707 1523 23       		.byte	0x23
 7708 1524 20       		.uleb128 0x20
 7709 1525 24       		.byte	0x24
 7710 1526 17       		.byte	0x17
 7711 1527 25       		.byte	0x25
 7712 1528 21       		.byte	0x21
 7713 1529 22       		.byte	0x22
 7714 152a 91       		.byte	0x91
 7715 152b B07F     		.sleb128 -80
 7716 152d 06       		.byte	0x6
 7717 152e 22       		.byte	0x22
 7718 152f 23       		.byte	0x23
 7719 1530 A1D7E7F6 		.uleb128 0x6ed9eba1
 7719      06
 7720 1535 9F       		.byte	0x9f
 7721 1536 30040000 		.4byte	.LVL195
 7722 153a 34040000 		.4byte	.LVL196
 7723 153e 2100     		.2byte	0x21
 7724 1540 71       		.byte	0x71
 7725 1541 00       		.sleb128 0
 7726 1542 20       		.byte	0x20
 7727 1543 77       		.byte	0x77
 7728 1544 00       		.sleb128 0
 7729 1545 21       		.byte	0x21
 7730 1546 7C       		.byte	0x7c
 7731 1547 00       		.sleb128 0
 7732 1548 27       		.byte	0x27
 7733 1549 7D       		.byte	0x7d
 7734 154a 00       		.sleb128 0
 7735 154b 06       		.byte	0x6
 7736 154c 70       		.byte	0x70
 7737 154d 00       		.sleb128 0
 7738 154e 14       		.byte	0x14
 7739 154f 14       		.byte	0x14
 7740 1550 1F       		.byte	0x1f
 7741 1551 23       		.byte	0x23
 7742 1552 20       		.uleb128 0x20
 7743 1553 24       		.byte	0x24
 7744 1554 17       		.byte	0x17
 7745 1555 25       		.byte	0x25
 7746 1556 21       		.byte	0x21
 7747 1557 22       		.byte	0x22
 7748 1558 76       		.byte	0x76
 7749 1559 00       		.sleb128 0
 7750 155a 22       		.byte	0x22
 7751 155b 91       		.byte	0x91
 7752 155c B07F     		.sleb128 -80
ARM GAS  C:\Users\Ray\AppData\Local\Temp\ccn0usL8.s 			page 145


 7753 155e 06       		.byte	0x6
 7754 155f 22       		.byte	0x22
 7755 1560 9F       		.byte	0x9f
 7756 1561 34040000 		.4byte	.LVL196
 7757 1565 A6040000 		.4byte	.LVL221
 7758 1569 0100     		.2byte	0x1
 7759 156b 52       		.byte	0x52
 7760 156c A6040000 		.4byte	.LVL221
 7761 1570 B2040000 		.4byte	.LVL222
 7762 1574 0D00     		.2byte	0xd
 7763 1576 75       		.byte	0x75
 7764 1577 00       		.sleb128 0
 7765 1578 20       		.byte	0x20
 7766 1579 77       		.byte	0x77
 7767 157a 00       		.sleb128 0
 7768 157b 21       		.byte	0x21
 7769 157c 7C       		.byte	0x7c
 7770 157d 00       		.sleb128 0
 7771 157e 27       		.byte	0x27
 7772 157f 72       		.byte	0x72
 7773 1580 00       		.sleb128 0
 7774 1581 22       		.byte	0x22
 7775 1582 9F       		.byte	0x9f
 7776 1583 B2040000 		.4byte	.LVL222
 7777 1587 B4040000 		.4byte	.LVL223
 7778 158b 0100     		.2byte	0x1
 7779 158d 51       		.byte	0x51
 7780 158e B4040000 		.4byte	.LVL223
 7781 1592 B6040000 		.4byte	.LVL224
 7782 1596 0D00     		.2byte	0xd
 7783 1598 75       		.byte	0x75
 7784 1599 00       		.sleb128 0
 7785 159a 20       		.byte	0x20
 7786 159b 77       		.byte	0x77
 7787 159c 00       		.sleb128 0
 7788 159d 21       		.byte	0x21
 7789 159e 7C       		.byte	0x7c
 7790 159f 00       		.sleb128 0
 7791 15a0 27       		.byte	0x27
 7792 15a1 72       		.byte	0x72
 7793 15a2 00       		.sleb128 0
 7794 15a3 22       		.byte	0x22
 7795 15a4 9F       		.byte	0x9f
 7796 15a5 BA040000 		.4byte	.LVL225
 7797 15a9 2A050000 		.4byte	.LVL248
 7798 15ad 0100     		.2byte	0x1
 7799 15af 51       		.byte	0x51
 7800 15b0 30050000 		.4byte	.LVL249
 7801 15b4 36050000 		.4byte	.LVL250
 7802 15b8 0E00     		.2byte	0xe
 7803 15ba 75       		.byte	0x75
 7804 15bb 00       		.sleb128 0
 7805 15bc 20       		.byte	0x20
 7806 15bd 7D       		.byte	0x7d
 7807 15be 00       		.sleb128 0
 7808 15bf 06       		.byte	0x6
 7809 15c0 21       		.byte	0x21
ARM GAS  C:\Users\Ray\AppData\Local\Temp\ccn0usL8.s 			page 146


 7810 15c1 72       		.byte	0x72
 7811 15c2 00       		.sleb128 0
 7812 15c3 27       		.byte	0x27
 7813 15c4 71       		.byte	0x71
 7814 15c5 00       		.sleb128 0
 7815 15c6 22       		.byte	0x22
 7816 15c7 9F       		.byte	0x9f
 7817 15c8 3A050000 		.4byte	.LVL251
 7818 15cc 3C050000 		.4byte	.LVL252
 7819 15d0 0100     		.2byte	0x1
 7820 15d2 51       		.byte	0x51
 7821 15d3 44050000 		.4byte	.LVL253
 7822 15d7 74050000 		.4byte	.LVL260
 7823 15db 0100     		.2byte	0x1
 7824 15dd 51       		.byte	0x51
 7825 15de 80050000 		.4byte	.LVL263
 7826 15e2 BE050000 		.4byte	.LVL274
 7827 15e6 0100     		.2byte	0x1
 7828 15e8 56       		.byte	0x56
 7829 15e9 BE050000 		.4byte	.LVL274
 7830 15ed D8050000 		.4byte	.LVL275
 7831 15f1 0F00     		.2byte	0xf
 7832 15f3 71       		.byte	0x71
 7833 15f4 00       		.sleb128 0
 7834 15f5 73       		.byte	0x73
 7835 15f6 00       		.sleb128 0
 7836 15f7 27       		.byte	0x27
 7837 15f8 77       		.byte	0x77
 7838 15f9 00       		.sleb128 0
 7839 15fa 1A       		.byte	0x1a
 7840 15fb 71       		.byte	0x71
 7841 15fc 00       		.sleb128 0
 7842 15fd 27       		.byte	0x27
 7843 15fe 76       		.byte	0x76
 7844 15ff 00       		.sleb128 0
 7845 1600 22       		.byte	0x22
 7846 1601 9F       		.byte	0x9f
 7847 1602 DA050000 		.4byte	.LVL276
 7848 1606 DC050000 		.4byte	.LVL277
 7849 160a 0100     		.2byte	0x1
 7850 160c 52       		.byte	0x52
 7851 160d E4050000 		.4byte	.LVL278
 7852 1611 1E060000 		.4byte	.LVL289
 7853 1615 0100     		.2byte	0x1
 7854 1617 52       		.byte	0x52
 7855 1618 38060000 		.4byte	.LVL292
 7856 161c 3C060000 		.4byte	.LVL293
 7857 1620 0100     		.2byte	0x1
 7858 1622 52       		.byte	0x52
 7859 1623 3C060000 		.4byte	.LVL293
 7860 1627 64060000 		.4byte	.LVL301
 7861 162b 0200     		.2byte	0x2
 7862 162d 7D       		.byte	0x7d
 7863 162e 00       		.sleb128 0
 7864 162f 64060000 		.4byte	.LVL301
 7865 1633 70060000 		.4byte	.LVL302
 7866 1637 0F00     		.2byte	0xf
ARM GAS  C:\Users\Ray\AppData\Local\Temp\ccn0usL8.s 			page 147


 7867 1639 71       		.byte	0x71
 7868 163a 00       		.sleb128 0
 7869 163b 75       		.byte	0x75
 7870 163c 00       		.sleb128 0
 7871 163d 27       		.byte	0x27
 7872 163e 7C       		.byte	0x7c
 7873 163f 00       		.sleb128 0
 7874 1640 1A       		.byte	0x1a
 7875 1641 71       		.byte	0x71
 7876 1642 00       		.sleb128 0
 7877 1643 27       		.byte	0x27
 7878 1644 72       		.byte	0x72
 7879 1645 00       		.sleb128 0
 7880 1646 22       		.byte	0x22
 7881 1647 9F       		.byte	0x9f
 7882 1648 70060000 		.4byte	.LVL302
 7883 164c 76060000 		.4byte	.LVL304
 7884 1650 0100     		.2byte	0x1
 7885 1652 52       		.byte	0x52
 7886 1653 7E060000 		.4byte	.LVL305
 7887 1657 AC060000 		.4byte	.LVL312
 7888 165b 0100     		.2byte	0x1
 7889 165d 52       		.byte	0x52
 7890 165e B8060000 		.4byte	.LVL315
 7891 1662 FA060000 		.4byte	.LVL327
 7892 1666 0100     		.2byte	0x1
 7893 1668 57       		.byte	0x57
 7894 1669 FA060000 		.4byte	.LVL327
 7895 166d 06070000 		.4byte	.LVL328
 7896 1671 0F00     		.2byte	0xf
 7897 1673 72       		.byte	0x72
 7898 1674 00       		.sleb128 0
 7899 1675 75       		.byte	0x75
 7900 1676 00       		.sleb128 0
 7901 1677 27       		.byte	0x27
 7902 1678 76       		.byte	0x76
 7903 1679 00       		.sleb128 0
 7904 167a 1A       		.byte	0x1a
 7905 167b 72       		.byte	0x72
 7906 167c 00       		.sleb128 0
 7907 167d 27       		.byte	0x27
 7908 167e 77       		.byte	0x77
 7909 167f 00       		.sleb128 0
 7910 1680 22       		.byte	0x22
 7911 1681 9F       		.byte	0x9f
 7912 1682 06070000 		.4byte	.LVL328
 7913 1686 08070000 		.4byte	.LVL329
 7914 168a 0100     		.2byte	0x1
 7915 168c 53       		.byte	0x53
 7916 168d 08070000 		.4byte	.LVL329
 7917 1691 0A070000 		.4byte	.LVL330
 7918 1695 0F00     		.2byte	0xf
 7919 1697 72       		.byte	0x72
 7920 1698 00       		.sleb128 0
 7921 1699 75       		.byte	0x75
 7922 169a 00       		.sleb128 0
 7923 169b 27       		.byte	0x27
ARM GAS  C:\Users\Ray\AppData\Local\Temp\ccn0usL8.s 			page 148


 7924 169c 76       		.byte	0x76
 7925 169d 00       		.sleb128 0
 7926 169e 1A       		.byte	0x1a
 7927 169f 72       		.byte	0x72
 7928 16a0 00       		.sleb128 0
 7929 16a1 27       		.byte	0x27
 7930 16a2 77       		.byte	0x77
 7931 16a3 00       		.sleb128 0
 7932 16a4 22       		.byte	0x22
 7933 16a5 9F       		.byte	0x9f
 7934 16a6 16070000 		.4byte	.LVL332
 7935 16aa 3E070000 		.4byte	.LVL338
 7936 16ae 0100     		.2byte	0x1
 7937 16b0 53       		.byte	0x53
 7938 16b1 4A070000 		.4byte	.LVL341
 7939 16b5 4E070000 		.4byte	.LVL342
 7940 16b9 0100     		.2byte	0x1
 7941 16bb 53       		.byte	0x53
 7942 16bc 4E070000 		.4byte	.LVL342
 7943 16c0 8C070000 		.4byte	.LVL353
 7944 16c4 0100     		.2byte	0x1
 7945 16c6 5C       		.byte	0x5c
 7946 16c7 8C070000 		.4byte	.LVL353
 7947 16cb 8E070000 		.4byte	.LVL354
 7948 16cf 0D00     		.2byte	0xd
 7949 16d1 76       		.byte	0x76
 7950 16d2 00       		.sleb128 0
 7951 16d3 20       		.byte	0x20
 7952 16d4 72       		.byte	0x72
 7953 16d5 00       		.sleb128 0
 7954 16d6 21       		.byte	0x21
 7955 16d7 75       		.byte	0x75
 7956 16d8 00       		.sleb128 0
 7957 16d9 27       		.byte	0x27
 7958 16da 73       		.byte	0x73
 7959 16db 00       		.sleb128 0
 7960 16dc 22       		.byte	0x22
 7961 16dd 9F       		.byte	0x9f
 7962 16de 8E070000 		.4byte	.LVL354
 7963 16e2 92070000 		.4byte	.LVL355
 7964 16e6 0100     		.2byte	0x1
 7965 16e8 53       		.byte	0x53
 7966 16e9 92070000 		.4byte	.LVL355
 7967 16ed 94070000 		.4byte	.LVL356
 7968 16f1 1800     		.2byte	0x18
 7969 16f3 76       		.byte	0x76
 7970 16f4 00       		.sleb128 0
 7971 16f5 20       		.byte	0x20
 7972 16f6 72       		.byte	0x72
 7973 16f7 00       		.sleb128 0
 7974 16f8 21       		.byte	0x21
 7975 16f9 75       		.byte	0x75
 7976 16fa 00       		.sleb128 0
 7977 16fb 27       		.byte	0x27
 7978 16fc 91       		.byte	0x91
 7979 16fd A07F     		.sleb128 -96
 7980 16ff 06       		.byte	0x6
ARM GAS  C:\Users\Ray\AppData\Local\Temp\ccn0usL8.s 			page 149


 7981 1700 22       		.byte	0x22
 7982 1701 7C       		.byte	0x7c
 7983 1702 00       		.sleb128 0
 7984 1703 22       		.byte	0x22
 7985 1704 0C       		.byte	0xc
 7986 1705 B202AC56 		.4byte	0x56ac02b2
 7987 1709 1C       		.byte	0x1c
 7988 170a 9F       		.byte	0x9f
 7989 170b 98070000 		.4byte	.LVL357
 7990 170f 9C070000 		.4byte	.LVL358
 7991 1713 0100     		.2byte	0x1
 7992 1715 53       		.byte	0x53
 7993 1716 9C070000 		.4byte	.LVL358
 7994 171a CE070000 		.4byte	.LVL367
 7995 171e 0100     		.2byte	0x1
 7996 1720 5C       		.byte	0x5c
 7997 1721 D4070000 		.4byte	.LVL368
 7998 1725 14080000 		.4byte	.LVL379
 7999 1729 0100     		.2byte	0x1
 8000 172b 5C       		.byte	0x5c
 8001 172c 14080000 		.4byte	.LVL379
 8002 1730 16080000 		.4byte	.LVL380
 8003 1734 0D00     		.2byte	0xd
 8004 1736 76       		.byte	0x76
 8005 1737 00       		.sleb128 0
 8006 1738 20       		.byte	0x20
 8007 1739 72       		.byte	0x72
 8008 173a 00       		.sleb128 0
 8009 173b 21       		.byte	0x21
 8010 173c 71       		.byte	0x71
 8011 173d 00       		.sleb128 0
 8012 173e 27       		.byte	0x27
 8013 173f 73       		.byte	0x73
 8014 1740 00       		.sleb128 0
 8015 1741 22       		.byte	0x22
 8016 1742 9F       		.byte	0x9f
 8017 1743 16080000 		.4byte	.LVL380
 8018 1747 1C080000 		.4byte	.LVL382
 8019 174b 0100     		.2byte	0x1
 8020 174d 53       		.byte	0x53
 8021 174e 22080000 		.4byte	.LVL383
 8022 1752 26080000 		.4byte	.LVL385
 8023 1756 0100     		.2byte	0x1
 8024 1758 53       		.byte	0x53
 8025 1759 26080000 		.4byte	.LVL385
 8026 175d 62080000 		.4byte	.LVL395
 8027 1761 0100     		.2byte	0x1
 8028 1763 5C       		.byte	0x5c
 8029 1764 62080000 		.4byte	.LVL395
 8030 1768 9E080000 		.4byte	.LVL406
 8031 176c 0100     		.2byte	0x1
 8032 176e 57       		.byte	0x57
 8033 176f 9E080000 		.4byte	.LVL406
 8034 1773 AA080000 		.4byte	.LVL407
 8035 1777 0D00     		.2byte	0xd
 8036 1779 76       		.byte	0x76
 8037 177a 00       		.sleb128 0
ARM GAS  C:\Users\Ray\AppData\Local\Temp\ccn0usL8.s 			page 150


 8038 177b 20       		.byte	0x20
 8039 177c 7C       		.byte	0x7c
 8040 177d 00       		.sleb128 0
 8041 177e 21       		.byte	0x21
 8042 177f 71       		.byte	0x71
 8043 1780 00       		.sleb128 0
 8044 1781 27       		.byte	0x27
 8045 1782 77       		.byte	0x77
 8046 1783 00       		.sleb128 0
 8047 1784 22       		.byte	0x22
 8048 1785 9F       		.byte	0x9f
 8049 1786 AA080000 		.4byte	.LVL407
 8050 178a AC080000 		.4byte	.LVL408
 8051 178e 0100     		.2byte	0x1
 8052 1790 55       		.byte	0x55
 8053 1791 AC080000 		.4byte	.LVL408
 8054 1795 B2080000 		.4byte	.LVL409
 8055 1799 0D00     		.2byte	0xd
 8056 179b 76       		.byte	0x76
 8057 179c 00       		.sleb128 0
 8058 179d 20       		.byte	0x20
 8059 179e 7C       		.byte	0x7c
 8060 179f 00       		.sleb128 0
 8061 17a0 21       		.byte	0x21
 8062 17a1 71       		.byte	0x71
 8063 17a2 00       		.sleb128 0
 8064 17a3 27       		.byte	0x27
 8065 17a4 77       		.byte	0x77
 8066 17a5 00       		.sleb128 0
 8067 17a6 22       		.byte	0x22
 8068 17a7 9F       		.byte	0x9f
 8069 17a8 B8080000 		.4byte	.LVL410
 8070 17ac FC080000 		.4byte	.LVL422
 8071 17b0 0100     		.2byte	0x1
 8072 17b2 55       		.byte	0x55
 8073 17b3 0E090000 		.4byte	.LVL424
 8074 17b7 22090000 		.4byte	.LVL426
 8075 17bb 0100     		.2byte	0x1
 8076 17bd 55       		.byte	0x55
 8077 17be 22090000 		.4byte	.LVL426
 8078 17c2 FC120000 		.4byte	.LFE0
 8079 17c6 0200     		.2byte	0x2
 8080 17c8 91       		.byte	0x91
 8081 17c9 60       		.sleb128 -32
 8082 17ca 00000000 		.4byte	0
 8083 17ce 00000000 		.4byte	0
 8084              	.LLST7:
 8085 17d2 00000000 		.4byte	.LVL0
 8086 17d6 26000000 		.4byte	.LVL5
 8087 17da 0200     		.2byte	0x2
 8088 17dc 70       		.byte	0x70
 8089 17dd 00       		.sleb128 0
 8090 17de 26000000 		.4byte	.LVL5
 8091 17e2 0E090000 		.4byte	.LVL424
 8092 17e6 0200     		.2byte	0x2
 8093 17e8 74       		.byte	0x74
 8094 17e9 00       		.sleb128 0
ARM GAS  C:\Users\Ray\AppData\Local\Temp\ccn0usL8.s 			page 151


 8095 17ea 0E090000 		.4byte	.LVL424
 8096 17ee 1C090000 		.4byte	.LVL425
 8097 17f2 1C00     		.2byte	0x1c
 8098 17f4 74       		.byte	0x74
 8099 17f5 0C       		.sleb128 12
 8100 17f6 06       		.byte	0x6
 8101 17f7 20       		.byte	0x20
 8102 17f8 74       		.byte	0x74
 8103 17f9 08       		.sleb128 8
 8104 17fa 06       		.byte	0x6
 8105 17fb 21       		.byte	0x21
 8106 17fc 74       		.byte	0x74
 8107 17fd 04       		.sleb128 4
 8108 17fe 06       		.byte	0x6
 8109 17ff 27       		.byte	0x27
 8110 1800 74       		.byte	0x74
 8111 1801 00       		.sleb128 0
 8112 1802 06       		.byte	0x6
 8113 1803 22       		.byte	0x22
 8114 1804 91       		.byte	0x91
 8115 1805 A07F     		.sleb128 -96
 8116 1807 06       		.byte	0x6
 8117 1808 22       		.byte	0x22
 8118 1809 23       		.byte	0x23
 8119 180a E6978A85 		.uleb128 0x50a28be6
 8119      05
 8120 180f 9F       		.byte	0x9f
 8121 1810 1C090000 		.4byte	.LVL425
 8122 1814 44090000 		.4byte	.LVL431
 8123 1818 0100     		.2byte	0x1
 8124 181a 53       		.byte	0x53
 8125 181b 44090000 		.4byte	.LVL431
 8126 181f 4C090000 		.4byte	.LVL433
 8127 1823 2700     		.2byte	0x27
 8128 1825 74       		.byte	0x74
 8129 1826 0C       		.sleb128 12
 8130 1827 06       		.byte	0x6
 8131 1828 20       		.byte	0x20
 8132 1829 74       		.byte	0x74
 8133 182a 08       		.sleb128 8
 8134 182b 06       		.byte	0x6
 8135 182c 21       		.byte	0x21
 8136 182d 74       		.byte	0x74
 8137 182e 04       		.sleb128 4
 8138 182f 06       		.byte	0x6
 8139 1830 27       		.byte	0x27
 8140 1831 91       		.byte	0x91
 8141 1832 A07F     		.sleb128 -96
 8142 1834 06       		.byte	0x6
 8143 1835 22       		.byte	0x22
 8144 1836 71       		.byte	0x71
 8145 1837 00       		.sleb128 0
 8146 1838 22       		.byte	0x22
 8147 1839 74       		.byte	0x74
 8148 183a 00       		.sleb128 0
 8149 183b 06       		.byte	0x6
 8150 183c 22       		.byte	0x22
ARM GAS  C:\Users\Ray\AppData\Local\Temp\ccn0usL8.s 			page 152


 8151 183d 48       		.byte	0x48
 8152 183e 14       		.byte	0x14
 8153 183f 14       		.byte	0x14
 8154 1840 1F       		.byte	0x1f
 8155 1841 23       		.byte	0x23
 8156 1842 20       		.uleb128 0x20
 8157 1843 24       		.byte	0x24
 8158 1844 17       		.byte	0x17
 8159 1845 25       		.byte	0x25
 8160 1846 21       		.byte	0x21
 8161 1847 74       		.byte	0x74
 8162 1848 10       		.sleb128 16
 8163 1849 06       		.byte	0x6
 8164 184a 22       		.byte	0x22
 8165 184b 9F       		.byte	0x9f
 8166 184c 4C090000 		.4byte	.LVL433
 8167 1850 5E090000 		.4byte	.LVL437
 8168 1854 2A00     		.2byte	0x2a
 8169 1856 74       		.byte	0x74
 8170 1857 0C       		.sleb128 12
 8171 1858 06       		.byte	0x6
 8172 1859 20       		.byte	0x20
 8173 185a 74       		.byte	0x74
 8174 185b 08       		.sleb128 8
 8175 185c 06       		.byte	0x6
 8176 185d 21       		.byte	0x21
 8177 185e 74       		.byte	0x74
 8178 185f 04       		.sleb128 4
 8179 1860 06       		.byte	0x6
 8180 1861 27       		.byte	0x27
 8181 1862 91       		.byte	0x91
 8182 1863 A07F     		.sleb128 -96
 8183 1865 06       		.byte	0x6
 8184 1866 22       		.byte	0x22
 8185 1867 74       		.byte	0x74
 8186 1868 00       		.sleb128 0
 8187 1869 06       		.byte	0x6
 8188 186a 22       		.byte	0x22
 8189 186b 23       		.byte	0x23
 8190 186c E6978A85 		.uleb128 0x50a28be6
 8190      05
 8191 1871 48       		.byte	0x48
 8192 1872 14       		.byte	0x14
 8193 1873 14       		.byte	0x14
 8194 1874 1F       		.byte	0x1f
 8195 1875 23       		.byte	0x23
 8196 1876 20       		.uleb128 0x20
 8197 1877 24       		.byte	0x24
 8198 1878 17       		.byte	0x17
 8199 1879 25       		.byte	0x25
 8200 187a 21       		.byte	0x21
 8201 187b 74       		.byte	0x74
 8202 187c 10       		.sleb128 16
 8203 187d 06       		.byte	0x6
 8204 187e 22       		.byte	0x22
 8205 187f 9F       		.byte	0x9f
 8206 1880 5E090000 		.4byte	.LVL437
ARM GAS  C:\Users\Ray\AppData\Local\Temp\ccn0usL8.s 			page 153


 8207 1884 68090000 		.4byte	.LVL439
 8208 1888 2700     		.2byte	0x27
 8209 188a 74       		.byte	0x74
 8210 188b 0C       		.sleb128 12
 8211 188c 06       		.byte	0x6
 8212 188d 20       		.byte	0x20
 8213 188e 74       		.byte	0x74
 8214 188f 08       		.sleb128 8
 8215 1890 06       		.byte	0x6
 8216 1891 21       		.byte	0x21
 8217 1892 74       		.byte	0x74
 8218 1893 04       		.sleb128 4
 8219 1894 06       		.byte	0x6
 8220 1895 27       		.byte	0x27
 8221 1896 91       		.byte	0x91
 8222 1897 A07F     		.sleb128 -96
 8223 1899 06       		.byte	0x6
 8224 189a 22       		.byte	0x22
 8225 189b 71       		.byte	0x71
 8226 189c 00       		.sleb128 0
 8227 189d 22       		.byte	0x22
 8228 189e 74       		.byte	0x74
 8229 189f 00       		.sleb128 0
 8230 18a0 06       		.byte	0x6
 8231 18a1 22       		.byte	0x22
 8232 18a2 48       		.byte	0x48
 8233 18a3 14       		.byte	0x14
 8234 18a4 14       		.byte	0x14
 8235 18a5 1F       		.byte	0x1f
 8236 18a6 23       		.byte	0x23
 8237 18a7 20       		.uleb128 0x20
 8238 18a8 24       		.byte	0x24
 8239 18a9 17       		.byte	0x17
 8240 18aa 25       		.byte	0x25
 8241 18ab 21       		.byte	0x21
 8242 18ac 74       		.byte	0x74
 8243 18ad 10       		.sleb128 16
 8244 18ae 06       		.byte	0x6
 8245 18af 22       		.byte	0x22
 8246 18b0 9F       		.byte	0x9f
 8247 18b1 68090000 		.4byte	.LVL439
 8248 18b5 6A090000 		.4byte	.LVL440
 8249 18b9 2A00     		.2byte	0x2a
 8250 18bb 74       		.byte	0x74
 8251 18bc 0C       		.sleb128 12
 8252 18bd 06       		.byte	0x6
 8253 18be 20       		.byte	0x20
 8254 18bf 74       		.byte	0x74
 8255 18c0 08       		.sleb128 8
 8256 18c1 06       		.byte	0x6
 8257 18c2 21       		.byte	0x21
 8258 18c3 74       		.byte	0x74
 8259 18c4 04       		.sleb128 4
 8260 18c5 06       		.byte	0x6
 8261 18c6 27       		.byte	0x27
 8262 18c7 91       		.byte	0x91
 8263 18c8 A07F     		.sleb128 -96
ARM GAS  C:\Users\Ray\AppData\Local\Temp\ccn0usL8.s 			page 154


 8264 18ca 06       		.byte	0x6
 8265 18cb 22       		.byte	0x22
 8266 18cc 74       		.byte	0x74
 8267 18cd 00       		.sleb128 0
 8268 18ce 06       		.byte	0x6
 8269 18cf 22       		.byte	0x22
 8270 18d0 23       		.byte	0x23
 8271 18d1 E6978A85 		.uleb128 0x50a28be6
 8271      05
 8272 18d6 48       		.byte	0x48
 8273 18d7 14       		.byte	0x14
 8274 18d8 14       		.byte	0x14
 8275 18d9 1F       		.byte	0x1f
 8276 18da 23       		.byte	0x23
 8277 18db 20       		.uleb128 0x20
 8278 18dc 24       		.byte	0x24
 8279 18dd 17       		.byte	0x17
 8280 18de 25       		.byte	0x25
 8281 18df 21       		.byte	0x21
 8282 18e0 74       		.byte	0x74
 8283 18e1 10       		.sleb128 16
 8284 18e2 06       		.byte	0x6
 8285 18e3 22       		.byte	0x22
 8286 18e4 9F       		.byte	0x9f
 8287 18e5 6A090000 		.4byte	.LVL440
 8288 18e9 78090000 		.4byte	.LVL441
 8289 18ed 0100     		.2byte	0x1
 8290 18ef 53       		.byte	0x53
 8291 18f0 78090000 		.4byte	.LVL441
 8292 18f4 A2090000 		.4byte	.LVL447
 8293 18f8 0100     		.2byte	0x1
 8294 18fa 5C       		.byte	0x5c
 8295 18fb A2090000 		.4byte	.LVL447
 8296 18ff A4090000 		.4byte	.LVL448
 8297 1903 0D00     		.2byte	0xd
 8298 1905 77       		.byte	0x77
 8299 1906 00       		.sleb128 0
 8300 1907 20       		.byte	0x20
 8301 1908 76       		.byte	0x76
 8302 1909 00       		.sleb128 0
 8303 190a 21       		.byte	0x21
 8304 190b 71       		.byte	0x71
 8305 190c 00       		.sleb128 0
 8306 190d 27       		.byte	0x27
 8307 190e 73       		.byte	0x73
 8308 190f 00       		.sleb128 0
 8309 1910 22       		.byte	0x22
 8310 1911 9F       		.byte	0x9f
 8311 1912 A4090000 		.4byte	.LVL448
 8312 1916 A8090000 		.4byte	.LVL449
 8313 191a 0100     		.2byte	0x1
 8314 191c 53       		.byte	0x53
 8315 191d A8090000 		.4byte	.LVL449
 8316 1921 AA090000 		.4byte	.LVL450
 8317 1925 1800     		.2byte	0x18
 8318 1927 77       		.byte	0x77
 8319 1928 00       		.sleb128 0
ARM GAS  C:\Users\Ray\AppData\Local\Temp\ccn0usL8.s 			page 155


 8320 1929 20       		.byte	0x20
 8321 192a 76       		.byte	0x76
 8322 192b 00       		.sleb128 0
 8323 192c 21       		.byte	0x21
 8324 192d 71       		.byte	0x71
 8325 192e 00       		.sleb128 0
 8326 192f 27       		.byte	0x27
 8327 1930 91       		.byte	0x91
 8328 1931 947F     		.sleb128 -108
 8329 1933 06       		.byte	0x6
 8330 1934 22       		.byte	0x22
 8331 1935 7C       		.byte	0x7c
 8332 1936 00       		.sleb128 0
 8333 1937 22       		.byte	0x22
 8334 1938 23       		.byte	0x23
 8335 1939 E6978A85 		.uleb128 0x50a28be6
 8335      05
 8336 193e 9F       		.byte	0x9f
 8337 193f AE090000 		.4byte	.LVL451
 8338 1943 B2090000 		.4byte	.LVL452
 8339 1947 0100     		.2byte	0x1
 8340 1949 53       		.byte	0x53
 8341 194a B2090000 		.4byte	.LVL452
 8342 194e F4090000 		.4byte	.LVL461
 8343 1952 0100     		.2byte	0x1
 8344 1954 5C       		.byte	0x5c
 8345 1955 FA090000 		.4byte	.LVL462
 8346 1959 360A0000 		.4byte	.LVL473
 8347 195d 0100     		.2byte	0x1
 8348 195f 5C       		.byte	0x5c
 8349 1960 360A0000 		.4byte	.LVL473
 8350 1964 3A0A0000 		.4byte	.LVL474
 8351 1968 0D00     		.2byte	0xd
 8352 196a 77       		.byte	0x77
 8353 196b 00       		.sleb128 0
 8354 196c 20       		.byte	0x20
 8355 196d 76       		.byte	0x76
 8356 196e 00       		.sleb128 0
 8357 196f 21       		.byte	0x21
 8358 1970 71       		.byte	0x71
 8359 1971 00       		.sleb128 0
 8360 1972 27       		.byte	0x27
 8361 1973 73       		.byte	0x73
 8362 1974 00       		.sleb128 0
 8363 1975 22       		.byte	0x22
 8364 1976 9F       		.byte	0x9f
 8365 1977 3A0A0000 		.4byte	.LVL474
 8366 197b 3E0A0000 		.4byte	.LVL475
 8367 197f 0100     		.2byte	0x1
 8368 1981 52       		.byte	0x52
 8369 1982 3E0A0000 		.4byte	.LVL475
 8370 1986 400A0000 		.4byte	.LVL476
 8371 198a 1700     		.2byte	0x17
 8372 198c 77       		.byte	0x77
 8373 198d 00       		.sleb128 0
 8374 198e 20       		.byte	0x20
 8375 198f 76       		.byte	0x76
ARM GAS  C:\Users\Ray\AppData\Local\Temp\ccn0usL8.s 			page 156


 8376 1990 00       		.sleb128 0
 8377 1991 21       		.byte	0x21
 8378 1992 71       		.byte	0x71
 8379 1993 00       		.sleb128 0
 8380 1994 27       		.byte	0x27
 8381 1995 91       		.byte	0x91
 8382 1996 48       		.sleb128 -56
 8383 1997 06       		.byte	0x6
 8384 1998 22       		.byte	0x22
 8385 1999 7C       		.byte	0x7c
 8386 199a 00       		.sleb128 0
 8387 199b 22       		.byte	0x22
 8388 199c 23       		.byte	0x23
 8389 199d E6978A85 		.uleb128 0x50a28be6
 8389      05
 8390 19a2 9F       		.byte	0x9f
 8391 19a3 440A0000 		.4byte	.LVL477
 8392 19a7 480A0000 		.4byte	.LVL478
 8393 19ab 0100     		.2byte	0x1
 8394 19ad 53       		.byte	0x53
 8395 19ae 480A0000 		.4byte	.LVL478
 8396 19b2 800A0000 		.4byte	.LVL487
 8397 19b6 0100     		.2byte	0x1
 8398 19b8 5C       		.byte	0x5c
 8399 19b9 800A0000 		.4byte	.LVL487
 8400 19bd CC0A0000 		.4byte	.LVL498
 8401 19c1 0200     		.2byte	0x2
 8402 19c3 91       		.byte	0x91
 8403 19c4 4C       		.sleb128 -52
 8404 19c5 CC0A0000 		.4byte	.LVL498
 8405 19c9 D60A0000 		.4byte	.LVL499
 8406 19cd 0D00     		.2byte	0xd
 8407 19cf 77       		.byte	0x77
 8408 19d0 00       		.sleb128 0
 8409 19d1 20       		.byte	0x20
 8410 19d2 76       		.byte	0x76
 8411 19d3 00       		.sleb128 0
 8412 19d4 21       		.byte	0x21
 8413 19d5 71       		.byte	0x71
 8414 19d6 00       		.sleb128 0
 8415 19d7 27       		.byte	0x27
 8416 19d8 72       		.byte	0x72
 8417 19d9 00       		.sleb128 0
 8418 19da 22       		.byte	0x22
 8419 19db 9F       		.byte	0x9f
 8420 19dc DC0A0000 		.4byte	.LVL500
 8421 19e0 E00A0000 		.4byte	.LVL501
 8422 19e4 0100     		.2byte	0x1
 8423 19e6 52       		.byte	0x52
 8424 19e7 E40A0000 		.4byte	.LVL502
 8425 19eb 200B0000 		.4byte	.LVL511
 8426 19ef 0100     		.2byte	0x1
 8427 19f1 52       		.byte	0x52
 8428 19f2 2E0B0000 		.4byte	.LVL512
 8429 19f6 780B0000 		.4byte	.LVL523
 8430 19fa 0100     		.2byte	0x1
 8431 19fc 52       		.byte	0x52
ARM GAS  C:\Users\Ray\AppData\Local\Temp\ccn0usL8.s 			page 157


 8432 19fd 780B0000 		.4byte	.LVL523
 8433 1a01 7E0B0000 		.4byte	.LVL524
 8434 1a05 0F00     		.2byte	0xf
 8435 1a07 76       		.byte	0x76
 8436 1a08 00       		.sleb128 0
 8437 1a09 71       		.byte	0x71
 8438 1a0a 00       		.sleb128 0
 8439 1a0b 27       		.byte	0x27
 8440 1a0c 77       		.byte	0x77
 8441 1a0d 00       		.sleb128 0
 8442 1a0e 1A       		.byte	0x1a
 8443 1a0f 76       		.byte	0x76
 8444 1a10 00       		.sleb128 0
 8445 1a11 27       		.byte	0x27
 8446 1a12 72       		.byte	0x72
 8447 1a13 00       		.sleb128 0
 8448 1a14 22       		.byte	0x22
 8449 1a15 9F       		.byte	0x9f
 8450 1a16 7E0B0000 		.4byte	.LVL524
 8451 1a1a 800B0000 		.4byte	.LVL525
 8452 1a1e 0100     		.2byte	0x1
 8453 1a20 52       		.byte	0x52
 8454 1a21 920B0000 		.4byte	.LVL527
 8455 1a25 C80B0000 		.4byte	.LVL536
 8456 1a29 0100     		.2byte	0x1
 8457 1a2b 52       		.byte	0x52
 8458 1a2c D60B0000 		.4byte	.LVL537
 8459 1a30 100C0000 		.4byte	.LVL549
 8460 1a34 0100     		.2byte	0x1
 8461 1a36 52       		.byte	0x52
 8462 1a37 100C0000 		.4byte	.LVL549
 8463 1a3b 1E0C0000 		.4byte	.LVL550
 8464 1a3f 0F00     		.2byte	0xf
 8465 1a41 7C       		.byte	0x7c
 8466 1a42 00       		.sleb128 0
 8467 1a43 71       		.byte	0x71
 8468 1a44 00       		.sleb128 0
 8469 1a45 27       		.byte	0x27
 8470 1a46 77       		.byte	0x77
 8471 1a47 00       		.sleb128 0
 8472 1a48 1A       		.byte	0x1a
 8473 1a49 7C       		.byte	0x7c
 8474 1a4a 00       		.sleb128 0
 8475 1a4b 27       		.byte	0x27
 8476 1a4c 72       		.byte	0x72
 8477 1a4d 00       		.sleb128 0
 8478 1a4e 22       		.byte	0x22
 8479 1a4f 9F       		.byte	0x9f
 8480 1a50 1E0C0000 		.4byte	.LVL550
 8481 1a54 220C0000 		.4byte	.LVL551
 8482 1a58 0100     		.2byte	0x1
 8483 1a5a 56       		.byte	0x56
 8484 1a5b 2A0C0000 		.4byte	.LVL552
 8485 1a5f 680C0000 		.4byte	.LVL561
 8486 1a63 0100     		.2byte	0x1
 8487 1a65 56       		.byte	0x56
 8488 1a66 760C0000 		.4byte	.LVL562
ARM GAS  C:\Users\Ray\AppData\Local\Temp\ccn0usL8.s 			page 158


 8489 1a6a C20C0000 		.4byte	.LVL573
 8490 1a6e 0100     		.2byte	0x1
 8491 1a70 56       		.byte	0x56
 8492 1a71 C20C0000 		.4byte	.LVL573
 8493 1a75 C80C0000 		.4byte	.LVL574
 8494 1a79 0F00     		.2byte	0xf
 8495 1a7b 72       		.byte	0x72
 8496 1a7c 00       		.sleb128 0
 8497 1a7d 71       		.byte	0x71
 8498 1a7e 00       		.sleb128 0
 8499 1a7f 27       		.byte	0x27
 8500 1a80 77       		.byte	0x77
 8501 1a81 00       		.sleb128 0
 8502 1a82 1A       		.byte	0x1a
 8503 1a83 72       		.byte	0x72
 8504 1a84 00       		.sleb128 0
 8505 1a85 27       		.byte	0x27
 8506 1a86 76       		.byte	0x76
 8507 1a87 00       		.sleb128 0
 8508 1a88 22       		.byte	0x22
 8509 1a89 9F       		.byte	0x9f
 8510 1a8a C80C0000 		.4byte	.LVL574
 8511 1a8e CA0C0000 		.4byte	.LVL575
 8512 1a92 0100     		.2byte	0x1
 8513 1a94 56       		.byte	0x56
 8514 1a95 DC0C0000 		.4byte	.LVL577
 8515 1a99 120D0000 		.4byte	.LVL586
 8516 1a9d 0100     		.2byte	0x1
 8517 1a9f 56       		.byte	0x56
 8518 1aa0 1A0D0000 		.4byte	.LVL587
 8519 1aa4 1C0D0000 		.4byte	.LVL588
 8520 1aa8 0100     		.2byte	0x1
 8521 1aaa 56       		.byte	0x56
 8522 1aab 1C0D0000 		.4byte	.LVL588
 8523 1aaf 580D0000 		.4byte	.LVL599
 8524 1ab3 0100     		.2byte	0x1
 8525 1ab5 5C       		.byte	0x5c
 8526 1ab6 580D0000 		.4byte	.LVL599
 8527 1aba 5E0D0000 		.4byte	.LVL600
 8528 1abe 0D00     		.2byte	0xd
 8529 1ac0 72       		.byte	0x72
 8530 1ac1 00       		.sleb128 0
 8531 1ac2 20       		.byte	0x20
 8532 1ac3 76       		.byte	0x76
 8533 1ac4 00       		.sleb128 0
 8534 1ac5 21       		.byte	0x21
 8535 1ac6 77       		.byte	0x77
 8536 1ac7 00       		.sleb128 0
 8537 1ac8 27       		.byte	0x27
 8538 1ac9 71       		.byte	0x71
 8539 1aca 00       		.sleb128 0
 8540 1acb 22       		.byte	0x22
 8541 1acc 9F       		.byte	0x9f
 8542 1acd 5E0D0000 		.4byte	.LVL600
 8543 1ad1 600D0000 		.4byte	.LVL601
 8544 1ad5 0100     		.2byte	0x1
 8545 1ad7 51       		.byte	0x51
ARM GAS  C:\Users\Ray\AppData\Local\Temp\ccn0usL8.s 			page 159


 8546 1ad8 740D0000 		.4byte	.LVL603
 8547 1adc A80D0000 		.4byte	.LVL612
 8548 1ae0 0100     		.2byte	0x1
 8549 1ae2 51       		.byte	0x51
 8550 1ae3 B80D0000 		.4byte	.LVL613
 8551 1ae7 100E0000 		.4byte	.LVL624
 8552 1aeb 0100     		.2byte	0x1
 8553 1aed 51       		.byte	0x51
 8554 1aee 100E0000 		.4byte	.LVL624
 8555 1af2 160E0000 		.4byte	.LVL625
 8556 1af6 0D00     		.2byte	0xd
 8557 1af8 72       		.byte	0x72
 8558 1af9 00       		.sleb128 0
 8559 1afa 20       		.byte	0x20
 8560 1afb 76       		.byte	0x76
 8561 1afc 00       		.sleb128 0
 8562 1afd 21       		.byte	0x21
 8563 1afe 77       		.byte	0x77
 8564 1aff 00       		.sleb128 0
 8565 1b00 27       		.byte	0x27
 8566 1b01 71       		.byte	0x71
 8567 1b02 00       		.sleb128 0
 8568 1b03 22       		.byte	0x22
 8569 1b04 9F       		.byte	0x9f
 8570 1b05 160E0000 		.4byte	.LVL625
 8571 1b09 180E0000 		.4byte	.LVL626
 8572 1b0d 0100     		.2byte	0x1
 8573 1b0f 51       		.byte	0x51
 8574 1b10 2C0E0000 		.4byte	.LVL628
 8575 1b14 5C0E0000 		.4byte	.LVL637
 8576 1b18 0100     		.2byte	0x1
 8577 1b1a 51       		.byte	0x51
 8578 1b1b 6C0E0000 		.4byte	.LVL638
 8579 1b1f B60E0000 		.4byte	.LVL649
 8580 1b23 0100     		.2byte	0x1
 8581 1b25 51       		.byte	0x51
 8582 1b26 B60E0000 		.4byte	.LVL649
 8583 1b2a BC0E0000 		.4byte	.LVL650
 8584 1b2e 0D00     		.2byte	0xd
 8585 1b30 72       		.byte	0x72
 8586 1b31 00       		.sleb128 0
 8587 1b32 20       		.byte	0x20
 8588 1b33 76       		.byte	0x76
 8589 1b34 00       		.sleb128 0
 8590 1b35 21       		.byte	0x21
 8591 1b36 77       		.byte	0x77
 8592 1b37 00       		.sleb128 0
 8593 1b38 27       		.byte	0x27
 8594 1b39 71       		.byte	0x71
 8595 1b3a 00       		.sleb128 0
 8596 1b3b 22       		.byte	0x22
 8597 1b3c 9F       		.byte	0x9f
 8598 1b3d BC0E0000 		.4byte	.LVL650
 8599 1b41 BE0E0000 		.4byte	.LVL651
 8600 1b45 0100     		.2byte	0x1
 8601 1b47 51       		.byte	0x51
 8602 1b48 D20E0000 		.4byte	.LVL653
ARM GAS  C:\Users\Ray\AppData\Local\Temp\ccn0usL8.s 			page 160


 8603 1b4c 020F0000 		.4byte	.LVL663
 8604 1b50 0100     		.2byte	0x1
 8605 1b52 51       		.byte	0x51
 8606 1b53 080F0000 		.4byte	.LVL664
 8607 1b57 500F0000 		.4byte	.LVL675
 8608 1b5b 0100     		.2byte	0x1
 8609 1b5d 51       		.byte	0x51
 8610 1b5e 500F0000 		.4byte	.LVL675
 8611 1b62 560F0000 		.4byte	.LVL676
 8612 1b66 0F00     		.2byte	0xf
 8613 1b68 76       		.byte	0x76
 8614 1b69 00       		.sleb128 0
 8615 1b6a 77       		.byte	0x77
 8616 1b6b 00       		.sleb128 0
 8617 1b6c 27       		.byte	0x27
 8618 1b6d 72       		.byte	0x72
 8619 1b6e 00       		.sleb128 0
 8620 1b6f 1A       		.byte	0x1a
 8621 1b70 77       		.byte	0x77
 8622 1b71 00       		.sleb128 0
 8623 1b72 27       		.byte	0x27
 8624 1b73 71       		.byte	0x71
 8625 1b74 00       		.sleb128 0
 8626 1b75 22       		.byte	0x22
 8627 1b76 9F       		.byte	0x9f
 8628 1b77 560F0000 		.4byte	.LVL676
 8629 1b7b 580F0000 		.4byte	.LVL677
 8630 1b7f 0100     		.2byte	0x1
 8631 1b81 51       		.byte	0x51
 8632 1b82 6A0F0000 		.4byte	.LVL679
 8633 1b86 A00F0000 		.4byte	.LVL688
 8634 1b8a 0100     		.2byte	0x1
 8635 1b8c 51       		.byte	0x51
 8636 1b8d AE0F0000 		.4byte	.LVL689
 8637 1b91 FA0F0000 		.4byte	.LVL700
 8638 1b95 0100     		.2byte	0x1
 8639 1b97 51       		.byte	0x51
 8640 1b98 FA0F0000 		.4byte	.LVL700
 8641 1b9c 00100000 		.4byte	.LVL701
 8642 1ba0 0F00     		.2byte	0xf
 8643 1ba2 76       		.byte	0x76
 8644 1ba3 00       		.sleb128 0
 8645 1ba4 77       		.byte	0x77
 8646 1ba5 00       		.sleb128 0
 8647 1ba6 27       		.byte	0x27
 8648 1ba7 72       		.byte	0x72
 8649 1ba8 00       		.sleb128 0
 8650 1ba9 1A       		.byte	0x1a
 8651 1baa 77       		.byte	0x77
 8652 1bab 00       		.sleb128 0
 8653 1bac 27       		.byte	0x27
 8654 1bad 71       		.byte	0x71
 8655 1bae 00       		.sleb128 0
 8656 1baf 22       		.byte	0x22
 8657 1bb0 9F       		.byte	0x9f
 8658 1bb1 00100000 		.4byte	.LVL701
 8659 1bb5 02100000 		.4byte	.LVL702
ARM GAS  C:\Users\Ray\AppData\Local\Temp\ccn0usL8.s 			page 161


 8660 1bb9 0100     		.2byte	0x1
 8661 1bbb 51       		.byte	0x51
 8662 1bbc 14100000 		.4byte	.LVL704
 8663 1bc0 4A100000 		.4byte	.LVL713
 8664 1bc4 0100     		.2byte	0x1
 8665 1bc6 51       		.byte	0x51
 8666 1bc7 58100000 		.4byte	.LVL714
 8667 1bcb A4100000 		.4byte	.LVL725
 8668 1bcf 0100     		.2byte	0x1
 8669 1bd1 51       		.byte	0x51
 8670 1bd2 A4100000 		.4byte	.LVL725
 8671 1bd6 AA100000 		.4byte	.LVL726
 8672 1bda 0F00     		.2byte	0xf
 8673 1bdc 76       		.byte	0x76
 8674 1bdd 00       		.sleb128 0
 8675 1bde 77       		.byte	0x77
 8676 1bdf 00       		.sleb128 0
 8677 1be0 27       		.byte	0x27
 8678 1be1 72       		.byte	0x72
 8679 1be2 00       		.sleb128 0
 8680 1be3 1A       		.byte	0x1a
 8681 1be4 77       		.byte	0x77
 8682 1be5 00       		.sleb128 0
 8683 1be6 27       		.byte	0x27
 8684 1be7 71       		.byte	0x71
 8685 1be8 00       		.sleb128 0
 8686 1be9 22       		.byte	0x22
 8687 1bea 9F       		.byte	0x9f
 8688 1beb AA100000 		.4byte	.LVL726
 8689 1bef AC100000 		.4byte	.LVL727
 8690 1bf3 0100     		.2byte	0x1
 8691 1bf5 51       		.byte	0x51
 8692 1bf6 BE100000 		.4byte	.LVL729
 8693 1bfa F4100000 		.4byte	.LVL738
 8694 1bfe 0100     		.2byte	0x1
 8695 1c00 51       		.byte	0x51
 8696 1c01 02110000 		.4byte	.LVL739
 8697 1c05 3C110000 		.4byte	.LVL750
 8698 1c09 0100     		.2byte	0x1
 8699 1c0b 51       		.byte	0x51
 8700 1c0c 3C110000 		.4byte	.LVL750
 8701 1c10 40110000 		.4byte	.LVL751
 8702 1c14 0C00     		.2byte	0xc
 8703 1c16 76       		.byte	0x76
 8704 1c17 00       		.sleb128 0
 8705 1c18 77       		.byte	0x77
 8706 1c19 00       		.sleb128 0
 8707 1c1a 27       		.byte	0x27
 8708 1c1b 72       		.byte	0x72
 8709 1c1c 00       		.sleb128 0
 8710 1c1d 27       		.byte	0x27
 8711 1c1e 71       		.byte	0x71
 8712 1c1f 00       		.sleb128 0
 8713 1c20 22       		.byte	0x22
 8714 1c21 9F       		.byte	0x9f
 8715 1c22 40110000 		.4byte	.LVL751
 8716 1c26 42110000 		.4byte	.LVL752
ARM GAS  C:\Users\Ray\AppData\Local\Temp\ccn0usL8.s 			page 162


 8717 1c2a 0100     		.2byte	0x1
 8718 1c2c 51       		.byte	0x51
 8719 1c2d 4A110000 		.4byte	.LVL754
 8720 1c31 76110000 		.4byte	.LVL763
 8721 1c35 0100     		.2byte	0x1
 8722 1c37 51       		.byte	0x51
 8723 1c38 7A110000 		.4byte	.LVL764
 8724 1c3c B4110000 		.4byte	.LVL775
 8725 1c40 0100     		.2byte	0x1
 8726 1c42 51       		.byte	0x51
 8727 1c43 B4110000 		.4byte	.LVL775
 8728 1c47 B8110000 		.4byte	.LVL776
 8729 1c4b 0C00     		.2byte	0xc
 8730 1c4d 76       		.byte	0x76
 8731 1c4e 00       		.sleb128 0
 8732 1c4f 77       		.byte	0x77
 8733 1c50 00       		.sleb128 0
 8734 1c51 27       		.byte	0x27
 8735 1c52 72       		.byte	0x72
 8736 1c53 00       		.sleb128 0
 8737 1c54 27       		.byte	0x27
 8738 1c55 71       		.byte	0x71
 8739 1c56 00       		.sleb128 0
 8740 1c57 22       		.byte	0x22
 8741 1c58 9F       		.byte	0x9f
 8742 1c59 B8110000 		.4byte	.LVL776
 8743 1c5d BA110000 		.4byte	.LVL777
 8744 1c61 0100     		.2byte	0x1
 8745 1c63 51       		.byte	0x51
 8746 1c64 C2110000 		.4byte	.LVL779
 8747 1c68 EE110000 		.4byte	.LVL788
 8748 1c6c 0100     		.2byte	0x1
 8749 1c6e 51       		.byte	0x51
 8750 1c6f F2110000 		.4byte	.LVL789
 8751 1c73 38120000 		.4byte	.LVL800
 8752 1c77 0100     		.2byte	0x1
 8753 1c79 51       		.byte	0x51
 8754 1c7a 38120000 		.4byte	.LVL800
 8755 1c7e 3C120000 		.4byte	.LVL801
 8756 1c82 0C00     		.2byte	0xc
 8757 1c84 76       		.byte	0x76
 8758 1c85 00       		.sleb128 0
 8759 1c86 77       		.byte	0x77
 8760 1c87 00       		.sleb128 0
 8761 1c88 27       		.byte	0x27
 8762 1c89 72       		.byte	0x72
 8763 1c8a 00       		.sleb128 0
 8764 1c8b 27       		.byte	0x27
 8765 1c8c 71       		.byte	0x71
 8766 1c8d 00       		.sleb128 0
 8767 1c8e 22       		.byte	0x22
 8768 1c8f 9F       		.byte	0x9f
 8769 1c90 3C120000 		.4byte	.LVL801
 8770 1c94 3E120000 		.4byte	.LVL802
 8771 1c98 0100     		.2byte	0x1
 8772 1c9a 51       		.byte	0x51
 8773 1c9b 46120000 		.4byte	.LVL804
ARM GAS  C:\Users\Ray\AppData\Local\Temp\ccn0usL8.s 			page 163


 8774 1c9f 72120000 		.4byte	.LVL813
 8775 1ca3 0100     		.2byte	0x1
 8776 1ca5 51       		.byte	0x51
 8777 1ca6 76120000 		.4byte	.LVL814
 8778 1caa CA120000 		.4byte	.LVL829
 8779 1cae 0100     		.2byte	0x1
 8780 1cb0 51       		.byte	0x51
 8781 1cb1 00000000 		.4byte	0
 8782 1cb5 00000000 		.4byte	0
 8783              	.LLST8:
 8784 1cb9 00000000 		.4byte	.LVL0
 8785 1cbd 26000000 		.4byte	.LVL5
 8786 1cc1 0200     		.2byte	0x2
 8787 1cc3 70       		.byte	0x70
 8788 1cc4 04       		.sleb128 4
 8789 1cc5 26000000 		.4byte	.LVL5
 8790 1cc9 3C090000 		.4byte	.LVL429
 8791 1ccd 0200     		.2byte	0x2
 8792 1ccf 74       		.byte	0x74
 8793 1cd0 04       		.sleb128 4
 8794 1cd1 3C090000 		.4byte	.LVL429
 8795 1cd5 7E090000 		.4byte	.LVL443
 8796 1cd9 0200     		.2byte	0x2
 8797 1cdb 91       		.byte	0x91
 8798 1cdc 50       		.sleb128 -48
 8799 1cdd 7E090000 		.4byte	.LVL443
 8800 1ce1 82090000 		.4byte	.LVL444
 8801 1ce5 1500     		.2byte	0x15
 8802 1ce7 73       		.byte	0x73
 8803 1ce8 00       		.sleb128 0
 8804 1ce9 76       		.byte	0x76
 8805 1cea 00       		.sleb128 0
 8806 1ceb 27       		.byte	0x27
 8807 1cec 91       		.byte	0x91
 8808 1ced 50       		.sleb128 -48
 8809 1cee 06       		.byte	0x6
 8810 1cef 22       		.byte	0x22
 8811 1cf0 91       		.byte	0x91
 8812 1cf1 B07F     		.sleb128 -80
 8813 1cf3 06       		.byte	0x6
 8814 1cf4 22       		.byte	0x22
 8815 1cf5 23       		.byte	0x23
 8816 1cf6 E6978A85 		.uleb128 0x50a28be6
 8816      05
 8817 1cfb 9F       		.byte	0x9f
 8818 1cfc 82090000 		.4byte	.LVL444
 8819 1d00 88090000 		.4byte	.LVL445
 8820 1d04 1900     		.2byte	0x19
 8821 1d06 75       		.byte	0x75
 8822 1d07 00       		.sleb128 0
 8823 1d08 20       		.byte	0x20
 8824 1d09 77       		.byte	0x77
 8825 1d0a 00       		.sleb128 0
 8826 1d0b 21       		.byte	0x21
 8827 1d0c 76       		.byte	0x76
 8828 1d0d 00       		.sleb128 0
 8829 1d0e 27       		.byte	0x27
ARM GAS  C:\Users\Ray\AppData\Local\Temp\ccn0usL8.s 			page 164


 8830 1d0f 91       		.byte	0x91
 8831 1d10 50       		.sleb128 -48
 8832 1d11 06       		.byte	0x6
 8833 1d12 22       		.byte	0x22
 8834 1d13 91       		.byte	0x91
 8835 1d14 B07F     		.sleb128 -80
 8836 1d16 06       		.byte	0x6
 8837 1d17 22       		.byte	0x22
 8838 1d18 23       		.byte	0x23
 8839 1d19 E6978A85 		.uleb128 0x50a28be6
 8839      05
 8840 1d1e 9F       		.byte	0x9f
 8841 1d1f 96090000 		.4byte	.LVL446
 8842 1d23 C4090000 		.4byte	.LVL455
 8843 1d27 0100     		.2byte	0x1
 8844 1d29 51       		.byte	0x51
 8845 1d2a CC090000 		.4byte	.LVL457
 8846 1d2e 180A0000 		.4byte	.LVL468
 8847 1d32 0100     		.2byte	0x1
 8848 1d34 51       		.byte	0x51
 8849 1d35 180A0000 		.4byte	.LVL468
 8850 1d39 200A0000 		.4byte	.LVL469
 8851 1d3d 0D00     		.2byte	0xd
 8852 1d3f 75       		.byte	0x75
 8853 1d40 00       		.sleb128 0
 8854 1d41 20       		.byte	0x20
 8855 1d42 77       		.byte	0x77
 8856 1d43 00       		.sleb128 0
 8857 1d44 21       		.byte	0x21
 8858 1d45 76       		.byte	0x76
 8859 1d46 00       		.sleb128 0
 8860 1d47 27       		.byte	0x27
 8861 1d48 71       		.byte	0x71
 8862 1d49 00       		.sleb128 0
 8863 1d4a 22       		.byte	0x22
 8864 1d4b 9F       		.byte	0x9f
 8865 1d4c 240A0000 		.4byte	.LVL470
 8866 1d50 260A0000 		.4byte	.LVL471
 8867 1d54 0100     		.2byte	0x1
 8868 1d56 51       		.byte	0x51
 8869 1d57 2C0A0000 		.4byte	.LVL472
 8870 1d5b 5A0A0000 		.4byte	.LVL481
 8871 1d5f 0100     		.2byte	0x1
 8872 1d61 51       		.byte	0x51
 8873 1d62 620A0000 		.4byte	.LVL483
 8874 1d66 AA0A0000 		.4byte	.LVL493
 8875 1d6a 0100     		.2byte	0x1
 8876 1d6c 51       		.byte	0x51
 8877 1d6d AA0A0000 		.4byte	.LVL493
 8878 1d71 B00A0000 		.4byte	.LVL494
 8879 1d75 0D00     		.2byte	0xd
 8880 1d77 75       		.byte	0x75
 8881 1d78 00       		.sleb128 0
 8882 1d79 20       		.byte	0x20
 8883 1d7a 77       		.byte	0x77
 8884 1d7b 00       		.sleb128 0
 8885 1d7c 21       		.byte	0x21
ARM GAS  C:\Users\Ray\AppData\Local\Temp\ccn0usL8.s 			page 165


 8886 1d7d 76       		.byte	0x76
 8887 1d7e 00       		.sleb128 0
 8888 1d7f 27       		.byte	0x27
 8889 1d80 71       		.byte	0x71
 8890 1d81 00       		.sleb128 0
 8891 1d82 22       		.byte	0x22
 8892 1d83 9F       		.byte	0x9f
 8893 1d84 B00A0000 		.4byte	.LVL494
 8894 1d88 B20A0000 		.4byte	.LVL495
 8895 1d8c 0100     		.2byte	0x1
 8896 1d8e 51       		.byte	0x51
 8897 1d8f B80A0000 		.4byte	.LVL496
 8898 1d93 FE0A0000 		.4byte	.LVL506
 8899 1d97 0100     		.2byte	0x1
 8900 1d99 51       		.byte	0x51
 8901 1d9a 0C0B0000 		.4byte	.LVL507
 8902 1d9e 500B0000 		.4byte	.LVL518
 8903 1da2 0100     		.2byte	0x1
 8904 1da4 51       		.byte	0x51
 8905 1da5 500B0000 		.4byte	.LVL518
 8906 1da9 5C0B0000 		.4byte	.LVL519
 8907 1dad 0F00     		.2byte	0xf
 8908 1daf 77       		.byte	0x77
 8909 1db0 00       		.sleb128 0
 8910 1db1 76       		.byte	0x76
 8911 1db2 00       		.sleb128 0
 8912 1db3 27       		.byte	0x27
 8913 1db4 75       		.byte	0x75
 8914 1db5 00       		.sleb128 0
 8915 1db6 1A       		.byte	0x1a
 8916 1db7 77       		.byte	0x77
 8917 1db8 00       		.sleb128 0
 8918 1db9 27       		.byte	0x27
 8919 1dba 7C       		.byte	0x7c
 8920 1dbb 00       		.sleb128 0
 8921 1dbc 22       		.byte	0x22
 8922 1dbd 9F       		.byte	0x9f
 8923 1dbe 5C0B0000 		.4byte	.LVL519
 8924 1dc2 5E0B0000 		.4byte	.LVL520
 8925 1dc6 0100     		.2byte	0x1
 8926 1dc8 51       		.byte	0x51
 8927 1dc9 5E0B0000 		.4byte	.LVL520
 8928 1dcd 620B0000 		.4byte	.LVL521
 8929 1dd1 0F00     		.2byte	0xf
 8930 1dd3 77       		.byte	0x77
 8931 1dd4 00       		.sleb128 0
 8932 1dd5 76       		.byte	0x76
 8933 1dd6 00       		.sleb128 0
 8934 1dd7 27       		.byte	0x27
 8935 1dd8 75       		.byte	0x75
 8936 1dd9 00       		.sleb128 0
 8937 1dda 1A       		.byte	0x1a
 8938 1ddb 77       		.byte	0x77
 8939 1ddc 00       		.sleb128 0
 8940 1ddd 27       		.byte	0x27
 8941 1dde 7C       		.byte	0x7c
 8942 1ddf 00       		.sleb128 0
ARM GAS  C:\Users\Ray\AppData\Local\Temp\ccn0usL8.s 			page 166


 8943 1de0 22       		.byte	0x22
 8944 1de1 9F       		.byte	0x9f
 8945 1de2 700B0000 		.4byte	.LVL522
 8946 1de6 A60B0000 		.4byte	.LVL531
 8947 1dea 0100     		.2byte	0x1
 8948 1dec 51       		.byte	0x51
 8949 1ded B40B0000 		.4byte	.LVL532
 8950 1df1 F60B0000 		.4byte	.LVL544
 8951 1df5 0100     		.2byte	0x1
 8952 1df7 51       		.byte	0x51
 8953 1df8 F60B0000 		.4byte	.LVL544
 8954 1dfc 020C0000 		.4byte	.LVL545
 8955 1e00 0F00     		.2byte	0xf
 8956 1e02 77       		.byte	0x77
 8957 1e03 00       		.sleb128 0
 8958 1e04 7C       		.byte	0x7c
 8959 1e05 00       		.sleb128 0
 8960 1e06 27       		.byte	0x27
 8961 1e07 75       		.byte	0x75
 8962 1e08 00       		.sleb128 0
 8963 1e09 1A       		.byte	0x1a
 8964 1e0a 77       		.byte	0x77
 8965 1e0b 00       		.sleb128 0
 8966 1e0c 27       		.byte	0x27
 8967 1e0d 71       		.byte	0x71
 8968 1e0e 00       		.sleb128 0
 8969 1e0f 22       		.byte	0x22
 8970 1e10 9F       		.byte	0x9f
 8971 1e11 020C0000 		.4byte	.LVL545
 8972 1e15 040C0000 		.4byte	.LVL546
 8973 1e19 0100     		.2byte	0x1
 8974 1e1b 51       		.byte	0x51
 8975 1e1c 0C0C0000 		.4byte	.LVL548
 8976 1e20 460C0000 		.4byte	.LVL556
 8977 1e24 0100     		.2byte	0x1
 8978 1e26 51       		.byte	0x51
 8979 1e27 540C0000 		.4byte	.LVL557
 8980 1e2b A00C0000 		.4byte	.LVL568
 8981 1e2f 0100     		.2byte	0x1
 8982 1e31 51       		.byte	0x51
 8983 1e32 A00C0000 		.4byte	.LVL568
 8984 1e36 A60C0000 		.4byte	.LVL569
 8985 1e3a 0F00     		.2byte	0xf
 8986 1e3c 77       		.byte	0x77
 8987 1e3d 00       		.sleb128 0
 8988 1e3e 72       		.byte	0x72
 8989 1e3f 00       		.sleb128 0
 8990 1e40 27       		.byte	0x27
 8991 1e41 75       		.byte	0x75
 8992 1e42 00       		.sleb128 0
 8993 1e43 1A       		.byte	0x1a
 8994 1e44 77       		.byte	0x77
 8995 1e45 00       		.sleb128 0
 8996 1e46 27       		.byte	0x27
 8997 1e47 71       		.byte	0x71
 8998 1e48 00       		.sleb128 0
 8999 1e49 22       		.byte	0x22
ARM GAS  C:\Users\Ray\AppData\Local\Temp\ccn0usL8.s 			page 167


 9000 1e4a 9F       		.byte	0x9f
 9001 1e4b A60C0000 		.4byte	.LVL569
 9002 1e4f A80C0000 		.4byte	.LVL570
 9003 1e53 0100     		.2byte	0x1
 9004 1e55 51       		.byte	0x51
 9005 1e56 BA0C0000 		.4byte	.LVL572
 9006 1e5a F00C0000 		.4byte	.LVL581
 9007 1e5e 0100     		.2byte	0x1
 9008 1e60 51       		.byte	0x51
 9009 1e61 000D0000 		.4byte	.LVL582
 9010 1e65 380D0000 		.4byte	.LVL594
 9011 1e69 0100     		.2byte	0x1
 9012 1e6b 51       		.byte	0x51
 9013 1e6c 380D0000 		.4byte	.LVL594
 9014 1e70 420D0000 		.4byte	.LVL595
 9015 1e74 0D00     		.2byte	0xd
 9016 1e76 77       		.byte	0x77
 9017 1e77 00       		.sleb128 0
 9018 1e78 20       		.byte	0x20
 9019 1e79 72       		.byte	0x72
 9020 1e7a 00       		.sleb128 0
 9021 1e7b 21       		.byte	0x21
 9022 1e7c 75       		.byte	0x75
 9023 1e7d 00       		.sleb128 0
 9024 1e7e 27       		.byte	0x27
 9025 1e7f 71       		.byte	0x71
 9026 1e80 00       		.sleb128 0
 9027 1e81 22       		.byte	0x22
 9028 1e82 9F       		.byte	0x9f
 9029 1e83 420D0000 		.4byte	.LVL595
 9030 1e87 440D0000 		.4byte	.LVL596
 9031 1e8b 0100     		.2byte	0x1
 9032 1e8d 56       		.byte	0x56
 9033 1e8e 440D0000 		.4byte	.LVL596
 9034 1e92 480D0000 		.4byte	.LVL597
 9035 1e96 0D00     		.2byte	0xd
 9036 1e98 77       		.byte	0x77
 9037 1e99 00       		.sleb128 0
 9038 1e9a 20       		.byte	0x20
 9039 1e9b 72       		.byte	0x72
 9040 1e9c 00       		.sleb128 0
 9041 1e9d 21       		.byte	0x21
 9042 1e9e 75       		.byte	0x75
 9043 1e9f 00       		.sleb128 0
 9044 1ea0 27       		.byte	0x27
 9045 1ea1 71       		.byte	0x71
 9046 1ea2 00       		.sleb128 0
 9047 1ea3 22       		.byte	0x22
 9048 1ea4 9F       		.byte	0x9f
 9049 1ea5 4C0D0000 		.4byte	.LVL598
 9050 1ea9 860D0000 		.4byte	.LVL607
 9051 1ead 0100     		.2byte	0x1
 9052 1eaf 56       		.byte	0x56
 9053 1eb0 960D0000 		.4byte	.LVL608
 9054 1eb4 E00D0000 		.4byte	.LVL619
 9055 1eb8 0100     		.2byte	0x1
 9056 1eba 56       		.byte	0x56
ARM GAS  C:\Users\Ray\AppData\Local\Temp\ccn0usL8.s 			page 168


 9057 1ebb E00D0000 		.4byte	.LVL619
 9058 1ebf E60D0000 		.4byte	.LVL620
 9059 1ec3 0D00     		.2byte	0xd
 9060 1ec5 77       		.byte	0x77
 9061 1ec6 00       		.sleb128 0
 9062 1ec7 20       		.byte	0x20
 9063 1ec8 72       		.byte	0x72
 9064 1ec9 00       		.sleb128 0
 9065 1eca 21       		.byte	0x21
 9066 1ecb 75       		.byte	0x75
 9067 1ecc 00       		.sleb128 0
 9068 1ecd 27       		.byte	0x27
 9069 1ece 76       		.byte	0x76
 9070 1ecf 00       		.sleb128 0
 9071 1ed0 22       		.byte	0x22
 9072 1ed1 9F       		.byte	0x9f
 9073 1ed2 E60D0000 		.4byte	.LVL620
 9074 1ed6 E80D0000 		.4byte	.LVL621
 9075 1eda 0100     		.2byte	0x1
 9076 1edc 56       		.byte	0x56
 9077 1edd 0A0E0000 		.4byte	.LVL623
 9078 1ee1 3E0E0000 		.4byte	.LVL632
 9079 1ee5 0100     		.2byte	0x1
 9080 1ee7 56       		.byte	0x56
 9081 1ee8 4A0E0000 		.4byte	.LVL633
 9082 1eec 940E0000 		.4byte	.LVL644
 9083 1ef0 0100     		.2byte	0x1
 9084 1ef2 56       		.byte	0x56
 9085 1ef3 940E0000 		.4byte	.LVL644
 9086 1ef7 9A0E0000 		.4byte	.LVL645
 9087 1efb 0D00     		.2byte	0xd
 9088 1efd 77       		.byte	0x77
 9089 1efe 00       		.sleb128 0
 9090 1eff 20       		.byte	0x20
 9091 1f00 72       		.byte	0x72
 9092 1f01 00       		.sleb128 0
 9093 1f02 21       		.byte	0x21
 9094 1f03 75       		.byte	0x75
 9095 1f04 00       		.sleb128 0
 9096 1f05 27       		.byte	0x27
 9097 1f06 76       		.byte	0x76
 9098 1f07 00       		.sleb128 0
 9099 1f08 22       		.byte	0x22
 9100 1f09 9F       		.byte	0x9f
 9101 1f0a 9A0E0000 		.4byte	.LVL645
 9102 1f0e 9C0E0000 		.4byte	.LVL646
 9103 1f12 0100     		.2byte	0x1
 9104 1f14 56       		.byte	0x56
 9105 1f15 B00E0000 		.4byte	.LVL648
 9106 1f19 E40E0000 		.4byte	.LVL657
 9107 1f1d 0100     		.2byte	0x1
 9108 1f1f 56       		.byte	0x56
 9109 1f20 EC0E0000 		.4byte	.LVL658
 9110 1f24 EE0E0000 		.4byte	.LVL659
 9111 1f28 0100     		.2byte	0x1
 9112 1f2a 56       		.byte	0x56
 9113 1f2b EE0E0000 		.4byte	.LVL659
ARM GAS  C:\Users\Ray\AppData\Local\Temp\ccn0usL8.s 			page 169


 9114 1f2f 2E0F0000 		.4byte	.LVL670
 9115 1f33 0100     		.2byte	0x1
 9116 1f35 5C       		.byte	0x5c
 9117 1f36 2E0F0000 		.4byte	.LVL670
 9118 1f3a 340F0000 		.4byte	.LVL671
 9119 1f3e 0F00     		.2byte	0xf
 9120 1f40 77       		.byte	0x77
 9121 1f41 00       		.sleb128 0
 9122 1f42 75       		.byte	0x75
 9123 1f43 00       		.sleb128 0
 9124 1f44 27       		.byte	0x27
 9125 1f45 76       		.byte	0x76
 9126 1f46 00       		.sleb128 0
 9127 1f47 1A       		.byte	0x1a
 9128 1f48 75       		.byte	0x75
 9129 1f49 00       		.sleb128 0
 9130 1f4a 27       		.byte	0x27
 9131 1f4b 72       		.byte	0x72
 9132 1f4c 00       		.sleb128 0
 9133 1f4d 22       		.byte	0x22
 9134 1f4e 9F       		.byte	0x9f
 9135 1f4f 340F0000 		.4byte	.LVL671
 9136 1f53 360F0000 		.4byte	.LVL672
 9137 1f57 0100     		.2byte	0x1
 9138 1f59 52       		.byte	0x52
 9139 1f5a 480F0000 		.4byte	.LVL674
 9140 1f5e 7E0F0000 		.4byte	.LVL683
 9141 1f62 0100     		.2byte	0x1
 9142 1f64 52       		.byte	0x52
 9143 1f65 8C0F0000 		.4byte	.LVL684
 9144 1f69 D80F0000 		.4byte	.LVL695
 9145 1f6d 0100     		.2byte	0x1
 9146 1f6f 52       		.byte	0x52
 9147 1f70 D80F0000 		.4byte	.LVL695
 9148 1f74 DE0F0000 		.4byte	.LVL696
 9149 1f78 0F00     		.2byte	0xf
 9150 1f7a 77       		.byte	0x77
 9151 1f7b 00       		.sleb128 0
 9152 1f7c 75       		.byte	0x75
 9153 1f7d 00       		.sleb128 0
 9154 1f7e 27       		.byte	0x27
 9155 1f7f 76       		.byte	0x76
 9156 1f80 00       		.sleb128 0
 9157 1f81 1A       		.byte	0x1a
 9158 1f82 75       		.byte	0x75
 9159 1f83 00       		.sleb128 0
 9160 1f84 27       		.byte	0x27
 9161 1f85 72       		.byte	0x72
 9162 1f86 00       		.sleb128 0
 9163 1f87 22       		.byte	0x22
 9164 1f88 9F       		.byte	0x9f
 9165 1f89 DE0F0000 		.4byte	.LVL696
 9166 1f8d E00F0000 		.4byte	.LVL697
 9167 1f91 0100     		.2byte	0x1
 9168 1f93 52       		.byte	0x52
 9169 1f94 F20F0000 		.4byte	.LVL699
 9170 1f98 28100000 		.4byte	.LVL708
ARM GAS  C:\Users\Ray\AppData\Local\Temp\ccn0usL8.s 			page 170


 9171 1f9c 0100     		.2byte	0x1
 9172 1f9e 52       		.byte	0x52
 9173 1f9f 36100000 		.4byte	.LVL709
 9174 1fa3 82100000 		.4byte	.LVL720
 9175 1fa7 0100     		.2byte	0x1
 9176 1fa9 52       		.byte	0x52
 9177 1faa 82100000 		.4byte	.LVL720
 9178 1fae 88100000 		.4byte	.LVL721
 9179 1fb2 0F00     		.2byte	0xf
 9180 1fb4 77       		.byte	0x77
 9181 1fb5 00       		.sleb128 0
 9182 1fb6 75       		.byte	0x75
 9183 1fb7 00       		.sleb128 0
 9184 1fb8 27       		.byte	0x27
 9185 1fb9 76       		.byte	0x76
 9186 1fba 00       		.sleb128 0
 9187 1fbb 1A       		.byte	0x1a
 9188 1fbc 75       		.byte	0x75
 9189 1fbd 00       		.sleb128 0
 9190 1fbe 27       		.byte	0x27
 9191 1fbf 72       		.byte	0x72
 9192 1fc0 00       		.sleb128 0
 9193 1fc1 22       		.byte	0x22
 9194 1fc2 9F       		.byte	0x9f
 9195 1fc3 88100000 		.4byte	.LVL721
 9196 1fc7 8A100000 		.4byte	.LVL722
 9197 1fcb 0100     		.2byte	0x1
 9198 1fcd 52       		.byte	0x52
 9199 1fce 9C100000 		.4byte	.LVL724
 9200 1fd2 D2100000 		.4byte	.LVL733
 9201 1fd6 0100     		.2byte	0x1
 9202 1fd8 52       		.byte	0x52
 9203 1fd9 E0100000 		.4byte	.LVL734
 9204 1fdd 24110000 		.4byte	.LVL745
 9205 1fe1 0100     		.2byte	0x1
 9206 1fe3 52       		.byte	0x52
 9207 1fe4 24110000 		.4byte	.LVL745
 9208 1fe8 28110000 		.4byte	.LVL746
 9209 1fec 0C00     		.2byte	0xc
 9210 1fee 77       		.byte	0x77
 9211 1fef 00       		.sleb128 0
 9212 1ff0 75       		.byte	0x75
 9213 1ff1 00       		.sleb128 0
 9214 1ff2 27       		.byte	0x27
 9215 1ff3 76       		.byte	0x76
 9216 1ff4 00       		.sleb128 0
 9217 1ff5 27       		.byte	0x27
 9218 1ff6 72       		.byte	0x72
 9219 1ff7 00       		.sleb128 0
 9220 1ff8 22       		.byte	0x22
 9221 1ff9 9F       		.byte	0x9f
 9222 1ffa 28110000 		.4byte	.LVL746
 9223 1ffe 2A110000 		.4byte	.LVL747
 9224 2002 0100     		.2byte	0x1
 9225 2004 52       		.byte	0x52
 9226 2005 32110000 		.4byte	.LVL749
 9227 2009 5E110000 		.4byte	.LVL758
ARM GAS  C:\Users\Ray\AppData\Local\Temp\ccn0usL8.s 			page 171


 9228 200d 0100     		.2byte	0x1
 9229 200f 52       		.byte	0x52
 9230 2010 62110000 		.4byte	.LVL759
 9231 2014 9C110000 		.4byte	.LVL770
 9232 2018 0100     		.2byte	0x1
 9233 201a 52       		.byte	0x52
 9234 201b 9C110000 		.4byte	.LVL770
 9235 201f A0110000 		.4byte	.LVL771
 9236 2023 0C00     		.2byte	0xc
 9237 2025 77       		.byte	0x77
 9238 2026 00       		.sleb128 0
 9239 2027 75       		.byte	0x75
 9240 2028 00       		.sleb128 0
 9241 2029 27       		.byte	0x27
 9242 202a 76       		.byte	0x76
 9243 202b 00       		.sleb128 0
 9244 202c 27       		.byte	0x27
 9245 202d 72       		.byte	0x72
 9246 202e 00       		.sleb128 0
 9247 202f 22       		.byte	0x22
 9248 2030 9F       		.byte	0x9f
 9249 2031 A0110000 		.4byte	.LVL771
 9250 2035 A2110000 		.4byte	.LVL772
 9251 2039 0100     		.2byte	0x1
 9252 203b 52       		.byte	0x52
 9253 203c AA110000 		.4byte	.LVL774
 9254 2040 D6110000 		.4byte	.LVL783
 9255 2044 0100     		.2byte	0x1
 9256 2046 52       		.byte	0x52
 9257 2047 DA110000 		.4byte	.LVL784
 9258 204b 20120000 		.4byte	.LVL795
 9259 204f 0100     		.2byte	0x1
 9260 2051 52       		.byte	0x52
 9261 2052 20120000 		.4byte	.LVL795
 9262 2056 24120000 		.4byte	.LVL796
 9263 205a 0C00     		.2byte	0xc
 9264 205c 77       		.byte	0x77
 9265 205d 00       		.sleb128 0
 9266 205e 75       		.byte	0x75
 9267 205f 00       		.sleb128 0
 9268 2060 27       		.byte	0x27
 9269 2061 76       		.byte	0x76
 9270 2062 00       		.sleb128 0
 9271 2063 27       		.byte	0x27
 9272 2064 72       		.byte	0x72
 9273 2065 00       		.sleb128 0
 9274 2066 22       		.byte	0x22
 9275 2067 9F       		.byte	0x9f
 9276 2068 24120000 		.4byte	.LVL796
 9277 206c 26120000 		.4byte	.LVL797
 9278 2070 0100     		.2byte	0x1
 9279 2072 52       		.byte	0x52
 9280 2073 2E120000 		.4byte	.LVL799
 9281 2077 5A120000 		.4byte	.LVL808
 9282 207b 0100     		.2byte	0x1
 9283 207d 52       		.byte	0x52
 9284 207e 5E120000 		.4byte	.LVL809
ARM GAS  C:\Users\Ray\AppData\Local\Temp\ccn0usL8.s 			page 172


 9285 2082 92120000 		.4byte	.LVL820
 9286 2086 0100     		.2byte	0x1
 9287 2088 52       		.byte	0x52
 9288 2089 92120000 		.4byte	.LVL820
 9289 208d BC120000 		.4byte	.LVL827
 9290 2091 1900     		.2byte	0x19
 9291 2093 77       		.byte	0x77
 9292 2094 00       		.sleb128 0
 9293 2095 75       		.byte	0x75
 9294 2096 00       		.sleb128 0
 9295 2097 27       		.byte	0x27
 9296 2098 76       		.byte	0x76
 9297 2099 00       		.sleb128 0
 9298 209a 27       		.byte	0x27
 9299 209b 72       		.byte	0x72
 9300 209c 00       		.sleb128 0
 9301 209d 22       		.byte	0x22
 9302 209e 45       		.byte	0x45
 9303 209f 14       		.byte	0x14
 9304 20a0 14       		.byte	0x14
 9305 20a1 1F       		.byte	0x1f
 9306 20a2 23       		.byte	0x23
 9307 20a3 20       		.uleb128 0x20
 9308 20a4 24       		.byte	0x24
 9309 20a5 17       		.byte	0x17
 9310 20a6 25       		.byte	0x25
 9311 20a7 21       		.byte	0x21
 9312 20a8 71       		.byte	0x71
 9313 20a9 00       		.sleb128 0
 9314 20aa 22       		.byte	0x22
 9315 20ab 9F       		.byte	0x9f
 9316 20ac BC120000 		.4byte	.LVL827
 9317 20b0 BE120000 		.4byte	.LVL828
 9318 20b4 1600     		.2byte	0x16
 9319 20b6 75       		.byte	0x75
 9320 20b7 00       		.sleb128 0
 9321 20b8 76       		.byte	0x76
 9322 20b9 00       		.sleb128 0
 9323 20ba 27       		.byte	0x27
 9324 20bb 72       		.byte	0x72
 9325 20bc 00       		.sleb128 0
 9326 20bd 22       		.byte	0x22
 9327 20be 45       		.byte	0x45
 9328 20bf 14       		.byte	0x14
 9329 20c0 14       		.byte	0x14
 9330 20c1 1F       		.byte	0x1f
 9331 20c2 23       		.byte	0x23
 9332 20c3 20       		.uleb128 0x20
 9333 20c4 24       		.byte	0x24
 9334 20c5 17       		.byte	0x17
 9335 20c6 25       		.byte	0x25
 9336 20c7 21       		.byte	0x21
 9337 20c8 71       		.byte	0x71
 9338 20c9 00       		.sleb128 0
 9339 20ca 22       		.byte	0x22
 9340 20cb 9F       		.byte	0x9f
 9341 20cc 00000000 		.4byte	0
ARM GAS  C:\Users\Ray\AppData\Local\Temp\ccn0usL8.s 			page 173


 9342 20d0 00000000 		.4byte	0
 9343              	.LLST9:
 9344 20d4 00000000 		.4byte	.LVL0
 9345 20d8 26000000 		.4byte	.LVL5
 9346 20dc 0200     		.2byte	0x2
 9347 20de 70       		.byte	0x70
 9348 20df 08       		.sleb128 8
 9349 20e0 26000000 		.4byte	.LVL5
 9350 20e4 1C090000 		.4byte	.LVL425
 9351 20e8 0200     		.2byte	0x2
 9352 20ea 74       		.byte	0x74
 9353 20eb 08       		.sleb128 8
 9354 20ec 1C090000 		.4byte	.LVL425
 9355 20f0 6A090000 		.4byte	.LVL440
 9356 20f4 0200     		.2byte	0x2
 9357 20f6 91       		.byte	0x91
 9358 20f7 4C       		.sleb128 -52
 9359 20f8 7E090000 		.4byte	.LVL443
 9360 20fc AA090000 		.4byte	.LVL450
 9361 2100 0100     		.2byte	0x1
 9362 2102 56       		.byte	0x56
 9363 2103 AE090000 		.4byte	.LVL451
 9364 2107 000A0000 		.4byte	.LVL463
 9365 210b 0100     		.2byte	0x1
 9366 210d 56       		.byte	0x56
 9367 210e 000A0000 		.4byte	.LVL463
 9368 2112 0A0A0000 		.4byte	.LVL464
 9369 2116 0D00     		.2byte	0xd
 9370 2118 7C       		.byte	0x7c
 9371 2119 00       		.sleb128 0
 9372 211a 20       		.byte	0x20
 9373 211b 75       		.byte	0x75
 9374 211c 00       		.sleb128 0
 9375 211d 21       		.byte	0x21
 9376 211e 77       		.byte	0x77
 9377 211f 00       		.sleb128 0
 9378 2120 27       		.byte	0x27
 9379 2121 76       		.byte	0x76
 9380 2122 00       		.sleb128 0
 9381 2123 22       		.byte	0x22
 9382 2124 9F       		.byte	0x9f
 9383 2125 0A0A0000 		.4byte	.LVL464
 9384 2129 0E0A0000 		.4byte	.LVL466
 9385 212d 0100     		.2byte	0x1
 9386 212f 56       		.byte	0x56
 9387 2130 140A0000 		.4byte	.LVL467
 9388 2134 400A0000 		.4byte	.LVL476
 9389 2138 0100     		.2byte	0x1
 9390 213a 56       		.byte	0x56
 9391 213b 440A0000 		.4byte	.LVL477
 9392 213f 840A0000 		.4byte	.LVL488
 9393 2143 0100     		.2byte	0x1
 9394 2145 56       		.byte	0x56
 9395 2146 840A0000 		.4byte	.LVL488
 9396 214a 8C0A0000 		.4byte	.LVL489
 9397 214e 0E00     		.2byte	0xe
 9398 2150 91       		.byte	0x91
ARM GAS  C:\Users\Ray\AppData\Local\Temp\ccn0usL8.s 			page 174


 9399 2151 4C       		.sleb128 -52
 9400 2152 06       		.byte	0x6
 9401 2153 20       		.byte	0x20
 9402 2154 75       		.byte	0x75
 9403 2155 00       		.sleb128 0
 9404 2156 21       		.byte	0x21
 9405 2157 77       		.byte	0x77
 9406 2158 00       		.sleb128 0
 9407 2159 27       		.byte	0x27
 9408 215a 76       		.byte	0x76
 9409 215b 00       		.sleb128 0
 9410 215c 22       		.byte	0x22
 9411 215d 9F       		.byte	0x9f
 9412 215e 960A0000 		.4byte	.LVL490
 9413 2162 A00A0000 		.4byte	.LVL491
 9414 2166 0100     		.2byte	0x1
 9415 2168 56       		.byte	0x56
 9416 2169 A40A0000 		.4byte	.LVL492
 9417 216d D60A0000 		.4byte	.LVL499
 9418 2171 0100     		.2byte	0x1
 9419 2173 56       		.byte	0x56
 9420 2174 E40A0000 		.4byte	.LVL502
 9421 2178 360B0000 		.4byte	.LVL513
 9422 217c 0100     		.2byte	0x1
 9423 217e 56       		.byte	0x56
 9424 217f 360B0000 		.4byte	.LVL513
 9425 2183 3C0B0000 		.4byte	.LVL514
 9426 2187 0F00     		.2byte	0xf
 9427 2189 75       		.byte	0x75
 9428 218a 00       		.sleb128 0
 9429 218b 77       		.byte	0x77
 9430 218c 00       		.sleb128 0
 9431 218d 27       		.byte	0x27
 9432 218e 72       		.byte	0x72
 9433 218f 00       		.sleb128 0
 9434 2190 1A       		.byte	0x1a
 9435 2191 75       		.byte	0x75
 9436 2192 00       		.sleb128 0
 9437 2193 27       		.byte	0x27
 9438 2194 76       		.byte	0x76
 9439 2195 00       		.sleb128 0
 9440 2196 22       		.byte	0x22
 9441 2197 9F       		.byte	0x9f
 9442 2198 3C0B0000 		.4byte	.LVL514
 9443 219c 3E0B0000 		.4byte	.LVL515
 9444 21a0 0100     		.2byte	0x1
 9445 21a2 56       		.byte	0x56
 9446 21a3 4E0B0000 		.4byte	.LVL517
 9447 21a7 840B0000 		.4byte	.LVL526
 9448 21ab 0100     		.2byte	0x1
 9449 21ad 56       		.byte	0x56
 9450 21ae 920B0000 		.4byte	.LVL527
 9451 21b2 DE0B0000 		.4byte	.LVL538
 9452 21b6 0100     		.2byte	0x1
 9453 21b8 56       		.byte	0x56
 9454 21b9 DE0B0000 		.4byte	.LVL538
 9455 21bd E40B0000 		.4byte	.LVL539
ARM GAS  C:\Users\Ray\AppData\Local\Temp\ccn0usL8.s 			page 175


 9456 21c1 0F00     		.2byte	0xf
 9457 21c3 75       		.byte	0x75
 9458 21c4 00       		.sleb128 0
 9459 21c5 77       		.byte	0x77
 9460 21c6 00       		.sleb128 0
 9461 21c7 27       		.byte	0x27
 9462 21c8 72       		.byte	0x72
 9463 21c9 00       		.sleb128 0
 9464 21ca 1A       		.byte	0x1a
 9465 21cb 75       		.byte	0x75
 9466 21cc 00       		.sleb128 0
 9467 21cd 27       		.byte	0x27
 9468 21ce 76       		.byte	0x76
 9469 21cf 00       		.sleb128 0
 9470 21d0 22       		.byte	0x22
 9471 21d1 9F       		.byte	0x9f
 9472 21d2 E40B0000 		.4byte	.LVL539
 9473 21d6 E60B0000 		.4byte	.LVL540
 9474 21da 0100     		.2byte	0x1
 9475 21dc 56       		.byte	0x56
 9476 21dd EA0B0000 		.4byte	.LVL541
 9477 21e1 EC0B0000 		.4byte	.LVL542
 9478 21e5 0100     		.2byte	0x1
 9479 21e7 53       		.byte	0x53
 9480 21e8 EC0B0000 		.4byte	.LVL542
 9481 21ec 2A0C0000 		.4byte	.LVL552
 9482 21f0 0100     		.2byte	0x1
 9483 21f2 5C       		.byte	0x5c
 9484 21f3 2A0C0000 		.4byte	.LVL552
 9485 21f7 7E0C0000 		.4byte	.LVL563
 9486 21fb 0100     		.2byte	0x1
 9487 21fd 52       		.byte	0x52
 9488 21fe 7E0C0000 		.4byte	.LVL563
 9489 2202 840C0000 		.4byte	.LVL564
 9490 2206 0F00     		.2byte	0xf
 9491 2208 75       		.byte	0x75
 9492 2209 00       		.sleb128 0
 9493 220a 77       		.byte	0x77
 9494 220b 00       		.sleb128 0
 9495 220c 27       		.byte	0x27
 9496 220d 76       		.byte	0x76
 9497 220e 00       		.sleb128 0
 9498 220f 1A       		.byte	0x1a
 9499 2210 75       		.byte	0x75
 9500 2211 00       		.sleb128 0
 9501 2212 27       		.byte	0x27
 9502 2213 72       		.byte	0x72
 9503 2214 00       		.sleb128 0
 9504 2215 22       		.byte	0x22
 9505 2216 9F       		.byte	0x9f
 9506 2217 840C0000 		.4byte	.LVL564
 9507 221b 860C0000 		.4byte	.LVL565
 9508 221f 0100     		.2byte	0x1
 9509 2221 52       		.byte	0x52
 9510 2222 980C0000 		.4byte	.LVL567
 9511 2226 CE0C0000 		.4byte	.LVL576
 9512 222a 0100     		.2byte	0x1
ARM GAS  C:\Users\Ray\AppData\Local\Temp\ccn0usL8.s 			page 176


 9513 222c 52       		.byte	0x52
 9514 222d DC0C0000 		.4byte	.LVL577
 9515 2231 1E0D0000 		.4byte	.LVL589
 9516 2235 0100     		.2byte	0x1
 9517 2237 52       		.byte	0x52
 9518 2238 1E0D0000 		.4byte	.LVL589
 9519 223c 2A0D0000 		.4byte	.LVL590
 9520 2240 0D00     		.2byte	0xd
 9521 2242 75       		.byte	0x75
 9522 2243 00       		.sleb128 0
 9523 2244 20       		.byte	0x20
 9524 2245 77       		.byte	0x77
 9525 2246 00       		.sleb128 0
 9526 2247 21       		.byte	0x21
 9527 2248 7C       		.byte	0x7c
 9528 2249 00       		.sleb128 0
 9529 224a 27       		.byte	0x27
 9530 224b 72       		.byte	0x72
 9531 224c 00       		.sleb128 0
 9532 224d 22       		.byte	0x22
 9533 224e 9F       		.byte	0x9f
 9534 224f 2A0D0000 		.4byte	.LVL590
 9535 2253 2C0D0000 		.4byte	.LVL591
 9536 2257 0100     		.2byte	0x1
 9537 2259 52       		.byte	0x52
 9538 225a 340D0000 		.4byte	.LVL593
 9539 225e 640D0000 		.4byte	.LVL602
 9540 2262 0100     		.2byte	0x1
 9541 2264 52       		.byte	0x52
 9542 2265 740D0000 		.4byte	.LVL603
 9543 2269 BE0D0000 		.4byte	.LVL614
 9544 226d 0100     		.2byte	0x1
 9545 226f 52       		.byte	0x52
 9546 2270 BE0D0000 		.4byte	.LVL614
 9547 2274 C40D0000 		.4byte	.LVL615
 9548 2278 0D00     		.2byte	0xd
 9549 227a 75       		.byte	0x75
 9550 227b 00       		.sleb128 0
 9551 227c 20       		.byte	0x20
 9552 227d 77       		.byte	0x77
 9553 227e 00       		.sleb128 0
 9554 227f 21       		.byte	0x21
 9555 2280 71       		.byte	0x71
 9556 2281 00       		.sleb128 0
 9557 2282 27       		.byte	0x27
 9558 2283 72       		.byte	0x72
 9559 2284 00       		.sleb128 0
 9560 2285 22       		.byte	0x22
 9561 2286 9F       		.byte	0x9f
 9562 2287 C40D0000 		.4byte	.LVL615
 9563 228b C60D0000 		.4byte	.LVL616
 9564 228f 0100     		.2byte	0x1
 9565 2291 52       		.byte	0x52
 9566 2292 DA0D0000 		.4byte	.LVL618
 9567 2296 1C0E0000 		.4byte	.LVL627
 9568 229a 0100     		.2byte	0x1
 9569 229c 52       		.byte	0x52
ARM GAS  C:\Users\Ray\AppData\Local\Temp\ccn0usL8.s 			page 177


 9570 229d 2C0E0000 		.4byte	.LVL628
 9571 22a1 720E0000 		.4byte	.LVL639
 9572 22a5 0100     		.2byte	0x1
 9573 22a7 52       		.byte	0x52
 9574 22a8 720E0000 		.4byte	.LVL639
 9575 22ac 780E0000 		.4byte	.LVL640
 9576 22b0 0D00     		.2byte	0xd
 9577 22b2 75       		.byte	0x75
 9578 22b3 00       		.sleb128 0
 9579 22b4 20       		.byte	0x20
 9580 22b5 77       		.byte	0x77
 9581 22b6 00       		.sleb128 0
 9582 22b7 21       		.byte	0x21
 9583 22b8 71       		.byte	0x71
 9584 22b9 00       		.sleb128 0
 9585 22ba 27       		.byte	0x27
 9586 22bb 72       		.byte	0x72
 9587 22bc 00       		.sleb128 0
 9588 22bd 22       		.byte	0x22
 9589 22be 9F       		.byte	0x9f
 9590 22bf 780E0000 		.4byte	.LVL640
 9591 22c3 7A0E0000 		.4byte	.LVL641
 9592 22c7 0100     		.2byte	0x1
 9593 22c9 52       		.byte	0x52
 9594 22ca 8E0E0000 		.4byte	.LVL643
 9595 22ce C20E0000 		.4byte	.LVL652
 9596 22d2 0100     		.2byte	0x1
 9597 22d4 52       		.byte	0x52
 9598 22d5 D20E0000 		.4byte	.LVL653
 9599 22d9 0C0F0000 		.4byte	.LVL665
 9600 22dd 0100     		.2byte	0x1
 9601 22df 52       		.byte	0x52
 9602 22e0 0C0F0000 		.4byte	.LVL665
 9603 22e4 180F0000 		.4byte	.LVL666
 9604 22e8 0F00     		.2byte	0xf
 9605 22ea 75       		.byte	0x75
 9606 22eb 00       		.sleb128 0
 9607 22ec 71       		.byte	0x71
 9608 22ed 00       		.sleb128 0
 9609 22ee 27       		.byte	0x27
 9610 22ef 77       		.byte	0x77
 9611 22f0 00       		.sleb128 0
 9612 22f1 1A       		.byte	0x1a
 9613 22f2 71       		.byte	0x71
 9614 22f3 00       		.sleb128 0
 9615 22f4 27       		.byte	0x27
 9616 22f5 72       		.byte	0x72
 9617 22f6 00       		.sleb128 0
 9618 22f7 22       		.byte	0x22
 9619 22f8 9F       		.byte	0x9f
 9620 22f9 180F0000 		.4byte	.LVL666
 9621 22fd 1A0F0000 		.4byte	.LVL667
 9622 2301 0100     		.2byte	0x1
 9623 2303 56       		.byte	0x56
 9624 2304 1A0F0000 		.4byte	.LVL667
 9625 2308 1E0F0000 		.4byte	.LVL668
 9626 230c 0F00     		.2byte	0xf
ARM GAS  C:\Users\Ray\AppData\Local\Temp\ccn0usL8.s 			page 178


 9627 230e 75       		.byte	0x75
 9628 230f 00       		.sleb128 0
 9629 2310 71       		.byte	0x71
 9630 2311 00       		.sleb128 0
 9631 2312 27       		.byte	0x27
 9632 2313 77       		.byte	0x77
 9633 2314 00       		.sleb128 0
 9634 2315 1A       		.byte	0x1a
 9635 2316 71       		.byte	0x71
 9636 2317 00       		.sleb128 0
 9637 2318 27       		.byte	0x27
 9638 2319 72       		.byte	0x72
 9639 231a 00       		.sleb128 0
 9640 231b 22       		.byte	0x22
 9641 231c 9F       		.byte	0x9f
 9642 231d 220F0000 		.4byte	.LVL669
 9643 2321 5C0F0000 		.4byte	.LVL678
 9644 2325 0100     		.2byte	0x1
 9645 2327 56       		.byte	0x56
 9646 2328 6A0F0000 		.4byte	.LVL679
 9647 232c B60F0000 		.4byte	.LVL690
 9648 2330 0100     		.2byte	0x1
 9649 2332 56       		.byte	0x56
 9650 2333 B60F0000 		.4byte	.LVL690
 9651 2337 BC0F0000 		.4byte	.LVL691
 9652 233b 0F00     		.2byte	0xf
 9653 233d 75       		.byte	0x75
 9654 233e 00       		.sleb128 0
 9655 233f 71       		.byte	0x71
 9656 2340 00       		.sleb128 0
 9657 2341 27       		.byte	0x27
 9658 2342 77       		.byte	0x77
 9659 2343 00       		.sleb128 0
 9660 2344 1A       		.byte	0x1a
 9661 2345 71       		.byte	0x71
 9662 2346 00       		.sleb128 0
 9663 2347 27       		.byte	0x27
 9664 2348 76       		.byte	0x76
 9665 2349 00       		.sleb128 0
 9666 234a 22       		.byte	0x22
 9667 234b 9F       		.byte	0x9f
 9668 234c BC0F0000 		.4byte	.LVL691
 9669 2350 BE0F0000 		.4byte	.LVL692
 9670 2354 0100     		.2byte	0x1
 9671 2356 56       		.byte	0x56
 9672 2357 D00F0000 		.4byte	.LVL694
 9673 235b 06100000 		.4byte	.LVL703
 9674 235f 0100     		.2byte	0x1
 9675 2361 56       		.byte	0x56
 9676 2362 14100000 		.4byte	.LVL704
 9677 2366 60100000 		.4byte	.LVL715
 9678 236a 0100     		.2byte	0x1
 9679 236c 56       		.byte	0x56
 9680 236d 60100000 		.4byte	.LVL715
 9681 2371 66100000 		.4byte	.LVL716
 9682 2375 0F00     		.2byte	0xf
 9683 2377 75       		.byte	0x75
ARM GAS  C:\Users\Ray\AppData\Local\Temp\ccn0usL8.s 			page 179


 9684 2378 00       		.sleb128 0
 9685 2379 71       		.byte	0x71
 9686 237a 00       		.sleb128 0
 9687 237b 27       		.byte	0x27
 9688 237c 77       		.byte	0x77
 9689 237d 00       		.sleb128 0
 9690 237e 1A       		.byte	0x1a
 9691 237f 71       		.byte	0x71
 9692 2380 00       		.sleb128 0
 9693 2381 27       		.byte	0x27
 9694 2382 76       		.byte	0x76
 9695 2383 00       		.sleb128 0
 9696 2384 22       		.byte	0x22
 9697 2385 9F       		.byte	0x9f
 9698 2386 66100000 		.4byte	.LVL716
 9699 238a 68100000 		.4byte	.LVL717
 9700 238e 0100     		.2byte	0x1
 9701 2390 56       		.byte	0x56
 9702 2391 7A100000 		.4byte	.LVL719
 9703 2395 B0100000 		.4byte	.LVL728
 9704 2399 0100     		.2byte	0x1
 9705 239b 56       		.byte	0x56
 9706 239c BE100000 		.4byte	.LVL729
 9707 23a0 0A110000 		.4byte	.LVL740
 9708 23a4 0100     		.2byte	0x1
 9709 23a6 56       		.byte	0x56
 9710 23a7 0A110000 		.4byte	.LVL740
 9711 23ab 10110000 		.4byte	.LVL741
 9712 23af 0F00     		.2byte	0xf
 9713 23b1 75       		.byte	0x75
 9714 23b2 00       		.sleb128 0
 9715 23b3 71       		.byte	0x71
 9716 23b4 00       		.sleb128 0
 9717 23b5 27       		.byte	0x27
 9718 23b6 77       		.byte	0x77
 9719 23b7 00       		.sleb128 0
 9720 23b8 1A       		.byte	0x1a
 9721 23b9 71       		.byte	0x71
 9722 23ba 00       		.sleb128 0
 9723 23bb 27       		.byte	0x27
 9724 23bc 76       		.byte	0x76
 9725 23bd 00       		.sleb128 0
 9726 23be 22       		.byte	0x22
 9727 23bf 9F       		.byte	0x9f
 9728 23c0 10110000 		.4byte	.LVL741
 9729 23c4 12110000 		.4byte	.LVL742
 9730 23c8 0100     		.2byte	0x1
 9731 23ca 56       		.byte	0x56
 9732 23cb 1A110000 		.4byte	.LVL744
 9733 23cf 46110000 		.4byte	.LVL753
 9734 23d3 0100     		.2byte	0x1
 9735 23d5 56       		.byte	0x56
 9736 23d6 4A110000 		.4byte	.LVL754
 9737 23da 84110000 		.4byte	.LVL765
 9738 23de 0100     		.2byte	0x1
 9739 23e0 56       		.byte	0x56
 9740 23e1 84110000 		.4byte	.LVL765
ARM GAS  C:\Users\Ray\AppData\Local\Temp\ccn0usL8.s 			page 180


 9741 23e5 88110000 		.4byte	.LVL766
 9742 23e9 0C00     		.2byte	0xc
 9743 23eb 75       		.byte	0x75
 9744 23ec 00       		.sleb128 0
 9745 23ed 71       		.byte	0x71
 9746 23ee 00       		.sleb128 0
 9747 23ef 27       		.byte	0x27
 9748 23f0 77       		.byte	0x77
 9749 23f1 00       		.sleb128 0
 9750 23f2 27       		.byte	0x27
 9751 23f3 76       		.byte	0x76
 9752 23f4 00       		.sleb128 0
 9753 23f5 22       		.byte	0x22
 9754 23f6 9F       		.byte	0x9f
 9755 23f7 88110000 		.4byte	.LVL766
 9756 23fb 8A110000 		.4byte	.LVL767
 9757 23ff 0100     		.2byte	0x1
 9758 2401 56       		.byte	0x56
 9759 2402 92110000 		.4byte	.LVL769
 9760 2406 BE110000 		.4byte	.LVL778
 9761 240a 0100     		.2byte	0x1
 9762 240c 56       		.byte	0x56
 9763 240d C2110000 		.4byte	.LVL779
 9764 2411 08120000 		.4byte	.LVL790
 9765 2415 0100     		.2byte	0x1
 9766 2417 56       		.byte	0x56
 9767 2418 08120000 		.4byte	.LVL790
 9768 241c 0C120000 		.4byte	.LVL791
 9769 2420 0C00     		.2byte	0xc
 9770 2422 75       		.byte	0x75
 9771 2423 00       		.sleb128 0
 9772 2424 71       		.byte	0x71
 9773 2425 00       		.sleb128 0
 9774 2426 27       		.byte	0x27
 9775 2427 77       		.byte	0x77
 9776 2428 00       		.sleb128 0
 9777 2429 27       		.byte	0x27
 9778 242a 76       		.byte	0x76
 9779 242b 00       		.sleb128 0
 9780 242c 22       		.byte	0x22
 9781 242d 9F       		.byte	0x9f
 9782 242e 0C120000 		.4byte	.LVL791
 9783 2432 0E120000 		.4byte	.LVL792
 9784 2436 0100     		.2byte	0x1
 9785 2438 56       		.byte	0x56
 9786 2439 16120000 		.4byte	.LVL794
 9787 243d 42120000 		.4byte	.LVL803
 9788 2441 0100     		.2byte	0x1
 9789 2443 56       		.byte	0x56
 9790 2444 46120000 		.4byte	.LVL804
 9791 2448 80120000 		.4byte	.LVL815
 9792 244c 0100     		.2byte	0x1
 9793 244e 56       		.byte	0x56
 9794 244f 80120000 		.4byte	.LVL815
 9795 2453 84120000 		.4byte	.LVL816
 9796 2457 0C00     		.2byte	0xc
 9797 2459 75       		.byte	0x75
ARM GAS  C:\Users\Ray\AppData\Local\Temp\ccn0usL8.s 			page 181


 9798 245a 00       		.sleb128 0
 9799 245b 71       		.byte	0x71
 9800 245c 00       		.sleb128 0
 9801 245d 27       		.byte	0x27
 9802 245e 77       		.byte	0x77
 9803 245f 00       		.sleb128 0
 9804 2460 27       		.byte	0x27
 9805 2461 76       		.byte	0x76
 9806 2462 00       		.sleb128 0
 9807 2463 22       		.byte	0x22
 9808 2464 9F       		.byte	0x9f
 9809 2465 84120000 		.4byte	.LVL816
 9810 2469 86120000 		.4byte	.LVL817
 9811 246d 0100     		.2byte	0x1
 9812 246f 56       		.byte	0x56
 9813 2470 8E120000 		.4byte	.LVL819
 9814 2474 EC120000 		.4byte	.LVL832
 9815 2478 0100     		.2byte	0x1
 9816 247a 56       		.byte	0x56
 9817 247b 00000000 		.4byte	0
 9818 247f 00000000 		.4byte	0
 9819              	.LLST10:
 9820 2483 00000000 		.4byte	.LVL0
 9821 2487 26000000 		.4byte	.LVL5
 9822 248b 0200     		.2byte	0x2
 9823 248d 70       		.byte	0x70
 9824 248e 0C       		.sleb128 12
 9825 248f 26000000 		.4byte	.LVL5
 9826 2493 3C090000 		.4byte	.LVL429
 9827 2497 0200     		.2byte	0x2
 9828 2499 74       		.byte	0x74
 9829 249a 0C       		.sleb128 12
 9830 249b 3C090000 		.4byte	.LVL429
 9831 249f 42090000 		.4byte	.LVL430
 9832 24a3 1A00     		.2byte	0x1a
 9833 24a5 91       		.byte	0x91
 9834 24a6 50       		.sleb128 -48
 9835 24a7 06       		.byte	0x6
 9836 24a8 20       		.byte	0x20
 9837 24a9 73       		.byte	0x73
 9838 24aa 00       		.sleb128 0
 9839 24ab 21       		.byte	0x21
 9840 24ac 75       		.byte	0x75
 9841 24ad 00       		.sleb128 0
 9842 24ae 27       		.byte	0x27
 9843 24af 74       		.byte	0x74
 9844 24b0 0C       		.sleb128 12
 9845 24b1 06       		.byte	0x6
 9846 24b2 22       		.byte	0x22
 9847 24b3 91       		.byte	0x91
 9848 24b4 A87F     		.sleb128 -88
 9849 24b6 06       		.byte	0x6
 9850 24b7 22       		.byte	0x22
 9851 24b8 23       		.byte	0x23
 9852 24b9 E6978A85 		.uleb128 0x50a28be6
 9852      05
 9853 24be 9F       		.byte	0x9f
ARM GAS  C:\Users\Ray\AppData\Local\Temp\ccn0usL8.s 			page 182


 9854 24bf 42090000 		.4byte	.LVL430
 9855 24c3 48090000 		.4byte	.LVL432
 9856 24c7 1500     		.2byte	0x15
 9857 24c9 77       		.byte	0x77
 9858 24ca 00       		.sleb128 0
 9859 24cb 75       		.byte	0x75
 9860 24cc 00       		.sleb128 0
 9861 24cd 27       		.byte	0x27
 9862 24ce 74       		.byte	0x74
 9863 24cf 0C       		.sleb128 12
 9864 24d0 06       		.byte	0x6
 9865 24d1 22       		.byte	0x22
 9866 24d2 91       		.byte	0x91
 9867 24d3 A87F     		.sleb128 -88
 9868 24d5 06       		.byte	0x6
 9869 24d6 22       		.byte	0x22
 9870 24d7 23       		.byte	0x23
 9871 24d8 E6978A85 		.uleb128 0x50a28be6
 9871      05
 9872 24dd 9F       		.byte	0x9f
 9873 24de 48090000 		.4byte	.LVL432
 9874 24e2 4C090000 		.4byte	.LVL433
 9875 24e6 3E00     		.2byte	0x3e
 9876 24e8 74       		.byte	0x74
 9877 24e9 0C       		.sleb128 12
 9878 24ea 06       		.byte	0x6
 9879 24eb 20       		.byte	0x20
 9880 24ec 74       		.byte	0x74
 9881 24ed 08       		.sleb128 8
 9882 24ee 06       		.byte	0x6
 9883 24ef 21       		.byte	0x21
 9884 24f0 74       		.byte	0x74
 9885 24f1 04       		.sleb128 4
 9886 24f2 06       		.byte	0x6
 9887 24f3 27       		.byte	0x27
 9888 24f4 91       		.byte	0x91
 9889 24f5 A07F     		.sleb128 -96
 9890 24f7 06       		.byte	0x6
 9891 24f8 22       		.byte	0x22
 9892 24f9 71       		.byte	0x71
 9893 24fa 00       		.sleb128 0
 9894 24fb 22       		.byte	0x22
 9895 24fc 74       		.byte	0x74
 9896 24fd 00       		.sleb128 0
 9897 24fe 06       		.byte	0x6
 9898 24ff 22       		.byte	0x22
 9899 2500 48       		.byte	0x48
 9900 2501 14       		.byte	0x14
 9901 2502 14       		.byte	0x14
 9902 2503 1F       		.byte	0x1f
 9903 2504 23       		.byte	0x23
 9904 2505 20       		.uleb128 0x20
 9905 2506 24       		.byte	0x24
 9906 2507 17       		.byte	0x17
 9907 2508 25       		.byte	0x25
 9908 2509 21       		.byte	0x21
 9909 250a 74       		.byte	0x74
ARM GAS  C:\Users\Ray\AppData\Local\Temp\ccn0usL8.s 			page 183


 9910 250b 10       		.sleb128 16
 9911 250c 06       		.byte	0x6
 9912 250d 22       		.byte	0x22
 9913 250e 91       		.byte	0x91
 9914 250f 50       		.sleb128 -48
 9915 2510 06       		.byte	0x6
 9916 2511 20       		.byte	0x20
 9917 2512 21       		.byte	0x21
 9918 2513 75       		.byte	0x75
 9919 2514 00       		.sleb128 0
 9920 2515 27       		.byte	0x27
 9921 2516 74       		.byte	0x74
 9922 2517 0C       		.sleb128 12
 9923 2518 06       		.byte	0x6
 9924 2519 22       		.byte	0x22
 9925 251a 91       		.byte	0x91
 9926 251b A87F     		.sleb128 -88
 9927 251d 06       		.byte	0x6
 9928 251e 22       		.byte	0x22
 9929 251f 23       		.byte	0x23
 9930 2520 E6978A85 		.uleb128 0x50a28be6
 9930      05
 9931 2525 9F       		.byte	0x9f
 9932 2526 4C090000 		.4byte	.LVL433
 9933 252a 5A090000 		.4byte	.LVL435
 9934 252e 4100     		.2byte	0x41
 9935 2530 74       		.byte	0x74
 9936 2531 0C       		.sleb128 12
 9937 2532 06       		.byte	0x6
 9938 2533 20       		.byte	0x20
 9939 2534 74       		.byte	0x74
 9940 2535 08       		.sleb128 8
 9941 2536 06       		.byte	0x6
 9942 2537 21       		.byte	0x21
 9943 2538 74       		.byte	0x74
 9944 2539 04       		.sleb128 4
 9945 253a 06       		.byte	0x6
 9946 253b 27       		.byte	0x27
 9947 253c 91       		.byte	0x91
 9948 253d A07F     		.sleb128 -96
 9949 253f 06       		.byte	0x6
 9950 2540 22       		.byte	0x22
 9951 2541 74       		.byte	0x74
 9952 2542 00       		.sleb128 0
 9953 2543 06       		.byte	0x6
 9954 2544 22       		.byte	0x22
 9955 2545 23       		.byte	0x23
 9956 2546 E6978A85 		.uleb128 0x50a28be6
 9956      05
 9957 254b 48       		.byte	0x48
 9958 254c 14       		.byte	0x14
 9959 254d 14       		.byte	0x14
 9960 254e 1F       		.byte	0x1f
 9961 254f 23       		.byte	0x23
 9962 2550 20       		.uleb128 0x20
 9963 2551 24       		.byte	0x24
 9964 2552 17       		.byte	0x17
ARM GAS  C:\Users\Ray\AppData\Local\Temp\ccn0usL8.s 			page 184


 9965 2553 25       		.byte	0x25
 9966 2554 21       		.byte	0x21
 9967 2555 74       		.byte	0x74
 9968 2556 10       		.sleb128 16
 9969 2557 06       		.byte	0x6
 9970 2558 22       		.byte	0x22
 9971 2559 91       		.byte	0x91
 9972 255a 50       		.sleb128 -48
 9973 255b 06       		.byte	0x6
 9974 255c 20       		.byte	0x20
 9975 255d 21       		.byte	0x21
 9976 255e 75       		.byte	0x75
 9977 255f 00       		.sleb128 0
 9978 2560 27       		.byte	0x27
 9979 2561 74       		.byte	0x74
 9980 2562 0C       		.sleb128 12
 9981 2563 06       		.byte	0x6
 9982 2564 22       		.byte	0x22
 9983 2565 91       		.byte	0x91
 9984 2566 A87F     		.sleb128 -88
 9985 2568 06       		.byte	0x6
 9986 2569 22       		.byte	0x22
 9987 256a 23       		.byte	0x23
 9988 256b E6978A85 		.uleb128 0x50a28be6
 9988      05
 9989 2570 9F       		.byte	0x9f
 9990 2571 5A090000 		.4byte	.LVL435
 9991 2575 5C090000 		.4byte	.LVL436
 9992 2579 8E00     		.2byte	0x8e
 9993 257b 74       		.byte	0x74
 9994 257c 0C       		.sleb128 12
 9995 257d 06       		.byte	0x6
 9996 257e 20       		.byte	0x20
 9997 257f 74       		.byte	0x74
 9998 2580 08       		.sleb128 8
 9999 2581 06       		.byte	0x6
 10000 2582 21       		.byte	0x21
 10001 2583 74       		.byte	0x74
 10002 2584 04       		.sleb128 4
 10003 2585 06       		.byte	0x6
 10004 2586 27       		.byte	0x27
 10005 2587 91       		.byte	0x91
 10006 2588 A07F     		.sleb128 -96
 10007 258a 06       		.byte	0x6
 10008 258b 22       		.byte	0x22
 10009 258c 74       		.byte	0x74
 10010 258d 00       		.sleb128 0
 10011 258e 06       		.byte	0x6
 10012 258f 22       		.byte	0x22
 10013 2590 23       		.byte	0x23
 10014 2591 E6978A85 		.uleb128 0x50a28be6
 10014      05
 10015 2596 48       		.byte	0x48
 10016 2597 14       		.byte	0x14
 10017 2598 14       		.byte	0x14
 10018 2599 1F       		.byte	0x1f
 10019 259a 23       		.byte	0x23
ARM GAS  C:\Users\Ray\AppData\Local\Temp\ccn0usL8.s 			page 185


 10020 259b 20       		.uleb128 0x20
 10021 259c 24       		.byte	0x24
 10022 259d 17       		.byte	0x17
 10023 259e 25       		.byte	0x25
 10024 259f 21       		.byte	0x21
 10025 25a0 74       		.byte	0x74
 10026 25a1 10       		.sleb128 16
 10027 25a2 06       		.byte	0x6
 10028 25a3 22       		.byte	0x22
 10029 25a4 91       		.byte	0x91
 10030 25a5 50       		.sleb128 -48
 10031 25a6 06       		.byte	0x6
 10032 25a7 20       		.byte	0x20
 10033 25a8 21       		.byte	0x21
 10034 25a9 91       		.byte	0x91
 10035 25aa 4C       		.sleb128 -52
 10036 25ab 06       		.byte	0x6
 10037 25ac 20       		.byte	0x20
 10038 25ad 74       		.byte	0x74
 10039 25ae 04       		.sleb128 4
 10040 25af 06       		.byte	0x6
 10041 25b0 21       		.byte	0x21
 10042 25b1 74       		.byte	0x74
 10043 25b2 0C       		.sleb128 12
 10044 25b3 06       		.byte	0x6
 10045 25b4 20       		.byte	0x20
 10046 25b5 74       		.byte	0x74
 10047 25b6 08       		.sleb128 8
 10048 25b7 06       		.byte	0x6
 10049 25b8 21       		.byte	0x21
 10050 25b9 74       		.byte	0x74
 10051 25ba 04       		.sleb128 4
 10052 25bb 06       		.byte	0x6
 10053 25bc 27       		.byte	0x27
 10054 25bd 91       		.byte	0x91
 10055 25be A07F     		.sleb128 -96
 10056 25c0 06       		.byte	0x6
 10057 25c1 22       		.byte	0x22
 10058 25c2 74       		.byte	0x74
 10059 25c3 00       		.sleb128 0
 10060 25c4 06       		.byte	0x6
 10061 25c5 22       		.byte	0x22
 10062 25c6 23       		.byte	0x23
 10063 25c7 E6978A85 		.uleb128 0x50a28be6
 10063      05
 10064 25cc 48       		.byte	0x48
 10065 25cd 14       		.byte	0x14
 10066 25ce 14       		.byte	0x14
 10067 25cf 1F       		.byte	0x1f
 10068 25d0 23       		.byte	0x23
 10069 25d1 20       		.uleb128 0x20
 10070 25d2 24       		.byte	0x24
 10071 25d3 17       		.byte	0x17
 10072 25d4 25       		.byte	0x25
 10073 25d5 21       		.byte	0x21
 10074 25d6 74       		.byte	0x74
 10075 25d7 10       		.sleb128 16
ARM GAS  C:\Users\Ray\AppData\Local\Temp\ccn0usL8.s 			page 186


 10076 25d8 06       		.byte	0x6
 10077 25d9 22       		.byte	0x22
 10078 25da 27       		.byte	0x27
 10079 25db 91       		.byte	0x91
 10080 25dc 44       		.sleb128 -60
 10081 25dd 06       		.byte	0x6
 10082 25de 22       		.byte	0x22
 10083 25df 74       		.byte	0x74
 10084 25e0 10       		.sleb128 16
 10085 25e1 06       		.byte	0x6
 10086 25e2 22       		.byte	0x22
 10087 25e3 23       		.byte	0x23
 10088 25e4 E6978A85 		.uleb128 0x50a28be6
 10088      05
 10089 25e9 72       		.byte	0x72
 10090 25ea 00       		.sleb128 0
 10091 25eb 14       		.byte	0x14
 10092 25ec 14       		.byte	0x14
 10093 25ed 1F       		.byte	0x1f
 10094 25ee 23       		.byte	0x23
 10095 25ef 20       		.uleb128 0x20
 10096 25f0 24       		.byte	0x24
 10097 25f1 17       		.byte	0x17
 10098 25f2 25       		.byte	0x25
 10099 25f3 21       		.byte	0x21
 10100 25f4 74       		.byte	0x74
 10101 25f5 0C       		.sleb128 12
 10102 25f6 06       		.byte	0x6
 10103 25f7 22       		.byte	0x22
 10104 25f8 27       		.byte	0x27
 10105 25f9 74       		.byte	0x74
 10106 25fa 0C       		.sleb128 12
 10107 25fb 06       		.byte	0x6
 10108 25fc 22       		.byte	0x22
 10109 25fd 91       		.byte	0x91
 10110 25fe A87F     		.sleb128 -88
 10111 2600 06       		.byte	0x6
 10112 2601 22       		.byte	0x22
 10113 2602 23       		.byte	0x23
 10114 2603 E6978A85 		.uleb128 0x50a28be6
 10114      05
 10115 2608 9F       		.byte	0x9f
 10116 2609 5C090000 		.4byte	.LVL436
 10117 260d 5E090000 		.4byte	.LVL437
 10118 2611 8D00     		.2byte	0x8d
 10119 2613 74       		.byte	0x74
 10120 2614 0C       		.sleb128 12
 10121 2615 06       		.byte	0x6
 10122 2616 20       		.byte	0x20
 10123 2617 74       		.byte	0x74
 10124 2618 08       		.sleb128 8
 10125 2619 06       		.byte	0x6
 10126 261a 21       		.byte	0x21
 10127 261b 74       		.byte	0x74
 10128 261c 04       		.sleb128 4
 10129 261d 06       		.byte	0x6
 10130 261e 27       		.byte	0x27
ARM GAS  C:\Users\Ray\AppData\Local\Temp\ccn0usL8.s 			page 187


 10131 261f 91       		.byte	0x91
 10132 2620 A07F     		.sleb128 -96
 10133 2622 06       		.byte	0x6
 10134 2623 22       		.byte	0x22
 10135 2624 74       		.byte	0x74
 10136 2625 00       		.sleb128 0
 10137 2626 06       		.byte	0x6
 10138 2627 22       		.byte	0x22
 10139 2628 23       		.byte	0x23
 10140 2629 E6978A85 		.uleb128 0x50a28be6
 10140      05
 10141 262e 48       		.byte	0x48
 10142 262f 14       		.byte	0x14
 10143 2630 14       		.byte	0x14
 10144 2631 1F       		.byte	0x1f
 10145 2632 23       		.byte	0x23
 10146 2633 20       		.uleb128 0x20
 10147 2634 24       		.byte	0x24
 10148 2635 17       		.byte	0x17
 10149 2636 25       		.byte	0x25
 10150 2637 21       		.byte	0x21
 10151 2638 74       		.byte	0x74
 10152 2639 10       		.sleb128 16
 10153 263a 06       		.byte	0x6
 10154 263b 22       		.byte	0x22
 10155 263c 91       		.byte	0x91
 10156 263d 50       		.sleb128 -48
 10157 263e 06       		.byte	0x6
 10158 263f 20       		.byte	0x20
 10159 2640 21       		.byte	0x21
 10160 2641 91       		.byte	0x91
 10161 2642 4C       		.sleb128 -52
 10162 2643 06       		.byte	0x6
 10163 2644 20       		.byte	0x20
 10164 2645 74       		.byte	0x74
 10165 2646 04       		.sleb128 4
 10166 2647 06       		.byte	0x6
 10167 2648 21       		.byte	0x21
 10168 2649 74       		.byte	0x74
 10169 264a 0C       		.sleb128 12
 10170 264b 06       		.byte	0x6
 10171 264c 20       		.byte	0x20
 10172 264d 74       		.byte	0x74
 10173 264e 08       		.sleb128 8
 10174 264f 06       		.byte	0x6
 10175 2650 21       		.byte	0x21
 10176 2651 74       		.byte	0x74
 10177 2652 04       		.sleb128 4
 10178 2653 06       		.byte	0x6
 10179 2654 27       		.byte	0x27
 10180 2655 91       		.byte	0x91
 10181 2656 A07F     		.sleb128 -96
 10182 2658 06       		.byte	0x6
 10183 2659 22       		.byte	0x22
 10184 265a 74       		.byte	0x74
 10185 265b 00       		.sleb128 0
 10186 265c 06       		.byte	0x6
ARM GAS  C:\Users\Ray\AppData\Local\Temp\ccn0usL8.s 			page 188


 10187 265d 22       		.byte	0x22
 10188 265e 23       		.byte	0x23
 10189 265f E6978A85 		.uleb128 0x50a28be6
 10189      05
 10190 2664 48       		.byte	0x48
 10191 2665 14       		.byte	0x14
 10192 2666 14       		.byte	0x14
 10193 2667 1F       		.byte	0x1f
 10194 2668 23       		.byte	0x23
 10195 2669 20       		.uleb128 0x20
 10196 266a 24       		.byte	0x24
 10197 266b 17       		.byte	0x17
 10198 266c 25       		.byte	0x25
 10199 266d 21       		.byte	0x21
 10200 266e 74       		.byte	0x74
 10201 266f 10       		.sleb128 16
 10202 2670 06       		.byte	0x6
 10203 2671 22       		.byte	0x22
 10204 2672 27       		.byte	0x27
 10205 2673 91       		.byte	0x91
 10206 2674 44       		.sleb128 -60
 10207 2675 06       		.byte	0x6
 10208 2676 22       		.byte	0x22
 10209 2677 74       		.byte	0x74
 10210 2678 10       		.sleb128 16
 10211 2679 06       		.byte	0x6
 10212 267a 22       		.byte	0x22
 10213 267b 23       		.byte	0x23
 10214 267c E6978A85 		.uleb128 0x50a28be6
 10214      05
 10215 2681 47       		.byte	0x47
 10216 2682 14       		.byte	0x14
 10217 2683 14       		.byte	0x14
 10218 2684 1F       		.byte	0x1f
 10219 2685 23       		.byte	0x23
 10220 2686 20       		.uleb128 0x20
 10221 2687 24       		.byte	0x24
 10222 2688 17       		.byte	0x17
 10223 2689 25       		.byte	0x25
 10224 268a 21       		.byte	0x21
 10225 268b 74       		.byte	0x74
 10226 268c 0C       		.sleb128 12
 10227 268d 06       		.byte	0x6
 10228 268e 22       		.byte	0x22
 10229 268f 27       		.byte	0x27
 10230 2690 74       		.byte	0x74
 10231 2691 0C       		.sleb128 12
 10232 2692 06       		.byte	0x6
 10233 2693 22       		.byte	0x22
 10234 2694 91       		.byte	0x91
 10235 2695 A87F     		.sleb128 -88
 10236 2697 06       		.byte	0x6
 10237 2698 22       		.byte	0x22
 10238 2699 23       		.byte	0x23
 10239 269a E6978A85 		.uleb128 0x50a28be6
 10239      05
 10240 269f 9F       		.byte	0x9f
ARM GAS  C:\Users\Ray\AppData\Local\Temp\ccn0usL8.s 			page 189


 10241 26a0 5E090000 		.4byte	.LVL437
 10242 26a4 60090000 		.4byte	.LVL438
 10243 26a8 8400     		.2byte	0x84
 10244 26aa 74       		.byte	0x74
 10245 26ab 0C       		.sleb128 12
 10246 26ac 06       		.byte	0x6
 10247 26ad 20       		.byte	0x20
 10248 26ae 74       		.byte	0x74
 10249 26af 08       		.sleb128 8
 10250 26b0 06       		.byte	0x6
 10251 26b1 21       		.byte	0x21
 10252 26b2 74       		.byte	0x74
 10253 26b3 04       		.sleb128 4
 10254 26b4 06       		.byte	0x6
 10255 26b5 27       		.byte	0x27
 10256 26b6 91       		.byte	0x91
 10257 26b7 A07F     		.sleb128 -96
 10258 26b9 06       		.byte	0x6
 10259 26ba 22       		.byte	0x22
 10260 26bb 71       		.byte	0x71
 10261 26bc 00       		.sleb128 0
 10262 26bd 22       		.byte	0x22
 10263 26be 74       		.byte	0x74
 10264 26bf 00       		.sleb128 0
 10265 26c0 06       		.byte	0x6
 10266 26c1 22       		.byte	0x22
 10267 26c2 48       		.byte	0x48
 10268 26c3 14       		.byte	0x14
 10269 26c4 14       		.byte	0x14
 10270 26c5 1F       		.byte	0x1f
 10271 26c6 23       		.byte	0x23
 10272 26c7 20       		.uleb128 0x20
 10273 26c8 24       		.byte	0x24
 10274 26c9 17       		.byte	0x17
 10275 26ca 25       		.byte	0x25
 10276 26cb 21       		.byte	0x21
 10277 26cc 74       		.byte	0x74
 10278 26cd 10       		.sleb128 16
 10279 26ce 06       		.byte	0x6
 10280 26cf 22       		.byte	0x22
 10281 26d0 91       		.byte	0x91
 10282 26d1 50       		.sleb128 -48
 10283 26d2 06       		.byte	0x6
 10284 26d3 20       		.byte	0x20
 10285 26d4 21       		.byte	0x21
 10286 26d5 91       		.byte	0x91
 10287 26d6 4C       		.sleb128 -52
 10288 26d7 06       		.byte	0x6
 10289 26d8 20       		.byte	0x20
 10290 26d9 74       		.byte	0x74
 10291 26da 04       		.sleb128 4
 10292 26db 06       		.byte	0x6
 10293 26dc 21       		.byte	0x21
 10294 26dd 74       		.byte	0x74
 10295 26de 0C       		.sleb128 12
 10296 26df 06       		.byte	0x6
 10297 26e0 20       		.byte	0x20
ARM GAS  C:\Users\Ray\AppData\Local\Temp\ccn0usL8.s 			page 190


 10298 26e1 74       		.byte	0x74
 10299 26e2 08       		.sleb128 8
 10300 26e3 06       		.byte	0x6
 10301 26e4 21       		.byte	0x21
 10302 26e5 74       		.byte	0x74
 10303 26e6 04       		.sleb128 4
 10304 26e7 06       		.byte	0x6
 10305 26e8 27       		.byte	0x27
 10306 26e9 91       		.byte	0x91
 10307 26ea A07F     		.sleb128 -96
 10308 26ec 06       		.byte	0x6
 10309 26ed 22       		.byte	0x22
 10310 26ee 71       		.byte	0x71
 10311 26ef 00       		.sleb128 0
 10312 26f0 22       		.byte	0x22
 10313 26f1 74       		.byte	0x74
 10314 26f2 00       		.sleb128 0
 10315 26f3 06       		.byte	0x6
 10316 26f4 22       		.byte	0x22
 10317 26f5 48       		.byte	0x48
 10318 26f6 14       		.byte	0x14
 10319 26f7 14       		.byte	0x14
 10320 26f8 1F       		.byte	0x1f
 10321 26f9 23       		.byte	0x23
 10322 26fa 20       		.uleb128 0x20
 10323 26fb 24       		.byte	0x24
 10324 26fc 17       		.byte	0x17
 10325 26fd 25       		.byte	0x25
 10326 26fe 21       		.byte	0x21
 10327 26ff 74       		.byte	0x74
 10328 2700 10       		.sleb128 16
 10329 2701 06       		.byte	0x6
 10330 2702 22       		.byte	0x22
 10331 2703 27       		.byte	0x27
 10332 2704 91       		.byte	0x91
 10333 2705 44       		.sleb128 -60
 10334 2706 06       		.byte	0x6
 10335 2707 22       		.byte	0x22
 10336 2708 71       		.byte	0x71
 10337 2709 00       		.sleb128 0
 10338 270a 22       		.byte	0x22
 10339 270b 74       		.byte	0x74
 10340 270c 10       		.sleb128 16
 10341 270d 06       		.byte	0x6
 10342 270e 22       		.byte	0x22
 10343 270f 47       		.byte	0x47
 10344 2710 14       		.byte	0x14
 10345 2711 14       		.byte	0x14
 10346 2712 1F       		.byte	0x1f
 10347 2713 23       		.byte	0x23
 10348 2714 20       		.uleb128 0x20
 10349 2715 24       		.byte	0x24
 10350 2716 17       		.byte	0x17
 10351 2717 25       		.byte	0x25
 10352 2718 21       		.byte	0x21
 10353 2719 74       		.byte	0x74
 10354 271a 0C       		.sleb128 12
ARM GAS  C:\Users\Ray\AppData\Local\Temp\ccn0usL8.s 			page 191


 10355 271b 06       		.byte	0x6
 10356 271c 22       		.byte	0x22
 10357 271d 27       		.byte	0x27
 10358 271e 74       		.byte	0x74
 10359 271f 0C       		.sleb128 12
 10360 2720 06       		.byte	0x6
 10361 2721 22       		.byte	0x22
 10362 2722 91       		.byte	0x91
 10363 2723 A87F     		.sleb128 -88
 10364 2725 06       		.byte	0x6
 10365 2726 22       		.byte	0x22
 10366 2727 23       		.byte	0x23
 10367 2728 E6978A85 		.uleb128 0x50a28be6
 10367      05
 10368 272d 9F       		.byte	0x9f
 10369 272e 60090000 		.4byte	.LVL438
 10370 2732 88090000 		.4byte	.LVL445
 10371 2736 0100     		.2byte	0x1
 10372 2738 57       		.byte	0x57
 10373 2739 96090000 		.4byte	.LVL446
 10374 273d D0090000 		.4byte	.LVL458
 10375 2741 0100     		.2byte	0x1
 10376 2743 57       		.byte	0x57
 10377 2744 D0090000 		.4byte	.LVL458
 10378 2748 EC090000 		.4byte	.LVL459
 10379 274c 0D00     		.2byte	0xd
 10380 274e 71       		.byte	0x71
 10381 274f 00       		.sleb128 0
 10382 2750 20       		.byte	0x20
 10383 2751 7C       		.byte	0x7c
 10384 2752 00       		.sleb128 0
 10385 2753 21       		.byte	0x21
 10386 2754 75       		.byte	0x75
 10387 2755 00       		.sleb128 0
 10388 2756 27       		.byte	0x27
 10389 2757 77       		.byte	0x77
 10390 2758 00       		.sleb128 0
 10391 2759 22       		.byte	0x22
 10392 275a 9F       		.byte	0x9f
 10393 275b EC090000 		.4byte	.LVL459
 10394 275f EE090000 		.4byte	.LVL460
 10395 2763 0100     		.2byte	0x1
 10396 2765 57       		.byte	0x57
 10397 2766 FA090000 		.4byte	.LVL462
 10398 276a 200A0000 		.4byte	.LVL469
 10399 276e 0100     		.2byte	0x1
 10400 2770 57       		.byte	0x57
 10401 2771 2C0A0000 		.4byte	.LVL472
 10402 2775 660A0000 		.4byte	.LVL484
 10403 2779 0100     		.2byte	0x1
 10404 277b 57       		.byte	0x57
 10405 277c 660A0000 		.4byte	.LVL484
 10406 2780 700A0000 		.4byte	.LVL485
 10407 2784 0D00     		.2byte	0xd
 10408 2786 71       		.byte	0x71
 10409 2787 00       		.sleb128 0
 10410 2788 20       		.byte	0x20
ARM GAS  C:\Users\Ray\AppData\Local\Temp\ccn0usL8.s 			page 192


 10411 2789 7C       		.byte	0x7c
 10412 278a 00       		.sleb128 0
 10413 278b 21       		.byte	0x21
 10414 278c 75       		.byte	0x75
 10415 278d 00       		.sleb128 0
 10416 278e 27       		.byte	0x27
 10417 278f 77       		.byte	0x77
 10418 2790 00       		.sleb128 0
 10419 2791 22       		.byte	0x22
 10420 2792 9F       		.byte	0x9f
 10421 2793 700A0000 		.4byte	.LVL485
 10422 2797 740A0000 		.4byte	.LVL486
 10423 279b 0100     		.2byte	0x1
 10424 279d 57       		.byte	0x57
 10425 279e 800A0000 		.4byte	.LVL487
 10426 27a2 140B0000 		.4byte	.LVL508
 10427 27a6 0100     		.2byte	0x1
 10428 27a8 57       		.byte	0x57
 10429 27a9 140B0000 		.4byte	.LVL508
 10430 27ad 1A0B0000 		.4byte	.LVL509
 10431 27b1 0F00     		.2byte	0xf
 10432 27b3 72       		.byte	0x72
 10433 27b4 00       		.sleb128 0
 10434 27b5 75       		.byte	0x75
 10435 27b6 00       		.sleb128 0
 10436 27b7 27       		.byte	0x27
 10437 27b8 71       		.byte	0x71
 10438 27b9 00       		.sleb128 0
 10439 27ba 1A       		.byte	0x1a
 10440 27bb 72       		.byte	0x72
 10441 27bc 00       		.sleb128 0
 10442 27bd 27       		.byte	0x27
 10443 27be 77       		.byte	0x77
 10444 27bf 00       		.sleb128 0
 10445 27c0 22       		.byte	0x22
 10446 27c1 9F       		.byte	0x9f
 10447 27c2 1A0B0000 		.4byte	.LVL509
 10448 27c6 1C0B0000 		.4byte	.LVL510
 10449 27ca 0100     		.2byte	0x1
 10450 27cc 57       		.byte	0x57
 10451 27cd 2E0B0000 		.4byte	.LVL512
 10452 27d1 620B0000 		.4byte	.LVL521
 10453 27d5 0100     		.2byte	0x1
 10454 27d7 57       		.byte	0x57
 10455 27d8 700B0000 		.4byte	.LVL522
 10456 27dc BC0B0000 		.4byte	.LVL533
 10457 27e0 0100     		.2byte	0x1
 10458 27e2 57       		.byte	0x57
 10459 27e3 BC0B0000 		.4byte	.LVL533
 10460 27e7 C20B0000 		.4byte	.LVL534
 10461 27eb 0F00     		.2byte	0xf
 10462 27ed 72       		.byte	0x72
 10463 27ee 00       		.sleb128 0
 10464 27ef 75       		.byte	0x75
 10465 27f0 00       		.sleb128 0
 10466 27f1 27       		.byte	0x27
 10467 27f2 71       		.byte	0x71
ARM GAS  C:\Users\Ray\AppData\Local\Temp\ccn0usL8.s 			page 193


 10468 27f3 00       		.sleb128 0
 10469 27f4 1A       		.byte	0x1a
 10470 27f5 72       		.byte	0x72
 10471 27f6 00       		.sleb128 0
 10472 27f7 27       		.byte	0x27
 10473 27f8 77       		.byte	0x77
 10474 27f9 00       		.sleb128 0
 10475 27fa 22       		.byte	0x22
 10476 27fb 9F       		.byte	0x9f
 10477 27fc C20B0000 		.4byte	.LVL534
 10478 2800 C40B0000 		.4byte	.LVL535
 10479 2804 0100     		.2byte	0x1
 10480 2806 57       		.byte	0x57
 10481 2807 D60B0000 		.4byte	.LVL537
 10482 280b 080C0000 		.4byte	.LVL547
 10483 280f 0100     		.2byte	0x1
 10484 2811 57       		.byte	0x57
 10485 2812 0C0C0000 		.4byte	.LVL548
 10486 2816 5C0C0000 		.4byte	.LVL558
 10487 281a 0100     		.2byte	0x1
 10488 281c 57       		.byte	0x57
 10489 281d 5C0C0000 		.4byte	.LVL558
 10490 2821 620C0000 		.4byte	.LVL559
 10491 2825 0F00     		.2byte	0xf
 10492 2827 76       		.byte	0x76
 10493 2828 00       		.sleb128 0
 10494 2829 75       		.byte	0x75
 10495 282a 00       		.sleb128 0
 10496 282b 27       		.byte	0x27
 10497 282c 71       		.byte	0x71
 10498 282d 00       		.sleb128 0
 10499 282e 1A       		.byte	0x1a
 10500 282f 76       		.byte	0x76
 10501 2830 00       		.sleb128 0
 10502 2831 27       		.byte	0x27
 10503 2832 77       		.byte	0x77
 10504 2833 00       		.sleb128 0
 10505 2834 22       		.byte	0x22
 10506 2835 9F       		.byte	0x9f
 10507 2836 620C0000 		.4byte	.LVL559
 10508 283a 640C0000 		.4byte	.LVL560
 10509 283e 0100     		.2byte	0x1
 10510 2840 57       		.byte	0x57
 10511 2841 760C0000 		.4byte	.LVL562
 10512 2845 AC0C0000 		.4byte	.LVL571
 10513 2849 0100     		.2byte	0x1
 10514 284b 57       		.byte	0x57
 10515 284c BA0C0000 		.4byte	.LVL572
 10516 2850 060D0000 		.4byte	.LVL583
 10517 2854 0100     		.2byte	0x1
 10518 2856 57       		.byte	0x57
 10519 2857 060D0000 		.4byte	.LVL583
 10520 285b 0C0D0000 		.4byte	.LVL584
 10521 285f 0D00     		.2byte	0xd
 10522 2861 76       		.byte	0x76
 10523 2862 00       		.sleb128 0
 10524 2863 20       		.byte	0x20
ARM GAS  C:\Users\Ray\AppData\Local\Temp\ccn0usL8.s 			page 194


 10525 2864 75       		.byte	0x75
 10526 2865 00       		.sleb128 0
 10527 2866 21       		.byte	0x21
 10528 2867 71       		.byte	0x71
 10529 2868 00       		.sleb128 0
 10530 2869 27       		.byte	0x27
 10531 286a 77       		.byte	0x77
 10532 286b 00       		.sleb128 0
 10533 286c 22       		.byte	0x22
 10534 286d 9F       		.byte	0x9f
 10535 286e 0C0D0000 		.4byte	.LVL584
 10536 2872 0E0D0000 		.4byte	.LVL585
 10537 2876 0100     		.2byte	0x1
 10538 2878 57       		.byte	0x57
 10539 2879 1A0D0000 		.4byte	.LVL587
 10540 287d 480D0000 		.4byte	.LVL597
 10541 2881 0100     		.2byte	0x1
 10542 2883 57       		.byte	0x57
 10543 2884 4C0D0000 		.4byte	.LVL598
 10544 2888 9C0D0000 		.4byte	.LVL609
 10545 288c 0100     		.2byte	0x1
 10546 288e 57       		.byte	0x57
 10547 288f 9C0D0000 		.4byte	.LVL609
 10548 2893 A20D0000 		.4byte	.LVL610
 10549 2897 0D00     		.2byte	0xd
 10550 2899 71       		.byte	0x71
 10551 289a 00       		.sleb128 0
 10552 289b 20       		.byte	0x20
 10553 289c 75       		.byte	0x75
 10554 289d 00       		.sleb128 0
 10555 289e 21       		.byte	0x21
 10556 289f 76       		.byte	0x76
 10557 28a0 00       		.sleb128 0
 10558 28a1 27       		.byte	0x27
 10559 28a2 77       		.byte	0x77
 10560 28a3 00       		.sleb128 0
 10561 28a4 22       		.byte	0x22
 10562 28a5 9F       		.byte	0x9f
 10563 28a6 A20D0000 		.4byte	.LVL610
 10564 28aa A40D0000 		.4byte	.LVL611
 10565 28ae 0100     		.2byte	0x1
 10566 28b0 57       		.byte	0x57
 10567 28b1 B80D0000 		.4byte	.LVL613
 10568 28b5 EC0D0000 		.4byte	.LVL622
 10569 28b9 0100     		.2byte	0x1
 10570 28bb 57       		.byte	0x57
 10571 28bc 0A0E0000 		.4byte	.LVL623
 10572 28c0 4C0E0000 		.4byte	.LVL634
 10573 28c4 0100     		.2byte	0x1
 10574 28c6 57       		.byte	0x57
 10575 28c7 4C0E0000 		.4byte	.LVL634
 10576 28cb 560E0000 		.4byte	.LVL635
 10577 28cf 0D00     		.2byte	0xd
 10578 28d1 71       		.byte	0x71
 10579 28d2 00       		.sleb128 0
 10580 28d3 20       		.byte	0x20
 10581 28d4 75       		.byte	0x75
ARM GAS  C:\Users\Ray\AppData\Local\Temp\ccn0usL8.s 			page 195


 10582 28d5 00       		.sleb128 0
 10583 28d6 21       		.byte	0x21
 10584 28d7 76       		.byte	0x76
 10585 28d8 00       		.sleb128 0
 10586 28d9 27       		.byte	0x27
 10587 28da 7C       		.byte	0x7c
 10588 28db 00       		.sleb128 0
 10589 28dc 22       		.byte	0x22
 10590 28dd 9F       		.byte	0x9f
 10591 28de 560E0000 		.4byte	.LVL635
 10592 28e2 580E0000 		.4byte	.LVL636
 10593 28e6 0100     		.2byte	0x1
 10594 28e8 57       		.byte	0x57
 10595 28e9 580E0000 		.4byte	.LVL636
 10596 28ed 5C0E0000 		.4byte	.LVL637
 10597 28f1 0D00     		.2byte	0xd
 10598 28f3 71       		.byte	0x71
 10599 28f4 00       		.sleb128 0
 10600 28f5 20       		.byte	0x20
 10601 28f6 75       		.byte	0x75
 10602 28f7 00       		.sleb128 0
 10603 28f8 21       		.byte	0x21
 10604 28f9 76       		.byte	0x76
 10605 28fa 00       		.sleb128 0
 10606 28fb 27       		.byte	0x27
 10607 28fc 7C       		.byte	0x7c
 10608 28fd 00       		.sleb128 0
 10609 28fe 22       		.byte	0x22
 10610 28ff 9F       		.byte	0x9f
 10611 2900 6C0E0000 		.4byte	.LVL638
 10612 2904 A00E0000 		.4byte	.LVL647
 10613 2908 0100     		.2byte	0x1
 10614 290a 57       		.byte	0x57
 10615 290b B00E0000 		.4byte	.LVL648
 10616 290f F00E0000 		.4byte	.LVL660
 10617 2913 0100     		.2byte	0x1
 10618 2915 57       		.byte	0x57
 10619 2916 F00E0000 		.4byte	.LVL660
 10620 291a FC0E0000 		.4byte	.LVL661
 10621 291e 0D00     		.2byte	0xd
 10622 2920 71       		.byte	0x71
 10623 2921 00       		.sleb128 0
 10624 2922 20       		.byte	0x20
 10625 2923 75       		.byte	0x75
 10626 2924 00       		.sleb128 0
 10627 2925 21       		.byte	0x21
 10628 2926 7C       		.byte	0x7c
 10629 2927 00       		.sleb128 0
 10630 2928 27       		.byte	0x27
 10631 2929 77       		.byte	0x77
 10632 292a 00       		.sleb128 0
 10633 292b 22       		.byte	0x22
 10634 292c 9F       		.byte	0x9f
 10635 292d FC0E0000 		.4byte	.LVL661
 10636 2931 FE0E0000 		.4byte	.LVL662
 10637 2935 0100     		.2byte	0x1
 10638 2937 57       		.byte	0x57
ARM GAS  C:\Users\Ray\AppData\Local\Temp\ccn0usL8.s 			page 196


 10639 2938 080F0000 		.4byte	.LVL664
 10640 293c 3A0F0000 		.4byte	.LVL673
 10641 2940 0100     		.2byte	0x1
 10642 2942 57       		.byte	0x57
 10643 2943 480F0000 		.4byte	.LVL674
 10644 2947 940F0000 		.4byte	.LVL685
 10645 294b 0100     		.2byte	0x1
 10646 294d 57       		.byte	0x57
 10647 294e 940F0000 		.4byte	.LVL685
 10648 2952 9A0F0000 		.4byte	.LVL686
 10649 2956 0F00     		.2byte	0xf
 10650 2958 71       		.byte	0x71
 10651 2959 00       		.sleb128 0
 10652 295a 72       		.byte	0x72
 10653 295b 00       		.sleb128 0
 10654 295c 27       		.byte	0x27
 10655 295d 75       		.byte	0x75
 10656 295e 00       		.sleb128 0
 10657 295f 1A       		.byte	0x1a
 10658 2960 72       		.byte	0x72
 10659 2961 00       		.sleb128 0
 10660 2962 27       		.byte	0x27
 10661 2963 77       		.byte	0x77
 10662 2964 00       		.sleb128 0
 10663 2965 22       		.byte	0x22
 10664 2966 9F       		.byte	0x9f
 10665 2967 9A0F0000 		.4byte	.LVL686
 10666 296b 9C0F0000 		.4byte	.LVL687
 10667 296f 0100     		.2byte	0x1
 10668 2971 57       		.byte	0x57
 10669 2972 AE0F0000 		.4byte	.LVL689
 10670 2976 E40F0000 		.4byte	.LVL698
 10671 297a 0100     		.2byte	0x1
 10672 297c 57       		.byte	0x57
 10673 297d F20F0000 		.4byte	.LVL699
 10674 2981 3E100000 		.4byte	.LVL710
 10675 2985 0100     		.2byte	0x1
 10676 2987 57       		.byte	0x57
 10677 2988 3E100000 		.4byte	.LVL710
 10678 298c 44100000 		.4byte	.LVL711
 10679 2990 0F00     		.2byte	0xf
 10680 2992 71       		.byte	0x71
 10681 2993 00       		.sleb128 0
 10682 2994 72       		.byte	0x72
 10683 2995 00       		.sleb128 0
 10684 2996 27       		.byte	0x27
 10685 2997 75       		.byte	0x75
 10686 2998 00       		.sleb128 0
 10687 2999 1A       		.byte	0x1a
 10688 299a 72       		.byte	0x72
 10689 299b 00       		.sleb128 0
 10690 299c 27       		.byte	0x27
 10691 299d 77       		.byte	0x77
 10692 299e 00       		.sleb128 0
 10693 299f 22       		.byte	0x22
 10694 29a0 9F       		.byte	0x9f
 10695 29a1 44100000 		.4byte	.LVL711
ARM GAS  C:\Users\Ray\AppData\Local\Temp\ccn0usL8.s 			page 197


 10696 29a5 46100000 		.4byte	.LVL712
 10697 29a9 0100     		.2byte	0x1
 10698 29ab 57       		.byte	0x57
 10699 29ac 58100000 		.4byte	.LVL714
 10700 29b0 8E100000 		.4byte	.LVL723
 10701 29b4 0100     		.2byte	0x1
 10702 29b6 57       		.byte	0x57
 10703 29b7 9C100000 		.4byte	.LVL724
 10704 29bb E8100000 		.4byte	.LVL735
 10705 29bf 0100     		.2byte	0x1
 10706 29c1 57       		.byte	0x57
 10707 29c2 E8100000 		.4byte	.LVL735
 10708 29c6 EE100000 		.4byte	.LVL736
 10709 29ca 0F00     		.2byte	0xf
 10710 29cc 71       		.byte	0x71
 10711 29cd 00       		.sleb128 0
 10712 29ce 72       		.byte	0x72
 10713 29cf 00       		.sleb128 0
 10714 29d0 27       		.byte	0x27
 10715 29d1 75       		.byte	0x75
 10716 29d2 00       		.sleb128 0
 10717 29d3 1A       		.byte	0x1a
 10718 29d4 72       		.byte	0x72
 10719 29d5 00       		.sleb128 0
 10720 29d6 27       		.byte	0x27
 10721 29d7 77       		.byte	0x77
 10722 29d8 00       		.sleb128 0
 10723 29d9 22       		.byte	0x22
 10724 29da 9F       		.byte	0x9f
 10725 29db EE100000 		.4byte	.LVL736
 10726 29df F0100000 		.4byte	.LVL737
 10727 29e3 0100     		.2byte	0x1
 10728 29e5 57       		.byte	0x57
 10729 29e6 02110000 		.4byte	.LVL739
 10730 29ea 2E110000 		.4byte	.LVL748
 10731 29ee 0100     		.2byte	0x1
 10732 29f0 57       		.byte	0x57
 10733 29f1 32110000 		.4byte	.LVL749
 10734 29f5 6C110000 		.4byte	.LVL760
 10735 29f9 0100     		.2byte	0x1
 10736 29fb 57       		.byte	0x57
 10737 29fc 6C110000 		.4byte	.LVL760
 10738 2a00 70110000 		.4byte	.LVL761
 10739 2a04 0C00     		.2byte	0xc
 10740 2a06 71       		.byte	0x71
 10741 2a07 00       		.sleb128 0
 10742 2a08 72       		.byte	0x72
 10743 2a09 00       		.sleb128 0
 10744 2a0a 27       		.byte	0x27
 10745 2a0b 75       		.byte	0x75
 10746 2a0c 00       		.sleb128 0
 10747 2a0d 27       		.byte	0x27
 10748 2a0e 77       		.byte	0x77
 10749 2a0f 00       		.sleb128 0
 10750 2a10 22       		.byte	0x22
 10751 2a11 9F       		.byte	0x9f
 10752 2a12 70110000 		.4byte	.LVL761
ARM GAS  C:\Users\Ray\AppData\Local\Temp\ccn0usL8.s 			page 198


 10753 2a16 72110000 		.4byte	.LVL762
 10754 2a1a 0100     		.2byte	0x1
 10755 2a1c 57       		.byte	0x57
 10756 2a1d 7A110000 		.4byte	.LVL764
 10757 2a21 A6110000 		.4byte	.LVL773
 10758 2a25 0100     		.2byte	0x1
 10759 2a27 57       		.byte	0x57
 10760 2a28 AA110000 		.4byte	.LVL774
 10761 2a2c E4110000 		.4byte	.LVL785
 10762 2a30 0100     		.2byte	0x1
 10763 2a32 57       		.byte	0x57
 10764 2a33 E4110000 		.4byte	.LVL785
 10765 2a37 E8110000 		.4byte	.LVL786
 10766 2a3b 0C00     		.2byte	0xc
 10767 2a3d 71       		.byte	0x71
 10768 2a3e 00       		.sleb128 0
 10769 2a3f 72       		.byte	0x72
 10770 2a40 00       		.sleb128 0
 10771 2a41 27       		.byte	0x27
 10772 2a42 75       		.byte	0x75
 10773 2a43 00       		.sleb128 0
 10774 2a44 27       		.byte	0x27
 10775 2a45 77       		.byte	0x77
 10776 2a46 00       		.sleb128 0
 10777 2a47 22       		.byte	0x22
 10778 2a48 9F       		.byte	0x9f
 10779 2a49 E8110000 		.4byte	.LVL786
 10780 2a4d EA110000 		.4byte	.LVL787
 10781 2a51 0100     		.2byte	0x1
 10782 2a53 57       		.byte	0x57
 10783 2a54 F2110000 		.4byte	.LVL789
 10784 2a58 2A120000 		.4byte	.LVL798
 10785 2a5c 0100     		.2byte	0x1
 10786 2a5e 57       		.byte	0x57
 10787 2a5f 2E120000 		.4byte	.LVL799
 10788 2a63 68120000 		.4byte	.LVL810
 10789 2a67 0100     		.2byte	0x1
 10790 2a69 57       		.byte	0x57
 10791 2a6a 68120000 		.4byte	.LVL810
 10792 2a6e 6C120000 		.4byte	.LVL811
 10793 2a72 0C00     		.2byte	0xc
 10794 2a74 71       		.byte	0x71
 10795 2a75 00       		.sleb128 0
 10796 2a76 72       		.byte	0x72
 10797 2a77 00       		.sleb128 0
 10798 2a78 27       		.byte	0x27
 10799 2a79 75       		.byte	0x75
 10800 2a7a 00       		.sleb128 0
 10801 2a7b 27       		.byte	0x27
 10802 2a7c 77       		.byte	0x77
 10803 2a7d 00       		.sleb128 0
 10804 2a7e 22       		.byte	0x22
 10805 2a7f 9F       		.byte	0x9f
 10806 2a80 6C120000 		.4byte	.LVL811
 10807 2a84 6E120000 		.4byte	.LVL812
 10808 2a88 0100     		.2byte	0x1
 10809 2a8a 57       		.byte	0x57
ARM GAS  C:\Users\Ray\AppData\Local\Temp\ccn0usL8.s 			page 199


 10810 2a8b 76120000 		.4byte	.LVL814
 10811 2a8f 92120000 		.4byte	.LVL820
 10812 2a93 0100     		.2byte	0x1
 10813 2a95 57       		.byte	0x57
 10814 2a96 92120000 		.4byte	.LVL820
 10815 2a9a 96120000 		.4byte	.LVL821
 10816 2a9e 0D00     		.2byte	0xd
 10817 2aa0 77       		.byte	0x77
 10818 2aa1 00       		.sleb128 0
 10819 2aa2 46       		.byte	0x46
 10820 2aa3 14       		.byte	0x14
 10821 2aa4 14       		.byte	0x14
 10822 2aa5 1F       		.byte	0x1f
 10823 2aa6 23       		.byte	0x23
 10824 2aa7 20       		.uleb128 0x20
 10825 2aa8 24       		.byte	0x24
 10826 2aa9 17       		.byte	0x17
 10827 2aaa 25       		.byte	0x25
 10828 2aab 21       		.byte	0x21
 10829 2aac 9F       		.byte	0x9f
 10830 2aad 96120000 		.4byte	.LVL821
 10831 2ab1 9E120000 		.4byte	.LVL822
 10832 2ab5 0100     		.2byte	0x1
 10833 2ab7 50       		.byte	0x50
 10834 2ab8 9E120000 		.4byte	.LVL822
 10835 2abc A0120000 		.4byte	.LVL823
 10836 2ac0 0700     		.2byte	0x7
 10837 2ac2 91       		.byte	0x91
 10838 2ac3 5C       		.sleb128 -36
 10839 2ac4 06       		.byte	0x6
 10840 2ac5 73       		.byte	0x73
 10841 2ac6 00       		.sleb128 0
 10842 2ac7 22       		.byte	0x22
 10843 2ac8 9F       		.byte	0x9f
 10844 2ac9 A0120000 		.4byte	.LVL823
 10845 2acd F6120000 		.4byte	.LVL833
 10846 2ad1 0900     		.2byte	0x9
 10847 2ad3 91       		.byte	0x91
 10848 2ad4 5C       		.sleb128 -36
 10849 2ad5 06       		.byte	0x6
 10850 2ad6 91       		.byte	0x91
 10851 2ad7 8C7F     		.sleb128 -116
 10852 2ad9 06       		.byte	0x6
 10853 2ada 22       		.byte	0x22
 10854 2adb 9F       		.byte	0x9f
 10855 2adc F6120000 		.4byte	.LVL833
 10856 2ae0 FC120000 		.4byte	.LFE0
 10857 2ae4 0100     		.2byte	0x1
 10858 2ae6 53       		.byte	0x53
 10859 2ae7 00000000 		.4byte	0
 10860 2aeb 00000000 		.4byte	0
 10861              	.LLST11:
 10862 2aef 00000000 		.4byte	.LVL0
 10863 2af3 26000000 		.4byte	.LVL5
 10864 2af7 0200     		.2byte	0x2
 10865 2af9 70       		.byte	0x70
 10866 2afa 10       		.sleb128 16
ARM GAS  C:\Users\Ray\AppData\Local\Temp\ccn0usL8.s 			page 200


 10867 2afb 26000000 		.4byte	.LVL5
 10868 2aff 1C090000 		.4byte	.LVL425
 10869 2b03 0200     		.2byte	0x2
 10870 2b05 74       		.byte	0x74
 10871 2b06 10       		.sleb128 16
 10872 2b07 1C090000 		.4byte	.LVL425
 10873 2b0b 26090000 		.4byte	.LVL427
 10874 2b0f 1A00     		.2byte	0x1a
 10875 2b11 91       		.byte	0x91
 10876 2b12 4C       		.sleb128 -52
 10877 2b13 06       		.byte	0x6
 10878 2b14 20       		.byte	0x20
 10879 2b15 74       		.byte	0x74
 10880 2b16 04       		.sleb128 4
 10881 2b17 06       		.byte	0x6
 10882 2b18 21       		.byte	0x21
 10883 2b19 73       		.byte	0x73
 10884 2b1a 00       		.sleb128 0
 10885 2b1b 27       		.byte	0x27
 10886 2b1c 74       		.byte	0x74
 10887 2b1d 10       		.sleb128 16
 10888 2b1e 06       		.byte	0x6
 10889 2b1f 22       		.byte	0x22
 10890 2b20 91       		.byte	0x91
 10891 2b21 44       		.sleb128 -60
 10892 2b22 06       		.byte	0x6
 10893 2b23 22       		.byte	0x22
 10894 2b24 23       		.byte	0x23
 10895 2b25 E6978A85 		.uleb128 0x50a28be6
 10895      05
 10896 2b2a 9F       		.byte	0x9f
 10897 2b2b 26090000 		.4byte	.LVL427
 10898 2b2f 2A090000 		.4byte	.LVL428
 10899 2b33 1400     		.2byte	0x14
 10900 2b35 75       		.byte	0x75
 10901 2b36 00       		.sleb128 0
 10902 2b37 73       		.byte	0x73
 10903 2b38 00       		.sleb128 0
 10904 2b39 27       		.byte	0x27
 10905 2b3a 74       		.byte	0x74
 10906 2b3b 10       		.sleb128 16
 10907 2b3c 06       		.byte	0x6
 10908 2b3d 22       		.byte	0x22
 10909 2b3e 91       		.byte	0x91
 10910 2b3f 44       		.sleb128 -60
 10911 2b40 06       		.byte	0x6
 10912 2b41 22       		.byte	0x22
 10913 2b42 23       		.byte	0x23
 10914 2b43 E6978A85 		.uleb128 0x50a28be6
 10914      05
 10915 2b48 9F       		.byte	0x9f
 10916 2b49 2A090000 		.4byte	.LVL428
 10917 2b4d 3C090000 		.4byte	.LVL429
 10918 2b51 1A00     		.2byte	0x1a
 10919 2b53 91       		.byte	0x91
 10920 2b54 4C       		.sleb128 -52
 10921 2b55 06       		.byte	0x6
ARM GAS  C:\Users\Ray\AppData\Local\Temp\ccn0usL8.s 			page 201


 10922 2b56 20       		.byte	0x20
 10923 2b57 74       		.byte	0x74
 10924 2b58 04       		.sleb128 4
 10925 2b59 06       		.byte	0x6
 10926 2b5a 21       		.byte	0x21
 10927 2b5b 73       		.byte	0x73
 10928 2b5c 00       		.sleb128 0
 10929 2b5d 27       		.byte	0x27
 10930 2b5e 74       		.byte	0x74
 10931 2b5f 10       		.sleb128 16
 10932 2b60 06       		.byte	0x6
 10933 2b61 22       		.byte	0x22
 10934 2b62 91       		.byte	0x91
 10935 2b63 44       		.sleb128 -60
 10936 2b64 06       		.byte	0x6
 10937 2b65 22       		.byte	0x22
 10938 2b66 23       		.byte	0x23
 10939 2b67 E6978A85 		.uleb128 0x50a28be6
 10939      05
 10940 2b6c 9F       		.byte	0x9f
 10941 2b6d 3C090000 		.4byte	.LVL429
 10942 2b71 5A090000 		.4byte	.LVL435
 10943 2b75 0100     		.2byte	0x1
 10944 2b77 55       		.byte	0x55
 10945 2b78 5A090000 		.4byte	.LVL435
 10946 2b7c 5C090000 		.4byte	.LVL436
 10947 2b80 5000     		.2byte	0x50
 10948 2b82 91       		.byte	0x91
 10949 2b83 4C       		.sleb128 -52
 10950 2b84 06       		.byte	0x6
 10951 2b85 20       		.byte	0x20
 10952 2b86 74       		.byte	0x74
 10953 2b87 04       		.sleb128 4
 10954 2b88 06       		.byte	0x6
 10955 2b89 21       		.byte	0x21
 10956 2b8a 74       		.byte	0x74
 10957 2b8b 0C       		.sleb128 12
 10958 2b8c 06       		.byte	0x6
 10959 2b8d 20       		.byte	0x20
 10960 2b8e 74       		.byte	0x74
 10961 2b8f 08       		.sleb128 8
 10962 2b90 06       		.byte	0x6
 10963 2b91 21       		.byte	0x21
 10964 2b92 74       		.byte	0x74
 10965 2b93 04       		.sleb128 4
 10966 2b94 06       		.byte	0x6
 10967 2b95 27       		.byte	0x27
 10968 2b96 91       		.byte	0x91
 10969 2b97 A07F     		.sleb128 -96
 10970 2b99 06       		.byte	0x6
 10971 2b9a 22       		.byte	0x22
 10972 2b9b 74       		.byte	0x74
 10973 2b9c 00       		.sleb128 0
 10974 2b9d 06       		.byte	0x6
 10975 2b9e 22       		.byte	0x22
 10976 2b9f 23       		.byte	0x23
 10977 2ba0 E6978A85 		.uleb128 0x50a28be6
ARM GAS  C:\Users\Ray\AppData\Local\Temp\ccn0usL8.s 			page 202


 10977      05
 10978 2ba5 48       		.byte	0x48
 10979 2ba6 14       		.byte	0x14
 10980 2ba7 14       		.byte	0x14
 10981 2ba8 1F       		.byte	0x1f
 10982 2ba9 23       		.byte	0x23
 10983 2baa 20       		.uleb128 0x20
 10984 2bab 24       		.byte	0x24
 10985 2bac 17       		.byte	0x17
 10986 2bad 25       		.byte	0x25
 10987 2bae 21       		.byte	0x21
 10988 2baf 74       		.byte	0x74
 10989 2bb0 10       		.sleb128 16
 10990 2bb1 06       		.byte	0x6
 10991 2bb2 22       		.byte	0x22
 10992 2bb3 27       		.byte	0x27
 10993 2bb4 91       		.byte	0x91
 10994 2bb5 44       		.sleb128 -60
 10995 2bb6 06       		.byte	0x6
 10996 2bb7 22       		.byte	0x22
 10997 2bb8 74       		.byte	0x74
 10998 2bb9 10       		.sleb128 16
 10999 2bba 06       		.byte	0x6
 11000 2bbb 22       		.byte	0x22
 11001 2bbc 23       		.byte	0x23
 11002 2bbd E6978A85 		.uleb128 0x50a28be6
 11002      05
 11003 2bc2 72       		.byte	0x72
 11004 2bc3 00       		.sleb128 0
 11005 2bc4 14       		.byte	0x14
 11006 2bc5 14       		.byte	0x14
 11007 2bc6 1F       		.byte	0x1f
 11008 2bc7 23       		.byte	0x23
 11009 2bc8 20       		.uleb128 0x20
 11010 2bc9 24       		.byte	0x24
 11011 2bca 17       		.byte	0x17
 11012 2bcb 25       		.byte	0x25
 11013 2bcc 21       		.byte	0x21
 11014 2bcd 74       		.byte	0x74
 11015 2bce 0C       		.sleb128 12
 11016 2bcf 06       		.byte	0x6
 11017 2bd0 22       		.byte	0x22
 11018 2bd1 9F       		.byte	0x9f
 11019 2bd2 5C090000 		.4byte	.LVL436
 11020 2bd6 5E090000 		.4byte	.LVL437
 11021 2bda 4F00     		.2byte	0x4f
 11022 2bdc 91       		.byte	0x91
 11023 2bdd 4C       		.sleb128 -52
 11024 2bde 06       		.byte	0x6
 11025 2bdf 20       		.byte	0x20
 11026 2be0 74       		.byte	0x74
 11027 2be1 04       		.sleb128 4
 11028 2be2 06       		.byte	0x6
 11029 2be3 21       		.byte	0x21
 11030 2be4 74       		.byte	0x74
 11031 2be5 0C       		.sleb128 12
 11032 2be6 06       		.byte	0x6
ARM GAS  C:\Users\Ray\AppData\Local\Temp\ccn0usL8.s 			page 203


 11033 2be7 20       		.byte	0x20
 11034 2be8 74       		.byte	0x74
 11035 2be9 08       		.sleb128 8
 11036 2bea 06       		.byte	0x6
 11037 2beb 21       		.byte	0x21
 11038 2bec 74       		.byte	0x74
 11039 2bed 04       		.sleb128 4
 11040 2bee 06       		.byte	0x6
 11041 2bef 27       		.byte	0x27
 11042 2bf0 91       		.byte	0x91
 11043 2bf1 A07F     		.sleb128 -96
 11044 2bf3 06       		.byte	0x6
 11045 2bf4 22       		.byte	0x22
 11046 2bf5 74       		.byte	0x74
 11047 2bf6 00       		.sleb128 0
 11048 2bf7 06       		.byte	0x6
 11049 2bf8 22       		.byte	0x22
 11050 2bf9 23       		.byte	0x23
 11051 2bfa E6978A85 		.uleb128 0x50a28be6
 11051      05
 11052 2bff 48       		.byte	0x48
 11053 2c00 14       		.byte	0x14
 11054 2c01 14       		.byte	0x14
 11055 2c02 1F       		.byte	0x1f
 11056 2c03 23       		.byte	0x23
 11057 2c04 20       		.uleb128 0x20
 11058 2c05 24       		.byte	0x24
 11059 2c06 17       		.byte	0x17
 11060 2c07 25       		.byte	0x25
 11061 2c08 21       		.byte	0x21
 11062 2c09 74       		.byte	0x74
 11063 2c0a 10       		.sleb128 16
 11064 2c0b 06       		.byte	0x6
 11065 2c0c 22       		.byte	0x22
 11066 2c0d 27       		.byte	0x27
 11067 2c0e 91       		.byte	0x91
 11068 2c0f 44       		.sleb128 -60
 11069 2c10 06       		.byte	0x6
 11070 2c11 22       		.byte	0x22
 11071 2c12 74       		.byte	0x74
 11072 2c13 10       		.sleb128 16
 11073 2c14 06       		.byte	0x6
 11074 2c15 22       		.byte	0x22
 11075 2c16 23       		.byte	0x23
 11076 2c17 E6978A85 		.uleb128 0x50a28be6
 11076      05
 11077 2c1c 47       		.byte	0x47
 11078 2c1d 14       		.byte	0x14
 11079 2c1e 14       		.byte	0x14
 11080 2c1f 1F       		.byte	0x1f
 11081 2c20 23       		.byte	0x23
 11082 2c21 20       		.uleb128 0x20
 11083 2c22 24       		.byte	0x24
 11084 2c23 17       		.byte	0x17
 11085 2c24 25       		.byte	0x25
 11086 2c25 21       		.byte	0x21
 11087 2c26 74       		.byte	0x74
ARM GAS  C:\Users\Ray\AppData\Local\Temp\ccn0usL8.s 			page 204


 11088 2c27 0C       		.sleb128 12
 11089 2c28 06       		.byte	0x6
 11090 2c29 22       		.byte	0x22
 11091 2c2a 9F       		.byte	0x9f
 11092 2c2b 5E090000 		.4byte	.LVL437
 11093 2c2f 68090000 		.4byte	.LVL439
 11094 2c33 4900     		.2byte	0x49
 11095 2c35 91       		.byte	0x91
 11096 2c36 4C       		.sleb128 -52
 11097 2c37 06       		.byte	0x6
 11098 2c38 20       		.byte	0x20
 11099 2c39 74       		.byte	0x74
 11100 2c3a 04       		.sleb128 4
 11101 2c3b 06       		.byte	0x6
 11102 2c3c 21       		.byte	0x21
 11103 2c3d 74       		.byte	0x74
 11104 2c3e 0C       		.sleb128 12
 11105 2c3f 06       		.byte	0x6
 11106 2c40 20       		.byte	0x20
 11107 2c41 74       		.byte	0x74
 11108 2c42 08       		.sleb128 8
 11109 2c43 06       		.byte	0x6
 11110 2c44 21       		.byte	0x21
 11111 2c45 74       		.byte	0x74
 11112 2c46 04       		.sleb128 4
 11113 2c47 06       		.byte	0x6
 11114 2c48 27       		.byte	0x27
 11115 2c49 91       		.byte	0x91
 11116 2c4a A07F     		.sleb128 -96
 11117 2c4c 06       		.byte	0x6
 11118 2c4d 22       		.byte	0x22
 11119 2c4e 71       		.byte	0x71
 11120 2c4f 00       		.sleb128 0
 11121 2c50 22       		.byte	0x22
 11122 2c51 74       		.byte	0x74
 11123 2c52 00       		.sleb128 0
 11124 2c53 06       		.byte	0x6
 11125 2c54 22       		.byte	0x22
 11126 2c55 48       		.byte	0x48
 11127 2c56 14       		.byte	0x14
 11128 2c57 14       		.byte	0x14
 11129 2c58 1F       		.byte	0x1f
 11130 2c59 23       		.byte	0x23
 11131 2c5a 20       		.uleb128 0x20
 11132 2c5b 24       		.byte	0x24
 11133 2c5c 17       		.byte	0x17
 11134 2c5d 25       		.byte	0x25
 11135 2c5e 21       		.byte	0x21
 11136 2c5f 74       		.byte	0x74
 11137 2c60 10       		.sleb128 16
 11138 2c61 06       		.byte	0x6
 11139 2c62 22       		.byte	0x22
 11140 2c63 27       		.byte	0x27
 11141 2c64 91       		.byte	0x91
 11142 2c65 44       		.sleb128 -60
 11143 2c66 06       		.byte	0x6
 11144 2c67 22       		.byte	0x22
ARM GAS  C:\Users\Ray\AppData\Local\Temp\ccn0usL8.s 			page 205


 11145 2c68 71       		.byte	0x71
 11146 2c69 00       		.sleb128 0
 11147 2c6a 22       		.byte	0x22
 11148 2c6b 74       		.byte	0x74
 11149 2c6c 10       		.sleb128 16
 11150 2c6d 06       		.byte	0x6
 11151 2c6e 22       		.byte	0x22
 11152 2c6f 47       		.byte	0x47
 11153 2c70 14       		.byte	0x14
 11154 2c71 14       		.byte	0x14
 11155 2c72 1F       		.byte	0x1f
 11156 2c73 23       		.byte	0x23
 11157 2c74 20       		.uleb128 0x20
 11158 2c75 24       		.byte	0x24
 11159 2c76 17       		.byte	0x17
 11160 2c77 25       		.byte	0x25
 11161 2c78 21       		.byte	0x21
 11162 2c79 74       		.byte	0x74
 11163 2c7a 0C       		.sleb128 12
 11164 2c7b 06       		.byte	0x6
 11165 2c7c 22       		.byte	0x22
 11166 2c7d 9F       		.byte	0x9f
 11167 2c7e 68090000 		.4byte	.LVL439
 11168 2c82 7C090000 		.4byte	.LVL442
 11169 2c86 4F00     		.2byte	0x4f
 11170 2c88 91       		.byte	0x91
 11171 2c89 4C       		.sleb128 -52
 11172 2c8a 06       		.byte	0x6
 11173 2c8b 20       		.byte	0x20
 11174 2c8c 74       		.byte	0x74
 11175 2c8d 04       		.sleb128 4
 11176 2c8e 06       		.byte	0x6
 11177 2c8f 21       		.byte	0x21
 11178 2c90 74       		.byte	0x74
 11179 2c91 0C       		.sleb128 12
 11180 2c92 06       		.byte	0x6
 11181 2c93 20       		.byte	0x20
 11182 2c94 74       		.byte	0x74
 11183 2c95 08       		.sleb128 8
 11184 2c96 06       		.byte	0x6
 11185 2c97 21       		.byte	0x21
 11186 2c98 74       		.byte	0x74
 11187 2c99 04       		.sleb128 4
 11188 2c9a 06       		.byte	0x6
 11189 2c9b 27       		.byte	0x27
 11190 2c9c 91       		.byte	0x91
 11191 2c9d A07F     		.sleb128 -96
 11192 2c9f 06       		.byte	0x6
 11193 2ca0 22       		.byte	0x22
 11194 2ca1 74       		.byte	0x74
 11195 2ca2 00       		.sleb128 0
 11196 2ca3 06       		.byte	0x6
 11197 2ca4 22       		.byte	0x22
 11198 2ca5 23       		.byte	0x23
 11199 2ca6 E6978A85 		.uleb128 0x50a28be6
 11199      05
 11200 2cab 48       		.byte	0x48
ARM GAS  C:\Users\Ray\AppData\Local\Temp\ccn0usL8.s 			page 206


 11201 2cac 14       		.byte	0x14
 11202 2cad 14       		.byte	0x14
 11203 2cae 1F       		.byte	0x1f
 11204 2caf 23       		.byte	0x23
 11205 2cb0 20       		.uleb128 0x20
 11206 2cb1 24       		.byte	0x24
 11207 2cb2 17       		.byte	0x17
 11208 2cb3 25       		.byte	0x25
 11209 2cb4 21       		.byte	0x21
 11210 2cb5 74       		.byte	0x74
 11211 2cb6 10       		.sleb128 16
 11212 2cb7 06       		.byte	0x6
 11213 2cb8 22       		.byte	0x22
 11214 2cb9 27       		.byte	0x27
 11215 2cba 91       		.byte	0x91
 11216 2cbb 44       		.sleb128 -60
 11217 2cbc 06       		.byte	0x6
 11218 2cbd 22       		.byte	0x22
 11219 2cbe 74       		.byte	0x74
 11220 2cbf 10       		.sleb128 16
 11221 2cc0 06       		.byte	0x6
 11222 2cc1 22       		.byte	0x22
 11223 2cc2 23       		.byte	0x23
 11224 2cc3 E6978A85 		.uleb128 0x50a28be6
 11224      05
 11225 2cc8 47       		.byte	0x47
 11226 2cc9 14       		.byte	0x14
 11227 2cca 14       		.byte	0x14
 11228 2ccb 1F       		.byte	0x1f
 11229 2ccc 23       		.byte	0x23
 11230 2ccd 20       		.uleb128 0x20
 11231 2cce 24       		.byte	0x24
 11232 2ccf 17       		.byte	0x17
 11233 2cd0 25       		.byte	0x25
 11234 2cd1 21       		.byte	0x21
 11235 2cd2 74       		.byte	0x74
 11236 2cd3 0C       		.sleb128 12
 11237 2cd4 06       		.byte	0x6
 11238 2cd5 22       		.byte	0x22
 11239 2cd6 9F       		.byte	0x9f
 11240 2cd7 7C090000 		.4byte	.LVL442
 11241 2cdb 7E090000 		.4byte	.LVL443
 11242 2cdf 4900     		.2byte	0x49
 11243 2ce1 91       		.byte	0x91
 11244 2ce2 4C       		.sleb128 -52
 11245 2ce3 06       		.byte	0x6
 11246 2ce4 20       		.byte	0x20
 11247 2ce5 74       		.byte	0x74
 11248 2ce6 04       		.sleb128 4
 11249 2ce7 06       		.byte	0x6
 11250 2ce8 21       		.byte	0x21
 11251 2ce9 74       		.byte	0x74
 11252 2cea 0C       		.sleb128 12
 11253 2ceb 06       		.byte	0x6
 11254 2cec 20       		.byte	0x20
 11255 2ced 74       		.byte	0x74
 11256 2cee 08       		.sleb128 8
ARM GAS  C:\Users\Ray\AppData\Local\Temp\ccn0usL8.s 			page 207


 11257 2cef 06       		.byte	0x6
 11258 2cf0 21       		.byte	0x21
 11259 2cf1 74       		.byte	0x74
 11260 2cf2 04       		.sleb128 4
 11261 2cf3 06       		.byte	0x6
 11262 2cf4 27       		.byte	0x27
 11263 2cf5 91       		.byte	0x91
 11264 2cf6 A07F     		.sleb128 -96
 11265 2cf8 06       		.byte	0x6
 11266 2cf9 22       		.byte	0x22
 11267 2cfa 71       		.byte	0x71
 11268 2cfb 00       		.sleb128 0
 11269 2cfc 22       		.byte	0x22
 11270 2cfd 74       		.byte	0x74
 11271 2cfe 00       		.sleb128 0
 11272 2cff 06       		.byte	0x6
 11273 2d00 22       		.byte	0x22
 11274 2d01 48       		.byte	0x48
 11275 2d02 14       		.byte	0x14
 11276 2d03 14       		.byte	0x14
 11277 2d04 1F       		.byte	0x1f
 11278 2d05 23       		.byte	0x23
 11279 2d06 20       		.uleb128 0x20
 11280 2d07 24       		.byte	0x24
 11281 2d08 17       		.byte	0x17
 11282 2d09 25       		.byte	0x25
 11283 2d0a 21       		.byte	0x21
 11284 2d0b 74       		.byte	0x74
 11285 2d0c 10       		.sleb128 16
 11286 2d0d 06       		.byte	0x6
 11287 2d0e 22       		.byte	0x22
 11288 2d0f 27       		.byte	0x27
 11289 2d10 91       		.byte	0x91
 11290 2d11 44       		.sleb128 -60
 11291 2d12 06       		.byte	0x6
 11292 2d13 22       		.byte	0x22
 11293 2d14 71       		.byte	0x71
 11294 2d15 00       		.sleb128 0
 11295 2d16 22       		.byte	0x22
 11296 2d17 74       		.byte	0x74
 11297 2d18 10       		.sleb128 16
 11298 2d19 06       		.byte	0x6
 11299 2d1a 22       		.byte	0x22
 11300 2d1b 47       		.byte	0x47
 11301 2d1c 14       		.byte	0x14
 11302 2d1d 14       		.byte	0x14
 11303 2d1e 1F       		.byte	0x1f
 11304 2d1f 23       		.byte	0x23
 11305 2d20 20       		.uleb128 0x20
 11306 2d21 24       		.byte	0x24
 11307 2d22 17       		.byte	0x17
 11308 2d23 25       		.byte	0x25
 11309 2d24 21       		.byte	0x21
 11310 2d25 74       		.byte	0x74
 11311 2d26 0C       		.sleb128 12
 11312 2d27 06       		.byte	0x6
 11313 2d28 22       		.byte	0x22
ARM GAS  C:\Users\Ray\AppData\Local\Temp\ccn0usL8.s 			page 208


 11314 2d29 9F       		.byte	0x9f
 11315 2d2a 7E090000 		.4byte	.LVL443
 11316 2d2e B6090000 		.4byte	.LVL453
 11317 2d32 0100     		.2byte	0x1
 11318 2d34 55       		.byte	0x55
 11319 2d35 B6090000 		.4byte	.LVL453
 11320 2d39 C2090000 		.4byte	.LVL454
 11321 2d3d 0D00     		.2byte	0xd
 11322 2d3f 76       		.byte	0x76
 11323 2d40 00       		.sleb128 0
 11324 2d41 20       		.byte	0x20
 11325 2d42 71       		.byte	0x71
 11326 2d43 00       		.sleb128 0
 11327 2d44 21       		.byte	0x21
 11328 2d45 7C       		.byte	0x7c
 11329 2d46 00       		.sleb128 0
 11330 2d47 27       		.byte	0x27
 11331 2d48 75       		.byte	0x75
 11332 2d49 00       		.sleb128 0
 11333 2d4a 22       		.byte	0x22
 11334 2d4b 9F       		.byte	0x9f
 11335 2d4c C2090000 		.4byte	.LVL454
 11336 2d50 C6090000 		.4byte	.LVL456
 11337 2d54 0100     		.2byte	0x1
 11338 2d56 55       		.byte	0x55
 11339 2d57 CC090000 		.4byte	.LVL457
 11340 2d5b 0C0A0000 		.4byte	.LVL465
 11341 2d5f 0100     		.2byte	0x1
 11342 2d61 55       		.byte	0x55
 11343 2d62 140A0000 		.4byte	.LVL467
 11344 2d66 4C0A0000 		.4byte	.LVL479
 11345 2d6a 0100     		.2byte	0x1
 11346 2d6c 55       		.byte	0x55
 11347 2d6d 4C0A0000 		.4byte	.LVL479
 11348 2d71 560A0000 		.4byte	.LVL480
 11349 2d75 0D00     		.2byte	0xd
 11350 2d77 76       		.byte	0x76
 11351 2d78 00       		.sleb128 0
 11352 2d79 20       		.byte	0x20
 11353 2d7a 71       		.byte	0x71
 11354 2d7b 00       		.sleb128 0
 11355 2d7c 21       		.byte	0x21
 11356 2d7d 7C       		.byte	0x7c
 11357 2d7e 00       		.sleb128 0
 11358 2d7f 27       		.byte	0x27
 11359 2d80 75       		.byte	0x75
 11360 2d81 00       		.sleb128 0
 11361 2d82 22       		.byte	0x22
 11362 2d83 9F       		.byte	0x9f
 11363 2d84 560A0000 		.4byte	.LVL480
 11364 2d88 5C0A0000 		.4byte	.LVL482
 11365 2d8c 0100     		.2byte	0x1
 11366 2d8e 55       		.byte	0x55
 11367 2d8f 620A0000 		.4byte	.LVL483
 11368 2d93 8C0A0000 		.4byte	.LVL489
 11369 2d97 0100     		.2byte	0x1
 11370 2d99 55       		.byte	0x55
ARM GAS  C:\Users\Ray\AppData\Local\Temp\ccn0usL8.s 			page 209


 11371 2d9a A40A0000 		.4byte	.LVL492
 11372 2d9e F20A0000 		.4byte	.LVL503
 11373 2da2 0100     		.2byte	0x1
 11374 2da4 55       		.byte	0x55
 11375 2da5 F20A0000 		.4byte	.LVL503
 11376 2da9 F80A0000 		.4byte	.LVL504
 11377 2dad 0F00     		.2byte	0xf
 11378 2daf 71       		.byte	0x71
 11379 2db0 00       		.sleb128 0
 11380 2db1 72       		.byte	0x72
 11381 2db2 00       		.sleb128 0
 11382 2db3 27       		.byte	0x27
 11383 2db4 76       		.byte	0x76
 11384 2db5 00       		.sleb128 0
 11385 2db6 1A       		.byte	0x1a
 11386 2db7 71       		.byte	0x71
 11387 2db8 00       		.sleb128 0
 11388 2db9 27       		.byte	0x27
 11389 2dba 75       		.byte	0x75
 11390 2dbb 00       		.sleb128 0
 11391 2dbc 22       		.byte	0x22
 11392 2dbd 9F       		.byte	0x9f
 11393 2dbe F80A0000 		.4byte	.LVL504
 11394 2dc2 FA0A0000 		.4byte	.LVL505
 11395 2dc6 0100     		.2byte	0x1
 11396 2dc8 55       		.byte	0x55
 11397 2dc9 0C0B0000 		.4byte	.LVL507
 11398 2dcd 420B0000 		.4byte	.LVL516
 11399 2dd1 0100     		.2byte	0x1
 11400 2dd3 55       		.byte	0x55
 11401 2dd4 4E0B0000 		.4byte	.LVL517
 11402 2dd8 9A0B0000 		.4byte	.LVL528
 11403 2ddc 0100     		.2byte	0x1
 11404 2dde 55       		.byte	0x55
 11405 2ddf 9A0B0000 		.4byte	.LVL528
 11406 2de3 A00B0000 		.4byte	.LVL529
 11407 2de7 0F00     		.2byte	0xf
 11408 2de9 71       		.byte	0x71
 11409 2dea 00       		.sleb128 0
 11410 2deb 72       		.byte	0x72
 11411 2dec 00       		.sleb128 0
 11412 2ded 27       		.byte	0x27
 11413 2dee 76       		.byte	0x76
 11414 2def 00       		.sleb128 0
 11415 2df0 1A       		.byte	0x1a
 11416 2df1 71       		.byte	0x71
 11417 2df2 00       		.sleb128 0
 11418 2df3 27       		.byte	0x27
 11419 2df4 75       		.byte	0x75
 11420 2df5 00       		.sleb128 0
 11421 2df6 22       		.byte	0x22
 11422 2df7 9F       		.byte	0x9f
 11423 2df8 A00B0000 		.4byte	.LVL529
 11424 2dfc A20B0000 		.4byte	.LVL530
 11425 2e00 0100     		.2byte	0x1
 11426 2e02 55       		.byte	0x55
 11427 2e03 B40B0000 		.4byte	.LVL532
ARM GAS  C:\Users\Ray\AppData\Local\Temp\ccn0usL8.s 			page 210


 11428 2e07 3A0C0000 		.4byte	.LVL553
 11429 2e0b 0100     		.2byte	0x1
 11430 2e0d 55       		.byte	0x55
 11431 2e0e 3A0C0000 		.4byte	.LVL553
 11432 2e12 400C0000 		.4byte	.LVL554
 11433 2e16 0F00     		.2byte	0xf
 11434 2e18 71       		.byte	0x71
 11435 2e19 00       		.sleb128 0
 11436 2e1a 76       		.byte	0x76
 11437 2e1b 00       		.sleb128 0
 11438 2e1c 27       		.byte	0x27
 11439 2e1d 72       		.byte	0x72
 11440 2e1e 00       		.sleb128 0
 11441 2e1f 1A       		.byte	0x1a
 11442 2e20 71       		.byte	0x71
 11443 2e21 00       		.sleb128 0
 11444 2e22 27       		.byte	0x27
 11445 2e23 75       		.byte	0x75
 11446 2e24 00       		.sleb128 0
 11447 2e25 22       		.byte	0x22
 11448 2e26 9F       		.byte	0x9f
 11449 2e27 400C0000 		.4byte	.LVL554
 11450 2e2b 420C0000 		.4byte	.LVL555
 11451 2e2f 0100     		.2byte	0x1
 11452 2e31 55       		.byte	0x55
 11453 2e32 540C0000 		.4byte	.LVL557
 11454 2e36 8A0C0000 		.4byte	.LVL566
 11455 2e3a 0100     		.2byte	0x1
 11456 2e3c 55       		.byte	0x55
 11457 2e3d 980C0000 		.4byte	.LVL567
 11458 2e41 E40C0000 		.4byte	.LVL578
 11459 2e45 0100     		.2byte	0x1
 11460 2e47 55       		.byte	0x55
 11461 2e48 E40C0000 		.4byte	.LVL578
 11462 2e4c EA0C0000 		.4byte	.LVL579
 11463 2e50 0F00     		.2byte	0xf
 11464 2e52 71       		.byte	0x71
 11465 2e53 00       		.sleb128 0
 11466 2e54 76       		.byte	0x76
 11467 2e55 00       		.sleb128 0
 11468 2e56 27       		.byte	0x27
 11469 2e57 72       		.byte	0x72
 11470 2e58 00       		.sleb128 0
 11471 2e59 1A       		.byte	0x1a
 11472 2e5a 71       		.byte	0x71
 11473 2e5b 00       		.sleb128 0
 11474 2e5c 27       		.byte	0x27
 11475 2e5d 75       		.byte	0x75
 11476 2e5e 00       		.sleb128 0
 11477 2e5f 22       		.byte	0x22
 11478 2e60 9F       		.byte	0x9f
 11479 2e61 EA0C0000 		.4byte	.LVL579
 11480 2e65 EC0C0000 		.4byte	.LVL580
 11481 2e69 0100     		.2byte	0x1
 11482 2e6b 55       		.byte	0x55
 11483 2e6c 000D0000 		.4byte	.LVL582
 11484 2e70 300D0000 		.4byte	.LVL592
ARM GAS  C:\Users\Ray\AppData\Local\Temp\ccn0usL8.s 			page 211


 11485 2e74 0100     		.2byte	0x1
 11486 2e76 55       		.byte	0x55
 11487 2e77 340D0000 		.4byte	.LVL593
 11488 2e7b 7A0D0000 		.4byte	.LVL604
 11489 2e7f 0100     		.2byte	0x1
 11490 2e81 55       		.byte	0x55
 11491 2e82 7A0D0000 		.4byte	.LVL604
 11492 2e86 800D0000 		.4byte	.LVL605
 11493 2e8a 0D00     		.2byte	0xd
 11494 2e8c 76       		.byte	0x76
 11495 2e8d 00       		.sleb128 0
 11496 2e8e 20       		.byte	0x20
 11497 2e8f 71       		.byte	0x71
 11498 2e90 00       		.sleb128 0
 11499 2e91 21       		.byte	0x21
 11500 2e92 72       		.byte	0x72
 11501 2e93 00       		.sleb128 0
 11502 2e94 27       		.byte	0x27
 11503 2e95 75       		.byte	0x75
 11504 2e96 00       		.sleb128 0
 11505 2e97 22       		.byte	0x22
 11506 2e98 9F       		.byte	0x9f
 11507 2e99 800D0000 		.4byte	.LVL605
 11508 2e9d 820D0000 		.4byte	.LVL606
 11509 2ea1 0100     		.2byte	0x1
 11510 2ea3 55       		.byte	0x55
 11511 2ea4 960D0000 		.4byte	.LVL608
 11512 2ea8 CA0D0000 		.4byte	.LVL617
 11513 2eac 0100     		.2byte	0x1
 11514 2eae 55       		.byte	0x55
 11515 2eaf DA0D0000 		.4byte	.LVL618
 11516 2eb3 320E0000 		.4byte	.LVL629
 11517 2eb7 0100     		.2byte	0x1
 11518 2eb9 55       		.byte	0x55
 11519 2eba 320E0000 		.4byte	.LVL629
 11520 2ebe 380E0000 		.4byte	.LVL630
 11521 2ec2 0D00     		.2byte	0xd
 11522 2ec4 76       		.byte	0x76
 11523 2ec5 00       		.sleb128 0
 11524 2ec6 20       		.byte	0x20
 11525 2ec7 71       		.byte	0x71
 11526 2ec8 00       		.sleb128 0
 11527 2ec9 21       		.byte	0x21
 11528 2eca 72       		.byte	0x72
 11529 2ecb 00       		.sleb128 0
 11530 2ecc 27       		.byte	0x27
 11531 2ecd 75       		.byte	0x75
 11532 2ece 00       		.sleb128 0
 11533 2ecf 22       		.byte	0x22
 11534 2ed0 9F       		.byte	0x9f
 11535 2ed1 380E0000 		.4byte	.LVL630
 11536 2ed5 3A0E0000 		.4byte	.LVL631
 11537 2ed9 0100     		.2byte	0x1
 11538 2edb 55       		.byte	0x55
 11539 2edc 4A0E0000 		.4byte	.LVL633
 11540 2ee0 7E0E0000 		.4byte	.LVL642
 11541 2ee4 0100     		.2byte	0x1
ARM GAS  C:\Users\Ray\AppData\Local\Temp\ccn0usL8.s 			page 212


 11542 2ee6 55       		.byte	0x55
 11543 2ee7 8E0E0000 		.4byte	.LVL643
 11544 2eeb D80E0000 		.4byte	.LVL654
 11545 2eef 0100     		.2byte	0x1
 11546 2ef1 55       		.byte	0x55
 11547 2ef2 D80E0000 		.4byte	.LVL654
 11548 2ef6 DE0E0000 		.4byte	.LVL655
 11549 2efa 0D00     		.2byte	0xd
 11550 2efc 76       		.byte	0x76
 11551 2efd 00       		.sleb128 0
 11552 2efe 20       		.byte	0x20
 11553 2eff 71       		.byte	0x71
 11554 2f00 00       		.sleb128 0
 11555 2f01 21       		.byte	0x21
 11556 2f02 72       		.byte	0x72
 11557 2f03 00       		.sleb128 0
 11558 2f04 27       		.byte	0x27
 11559 2f05 75       		.byte	0x75
 11560 2f06 00       		.sleb128 0
 11561 2f07 22       		.byte	0x22
 11562 2f08 9F       		.byte	0x9f
 11563 2f09 DE0E0000 		.4byte	.LVL655
 11564 2f0d E00E0000 		.4byte	.LVL656
 11565 2f11 0100     		.2byte	0x1
 11566 2f13 55       		.byte	0x55
 11567 2f14 EC0E0000 		.4byte	.LVL658
 11568 2f18 1E0F0000 		.4byte	.LVL668
 11569 2f1c 0100     		.2byte	0x1
 11570 2f1e 55       		.byte	0x55
 11571 2f1f 220F0000 		.4byte	.LVL669
 11572 2f23 720F0000 		.4byte	.LVL680
 11573 2f27 0100     		.2byte	0x1
 11574 2f29 55       		.byte	0x55
 11575 2f2a 720F0000 		.4byte	.LVL680
 11576 2f2e 780F0000 		.4byte	.LVL681
 11577 2f32 0F00     		.2byte	0xf
 11578 2f34 72       		.byte	0x72
 11579 2f35 00       		.sleb128 0
 11580 2f36 76       		.byte	0x76
 11581 2f37 00       		.sleb128 0
 11582 2f38 27       		.byte	0x27
 11583 2f39 71       		.byte	0x71
 11584 2f3a 00       		.sleb128 0
 11585 2f3b 1A       		.byte	0x1a
 11586 2f3c 76       		.byte	0x76
 11587 2f3d 00       		.sleb128 0
 11588 2f3e 27       		.byte	0x27
 11589 2f3f 75       		.byte	0x75
 11590 2f40 00       		.sleb128 0
 11591 2f41 22       		.byte	0x22
 11592 2f42 9F       		.byte	0x9f
 11593 2f43 780F0000 		.4byte	.LVL681
 11594 2f47 7A0F0000 		.4byte	.LVL682
 11595 2f4b 0100     		.2byte	0x1
 11596 2f4d 55       		.byte	0x55
 11597 2f4e 8C0F0000 		.4byte	.LVL684
 11598 2f52 C20F0000 		.4byte	.LVL693
ARM GAS  C:\Users\Ray\AppData\Local\Temp\ccn0usL8.s 			page 213


 11599 2f56 0100     		.2byte	0x1
 11600 2f58 55       		.byte	0x55
 11601 2f59 D00F0000 		.4byte	.LVL694
 11602 2f5d 1C100000 		.4byte	.LVL705
 11603 2f61 0100     		.2byte	0x1
 11604 2f63 55       		.byte	0x55
 11605 2f64 1C100000 		.4byte	.LVL705
 11606 2f68 22100000 		.4byte	.LVL706
 11607 2f6c 0F00     		.2byte	0xf
 11608 2f6e 72       		.byte	0x72
 11609 2f6f 00       		.sleb128 0
 11610 2f70 76       		.byte	0x76
 11611 2f71 00       		.sleb128 0
 11612 2f72 27       		.byte	0x27
 11613 2f73 71       		.byte	0x71
 11614 2f74 00       		.sleb128 0
 11615 2f75 1A       		.byte	0x1a
 11616 2f76 76       		.byte	0x76
 11617 2f77 00       		.sleb128 0
 11618 2f78 27       		.byte	0x27
 11619 2f79 75       		.byte	0x75
 11620 2f7a 00       		.sleb128 0
 11621 2f7b 22       		.byte	0x22
 11622 2f7c 9F       		.byte	0x9f
 11623 2f7d 22100000 		.4byte	.LVL706
 11624 2f81 24100000 		.4byte	.LVL707
 11625 2f85 0100     		.2byte	0x1
 11626 2f87 55       		.byte	0x55
 11627 2f88 36100000 		.4byte	.LVL709
 11628 2f8c 6C100000 		.4byte	.LVL718
 11629 2f90 0100     		.2byte	0x1
 11630 2f92 55       		.byte	0x55
 11631 2f93 7A100000 		.4byte	.LVL719
 11632 2f97 C6100000 		.4byte	.LVL730
 11633 2f9b 0100     		.2byte	0x1
 11634 2f9d 55       		.byte	0x55
 11635 2f9e C6100000 		.4byte	.LVL730
 11636 2fa2 CC100000 		.4byte	.LVL731
 11637 2fa6 0F00     		.2byte	0xf
 11638 2fa8 72       		.byte	0x72
 11639 2fa9 00       		.sleb128 0
 11640 2faa 76       		.byte	0x76
 11641 2fab 00       		.sleb128 0
 11642 2fac 27       		.byte	0x27
 11643 2fad 71       		.byte	0x71
 11644 2fae 00       		.sleb128 0
 11645 2faf 1A       		.byte	0x1a
 11646 2fb0 76       		.byte	0x76
 11647 2fb1 00       		.sleb128 0
 11648 2fb2 27       		.byte	0x27
 11649 2fb3 75       		.byte	0x75
 11650 2fb4 00       		.sleb128 0
 11651 2fb5 22       		.byte	0x22
 11652 2fb6 9F       		.byte	0x9f
 11653 2fb7 CC100000 		.4byte	.LVL731
 11654 2fbb CE100000 		.4byte	.LVL732
 11655 2fbf 0100     		.2byte	0x1
ARM GAS  C:\Users\Ray\AppData\Local\Temp\ccn0usL8.s 			page 214


 11656 2fc1 55       		.byte	0x55
 11657 2fc2 E0100000 		.4byte	.LVL734
 11658 2fc6 16110000 		.4byte	.LVL743
 11659 2fca 0100     		.2byte	0x1
 11660 2fcc 55       		.byte	0x55
 11661 2fcd 1A110000 		.4byte	.LVL744
 11662 2fd1 54110000 		.4byte	.LVL755
 11663 2fd5 0100     		.2byte	0x1
 11664 2fd7 55       		.byte	0x55
 11665 2fd8 54110000 		.4byte	.LVL755
 11666 2fdc 58110000 		.4byte	.LVL756
 11667 2fe0 0C00     		.2byte	0xc
 11668 2fe2 72       		.byte	0x72
 11669 2fe3 00       		.sleb128 0
 11670 2fe4 76       		.byte	0x76
 11671 2fe5 00       		.sleb128 0
 11672 2fe6 27       		.byte	0x27
 11673 2fe7 71       		.byte	0x71
 11674 2fe8 00       		.sleb128 0
 11675 2fe9 27       		.byte	0x27
 11676 2fea 75       		.byte	0x75
 11677 2feb 00       		.sleb128 0
 11678 2fec 22       		.byte	0x22
 11679 2fed 9F       		.byte	0x9f
 11680 2fee 58110000 		.4byte	.LVL756
 11681 2ff2 5A110000 		.4byte	.LVL757
 11682 2ff6 0100     		.2byte	0x1
 11683 2ff8 55       		.byte	0x55
 11684 2ff9 62110000 		.4byte	.LVL759
 11685 2ffd 8E110000 		.4byte	.LVL768
 11686 3001 0100     		.2byte	0x1
 11687 3003 55       		.byte	0x55
 11688 3004 92110000 		.4byte	.LVL769
 11689 3008 CC110000 		.4byte	.LVL780
 11690 300c 0100     		.2byte	0x1
 11691 300e 55       		.byte	0x55
 11692 300f CC110000 		.4byte	.LVL780
 11693 3013 D0110000 		.4byte	.LVL781
 11694 3017 0C00     		.2byte	0xc
 11695 3019 72       		.byte	0x72
 11696 301a 00       		.sleb128 0
 11697 301b 76       		.byte	0x76
 11698 301c 00       		.sleb128 0
 11699 301d 27       		.byte	0x27
 11700 301e 71       		.byte	0x71
 11701 301f 00       		.sleb128 0
 11702 3020 27       		.byte	0x27
 11703 3021 75       		.byte	0x75
 11704 3022 00       		.sleb128 0
 11705 3023 22       		.byte	0x22
 11706 3024 9F       		.byte	0x9f
 11707 3025 D0110000 		.4byte	.LVL781
 11708 3029 D2110000 		.4byte	.LVL782
 11709 302d 0100     		.2byte	0x1
 11710 302f 55       		.byte	0x55
 11711 3030 DA110000 		.4byte	.LVL784
 11712 3034 12120000 		.4byte	.LVL793
ARM GAS  C:\Users\Ray\AppData\Local\Temp\ccn0usL8.s 			page 215


 11713 3038 0100     		.2byte	0x1
 11714 303a 55       		.byte	0x55
 11715 303b 16120000 		.4byte	.LVL794
 11716 303f 50120000 		.4byte	.LVL805
 11717 3043 0100     		.2byte	0x1
 11718 3045 55       		.byte	0x55
 11719 3046 50120000 		.4byte	.LVL805
 11720 304a 54120000 		.4byte	.LVL806
 11721 304e 0C00     		.2byte	0xc
 11722 3050 72       		.byte	0x72
 11723 3051 00       		.sleb128 0
 11724 3052 76       		.byte	0x76
 11725 3053 00       		.sleb128 0
 11726 3054 27       		.byte	0x27
 11727 3055 71       		.byte	0x71
 11728 3056 00       		.sleb128 0
 11729 3057 27       		.byte	0x27
 11730 3058 75       		.byte	0x75
 11731 3059 00       		.sleb128 0
 11732 305a 22       		.byte	0x22
 11733 305b 9F       		.byte	0x9f
 11734 305c 54120000 		.4byte	.LVL806
 11735 3060 56120000 		.4byte	.LVL807
 11736 3064 0100     		.2byte	0x1
 11737 3066 55       		.byte	0x55
 11738 3067 5E120000 		.4byte	.LVL809
 11739 306b 8A120000 		.4byte	.LVL818
 11740 306f 0100     		.2byte	0x1
 11741 3071 55       		.byte	0x55
 11742 3072 8E120000 		.4byte	.LVL819
 11743 3076 BC120000 		.4byte	.LVL827
 11744 307a 0100     		.2byte	0x1
 11745 307c 55       		.byte	0x55
 11746 307d 00000000 		.4byte	0
 11747 3081 00000000 		.4byte	0
 11748              	.LLST12:
 11749 3085 00000000 		.4byte	.LVL835
 11750 3089 12000000 		.4byte	.LVL837
 11751 308d 0100     		.2byte	0x1
 11752 308f 50       		.byte	0x50
 11753 3090 12000000 		.4byte	.LVL837
 11754 3094 CC000000 		.4byte	.LVL860
 11755 3098 0300     		.2byte	0x3
 11756 309a 91       		.byte	0x91
 11757 309b 8C7F     		.sleb128 -116
 11758 309d CC000000 		.4byte	.LVL860
 11759 30a1 D2000000 		.4byte	.LVL861
 11760 30a5 0A00     		.2byte	0xa
 11761 30a7 91       		.byte	0x91
 11762 30a8 8C7F     		.sleb128 -116
 11763 30aa 06       		.byte	0x6
 11764 30ab 71       		.byte	0x71
 11765 30ac 00       		.sleb128 0
 11766 30ad 22       		.byte	0x22
 11767 30ae 23       		.byte	0x23
 11768 30af 01       		.uleb128 0x1
 11769 30b0 9F       		.byte	0x9f
ARM GAS  C:\Users\Ray\AppData\Local\Temp\ccn0usL8.s 			page 216


 11770 30b1 D2000000 		.4byte	.LVL861
 11771 30b5 D6000000 		.4byte	.LVL862
 11772 30b9 0A00     		.2byte	0xa
 11773 30bb 71       		.byte	0x71
 11774 30bc 00       		.sleb128 0
 11775 30bd 91       		.byte	0x91
 11776 30be 8C7F     		.sleb128 -116
 11777 30c0 06       		.byte	0x6
 11778 30c1 22       		.byte	0x22
 11779 30c2 33       		.byte	0x33
 11780 30c3 1C       		.byte	0x1c
 11781 30c4 9F       		.byte	0x9f
 11782 30c5 D6000000 		.4byte	.LVL862
 11783 30c9 D8000000 		.4byte	.LVL863
 11784 30cd 0A00     		.2byte	0xa
 11785 30cf 71       		.byte	0x71
 11786 30d0 00       		.sleb128 0
 11787 30d1 91       		.byte	0x91
 11788 30d2 8C7F     		.sleb128 -116
 11789 30d4 06       		.byte	0x6
 11790 30d5 22       		.byte	0x22
 11791 30d6 32       		.byte	0x32
 11792 30d7 1C       		.byte	0x1c
 11793 30d8 9F       		.byte	0x9f
 11794 30d9 D8000000 		.4byte	.LVL863
 11795 30dd DE000000 		.4byte	.LVL864
 11796 30e1 0A00     		.2byte	0xa
 11797 30e3 71       		.byte	0x71
 11798 30e4 00       		.sleb128 0
 11799 30e5 91       		.byte	0x91
 11800 30e6 8C7F     		.sleb128 -116
 11801 30e8 06       		.byte	0x6
 11802 30e9 22       		.byte	0x22
 11803 30ea 31       		.byte	0x31
 11804 30eb 1C       		.byte	0x1c
 11805 30ec 9F       		.byte	0x9f
 11806 30ed 00000000 		.4byte	0
 11807 30f1 00000000 		.4byte	0
 11808              	.LLST13:
 11809 30f5 00000000 		.4byte	.LVL835
 11810 30f9 12000000 		.4byte	.LVL837
 11811 30fd 0100     		.2byte	0x1
 11812 30ff 51       		.byte	0x51
 11813 3100 12000000 		.4byte	.LVL837
 11814 3104 22000000 		.4byte	.LVL840
 11815 3108 0100     		.2byte	0x1
 11816 310a 56       		.byte	0x56
 11817 310b 22000000 		.4byte	.LVL840
 11818 310f 3E000000 		.4byte	.LVL842
 11819 3113 0800     		.2byte	0x8
 11820 3115 76       		.byte	0x76
 11821 3116 00       		.sleb128 0
 11822 3117 70       		.byte	0x70
 11823 3118 00       		.sleb128 0
 11824 3119 22       		.byte	0x22
 11825 311a 23       		.byte	0x23
 11826 311b 04       		.uleb128 0x4
ARM GAS  C:\Users\Ray\AppData\Local\Temp\ccn0usL8.s 			page 217


 11827 311c 9F       		.byte	0x9f
 11828 311d 3E000000 		.4byte	.LVL842
 11829 3121 44000000 		.4byte	.LVL843
 11830 3125 0600     		.2byte	0x6
 11831 3127 76       		.byte	0x76
 11832 3128 00       		.sleb128 0
 11833 3129 70       		.byte	0x70
 11834 312a 00       		.sleb128 0
 11835 312b 22       		.byte	0x22
 11836 312c 9F       		.byte	0x9f
 11837 312d 4C000000 		.4byte	.LVL845
 11838 3131 60000000 		.4byte	.LVL847
 11839 3135 0100     		.2byte	0x1
 11840 3137 56       		.byte	0x56
 11841 3138 60000000 		.4byte	.LVL847
 11842 313c 68000000 		.4byte	.LVL849
 11843 3140 0100     		.2byte	0x1
 11844 3142 51       		.byte	0x51
 11845 3143 68000000 		.4byte	.LVL849
 11846 3147 82000000 		.4byte	.LVL851
 11847 314b 0300     		.2byte	0x3
 11848 314d 71       		.byte	0x71
 11849 314e 01       		.sleb128 1
 11850 314f 9F       		.byte	0x9f
 11851 3150 82000000 		.4byte	.LVL851
 11852 3154 96000000 		.4byte	.LVL855
 11853 3158 0100     		.2byte	0x1
 11854 315a 51       		.byte	0x51
 11855 315b 00000000 		.4byte	0
 11856 315f 00000000 		.4byte	0
 11857              	.LLST14:
 11858 3163 00000000 		.4byte	.LVL835
 11859 3167 0E000000 		.4byte	.LVL836
 11860 316b 0100     		.2byte	0x1
 11861 316d 52       		.byte	0x52
 11862 316e 0E000000 		.4byte	.LVL836
 11863 3172 BE000000 		.4byte	.LVL858
 11864 3176 0100     		.2byte	0x1
 11865 3178 55       		.byte	0x55
 11866 3179 BE000000 		.4byte	.LVL858
 11867 317d F0000000 		.4byte	.LFE1
 11868 3181 0400     		.2byte	0x4
 11869 3183 F3       		.byte	0xf3
 11870 3184 01       		.uleb128 0x1
 11871 3185 52       		.byte	0x52
 11872 3186 9F       		.byte	0x9f
 11873 3187 00000000 		.4byte	0
 11874 318b 00000000 		.4byte	0
 11875              	.LLST15:
 11876 318f 18000000 		.4byte	.LVL838
 11877 3193 1C000000 		.4byte	.LVL839
 11878 3197 0200     		.2byte	0x2
 11879 3199 30       		.byte	0x30
 11880 319a 9F       		.byte	0x9f
 11881 319b 00000000 		.4byte	0
 11882 319f 00000000 		.4byte	0
 11883              	.LLST16:
ARM GAS  C:\Users\Ray\AppData\Local\Temp\ccn0usL8.s 			page 218


 11884 31a3 58000000 		.4byte	.LVL846
 11885 31a7 60000000 		.4byte	.LVL847
 11886 31ab 0200     		.2byte	0x2
 11887 31ad 30       		.byte	0x30
 11888 31ae 9F       		.byte	0x9f
 11889 31af 64000000 		.4byte	.LVL848
 11890 31b3 72000000 		.4byte	.LVL850
 11891 31b7 0100     		.2byte	0x1
 11892 31b9 53       		.byte	0x53
 11893 31ba 72000000 		.4byte	.LVL850
 11894 31be 82000000 		.4byte	.LVL851
 11895 31c2 0600     		.2byte	0x6
 11896 31c4 71       		.byte	0x71
 11897 31c5 00       		.sleb128 0
 11898 31c6 76       		.byte	0x76
 11899 31c7 00       		.sleb128 0
 11900 31c8 1C       		.byte	0x1c
 11901 31c9 9F       		.byte	0x9f
 11902 31ca 82000000 		.4byte	.LVL851
 11903 31ce 86000000 		.4byte	.LVL852
 11904 31d2 0700     		.2byte	0x7
 11905 31d4 76       		.byte	0x76
 11906 31d5 00       		.sleb128 0
 11907 31d6 20       		.byte	0x20
 11908 31d7 71       		.byte	0x71
 11909 31d8 00       		.sleb128 0
 11910 31d9 22       		.byte	0x22
 11911 31da 9F       		.byte	0x9f
 11912 31db 88000000 		.4byte	.LVL853
 11913 31df 8A000000 		.4byte	.LVL854
 11914 31e3 0100     		.2byte	0x1
 11915 31e5 53       		.byte	0x53
 11916 31e6 8A000000 		.4byte	.LVL854
 11917 31ea 96000000 		.4byte	.LVL855
 11918 31ee 0600     		.2byte	0x6
 11919 31f0 71       		.byte	0x71
 11920 31f1 00       		.sleb128 0
 11921 31f2 76       		.byte	0x76
 11922 31f3 00       		.sleb128 0
 11923 31f4 1C       		.byte	0x1c
 11924 31f5 9F       		.byte	0x9f
 11925 31f6 00000000 		.4byte	0
 11926 31fa 00000000 		.4byte	0
 11927              	.LLST17:
 11928 31fe C8000000 		.4byte	.LVL859
 11929 3202 CC000000 		.4byte	.LVL860
 11930 3206 0200     		.2byte	0x2
 11931 3208 30       		.byte	0x30
 11932 3209 9F       		.byte	0x9f
 11933 320a 00000000 		.4byte	0
 11934 320e 00000000 		.4byte	0
 11935              		.section	.debug_aranges,"",%progbits
 11936 0000 24000000 		.4byte	0x24
 11937 0004 0200     		.2byte	0x2
 11938 0006 00000000 		.4byte	.Ldebug_info0
 11939 000a 04       		.byte	0x4
 11940 000b 00       		.byte	0
ARM GAS  C:\Users\Ray\AppData\Local\Temp\ccn0usL8.s 			page 219


 11941 000c 0000     		.2byte	0
 11942 000e 0000     		.2byte	0
 11943 0010 00000000 		.4byte	.LFB0
 11944 0014 FC120000 		.4byte	.LFE0-.LFB0
 11945 0018 00000000 		.4byte	.LFB1
 11946 001c F0000000 		.4byte	.LFE1-.LFB1
 11947 0020 00000000 		.4byte	0
 11948 0024 00000000 		.4byte	0
 11949              		.section	.debug_ranges,"",%progbits
 11950              	.Ldebug_ranges0:
 11951 0000 00000000 		.4byte	.LFB0
 11952 0004 FC120000 		.4byte	.LFE0
 11953 0008 00000000 		.4byte	.LFB1
 11954 000c F0000000 		.4byte	.LFE1
 11955 0010 00000000 		.4byte	0
 11956 0014 00000000 		.4byte	0
 11957              		.section	.debug_line,"",%progbits
 11958              	.Ldebug_line0:
 11959 0000 56030000 		.section	.debug_str,"MS",%progbits,1
 11959      02003801 
 11959      00000201 
 11959      FB0E0D00 
 11959      01010101 
 11960              	.LASF5:
 11961 0000 5F5F7569 		.ascii	"__uint8_t\000"
 11961      6E74385F 
 11961      7400
 11962              	.LASF24:
 11963 000a 52495045 		.ascii	"RIPEMD160\000"
 11963      4D443136 
 11963      3000
 11964              	.LASF22:
 11965 0014 453A5C65 		.ascii	"E:\\eCTF\\ectf-2018-techsec-submission2\\strong-arm"
 11965      4354465C 
 11965      65637466 
 11965      2D323031 
 11965      382D7465 
 11966 0044 2E63796C 		.ascii	".cylib\000"
 11966      696200
 11967              	.LASF23:
 11968 004b 636F6D70 		.ascii	"compress\000"
 11968      72657373 
 11968      00
 11969              	.LASF21:
 11970 0054 7374726F 		.ascii	"strong-arm\\src\\ripemd160\\ripemd160.c\000"
 11970      6E672D61 
 11970      726D5C73 
 11970      72635C72 
 11970      6970656D 
 11971              	.LASF1:
 11972 0079 756E7369 		.ascii	"unsigned char\000"
 11972      676E6564 
 11972      20636861 
 11972      7200
 11973              	.LASF7:
 11974 0087 6C6F6E67 		.ascii	"long unsigned int\000"
 11974      20756E73 
ARM GAS  C:\Users\Ray\AppData\Local\Temp\ccn0usL8.s 			page 220


 11974      69676E65 
 11974      6420696E 
 11974      7400
 11975              	.LASF3:
 11976 0099 73686F72 		.ascii	"short unsigned int\000"
 11976      7420756E 
 11976      7369676E 
 11976      65642069 
 11976      6E7400
 11977              	.LASF12:
 11978 00ac 75696E74 		.ascii	"uint32_t\000"
 11978      33325F74 
 11978      00
 11979              	.LASF25:
 11980 00b5 6D656D73 		.ascii	"memset\000"
 11980      657400
 11981              	.LASF6:
 11982 00bc 5F5F7569 		.ascii	"__uint32_t\000"
 11982      6E743332 
 11982      5F7400
 11983              	.LASF19:
 11984 00c7 6368756E 		.ascii	"chunk\000"
 11984      6B00
 11985              	.LASF10:
 11986 00cd 756E7369 		.ascii	"unsigned int\000"
 11986      676E6564 
 11986      20696E74 
 11986      00
 11987              	.LASF9:
 11988 00da 6C6F6E67 		.ascii	"long long unsigned int\000"
 11988      206C6F6E 
 11988      6720756E 
 11988      7369676E 
 11988      65642069 
 11989              	.LASF11:
 11990 00f1 75696E74 		.ascii	"uint8_t\000"
 11990      385F7400 
 11991              	.LASF17:
 11992 00f9 68617368 		.ascii	"hash\000"
 11992      00
 11993              	.LASF13:
 11994 00fe 6C6F6E67 		.ascii	"long double\000"
 11994      20646F75 
 11994      626C6500 
 11995              	.LASF14:
 11996 010a 73697A65 		.ascii	"sizetype\000"
 11996      74797065 
 11996      00
 11997              	.LASF8:
 11998 0113 6C6F6E67 		.ascii	"long long int\000"
 11998      206C6F6E 
 11998      6720696E 
 11998      7400
 11999              	.LASF15:
 12000 0121 63686172 		.ascii	"char\000"
 12000      00
 12001              	.LASF2:
ARM GAS  C:\Users\Ray\AppData\Local\Temp\ccn0usL8.s 			page 221


 12002 0126 73686F72 		.ascii	"short int\000"
 12002      7420696E 
 12002      7400
 12003              	.LASF16:
 12004 0130 4D446275 		.ascii	"MDbuf\000"
 12004      6600
 12005              	.LASF18:
 12006 0136 64696765 		.ascii	"digest\000"
 12006      737400
 12007              	.LASF4:
 12008 013d 6C6F6E67 		.ascii	"long int\000"
 12008      20696E74 
 12008      00
 12009              	.LASF0:
 12010 0146 7369676E 		.ascii	"signed char\000"
 12010      65642063 
 12010      68617200 
 12011              	.LASF20:
 12012 0152 474E5520 		.ascii	"GNU C11 5.4.1 20160609 (release) [ARM/embedded-5-br"
 12012      43313120 
 12012      352E342E 
 12012      31203230 
 12012      31363036 
 12013 0185 616E6368 		.ascii	"anch revision 237715] -mcpu=cortex-m0 -mthumb -g -O"
 12013      20726576 
 12013      6973696F 
 12013      6E203233 
 12013      37373135 
 12014 01b8 73202D66 		.ascii	"s -ffunction-sections -ffat-lto-objects\000"
 12014      66756E63 
 12014      74696F6E 
 12014      2D736563 
 12014      74696F6E 
 12015              		.ident	"GCC: (GNU Tools for ARM Embedded Processors) 5.4.1 20160609 (release) [ARM/embedded-5-bran
