ARM GAS  C:\Users\Ray\AppData\Local\Temp\ccn0usL8.s 			page 1


   1              		.syntax unified
   2              		.cpu cortex-m0
   3              		.fpu softvfp
   4              		.eabi_attribute 20, 1
   5              		.eabi_attribute 21, 1
   6              		.eabi_attribute 23, 3
   7              		.eabi_attribute 24, 1
   8              		.eabi_attribute 25, 1
   9              		.eabi_attribute 26, 1
  10              		.eabi_attribute 30, 4
  11              		.eabi_attribute 34, 0
  12              		.eabi_attribute 18, 4
  13              		.thumb
  14              		.syntax unified
  15              		.file	"ripemd160.c"
  16              		.text
  17              	.Ltext0:
  18              		.cfi_sections	.debug_frame
  19              		.section	.text.compress,"ax",%progbits
  20              		.align	1
  21              		.code	16
  22              		.thumb_func
  23              		.type	compress, %function
  24              	compress:
  25              	.LFB0:
  26              		.file 1 "strong-arm\\src\\ripemd160\\ripemd160.c"
   1:strong-arm\src\ripemd160/ripemd160.c **** #include <strong-arm/ripemd160.h>
   2:strong-arm\src\ripemd160/ripemd160.c **** #include <string.h>
   3:strong-arm\src\ripemd160/ripemd160.c **** 
   4:strong-arm\src\ripemd160/ripemd160.c **** 
   5:strong-arm\src\ripemd160/ripemd160.c **** #define ROL(x, n)	(((x) << (n)) | ((x) >> (32-(n))))
   6:strong-arm\src\ripemd160/ripemd160.c **** 
   7:strong-arm\src\ripemd160/ripemd160.c **** #define F(x, y, z)		((x) ^ (y) ^ (z)) 
   8:strong-arm\src\ripemd160/ripemd160.c **** #define G(x, y, z)		(((x) & (y)) | (~(x) & (z))) 
   9:strong-arm\src\ripemd160/ripemd160.c **** #define H(x, y, z)		(((x) | ~(y)) ^ (z))
  10:strong-arm\src\ripemd160/ripemd160.c **** #define IQ(x, y, z)		(((x) & (z)) | ((y) & ~(z))) 
  11:strong-arm\src\ripemd160/ripemd160.c **** #define J(x, y, z)		((x) ^ ((y) | ~(z)))
  12:strong-arm\src\ripemd160/ripemd160.c **** 
  13:strong-arm\src\ripemd160/ripemd160.c **** #define FF(a, b, c, d, e, x, s)        {\
  14:strong-arm\src\ripemd160/ripemd160.c ****       (a) += F((b), (c), (d)) + (x);\
  15:strong-arm\src\ripemd160/ripemd160.c ****       (a) = ROL((a), (s)) + (e);\
  16:strong-arm\src\ripemd160/ripemd160.c ****       (c) = ROL((c), 10);\
  17:strong-arm\src\ripemd160/ripemd160.c ****    }
  18:strong-arm\src\ripemd160/ripemd160.c **** #define GG(a, b, c, d, e, x, s)        {\
  19:strong-arm\src\ripemd160/ripemd160.c ****       (a) += G((b), (c), (d)) + (x) + 0x5a827999UL;\
  20:strong-arm\src\ripemd160/ripemd160.c ****       (a) = ROL((a), (s)) + (e);\
  21:strong-arm\src\ripemd160/ripemd160.c ****       (c) = ROL((c), 10);\
  22:strong-arm\src\ripemd160/ripemd160.c ****    }
  23:strong-arm\src\ripemd160/ripemd160.c **** #define HH(a, b, c, d, e, x, s)        {\
  24:strong-arm\src\ripemd160/ripemd160.c ****       (a) += H((b), (c), (d)) + (x) + 0x6ed9eba1UL;\
  25:strong-arm\src\ripemd160/ripemd160.c ****       (a) = ROL((a), (s)) + (e);\
  26:strong-arm\src\ripemd160/ripemd160.c ****       (c) = ROL((c), 10);\
  27:strong-arm\src\ripemd160/ripemd160.c ****    }
  28:strong-arm\src\ripemd160/ripemd160.c **** #define II(a, b, c, d, e, x, s)        {\
  29:strong-arm\src\ripemd160/ripemd160.c ****       (a) += IQ((b), (c), (d)) + (x) + 0x8f1bbcdcUL;\
  30:strong-arm\src\ripemd160/ripemd160.c ****       (a) = ROL((a), (s)) + (e);\
  31:strong-arm\src\ripemd160/ripemd160.c ****       (c) = ROL((c), 10);\
ARM GAS  C:\Users\Ray\AppData\Local\Temp\ccn0usL8.s 			page 2


  32:strong-arm\src\ripemd160/ripemd160.c ****    }
  33:strong-arm\src\ripemd160/ripemd160.c **** #define JJ(a, b, c, d, e, x, s)        {\
  34:strong-arm\src\ripemd160/ripemd160.c ****       (a) += J((b), (c), (d)) + (x) + 0xa953fd4eUL;\
  35:strong-arm\src\ripemd160/ripemd160.c ****       (a) = ROL((a), (s)) + (e);\
  36:strong-arm\src\ripemd160/ripemd160.c ****       (c) = ROL((c), 10);\
  37:strong-arm\src\ripemd160/ripemd160.c ****    }
  38:strong-arm\src\ripemd160/ripemd160.c **** #define FFF(a, b, c, d, e, x, s)        {\
  39:strong-arm\src\ripemd160/ripemd160.c ****       (a) += F((b), (c), (d)) + (x);\
  40:strong-arm\src\ripemd160/ripemd160.c ****       (a) = ROL((a), (s)) + (e);\
  41:strong-arm\src\ripemd160/ripemd160.c ****       (c) = ROL((c), 10);\
  42:strong-arm\src\ripemd160/ripemd160.c ****    }
  43:strong-arm\src\ripemd160/ripemd160.c **** #define GGG(a, b, c, d, e, x, s)        {\
  44:strong-arm\src\ripemd160/ripemd160.c ****       (a) += G((b), (c), (d)) + (x) + 0x7a6d76e9UL;\
  45:strong-arm\src\ripemd160/ripemd160.c ****       (a) = ROL((a), (s)) + (e);\
  46:strong-arm\src\ripemd160/ripemd160.c ****       (c) = ROL((c), 10);\
  47:strong-arm\src\ripemd160/ripemd160.c ****    }
  48:strong-arm\src\ripemd160/ripemd160.c **** #define HHH(a, b, c, d, e, x, s)        {\
  49:strong-arm\src\ripemd160/ripemd160.c ****       (a) += H((b), (c), (d)) + (x) + 0x6d703ef3UL;\
  50:strong-arm\src\ripemd160/ripemd160.c ****       (a) = ROL((a), (s)) + (e);\
  51:strong-arm\src\ripemd160/ripemd160.c ****       (c) = ROL((c), 10);\
  52:strong-arm\src\ripemd160/ripemd160.c ****    }
  53:strong-arm\src\ripemd160/ripemd160.c **** #define III(a, b, c, d, e, x, s)        {\
  54:strong-arm\src\ripemd160/ripemd160.c ****       (a) += IQ((b), (c), (d)) + (x) + 0x5c4dd124UL;\
  55:strong-arm\src\ripemd160/ripemd160.c ****       (a) = ROL((a), (s)) + (e);\
  56:strong-arm\src\ripemd160/ripemd160.c ****       (c) = ROL((c), 10);\
  57:strong-arm\src\ripemd160/ripemd160.c ****    }
  58:strong-arm\src\ripemd160/ripemd160.c **** #define JJJ(a, b, c, d, e, x, s)        {\
  59:strong-arm\src\ripemd160/ripemd160.c ****       (a) += J((b), (c), (d)) + (x) + 0x50a28be6UL;\
  60:strong-arm\src\ripemd160/ripemd160.c ****       (a) = ROL((a), (s)) + (e);\
  61:strong-arm\src\ripemd160/ripemd160.c ****       (c) = ROL((c), 10);\
  62:strong-arm\src\ripemd160/ripemd160.c ****    }
  63:strong-arm\src\ripemd160/ripemd160.c **** 
  64:strong-arm\src\ripemd160/ripemd160.c **** 
  65:strong-arm\src\ripemd160/ripemd160.c **** static void compress(uint32_t *MDbuf, uint32_t *X);
  66:strong-arm\src\ripemd160/ripemd160.c **** 
  67:strong-arm\src\ripemd160/ripemd160.c **** 
  68:strong-arm\src\ripemd160/ripemd160.c **** static void compress(uint32_t *MDbuf, uint32_t *X)
  69:strong-arm\src\ripemd160/ripemd160.c **** {
  27              		.loc 1 69 0
  28              		.cfi_startproc
  29              		@ args = 0, pretend = 0, frame = 96
  30              		@ frame_needed = 0, uses_anonymous_args = 0
  31              	.LVL0:
  32 0000 F0B5     		push	{r4, r5, r6, r7, lr}
  33              		.cfi_def_cfa_offset 20
  34              		.cfi_offset 4, -20
  35              		.cfi_offset 5, -16
  36              		.cfi_offset 6, -12
  37              		.cfi_offset 7, -8
  38              		.cfi_offset 14, -4
  70:strong-arm\src\ripemd160/ripemd160.c **** 	uint32_t aa = MDbuf[0],  bb = MDbuf[1],  cc = MDbuf[2], dd = MDbuf[3],  ee = MDbuf[4];
  71:strong-arm\src\ripemd160/ripemd160.c **** 	uint32_t aaa = MDbuf[0], bbb = MDbuf[1], ccc = MDbuf[2], ddd = MDbuf[3], eee = MDbuf[4];
  72:strong-arm\src\ripemd160/ripemd160.c **** 	
  73:strong-arm\src\ripemd160/ripemd160.c **** 	/* round 1 */
  74:strong-arm\src\ripemd160/ripemd160.c **** 	FF(aa, bb, cc, dd, ee, X[ 0], 11);
  39              		.loc 1 74 0
  40 0002 0B68     		ldr	r3, [r1]
ARM GAS  C:\Users\Ray\AppData\Local\Temp\ccn0usL8.s 			page 3


  69:strong-arm\src\ripemd160/ripemd160.c **** 	uint32_t aa = MDbuf[0],  bb = MDbuf[1],  cc = MDbuf[2], dd = MDbuf[3],  ee = MDbuf[4];
  41              		.loc 1 69 0
  42 0004 99B0     		sub	sp, sp, #100
  43              		.cfi_def_cfa_offset 120
  44              		.loc 1 74 0
  45 0006 0193     		str	r3, [sp, #4]
  46 0008 019A     		ldr	r2, [sp, #4]
  47 000a 0368     		ldr	r3, [r0]
  69:strong-arm\src\ripemd160/ripemd160.c **** 	uint32_t aa = MDbuf[0],  bb = MDbuf[1],  cc = MDbuf[2], dd = MDbuf[3],  ee = MDbuf[4];
  48              		.loc 1 69 0
  49 000c 0091     		str	r1, [sp]
  50 000e 9B18     		adds	r3, r3, r2
  51              	.LVL1:
  52              		.loc 1 74 0
  53 0010 8168     		ldr	r1, [r0, #8]
  54              	.LVL2:
  55 0012 4268     		ldr	r2, [r0, #4]
  69:strong-arm\src\ripemd160/ripemd160.c **** 	uint32_t aa = MDbuf[0],  bb = MDbuf[1],  cc = MDbuf[2], dd = MDbuf[3],  ee = MDbuf[4];
  56              		.loc 1 69 0
  57 0014 0400     		movs	r4, r0
  58              		.loc 1 74 0
  59 0016 4A40     		eors	r2, r1
  60 0018 C168     		ldr	r1, [r0, #12]
  61 001a 4A40     		eors	r2, r1
  62 001c D218     		adds	r2, r2, r3
  63              	.LVL3:
  64 001e 1523     		movs	r3, #21
  65 0020 DA41     		rors	r2, r2, r3
  66              	.LVL4:
  67 0022 0369     		ldr	r3, [r0, #16]
  68 0024 1620     		movs	r0, #22
  69              	.LVL5:
  70 0026 9A18     		adds	r2, r3, r2
  71              	.LVL6:
  72 0028 A368     		ldr	r3, [r4, #8]
  73 002a C341     		rors	r3, r3, r0
  74 002c 1193     		str	r3, [sp, #68]
  75              	.LVL7:
  75:strong-arm\src\ripemd160/ripemd160.c **** 	FF(ee, aa, bb, cc, dd, X[ 1], 14);
  76              		.loc 1 75 0
  77 002e 009B     		ldr	r3, [sp]
  78              	.LVL8:
  79 0030 5B68     		ldr	r3, [r3, #4]
  80 0032 0293     		str	r3, [sp, #8]
  81 0034 0299     		ldr	r1, [sp, #8]
  82 0036 2369     		ldr	r3, [r4, #16]
  83 0038 5D18     		adds	r5, r3, r1
  84              	.LVL9:
  85 003a 1199     		ldr	r1, [sp, #68]
  86 003c 6368     		ldr	r3, [r4, #4]
  87 003e 4B40     		eors	r3, r1
  88 0040 1221     		movs	r1, #18
  89 0042 5340     		eors	r3, r2
  90 0044 5B19     		adds	r3, r3, r5
  91              	.LVL10:
  92 0046 CB41     		rors	r3, r3, r1
  93              	.LVL11:
ARM GAS  C:\Users\Ray\AppData\Local\Temp\ccn0usL8.s 			page 4


  94 0048 6568     		ldr	r5, [r4, #4]
  95              	.LVL12:
  96 004a E168     		ldr	r1, [r4, #12]
  97 004c C541     		rors	r5, r5, r0
  98 004e CB18     		adds	r3, r1, r3
  99              	.LVL13:
  76:strong-arm\src\ripemd160/ripemd160.c **** 	FF(dd, ee, aa, bb, cc, X[ 2], 15);
 100              		.loc 1 76 0
 101 0050 0099     		ldr	r1, [sp]
  75:strong-arm\src\ripemd160/ripemd160.c **** 	FF(ee, aa, bb, cc, dd, X[ 1], 14);
 102              		.loc 1 75 0
 103 0052 1295     		str	r5, [sp, #72]
 104              	.LVL14:
 105              		.loc 1 76 0
 106 0054 8968     		ldr	r1, [r1, #8]
  77:strong-arm\src\ripemd160/ripemd160.c **** 	FF(cc, dd, ee, aa, bb, X[ 3], 12);
 107              		.loc 1 77 0
 108 0056 1F00     		movs	r7, r3
  76:strong-arm\src\ripemd160/ripemd160.c **** 	FF(dd, ee, aa, bb, cc, X[ 2], 15);
 109              		.loc 1 76 0
 110 0058 0391     		str	r1, [sp, #12]
 111 005a 039D     		ldr	r5, [sp, #12]
 112              	.LVL15:
 113 005c E168     		ldr	r1, [r4, #12]
 114 005e 4E19     		adds	r6, r1, r5
 115              	.LVL16:
 116 0060 1121     		movs	r1, #17
 117 0062 129D     		ldr	r5, [sp, #72]
 118 0064 5540     		eors	r5, r2
 119 0066 5D40     		eors	r5, r3
 120 0068 AD19     		adds	r5, r5, r6
 121              	.LVL17:
 122 006a CD41     		rors	r5, r5, r1
 123              	.LVL18:
 124 006c 1199     		ldr	r1, [sp, #68]
 125 006e C241     		rors	r2, r2, r0
 126              	.LVL19:
 127 0070 4D19     		adds	r5, r1, r5
 128              	.LVL20:
 129              		.loc 1 77 0
 130 0072 0099     		ldr	r1, [sp]
 131 0074 5740     		eors	r7, r2
 132 0076 C968     		ldr	r1, [r1, #12]
 133 0078 6F40     		eors	r7, r5
 134 007a 0491     		str	r1, [sp, #16]
 135 007c 1199     		ldr	r1, [sp, #68]
 136 007e 049E     		ldr	r6, [sp, #16]
 137 0080 C341     		rors	r3, r3, r0
 138              	.LVL21:
 139 0082 8E19     		adds	r6, r1, r6
 140              	.LVL22:
 141 0084 1421     		movs	r1, #20
 142 0086 BF19     		adds	r7, r7, r6
 143 0088 CF41     		rors	r7, r7, r1
 144 008a 1299     		ldr	r1, [sp, #72]
 145 008c CF19     		adds	r7, r1, r7
 146              	.LVL23:
ARM GAS  C:\Users\Ray\AppData\Local\Temp\ccn0usL8.s 			page 5


  78:strong-arm\src\ripemd160/ripemd160.c **** 	FF(bb, cc, dd, ee, aa, X[ 4],  5);
 147              		.loc 1 78 0
 148 008e 0099     		ldr	r1, [sp]
 149 0090 0969     		ldr	r1, [r1, #16]
 150 0092 0591     		str	r1, [sp, #20]
 151 0094 059E     		ldr	r6, [sp, #20]
 152 0096 1299     		ldr	r1, [sp, #72]
 153 0098 8E19     		adds	r6, r1, r6
 154              	.LVL24:
 155 009a 2900     		movs	r1, r5
 156 009c 5940     		eors	r1, r3
 157 009e 7940     		eors	r1, r7
 158 00a0 8C46     		mov	ip, r1
 159 00a2 1B21     		movs	r1, #27
 160 00a4 6644     		add	r6, r6, ip
 161              	.LVL25:
 162 00a6 CE41     		rors	r6, r6, r1
 163              	.LVL26:
  79:strong-arm\src\ripemd160/ripemd160.c **** 	FF(aa, bb, cc, dd, ee, X[ 5],  8);
 164              		.loc 1 79 0
 165 00a8 0099     		ldr	r1, [sp]
  78:strong-arm\src\ripemd160/ripemd160.c **** 	FF(bb, cc, dd, ee, aa, X[ 4],  5);
 166              		.loc 1 78 0
 167 00aa 9619     		adds	r6, r2, r6
 168              	.LVL27:
 169              		.loc 1 79 0
 170 00ac 4969     		ldr	r1, [r1, #20]
  78:strong-arm\src\ripemd160/ripemd160.c **** 	FF(bb, cc, dd, ee, aa, X[ 4],  5);
 171              		.loc 1 78 0
 172 00ae C541     		rors	r5, r5, r0
 173              	.LVL28:
 174              		.loc 1 79 0
 175 00b0 0691     		str	r1, [sp, #24]
 176 00b2 5218     		adds	r2, r2, r1
 177              	.LVL29:
 178 00b4 3900     		movs	r1, r7
 179 00b6 6940     		eors	r1, r5
 180 00b8 7140     		eors	r1, r6
 181 00ba 8C46     		mov	ip, r1
 182 00bc 1821     		movs	r1, #24
 183 00be 6244     		add	r2, r2, ip
 184              	.LVL30:
 185 00c0 CA41     		rors	r2, r2, r1
 186              	.LVL31:
  80:strong-arm\src\ripemd160/ripemd160.c **** 	FF(ee, aa, bb, cc, dd, X[ 6],  7);
 187              		.loc 1 80 0
 188 00c2 0099     		ldr	r1, [sp]
  79:strong-arm\src\ripemd160/ripemd160.c **** 	FF(aa, bb, cc, dd, ee, X[ 5],  8);
 189              		.loc 1 79 0
 190 00c4 9A18     		adds	r2, r3, r2
 191              	.LVL32:
 192              		.loc 1 80 0
 193 00c6 8969     		ldr	r1, [r1, #24]
  79:strong-arm\src\ripemd160/ripemd160.c **** 	FF(aa, bb, cc, dd, ee, X[ 5],  8);
 194              		.loc 1 79 0
 195 00c8 C741     		rors	r7, r7, r0
 196              	.LVL33:
ARM GAS  C:\Users\Ray\AppData\Local\Temp\ccn0usL8.s 			page 6


 197              		.loc 1 80 0
 198 00ca 0791     		str	r1, [sp, #28]
 199 00cc 5B18     		adds	r3, r3, r1
 200              	.LVL34:
 201 00ce 3100     		movs	r1, r6
 202 00d0 7940     		eors	r1, r7
 203 00d2 5140     		eors	r1, r2
 204 00d4 8C46     		mov	ip, r1
 205 00d6 1921     		movs	r1, #25
 206 00d8 6344     		add	r3, r3, ip
 207              	.LVL35:
 208 00da CB41     		rors	r3, r3, r1
 209              	.LVL36:
  81:strong-arm\src\ripemd160/ripemd160.c **** 	FF(dd, ee, aa, bb, cc, X[ 7],  9);
 210              		.loc 1 81 0
 211 00dc 0099     		ldr	r1, [sp]
  80:strong-arm\src\ripemd160/ripemd160.c **** 	FF(ee, aa, bb, cc, dd, X[ 6],  7);
 212              		.loc 1 80 0
 213 00de EB18     		adds	r3, r5, r3
 214              	.LVL37:
 215              		.loc 1 81 0
 216 00e0 C969     		ldr	r1, [r1, #28]
  80:strong-arm\src\ripemd160/ripemd160.c **** 	FF(ee, aa, bb, cc, dd, X[ 6],  7);
 217              		.loc 1 80 0
 218 00e2 C641     		rors	r6, r6, r0
 219              	.LVL38:
 220              		.loc 1 81 0
 221 00e4 0891     		str	r1, [sp, #32]
 222 00e6 6D18     		adds	r5, r5, r1
 223              	.LVL39:
 224 00e8 1100     		movs	r1, r2
 225 00ea 7140     		eors	r1, r6
 226 00ec 5940     		eors	r1, r3
 227 00ee 8C46     		mov	ip, r1
 228 00f0 1721     		movs	r1, #23
 229 00f2 6544     		add	r5, r5, ip
 230              	.LVL40:
 231 00f4 CD41     		rors	r5, r5, r1
 232              	.LVL41:
  82:strong-arm\src\ripemd160/ripemd160.c **** 	FF(cc, dd, ee, aa, bb, X[ 8], 11);
 233              		.loc 1 82 0
 234 00f6 0099     		ldr	r1, [sp]
  81:strong-arm\src\ripemd160/ripemd160.c **** 	FF(dd, ee, aa, bb, cc, X[ 7],  9);
 235              		.loc 1 81 0
 236 00f8 7D19     		adds	r5, r7, r5
 237              	.LVL42:
 238              		.loc 1 82 0
 239 00fa 096A     		ldr	r1, [r1, #32]
  81:strong-arm\src\ripemd160/ripemd160.c **** 	FF(dd, ee, aa, bb, cc, X[ 7],  9);
 240              		.loc 1 81 0
 241 00fc C241     		rors	r2, r2, r0
 242              	.LVL43:
 243              		.loc 1 82 0
 244 00fe 0991     		str	r1, [sp, #36]
 245 0100 7F18     		adds	r7, r7, r1
 246              	.LVL44:
 247 0102 1900     		movs	r1, r3
ARM GAS  C:\Users\Ray\AppData\Local\Temp\ccn0usL8.s 			page 7


 248 0104 5140     		eors	r1, r2
 249 0106 6940     		eors	r1, r5
 250 0108 8C46     		mov	ip, r1
 251 010a 1521     		movs	r1, #21
 252 010c 6744     		add	r7, r7, ip
 253              	.LVL45:
 254 010e CF41     		rors	r7, r7, r1
 255              	.LVL46:
  83:strong-arm\src\ripemd160/ripemd160.c **** 	FF(bb, cc, dd, ee, aa, X[ 9], 13);
 256              		.loc 1 83 0
 257 0110 0099     		ldr	r1, [sp]
  82:strong-arm\src\ripemd160/ripemd160.c **** 	FF(cc, dd, ee, aa, bb, X[ 8], 11);
 258              		.loc 1 82 0
 259 0112 F719     		adds	r7, r6, r7
 260              	.LVL47:
 261              		.loc 1 83 0
 262 0114 496A     		ldr	r1, [r1, #36]
  82:strong-arm\src\ripemd160/ripemd160.c **** 	FF(cc, dd, ee, aa, bb, X[ 8], 11);
 263              		.loc 1 82 0
 264 0116 C341     		rors	r3, r3, r0
 265              	.LVL48:
 266              		.loc 1 83 0
 267 0118 0A91     		str	r1, [sp, #40]
 268 011a 7618     		adds	r6, r6, r1
 269              	.LVL49:
 270 011c 2900     		movs	r1, r5
 271 011e 5940     		eors	r1, r3
 272 0120 7940     		eors	r1, r7
 273 0122 8C46     		mov	ip, r1
 274 0124 1321     		movs	r1, #19
 275 0126 6644     		add	r6, r6, ip
 276              	.LVL50:
 277 0128 CE41     		rors	r6, r6, r1
 278              	.LVL51:
  84:strong-arm\src\ripemd160/ripemd160.c **** 	FF(aa, bb, cc, dd, ee, X[10], 14);
 279              		.loc 1 84 0
 280 012a 0099     		ldr	r1, [sp]
  83:strong-arm\src\ripemd160/ripemd160.c **** 	FF(bb, cc, dd, ee, aa, X[ 9], 13);
 281              		.loc 1 83 0
 282 012c 9619     		adds	r6, r2, r6
 283              	.LVL52:
 284              		.loc 1 84 0
 285 012e 896A     		ldr	r1, [r1, #40]
  83:strong-arm\src\ripemd160/ripemd160.c **** 	FF(bb, cc, dd, ee, aa, X[ 9], 13);
 286              		.loc 1 83 0
 287 0130 C541     		rors	r5, r5, r0
 288              	.LVL53:
 289              		.loc 1 84 0
 290 0132 0B91     		str	r1, [sp, #44]
 291 0134 5218     		adds	r2, r2, r1
 292              	.LVL54:
 293 0136 3900     		movs	r1, r7
 294 0138 6940     		eors	r1, r5
 295 013a 7140     		eors	r1, r6
 296 013c 8C46     		mov	ip, r1
 297 013e 1221     		movs	r1, #18
 298 0140 6244     		add	r2, r2, ip
ARM GAS  C:\Users\Ray\AppData\Local\Temp\ccn0usL8.s 			page 8


 299              	.LVL55:
 300 0142 CA41     		rors	r2, r2, r1
 301              	.LVL56:
  85:strong-arm\src\ripemd160/ripemd160.c **** 	FF(ee, aa, bb, cc, dd, X[11], 15);
 302              		.loc 1 85 0
 303 0144 0099     		ldr	r1, [sp]
  84:strong-arm\src\ripemd160/ripemd160.c **** 	FF(aa, bb, cc, dd, ee, X[10], 14);
 304              		.loc 1 84 0
 305 0146 9A18     		adds	r2, r3, r2
 306              	.LVL57:
 307              		.loc 1 85 0
 308 0148 C96A     		ldr	r1, [r1, #44]
  84:strong-arm\src\ripemd160/ripemd160.c **** 	FF(aa, bb, cc, dd, ee, X[10], 14);
 309              		.loc 1 84 0
 310 014a C741     		rors	r7, r7, r0
 311              	.LVL58:
 312              		.loc 1 85 0
 313 014c 0C91     		str	r1, [sp, #48]
 314 014e 5B18     		adds	r3, r3, r1
 315              	.LVL59:
 316 0150 3100     		movs	r1, r6
 317 0152 7940     		eors	r1, r7
 318 0154 5140     		eors	r1, r2
 319 0156 8C46     		mov	ip, r1
 320 0158 1121     		movs	r1, #17
 321 015a 6344     		add	r3, r3, ip
 322              	.LVL60:
 323 015c CB41     		rors	r3, r3, r1
 324              	.LVL61:
  86:strong-arm\src\ripemd160/ripemd160.c **** 	FF(dd, ee, aa, bb, cc, X[12],  6);
 325              		.loc 1 86 0
 326 015e 0099     		ldr	r1, [sp]
  85:strong-arm\src\ripemd160/ripemd160.c **** 	FF(ee, aa, bb, cc, dd, X[11], 15);
 327              		.loc 1 85 0
 328 0160 EB18     		adds	r3, r5, r3
 329              	.LVL62:
 330              		.loc 1 86 0
 331 0162 096B     		ldr	r1, [r1, #48]
  85:strong-arm\src\ripemd160/ripemd160.c **** 	FF(ee, aa, bb, cc, dd, X[11], 15);
 332              		.loc 1 85 0
 333 0164 C641     		rors	r6, r6, r0
 334              	.LVL63:
 335              		.loc 1 86 0
 336 0166 0D91     		str	r1, [sp, #52]
 337 0168 6D18     		adds	r5, r5, r1
 338              	.LVL64:
 339 016a 1100     		movs	r1, r2
 340 016c 7140     		eors	r1, r6
 341 016e 5940     		eors	r1, r3
 342 0170 8C46     		mov	ip, r1
 343 0172 1A21     		movs	r1, #26
 344 0174 6544     		add	r5, r5, ip
 345              	.LVL65:
 346 0176 CD41     		rors	r5, r5, r1
 347              	.LVL66:
  87:strong-arm\src\ripemd160/ripemd160.c **** 	FF(cc, dd, ee, aa, bb, X[13],  7);
 348              		.loc 1 87 0
ARM GAS  C:\Users\Ray\AppData\Local\Temp\ccn0usL8.s 			page 9


 349 0178 0099     		ldr	r1, [sp]
  86:strong-arm\src\ripemd160/ripemd160.c **** 	FF(dd, ee, aa, bb, cc, X[12],  6);
 350              		.loc 1 86 0
 351 017a 7D19     		adds	r5, r7, r5
 352              	.LVL67:
 353              		.loc 1 87 0
 354 017c 496B     		ldr	r1, [r1, #52]
  86:strong-arm\src\ripemd160/ripemd160.c **** 	FF(dd, ee, aa, bb, cc, X[12],  6);
 355              		.loc 1 86 0
 356 017e C241     		rors	r2, r2, r0
 357              	.LVL68:
 358              		.loc 1 87 0
 359 0180 0E91     		str	r1, [sp, #56]
 360 0182 7F18     		adds	r7, r7, r1
 361              	.LVL69:
 362 0184 1900     		movs	r1, r3
 363 0186 5140     		eors	r1, r2
 364 0188 6940     		eors	r1, r5
 365 018a 8C46     		mov	ip, r1
 366 018c 1921     		movs	r1, #25
 367 018e C341     		rors	r3, r3, r0
 368              	.LVL70:
 369 0190 6744     		add	r7, r7, ip
 370              	.LVL71:
 371 0192 CF41     		rors	r7, r7, r1
 372              	.LVL72:
 373 0194 1393     		str	r3, [sp, #76]
  88:strong-arm\src\ripemd160/ripemd160.c **** 	FF(bb, cc, dd, ee, aa, X[14],  9);
 374              		.loc 1 88 0
 375 0196 009B     		ldr	r3, [sp]
  87:strong-arm\src\ripemd160/ripemd160.c **** 	FF(cc, dd, ee, aa, bb, X[13],  7);
 376              		.loc 1 87 0
 377 0198 F719     		adds	r7, r6, r7
 378              	.LVL73:
 379              		.loc 1 88 0
 380 019a 996B     		ldr	r1, [r3, #56]
 381 019c 139B     		ldr	r3, [sp, #76]
 382 019e 0F91     		str	r1, [sp, #60]
 383 01a0 7618     		adds	r6, r6, r1
 384              	.LVL74:
 385 01a2 2900     		movs	r1, r5
 386 01a4 5940     		eors	r1, r3
 387 01a6 7940     		eors	r1, r7
 388 01a8 8C46     		mov	ip, r1
 389 01aa 1721     		movs	r1, #23
 390 01ac 6644     		add	r6, r6, ip
 391              	.LVL75:
 392 01ae CE41     		rors	r6, r6, r1
 393              	.LVL76:
  89:strong-arm\src\ripemd160/ripemd160.c **** 	FF(aa, bb, cc, dd, ee, X[15],  8);
 394              		.loc 1 89 0
 395 01b0 009B     		ldr	r3, [sp]
  88:strong-arm\src\ripemd160/ripemd160.c **** 	FF(bb, cc, dd, ee, aa, X[14],  9);
 396              		.loc 1 88 0
 397 01b2 9619     		adds	r6, r2, r6
 398              	.LVL77:
 399              		.loc 1 89 0
ARM GAS  C:\Users\Ray\AppData\Local\Temp\ccn0usL8.s 			page 10


 400 01b4 D96B     		ldr	r1, [r3, #60]
  88:strong-arm\src\ripemd160/ripemd160.c **** 	FF(bb, cc, dd, ee, aa, X[14],  9);
 401              		.loc 1 88 0
 402 01b6 C541     		rors	r5, r5, r0
 403              	.LVL78:
 404              		.loc 1 89 0
 405 01b8 1091     		str	r1, [sp, #64]
 406 01ba 5218     		adds	r2, r2, r1
 407              	.LVL79:
 408 01bc 3900     		movs	r1, r7
 409 01be 6940     		eors	r1, r5
 410 01c0 7140     		eors	r1, r6
 411 01c2 8A18     		adds	r2, r1, r2
 412              	.LVL80:
 413 01c4 1821     		movs	r1, #24
 414 01c6 CA41     		rors	r2, r2, r1
 415              	.LVL81:
 416 01c8 139B     		ldr	r3, [sp, #76]
 417 01ca 0899     		ldr	r1, [sp, #32]
 418 01cc 9A18     		adds	r2, r3, r2
 419              	.LVL82:
 420 01ce FE4B     		ldr	r3, .L2
 421 01d0 C741     		rors	r7, r7, r0
 422              	.LVL83:
 423 01d2 C918     		adds	r1, r1, r3
 424 01d4 139B     		ldr	r3, [sp, #76]
 425 01d6 CB18     		adds	r3, r1, r3
 426              	.LVL84:
  90:strong-arm\src\ripemd160/ripemd160.c **** 	
  91:strong-arm\src\ripemd160/ripemd160.c **** 	/* round 2 */
  92:strong-arm\src\ripemd160/ripemd160.c **** 	GG(ee, aa, bb, cc, dd, X[ 7],  7);
 427              		.loc 1 92 0
 428 01d8 3100     		movs	r1, r6
 429 01da 7940     		eors	r1, r7
 430 01dc 1140     		ands	r1, r2
 431 01de 7940     		eors	r1, r7
 432 01e0 CB18     		adds	r3, r1, r3
 433              	.LVL85:
 434 01e2 1921     		movs	r1, #25
 435 01e4 CB41     		rors	r3, r3, r1
 436              	.LVL86:
 437 01e6 EB18     		adds	r3, r5, r3
 438 01e8 9C46     		mov	ip, r3
 439              	.LVL87:
 440 01ea 0599     		ldr	r1, [sp, #20]
 441 01ec F64B     		ldr	r3, .L2
 442              	.LVL88:
 443 01ee C641     		rors	r6, r6, r0
 444              	.LVL89:
 445 01f0 C918     		adds	r1, r1, r3
 446 01f2 4D19     		adds	r5, r1, r5
 447              	.LVL90:
  93:strong-arm\src\ripemd160/ripemd160.c **** 	GG(dd, ee, aa, bb, cc, X[ 4],  6);
 448              		.loc 1 93 0
 449 01f4 1100     		movs	r1, r2
 450 01f6 6346     		mov	r3, ip
 451 01f8 7140     		eors	r1, r6
ARM GAS  C:\Users\Ray\AppData\Local\Temp\ccn0usL8.s 			page 11


 452 01fa 1940     		ands	r1, r3
 453 01fc 1A23     		movs	r3, #26
 454 01fe 7140     		eors	r1, r6
 455 0200 4D19     		adds	r5, r1, r5
 456              	.LVL91:
 457 0202 DD41     		rors	r5, r5, r3
 458              	.LVL92:
 459 0204 7B19     		adds	r3, r7, r5
 460 0206 0093     		str	r3, [sp]
 461              	.LVL93:
 462 0208 EF49     		ldr	r1, .L2
 463 020a 0E9B     		ldr	r3, [sp, #56]
 464              	.LVL94:
 465 020c C241     		rors	r2, r2, r0
 466              	.LVL95:
 467 020e 5918     		adds	r1, r3, r1
 468 0210 CF19     		adds	r7, r1, r7
 469              	.LVL96:
  94:strong-arm\src\ripemd160/ripemd160.c **** 	GG(cc, dd, ee, aa, bb, X[13],  8);
 470              		.loc 1 94 0
 471 0212 6146     		mov	r1, ip
 472 0214 009B     		ldr	r3, [sp]
 473 0216 5140     		eors	r1, r2
 474 0218 1940     		ands	r1, r3
 475 021a 1823     		movs	r3, #24
 476 021c 5140     		eors	r1, r2
 477 021e CF19     		adds	r7, r1, r7
 478              	.LVL97:
 479 0220 DF41     		rors	r7, r7, r3
 480              	.LVL98:
 481 0222 6346     		mov	r3, ip
 482 0224 C341     		rors	r3, r3, r0
 483 0226 0299     		ldr	r1, [sp, #8]
 484 0228 E74D     		ldr	r5, .L2
 485 022a F719     		adds	r7, r6, r7
 486              	.LVL99:
 487 022c 4919     		adds	r1, r1, r5
  95:strong-arm\src\ripemd160/ripemd160.c **** 	GG(bb, cc, dd, ee, aa, X[ 1], 13);
 488              		.loc 1 95 0
 489 022e 1325     		movs	r5, #19
 490 0230 8E19     		adds	r6, r1, r6
 491              	.LVL100:
 492 0232 0099     		ldr	r1, [sp]
 493 0234 5940     		eors	r1, r3
 494 0236 3940     		ands	r1, r7
 495 0238 5940     		eors	r1, r3
 496 023a 8919     		adds	r1, r1, r6
 497              	.LVL101:
 498 023c E941     		rors	r1, r1, r5
 499              	.LVL102:
 500 023e 5118     		adds	r1, r2, r1
 501 0240 8C46     		mov	ip, r1
 502              	.LVL103:
 503 0242 0B9E     		ldr	r6, [sp, #44]
 504 0244 E049     		ldr	r1, .L2
 505              	.LVL104:
 506 0246 009D     		ldr	r5, [sp]
ARM GAS  C:\Users\Ray\AppData\Local\Temp\ccn0usL8.s 			page 12


 507 0248 7618     		adds	r6, r6, r1
 508 024a C541     		rors	r5, r5, r0
 509              	.LVL105:
 510 024c B218     		adds	r2, r6, r2
 511              	.LVL106:
  96:strong-arm\src\ripemd160/ripemd160.c **** 	GG(aa, bb, cc, dd, ee, X[10], 11);
 512              		.loc 1 96 0
 513 024e 3E00     		movs	r6, r7
 514 0250 6146     		mov	r1, ip
 515 0252 6E40     		eors	r6, r5
 516 0254 0E40     		ands	r6, r1
 517 0256 6E40     		eors	r6, r5
 518 0258 B618     		adds	r6, r6, r2
 519              	.LVL107:
 520 025a 1522     		movs	r2, #21
 521 025c D641     		rors	r6, r6, r2
 522              	.LVL108:
 523 025e DA49     		ldr	r1, .L2
 524 0260 079A     		ldr	r2, [sp, #28]
 525 0262 C741     		rors	r7, r7, r0
 526              	.LVL109:
 527 0264 5218     		adds	r2, r2, r1
 528 0266 9E19     		adds	r6, r3, r6
 529              	.LVL110:
 530 0268 D318     		adds	r3, r2, r3
 531              	.LVL111:
  97:strong-arm\src\ripemd160/ripemd160.c **** 	GG(ee, aa, bb, cc, dd, X[ 6],  9);
 532              		.loc 1 97 0
 533 026a 6246     		mov	r2, ip
 534 026c 7A40     		eors	r2, r7
 535 026e 3240     		ands	r2, r6
 536 0270 7A40     		eors	r2, r7
 537 0272 D318     		adds	r3, r2, r3
 538              	.LVL112:
 539 0274 1722     		movs	r2, #23
 540 0276 D341     		rors	r3, r3, r2
 541              	.LVL113:
 542 0278 6146     		mov	r1, ip
 543 027a EB18     		adds	r3, r5, r3
 544 027c 0093     		str	r3, [sp]
 545              	.LVL114:
 546 027e 109A     		ldr	r2, [sp, #64]
 547 0280 D14B     		ldr	r3, .L2
 548              	.LVL115:
 549 0282 C141     		rors	r1, r1, r0
 550              	.LVL116:
 551 0284 D218     		adds	r2, r2, r3
 552 0286 5519     		adds	r5, r2, r5
 553              	.LVL117:
  98:strong-arm\src\ripemd160/ripemd160.c **** 	GG(dd, ee, aa, bb, cc, X[15],  7);
 554              		.loc 1 98 0
 555 0288 3200     		movs	r2, r6
 556 028a 009B     		ldr	r3, [sp]
 557 028c 4A40     		eors	r2, r1
 558 028e 1A40     		ands	r2, r3
 559 0290 1923     		movs	r3, #25
 560 0292 4A40     		eors	r2, r1
ARM GAS  C:\Users\Ray\AppData\Local\Temp\ccn0usL8.s 			page 13


 561 0294 5519     		adds	r5, r2, r5
 562              	.LVL118:
 563 0296 DD41     		rors	r5, r5, r3
 564              	.LVL119:
 565 0298 7B19     		adds	r3, r7, r5
 566 029a 9C46     		mov	ip, r3
 567              	.LVL120:
 568 029c CA4A     		ldr	r2, .L2
 569 029e 049B     		ldr	r3, [sp, #16]
 570              	.LVL121:
 571 02a0 C641     		rors	r6, r6, r0
 572              	.LVL122:
 573 02a2 9A18     		adds	r2, r3, r2
  99:strong-arm\src\ripemd160/ripemd160.c **** 	GG(cc, dd, ee, aa, bb, X[ 3], 15);
 574              		.loc 1 99 0
 575 02a4 6346     		mov	r3, ip
 576 02a6 D719     		adds	r7, r2, r7
 577              	.LVL123:
 578 02a8 009A     		ldr	r2, [sp]
 579 02aa C74D     		ldr	r5, .L2
 580 02ac 7240     		eors	r2, r6
 581 02ae 1A40     		ands	r2, r3
 582 02b0 1123     		movs	r3, #17
 583 02b2 7240     		eors	r2, r6
 584 02b4 D719     		adds	r7, r2, r7
 585              	.LVL124:
 586 02b6 DF41     		rors	r7, r7, r3
 587              	.LVL125:
 588 02b8 0D9A     		ldr	r2, [sp, #52]
 589 02ba 009B     		ldr	r3, [sp]
 590 02bc 5219     		adds	r2, r2, r5
 591 02be C341     		rors	r3, r3, r0
 592 02c0 CF19     		adds	r7, r1, r7
 593              	.LVL126:
 594 02c2 5118     		adds	r1, r2, r1
 595              	.LVL127:
 100:strong-arm\src\ripemd160/ripemd160.c **** 	GG(bb, cc, dd, ee, aa, X[12],  7);
 596              		.loc 1 100 0
 597 02c4 6246     		mov	r2, ip
 598 02c6 5A40     		eors	r2, r3
 599 02c8 3A40     		ands	r2, r7
 600 02ca 5A40     		eors	r2, r3
 601 02cc 5118     		adds	r1, r2, r1
 602              	.LVL128:
 603 02ce 1922     		movs	r2, #25
 604 02d0 D141     		rors	r1, r1, r2
 605              	.LVL129:
 606 02d2 6546     		mov	r5, ip
 607 02d4 7218     		adds	r2, r6, r1
 608 02d6 0092     		str	r2, [sp]
 609              	.LVL130:
 610 02d8 BB49     		ldr	r1, .L2
 611 02da 019A     		ldr	r2, [sp, #4]
 612              	.LVL131:
 613 02dc C541     		rors	r5, r5, r0
 614              	.LVL132:
 615 02de 5218     		adds	r2, r2, r1
ARM GAS  C:\Users\Ray\AppData\Local\Temp\ccn0usL8.s 			page 14


 616 02e0 9619     		adds	r6, r2, r6
 617              	.LVL133:
 101:strong-arm\src\ripemd160/ripemd160.c **** 	GG(aa, bb, cc, dd, ee, X[ 0], 12);
 618              		.loc 1 101 0
 619 02e2 3A00     		movs	r2, r7
 620 02e4 0099     		ldr	r1, [sp]
 621 02e6 6A40     		eors	r2, r5
 622 02e8 0A40     		ands	r2, r1
 623 02ea 6A40     		eors	r2, r5
 624 02ec 9619     		adds	r6, r2, r6
 625              	.LVL134:
 626 02ee 1422     		movs	r2, #20
 627 02f0 D641     		rors	r6, r6, r2
 628              	.LVL135:
 629 02f2 C741     		rors	r7, r7, r0
 630              	.LVL136:
 631 02f4 0A9A     		ldr	r2, [sp, #40]
 632 02f6 B449     		ldr	r1, .L2
 633 02f8 9E19     		adds	r6, r3, r6
 634              	.LVL137:
 635 02fa 5218     		adds	r2, r2, r1
 636 02fc D318     		adds	r3, r2, r3
 637              	.LVL138:
 102:strong-arm\src\ripemd160/ripemd160.c **** 	GG(ee, aa, bb, cc, dd, X[ 9], 15);
 638              		.loc 1 102 0
 639 02fe 009A     		ldr	r2, [sp]
 640 0300 0099     		ldr	r1, [sp]
 641 0302 7A40     		eors	r2, r7
 642 0304 3240     		ands	r2, r6
 643 0306 7A40     		eors	r2, r7
 644 0308 D218     		adds	r2, r2, r3
 645              	.LVL139:
 646 030a 1123     		movs	r3, #17
 647 030c DA41     		rors	r2, r2, r3
 648              	.LVL140:
 649 030e AB18     		adds	r3, r5, r2
 650 0310 9C46     		mov	ip, r3
 651              	.LVL141:
 652 0312 AD4A     		ldr	r2, .L2
 653 0314 069B     		ldr	r3, [sp, #24]
 654              	.LVL142:
 655 0316 C141     		rors	r1, r1, r0
 656              	.LVL143:
 657 0318 9B18     		adds	r3, r3, r2
 658 031a 5D19     		adds	r5, r3, r5
 659              	.LVL144:
 103:strong-arm\src\ripemd160/ripemd160.c **** 	GG(dd, ee, aa, bb, cc, X[ 5],  9);
 660              		.loc 1 103 0
 661 031c 3300     		movs	r3, r6
 662 031e 6246     		mov	r2, ip
 663 0320 4B40     		eors	r3, r1
 664 0322 1340     		ands	r3, r2
 665 0324 4B40     		eors	r3, r1
 666 0326 5D19     		adds	r5, r3, r5
 667              	.LVL145:
 668 0328 1723     		movs	r3, #23
 669 032a DD41     		rors	r5, r5, r3
ARM GAS  C:\Users\Ray\AppData\Local\Temp\ccn0usL8.s 			page 15


 670              	.LVL146:
 671 032c A64A     		ldr	r2, .L2
 672 032e 039B     		ldr	r3, [sp, #12]
 673 0330 C641     		rors	r6, r6, r0
 674              	.LVL147:
 675 0332 9B18     		adds	r3, r3, r2
 676 0334 7D19     		adds	r5, r7, r5
 677              	.LVL148:
 678 0336 DF19     		adds	r7, r3, r7
 679              	.LVL149:
 104:strong-arm\src\ripemd160/ripemd160.c **** 	GG(cc, dd, ee, aa, bb, X[ 2], 11);
 680              		.loc 1 104 0
 681 0338 6346     		mov	r3, ip
 682 033a 1522     		movs	r2, #21
 683 033c 7340     		eors	r3, r6
 684 033e 2B40     		ands	r3, r5
 685 0340 7340     		eors	r3, r6
 686 0342 DB19     		adds	r3, r3, r7
 687              	.LVL150:
 688 0344 D341     		rors	r3, r3, r2
 689              	.LVL151:
 690 0346 6246     		mov	r2, ip
 691 0348 CB18     		adds	r3, r1, r3
 692 034a 0093     		str	r3, [sp]
 693              	.LVL152:
 694 034c 0F9F     		ldr	r7, [sp, #60]
 695 034e 9E4B     		ldr	r3, .L2
 696              	.LVL153:
 697 0350 C241     		rors	r2, r2, r0
 698              	.LVL154:
 699 0352 FF18     		adds	r7, r7, r3
 700 0354 7918     		adds	r1, r7, r1
 701              	.LVL155:
 105:strong-arm\src\ripemd160/ripemd160.c **** 	GG(bb, cc, dd, ee, aa, X[14],  7);
 702              		.loc 1 105 0
 703 0356 2F00     		movs	r7, r5
 704 0358 009B     		ldr	r3, [sp]
 705 035a 5740     		eors	r7, r2
 706 035c 1F40     		ands	r7, r3
 707 035e 1923     		movs	r3, #25
 708 0360 5740     		eors	r7, r2
 709 0362 7918     		adds	r1, r7, r1
 710              	.LVL156:
 711 0364 D941     		rors	r1, r1, r3
 712              	.LVL157:
 713 0366 7318     		adds	r3, r6, r1
 714 0368 9C46     		mov	ip, r3
 715              	.LVL158:
 716 036a 974F     		ldr	r7, .L2
 717 036c 0C9B     		ldr	r3, [sp, #48]
 718              	.LVL159:
 719 036e C541     		rors	r5, r5, r0
 720              	.LVL160:
 721 0370 DF19     		adds	r7, r3, r7
 106:strong-arm\src\ripemd160/ripemd160.c **** 	GG(aa, bb, cc, dd, ee, X[11], 13);
 722              		.loc 1 106 0
 723 0372 6346     		mov	r3, ip
ARM GAS  C:\Users\Ray\AppData\Local\Temp\ccn0usL8.s 			page 16


 724 0374 BE19     		adds	r6, r7, r6
 725              	.LVL161:
 726 0376 009F     		ldr	r7, [sp]
 727 0378 9349     		ldr	r1, .L2
 728 037a 6F40     		eors	r7, r5
 729 037c 1F40     		ands	r7, r3
 730 037e 1323     		movs	r3, #19
 731 0380 6F40     		eors	r7, r5
 732 0382 BE19     		adds	r6, r7, r6
 733              	.LVL162:
 734 0384 DE41     		rors	r6, r6, r3
 735              	.LVL163:
 736 0386 099F     		ldr	r7, [sp, #36]
 737 0388 009B     		ldr	r3, [sp]
 738 038a 7F18     		adds	r7, r7, r1
 739 038c C341     		rors	r3, r3, r0
 740 038e 9619     		adds	r6, r2, r6
 741              	.LVL164:
 742 0390 BA18     		adds	r2, r7, r2
 743              	.LVL165:
 107:strong-arm\src\ripemd160/ripemd160.c **** 	GG(ee, aa, bb, cc, dd, X[ 8], 12);
 744              		.loc 1 107 0
 745 0392 6746     		mov	r7, ip
 746 0394 1421     		movs	r1, #20
 747 0396 5F40     		eors	r7, r3
 748 0398 3740     		ands	r7, r6
 749 039a 5F40     		eors	r7, r3
 750 039c BA18     		adds	r2, r7, r2
 751              	.LVL166:
 752 039e CA41     		rors	r2, r2, r1
 753              	.LVL167:
 754 03a0 AA18     		adds	r2, r5, r2
 755 03a2 0092     		str	r2, [sp]
 756              	.LVL168:
 757 03a4 049F     		ldr	r7, [sp, #16]
 758 03a6 894A     		ldr	r2, .L2+4
 759              	.LVL169:
 760 03a8 6146     		mov	r1, ip
 761 03aa BF18     		adds	r7, r7, r2
 762 03ac 7D19     		adds	r5, r7, r5
 763              	.LVL170:
 108:strong-arm\src\ripemd160/ripemd160.c **** 	
 109:strong-arm\src\ripemd160/ripemd160.c **** 	/* round 3 */
 110:strong-arm\src\ripemd160/ripemd160.c **** 	HH(dd, ee, aa, bb, cc, X[ 3], 11);
 764              		.loc 1 110 0
 765 03ae F743     		mvns	r7, r6
 766 03b0 009A     		ldr	r2, [sp]
 107:strong-arm\src\ripemd160/ripemd160.c **** 	GG(ee, aa, bb, cc, dd, X[ 8], 12);
 767              		.loc 1 107 0
 768 03b2 C141     		rors	r1, r1, r0
 769              	.LVL171:
 770              		.loc 1 110 0
 771 03b4 1743     		orrs	r7, r2
 772 03b6 1522     		movs	r2, #21
 773 03b8 4F40     		eors	r7, r1
 774 03ba 7D19     		adds	r5, r7, r5
 775              	.LVL172:
ARM GAS  C:\Users\Ray\AppData\Local\Temp\ccn0usL8.s 			page 17


 776 03bc D541     		rors	r5, r5, r2
 777              	.LVL173:
 778 03be 834F     		ldr	r7, .L2+4
 779 03c0 0B9A     		ldr	r2, [sp, #44]
 780 03c2 5D19     		adds	r5, r3, r5
 781              	.LVL174:
 782 03c4 D719     		adds	r7, r2, r7
 111:strong-arm\src\ripemd160/ripemd160.c **** 	HH(cc, dd, ee, aa, bb, X[10], 13);
 783              		.loc 1 111 0
 784 03c6 009A     		ldr	r2, [sp]
 785 03c8 FB18     		adds	r3, r7, r3
 786              	.LVL175:
 787 03ca D743     		mvns	r7, r2
 110:strong-arm\src\ripemd160/ripemd160.c **** 	HH(cc, dd, ee, aa, bb, X[10], 13);
 788              		.loc 1 110 0
 789 03cc C641     		rors	r6, r6, r0
 790              	.LVL176:
 791              		.loc 1 111 0
 792 03ce 1322     		movs	r2, #19
 793 03d0 2F43     		orrs	r7, r5
 794 03d2 7740     		eors	r7, r6
 795 03d4 FB18     		adds	r3, r7, r3
 796              	.LVL177:
 797 03d6 D341     		rors	r3, r3, r2
 798              	.LVL178:
 799 03d8 CB18     		adds	r3, r1, r3
 800 03da 9C46     		mov	ip, r3
 801              	.LVL179:
 802 03dc 0F9F     		ldr	r7, [sp, #60]
 803 03de 7B4B     		ldr	r3, .L2+4
 804              	.LVL180:
 805 03e0 009A     		ldr	r2, [sp]
 806 03e2 FF18     		adds	r7, r7, r3
 807 03e4 7918     		adds	r1, r7, r1
 808              	.LVL181:
 112:strong-arm\src\ripemd160/ripemd160.c **** 	HH(bb, cc, dd, ee, aa, X[14],  6);
 809              		.loc 1 112 0
 810 03e6 6346     		mov	r3, ip
 811 03e8 EF43     		mvns	r7, r5
 111:strong-arm\src\ripemd160/ripemd160.c **** 	HH(cc, dd, ee, aa, bb, X[10], 13);
 812              		.loc 1 111 0
 813 03ea C241     		rors	r2, r2, r0
 814              	.LVL182:
 815              		.loc 1 112 0
 816 03ec 1F43     		orrs	r7, r3
 817 03ee 1A23     		movs	r3, #26
 818 03f0 5740     		eors	r7, r2
 819 03f2 7918     		adds	r1, r7, r1
 820              	.LVL183:
 821 03f4 D941     		rors	r1, r1, r3
 822              	.LVL184:
 823 03f6 754F     		ldr	r7, .L2+4
 824 03f8 059B     		ldr	r3, [sp, #20]
 825 03fa 7118     		adds	r1, r6, r1
 826              	.LVL185:
 827 03fc DF19     		adds	r7, r3, r7
 113:strong-arm\src\ripemd160/ripemd160.c **** 	HH(aa, bb, cc, dd, ee, X[ 4],  7);
ARM GAS  C:\Users\Ray\AppData\Local\Temp\ccn0usL8.s 			page 18


 828              		.loc 1 113 0
 829 03fe 6346     		mov	r3, ip
 830 0400 BE19     		adds	r6, r7, r6
 831              	.LVL186:
 832 0402 DF43     		mvns	r7, r3
 112:strong-arm\src\ripemd160/ripemd160.c **** 	HH(bb, cc, dd, ee, aa, X[14],  6);
 833              		.loc 1 112 0
 834 0404 C541     		rors	r5, r5, r0
 835              	.LVL187:
 836              		.loc 1 113 0
 837 0406 1923     		movs	r3, #25
 838 0408 0F43     		orrs	r7, r1
 839 040a 6F40     		eors	r7, r5
 840 040c BF19     		adds	r7, r7, r6
 841              	.LVL188:
 842 040e DF41     		rors	r7, r7, r3
 843              	.LVL189:
 844 0410 6346     		mov	r3, ip
 845 0412 C341     		rors	r3, r3, r0
 846 0414 9C46     		mov	ip, r3
 847              	.LVL190:
 848 0416 0A9E     		ldr	r6, [sp, #40]
 849 0418 6C4B     		ldr	r3, .L2+4
 850 041a D719     		adds	r7, r2, r7
 851              	.LVL191:
 852 041c F618     		adds	r6, r6, r3
 853 041e B218     		adds	r2, r6, r2
 854              	.LVL192:
 114:strong-arm\src\ripemd160/ripemd160.c **** 	HH(ee, aa, bb, cc, dd, X[ 9], 14);
 855              		.loc 1 114 0
 856 0420 CE43     		mvns	r6, r1
 857 0422 6346     		mov	r3, ip
 858 0424 3E43     		orrs	r6, r7
 859 0426 5E40     		eors	r6, r3
 860 0428 1223     		movs	r3, #18
 861 042a B218     		adds	r2, r6, r2
 862              	.LVL193:
 863 042c DA41     		rors	r2, r2, r3
 864              	.LVL194:
 865 042e 674E     		ldr	r6, .L2+4
 866              	.LVL195:
 867 0430 109B     		ldr	r3, [sp, #64]
 868 0432 AA18     		adds	r2, r5, r2
 869              	.LVL196:
 870 0434 9E19     		adds	r6, r3, r6
 871 0436 7519     		adds	r5, r6, r5
 872              	.LVL197:
 115:strong-arm\src\ripemd160/ripemd160.c **** 	HH(dd, ee, aa, bb, cc, X[15],  9);
 873              		.loc 1 115 0
 874 0438 FE43     		mvns	r6, r7
 114:strong-arm\src\ripemd160/ripemd160.c **** 	HH(ee, aa, bb, cc, dd, X[ 9], 14);
 875              		.loc 1 114 0
 876 043a C141     		rors	r1, r1, r0
 877              	.LVL198:
 878              		.loc 1 115 0
 879 043c 1723     		movs	r3, #23
 880 043e 1643     		orrs	r6, r2
ARM GAS  C:\Users\Ray\AppData\Local\Temp\ccn0usL8.s 			page 19


 881 0440 4E40     		eors	r6, r1
 882 0442 7619     		adds	r6, r6, r5
 883              	.LVL199:
 884 0444 DE41     		rors	r6, r6, r3
 885              	.LVL200:
 886 0446 614D     		ldr	r5, .L2+4
 887              	.LVL201:
 888 0448 099B     		ldr	r3, [sp, #36]
 889 044a C741     		rors	r7, r7, r0
 890              	.LVL202:
 891 044c 5D19     		adds	r5, r3, r5
 892 044e 2B00     		movs	r3, r5
 116:strong-arm\src\ripemd160/ripemd160.c **** 	HH(cc, dd, ee, aa, bb, X[ 8], 13);
 893              		.loc 1 116 0
 894 0450 D543     		mvns	r5, r2
 115:strong-arm\src\ripemd160/ripemd160.c **** 	HH(dd, ee, aa, bb, cc, X[15],  9);
 895              		.loc 1 115 0
 896 0452 6644     		add	r6, r6, ip
 897              	.LVL203:
 898              		.loc 1 116 0
 899 0454 3543     		orrs	r5, r6
 900 0456 7D40     		eors	r5, r7
 901 0458 6344     		add	r3, r3, ip
 902              	.LVL204:
 903 045a EB18     		adds	r3, r5, r3
 904              	.LVL205:
 905 045c 1325     		movs	r5, #19
 906 045e EB41     		rors	r3, r3, r5
 907              	.LVL206:
 908 0460 CB18     		adds	r3, r1, r3
 909 0462 9C46     		mov	ip, r3
 910              	.LVL207:
 911 0464 029D     		ldr	r5, [sp, #8]
 912 0466 594B     		ldr	r3, .L2+4
 913              	.LVL208:
 914 0468 C241     		rors	r2, r2, r0
 915              	.LVL209:
 916 046a ED18     		adds	r5, r5, r3
 917 046c 6918     		adds	r1, r5, r1
 918              	.LVL210:
 117:strong-arm\src\ripemd160/ripemd160.c **** 	HH(bb, cc, dd, ee, aa, X[ 1], 15);
 919              		.loc 1 117 0
 920 046e 6346     		mov	r3, ip
 921 0470 F543     		mvns	r5, r6
 922 0472 1D43     		orrs	r5, r3
 923 0474 1123     		movs	r3, #17
 924 0476 5540     		eors	r5, r2
 925 0478 6D18     		adds	r5, r5, r1
 926              	.LVL211:
 927 047a DD41     		rors	r5, r5, r3
 928              	.LVL212:
 929 047c 5349     		ldr	r1, .L2+4
 930              	.LVL213:
 931 047e 039B     		ldr	r3, [sp, #12]
 932 0480 7D19     		adds	r5, r7, r5
 933              	.LVL214:
 934 0482 5918     		adds	r1, r3, r1
ARM GAS  C:\Users\Ray\AppData\Local\Temp\ccn0usL8.s 			page 20


 118:strong-arm\src\ripemd160/ripemd160.c **** 	HH(aa, bb, cc, dd, ee, X[ 2], 14);
 935              		.loc 1 118 0
 936 0484 6346     		mov	r3, ip
 937 0486 CF19     		adds	r7, r1, r7
 938              	.LVL215:
 939 0488 D943     		mvns	r1, r3
 117:strong-arm\src\ripemd160/ripemd160.c **** 	HH(bb, cc, dd, ee, aa, X[ 1], 15);
 940              		.loc 1 117 0
 941 048a C641     		rors	r6, r6, r0
 942              	.LVL216:
 943              		.loc 1 118 0
 944 048c 1223     		movs	r3, #18
 945 048e 2943     		orrs	r1, r5
 946 0490 7140     		eors	r1, r6
 947 0492 CF19     		adds	r7, r1, r7
 948              	.LVL217:
 949 0494 DF41     		rors	r7, r7, r3
 950              	.LVL218:
 951 0496 6346     		mov	r3, ip
 952 0498 C341     		rors	r3, r3, r0
 953 049a 9C46     		mov	ip, r3
 954              	.LVL219:
 955 049c 0899     		ldr	r1, [sp, #32]
 956 049e 4B4B     		ldr	r3, .L2+4
 957 04a0 D719     		adds	r7, r2, r7
 958              	.LVL220:
 959 04a2 C918     		adds	r1, r1, r3
 960 04a4 8A18     		adds	r2, r1, r2
 961              	.LVL221:
 119:strong-arm\src\ripemd160/ripemd160.c **** 	HH(ee, aa, bb, cc, dd, X[ 7],  8);
 962              		.loc 1 119 0
 963 04a6 E943     		mvns	r1, r5
 964 04a8 6346     		mov	r3, ip
 965 04aa 3943     		orrs	r1, r7
 966 04ac 5940     		eors	r1, r3
 967 04ae 1823     		movs	r3, #24
 968 04b0 8918     		adds	r1, r1, r2
 969              	.LVL222:
 970 04b2 D941     		rors	r1, r1, r3
 971              	.LVL223:
 972 04b4 454A     		ldr	r2, .L2+4
 973              	.LVL224:
 974 04b6 019B     		ldr	r3, [sp, #4]
 975 04b8 7118     		adds	r1, r6, r1
 976              	.LVL225:
 977 04ba 9A18     		adds	r2, r3, r2
 978 04bc 9619     		adds	r6, r2, r6
 979              	.LVL226:
 120:strong-arm\src\ripemd160/ripemd160.c **** 	HH(dd, ee, aa, bb, cc, X[ 0], 13);
 980              		.loc 1 120 0
 981 04be FA43     		mvns	r2, r7
 119:strong-arm\src\ripemd160/ripemd160.c **** 	HH(ee, aa, bb, cc, dd, X[ 7],  8);
 982              		.loc 1 119 0
 983 04c0 C541     		rors	r5, r5, r0
 984              	.LVL227:
 985              		.loc 1 120 0
 986 04c2 1323     		movs	r3, #19
ARM GAS  C:\Users\Ray\AppData\Local\Temp\ccn0usL8.s 			page 21


 987 04c4 0A43     		orrs	r2, r1
 988 04c6 6A40     		eors	r2, r5
 989 04c8 9619     		adds	r6, r2, r6
 990              	.LVL228:
 991 04ca DE41     		rors	r6, r6, r3
 992              	.LVL229:
 993 04cc 3F4A     		ldr	r2, .L2+4
 994 04ce 079B     		ldr	r3, [sp, #28]
 995 04d0 C741     		rors	r7, r7, r0
 996              	.LVL230:
 997 04d2 9A18     		adds	r2, r3, r2
 998 04d4 1300     		movs	r3, r2
 121:strong-arm\src\ripemd160/ripemd160.c **** 	HH(cc, dd, ee, aa, bb, X[ 6],  6);
 999              		.loc 1 121 0
 1000 04d6 CA43     		mvns	r2, r1
 120:strong-arm\src\ripemd160/ripemd160.c **** 	HH(dd, ee, aa, bb, cc, X[ 0], 13);
 1001              		.loc 1 120 0
 1002 04d8 6644     		add	r6, r6, ip
 1003              	.LVL231:
 1004              		.loc 1 121 0
 1005 04da 3243     		orrs	r2, r6
 1006 04dc 6344     		add	r3, r3, ip
 1007              	.LVL232:
 1008 04de 7A40     		eors	r2, r7
 1009 04e0 D218     		adds	r2, r2, r3
 1010              	.LVL233:
 1011 04e2 1A23     		movs	r3, #26
 1012 04e4 DA41     		rors	r2, r2, r3
 1013              	.LVL234:
 1014 04e6 AB18     		adds	r3, r5, r2
 1015 04e8 9C46     		mov	ip, r3
 1016              	.LVL235:
 1017 04ea 384A     		ldr	r2, .L2+4
 1018 04ec 0E9B     		ldr	r3, [sp, #56]
 1019              	.LVL236:
 1020 04ee C141     		rors	r1, r1, r0
 1021              	.LVL237:
 1022 04f0 9B18     		adds	r3, r3, r2
 1023 04f2 5D19     		adds	r5, r3, r5
 1024              	.LVL238:
 122:strong-arm\src\ripemd160/ripemd160.c **** 	HH(bb, cc, dd, ee, aa, X[13],  5);
 1025              		.loc 1 122 0
 1026 04f4 6246     		mov	r2, ip
 1027 04f6 F343     		mvns	r3, r6
 1028 04f8 1343     		orrs	r3, r2
 1029 04fa 4B40     		eors	r3, r1
 1030 04fc 5D19     		adds	r5, r3, r5
 1031              	.LVL239:
 1032 04fe 1B23     		movs	r3, #27
 1033 0500 DD41     		rors	r5, r5, r3
 1034              	.LVL240:
 1035 0502 324A     		ldr	r2, .L2+4
 1036 0504 0C9B     		ldr	r3, [sp, #48]
 1037 0506 7D19     		adds	r5, r7, r5
 1038              	.LVL241:
 1039 0508 9B18     		adds	r3, r3, r2
 1040 050a DF19     		adds	r7, r3, r7
ARM GAS  C:\Users\Ray\AppData\Local\Temp\ccn0usL8.s 			page 22


 1041              	.LVL242:
 123:strong-arm\src\ripemd160/ripemd160.c **** 	HH(aa, bb, cc, dd, ee, X[11], 12);
 1042              		.loc 1 123 0
 1043 050c 6346     		mov	r3, ip
 1044 050e DB43     		mvns	r3, r3
 122:strong-arm\src\ripemd160/ripemd160.c **** 	HH(bb, cc, dd, ee, aa, X[13],  5);
 1045              		.loc 1 122 0
 1046 0510 C641     		rors	r6, r6, r0
 1047              	.LVL243:
 1048              		.loc 1 123 0
 1049 0512 1422     		movs	r2, #20
 1050 0514 2B43     		orrs	r3, r5
 1051 0516 7340     		eors	r3, r6
 1052 0518 DB19     		adds	r3, r3, r7
 1053              	.LVL244:
 1054 051a D341     		rors	r3, r3, r2
 1055              	.LVL245:
 1056 051c CB18     		adds	r3, r1, r3
 1057 051e 0093     		str	r3, [sp]
 1058              	.LVL246:
 1059 0520 069F     		ldr	r7, [sp, #24]
 1060 0522 2A4B     		ldr	r3, .L2+4
 1061              	.LVL247:
 1062 0524 6246     		mov	r2, ip
 1063 0526 FF18     		adds	r7, r7, r3
 1064 0528 7918     		adds	r1, r7, r1
 1065              	.LVL248:
 124:strong-arm\src\ripemd160/ripemd160.c **** 	HH(ee, aa, bb, cc, dd, X[ 5],  7);
 1066              		.loc 1 124 0
 1067 052a EF43     		mvns	r7, r5
 1068 052c 009B     		ldr	r3, [sp]
 123:strong-arm\src\ripemd160/ripemd160.c **** 	HH(aa, bb, cc, dd, ee, X[11], 12);
 1069              		.loc 1 123 0
 1070 052e C241     		rors	r2, r2, r0
 1071              	.LVL249:
 1072              		.loc 1 124 0
 1073 0530 1F43     		orrs	r7, r3
 1074 0532 1923     		movs	r3, #25
 1075 0534 C541     		rors	r5, r5, r0
 1076              	.LVL250:
 1077 0536 5740     		eors	r7, r2
 1078 0538 7918     		adds	r1, r7, r1
 1079              	.LVL251:
 1080 053a D941     		rors	r1, r1, r3
 1081              	.LVL252:
 1082 053c 2F00     		movs	r7, r5
 1083 053e 0D9B     		ldr	r3, [sp, #52]
 1084 0540 224D     		ldr	r5, .L2+4
 1085 0542 7118     		adds	r1, r6, r1
 1086              	.LVL253:
 1087 0544 5D19     		adds	r5, r3, r5
 125:strong-arm\src\ripemd160/ripemd160.c **** 	HH(dd, ee, aa, bb, cc, X[12],  5);
 1088              		.loc 1 125 0
 1089 0546 009B     		ldr	r3, [sp]
 1090 0548 AE19     		adds	r6, r5, r6
 1091              	.LVL254:
 1092 054a DD43     		mvns	r5, r3
ARM GAS  C:\Users\Ray\AppData\Local\Temp\ccn0usL8.s 			page 23


 1093 054c 1B23     		movs	r3, #27
 1094 054e 0D43     		orrs	r5, r1
 1095 0550 7D40     		eors	r5, r7
 1096 0552 AD19     		adds	r5, r5, r6
 1097              	.LVL255:
 1098 0554 DD41     		rors	r5, r5, r3
 1099              	.LVL256:
 1100 0556 009B     		ldr	r3, [sp]
 1101 0558 029E     		ldr	r6, [sp, #8]
 1102              	.LVL257:
 1103 055a C341     		rors	r3, r3, r0
 1104 055c 9C46     		mov	ip, r3
 1105 055e 1C4B     		ldr	r3, .L2+8
 1106 0560 5519     		adds	r5, r2, r5
 1107              	.LVL258:
 1108 0562 F618     		adds	r6, r6, r3
 1109 0564 B218     		adds	r2, r6, r2
 1110              	.LVL259:
 126:strong-arm\src\ripemd160/ripemd160.c **** 	
 127:strong-arm\src\ripemd160/ripemd160.c **** 	/* round 4 */
 128:strong-arm\src\ripemd160/ripemd160.c **** 	II(cc, dd, ee, aa, bb, X[ 1], 11);
 1111              		.loc 1 128 0
 1112 0566 0E00     		movs	r6, r1
 1113 0568 6346     		mov	r3, ip
 1114 056a 6E40     		eors	r6, r5
 1115 056c 1E40     		ands	r6, r3
 1116 056e 1523     		movs	r3, #21
 1117 0570 4E40     		eors	r6, r1
 1118 0572 C141     		rors	r1, r1, r0
 1119              	.LVL260:
 1120 0574 B218     		adds	r2, r6, r2
 1121              	.LVL261:
 1122 0576 DA41     		rors	r2, r2, r3
 1123              	.LVL262:
 1124 0578 0E00     		movs	r6, r1
 1125 057a 0A9B     		ldr	r3, [sp, #40]
 1126 057c 1449     		ldr	r1, .L2+8
 1127 057e BA18     		adds	r2, r7, r2
 1128              	.LVL263:
 1129 0580 5918     		adds	r1, r3, r1
 1130 0582 CF19     		adds	r7, r1, r7
 1131              	.LVL264:
 129:strong-arm\src\ripemd160/ripemd160.c **** 	II(bb, cc, dd, ee, aa, X[ 9], 12);
 1132              		.loc 1 129 0
 1133 0584 2900     		movs	r1, r5
 1134 0586 1423     		movs	r3, #20
 1135 0588 5140     		eors	r1, r2
 1136 058a 3140     		ands	r1, r6
 1137 058c 6940     		eors	r1, r5
 1138 058e C919     		adds	r1, r1, r7
 1139              	.LVL265:
 1140 0590 D941     		rors	r1, r1, r3
 1141              	.LVL266:
 1142 0592 0F4F     		ldr	r7, .L2+8
 1143              	.LVL267:
 1144 0594 0C9B     		ldr	r3, [sp, #48]
 1145 0596 C541     		rors	r5, r5, r0
ARM GAS  C:\Users\Ray\AppData\Local\Temp\ccn0usL8.s 			page 24


 1146              	.LVL268:
 1147 0598 DF19     		adds	r7, r3, r7
 1148 059a 3B00     		movs	r3, r7
 130:strong-arm\src\ripemd160/ripemd160.c **** 	II(aa, bb, cc, dd, ee, X[11], 14);
 1149              		.loc 1 130 0
 1150 059c 1700     		movs	r7, r2
 129:strong-arm\src\ripemd160/ripemd160.c **** 	II(bb, cc, dd, ee, aa, X[ 9], 12);
 1151              		.loc 1 129 0
 1152 059e 6144     		add	r1, r1, ip
 1153              	.LVL269:
 1154              		.loc 1 130 0
 1155 05a0 4F40     		eors	r7, r1
 1156 05a2 2F40     		ands	r7, r5
 1157 05a4 5740     		eors	r7, r2
 1158 05a6 6344     		add	r3, r3, ip
 1159 05a8 FB18     		adds	r3, r7, r3
 1160 05aa 1227     		movs	r7, #18
 1161 05ac C241     		rors	r2, r2, r0
 1162              	.LVL270:
 1163 05ae FB41     		rors	r3, r3, r7
 129:strong-arm\src\ripemd160/ripemd160.c **** 	II(bb, cc, dd, ee, aa, X[ 9], 12);
 1164              		.loc 1 129 0
 1165 05b0 0095     		str	r5, [sp]
 1166              	.LVL271:
 1167              		.loc 1 130 0
 1168 05b2 1700     		movs	r7, r2
 1169 05b4 064D     		ldr	r5, .L2+8
 1170              	.LVL272:
 1171 05b6 0B9A     		ldr	r2, [sp, #44]
 1172 05b8 F318     		adds	r3, r6, r3
 1173              	.LVL273:
 1174 05ba 5219     		adds	r2, r2, r5
 1175 05bc 9619     		adds	r6, r2, r6
 1176              	.LVL274:
 131:strong-arm\src\ripemd160/ripemd160.c **** 	II(ee, aa, bb, cc, dd, X[10], 15);
 1177              		.loc 1 131 0
 1178 05be 0A00     		movs	r2, r1
 1179 05c0 1125     		movs	r5, #17
 1180 05c2 5A40     		eors	r2, r3
 1181 05c4 3A40     		ands	r2, r7
 1182 05c6 05E0     		b	.L3
 1183              	.L4:
 1184              		.align	2
 1185              	.L2:
 1186 05c8 9979825A 		.word	1518500249
 1187 05cc A1EBD96E 		.word	1859775393
 1188 05d0 DCBC1B8F 		.word	-1894007588
 1189              	.L3:
 1190 05d4 4A40     		eors	r2, r1
 1191 05d6 C141     		rors	r1, r1, r0
 1192              	.LVL275:
 1193 05d8 9219     		adds	r2, r2, r6
 1194              	.LVL276:
 1195 05da EA41     		rors	r2, r2, r5
 1196              	.LVL277:
 1197 05dc 8C46     		mov	ip, r1
 1198 05de 009D     		ldr	r5, [sp]
ARM GAS  C:\Users\Ray\AppData\Local\Temp\ccn0usL8.s 			page 25


 1199 05e0 FE4E     		ldr	r6, .L5
 1200 05e2 AA18     		adds	r2, r5, r2
 1201              	.LVL278:
 1202 05e4 019D     		ldr	r5, [sp, #4]
 1203 05e6 0099     		ldr	r1, [sp]
 1204              	.LVL279:
 1205 05e8 AE19     		adds	r6, r5, r6
 1206 05ea 7518     		adds	r5, r6, r1
 1207              	.LVL280:
 132:strong-arm\src\ripemd160/ripemd160.c **** 	II(dd, ee, aa, bb, cc, X[ 0], 14);
 1208              		.loc 1 132 0
 1209 05ec 1E00     		movs	r6, r3
 1210 05ee 6146     		mov	r1, ip
 1211 05f0 5640     		eors	r6, r2
 1212 05f2 0E40     		ands	r6, r1
 1213 05f4 5E40     		eors	r6, r3
 1214 05f6 7519     		adds	r5, r6, r5
 1215              	.LVL281:
 1216 05f8 1226     		movs	r6, #18
 1217 05fa C341     		rors	r3, r3, r0
 1218              	.LVL282:
 1219 05fc F541     		rors	r5, r5, r6
 1220              	.LVL283:
 1221 05fe F749     		ldr	r1, .L5
 1222 0600 1E00     		movs	r6, r3
 1223 0602 099B     		ldr	r3, [sp, #36]
 1224 0604 7D19     		adds	r5, r7, r5
 1225              	.LVL284:
 1226 0606 5B18     		adds	r3, r3, r1
 1227 0608 DF19     		adds	r7, r3, r7
 1228              	.LVL285:
 133:strong-arm\src\ripemd160/ripemd160.c **** 	II(cc, dd, ee, aa, bb, X[ 8], 15);
 1229              		.loc 1 133 0
 1230 060a 1300     		movs	r3, r2
 1231 060c 1121     		movs	r1, #17
 1232 060e 6B40     		eors	r3, r5
 1233 0610 3340     		ands	r3, r6
 1234 0612 5340     		eors	r3, r2
 1235 0614 DB19     		adds	r3, r3, r7
 1236              	.LVL286:
 1237 0616 CB41     		rors	r3, r3, r1
 1238              	.LVL287:
 1239 0618 F04F     		ldr	r7, .L5
 1240              	.LVL288:
 1241 061a 0D99     		ldr	r1, [sp, #52]
 1242 061c C241     		rors	r2, r2, r0
 1243              	.LVL289:
 1244 061e CF19     		adds	r7, r1, r7
 1245 0620 3900     		movs	r1, r7
 134:strong-arm\src\ripemd160/ripemd160.c **** 	II(bb, cc, dd, ee, aa, X[12],  9);
 1246              		.loc 1 134 0
 1247 0622 2F00     		movs	r7, r5
 133:strong-arm\src\ripemd160/ripemd160.c **** 	II(cc, dd, ee, aa, bb, X[ 8], 15);
 1248              		.loc 1 133 0
 1249 0624 6344     		add	r3, r3, ip
 1250              	.LVL290:
 1251              		.loc 1 134 0
ARM GAS  C:\Users\Ray\AppData\Local\Temp\ccn0usL8.s 			page 26


 1252 0626 5F40     		eors	r7, r3
 1253 0628 1740     		ands	r7, r2
 1254 062a 6F40     		eors	r7, r5
 1255 062c 6144     		add	r1, r1, ip
 1256 062e 7918     		adds	r1, r7, r1
 1257 0630 1727     		movs	r7, #23
 1258 0632 C541     		rors	r5, r5, r0
 1259              	.LVL291:
 1260 0634 F941     		rors	r1, r1, r7
 133:strong-arm\src\ripemd160/ripemd160.c **** 	II(cc, dd, ee, aa, bb, X[ 8], 15);
 1261              		.loc 1 133 0
 1262 0636 0092     		str	r2, [sp]
 1263              	.LVL292:
 1264              		.loc 1 134 0
 1265 0638 2F00     		movs	r7, r5
 1266 063a E84A     		ldr	r2, .L5
 1267              	.LVL293:
 1268 063c 059D     		ldr	r5, [sp, #20]
 1269 063e 7118     		adds	r1, r6, r1
 1270              	.LVL294:
 1271 0640 AD18     		adds	r5, r5, r2
 1272 0642 AE19     		adds	r6, r5, r6
 1273              	.LVL295:
 135:strong-arm\src\ripemd160/ripemd160.c **** 	II(aa, bb, cc, dd, ee, X[ 4],  8);
 1274              		.loc 1 135 0
 1275 0644 1D00     		movs	r5, r3
 1276 0646 1822     		movs	r2, #24
 1277 0648 4D40     		eors	r5, r1
 1278 064a 3D40     		ands	r5, r7
 1279 064c 5D40     		eors	r5, r3
 1280 064e C341     		rors	r3, r3, r0
 1281              	.LVL296:
 1282 0650 AD19     		adds	r5, r5, r6
 1283              	.LVL297:
 1284 0652 D541     		rors	r5, r5, r2
 1285              	.LVL298:
 1286 0654 9C46     		mov	ip, r3
 1287 0656 009A     		ldr	r2, [sp]
 1288 0658 E04E     		ldr	r6, .L5
 1289 065a 5519     		adds	r5, r2, r5
 1290              	.LVL299:
 1291 065c 0E9A     		ldr	r2, [sp, #56]
 1292 065e 009B     		ldr	r3, [sp]
 1293              	.LVL300:
 1294 0660 9619     		adds	r6, r2, r6
 1295 0662 F218     		adds	r2, r6, r3
 1296              	.LVL301:
 136:strong-arm\src\ripemd160/ripemd160.c **** 	II(ee, aa, bb, cc, dd, X[13],  9);
 1297              		.loc 1 136 0
 1298 0664 0E00     		movs	r6, r1
 1299 0666 6346     		mov	r3, ip
 1300 0668 6E40     		eors	r6, r5
 1301 066a 1E40     		ands	r6, r3
 1302 066c 4E40     		eors	r6, r1
 1303 066e B218     		adds	r2, r6, r2
 1304              	.LVL302:
 1305 0670 1726     		movs	r6, #23
ARM GAS  C:\Users\Ray\AppData\Local\Temp\ccn0usL8.s 			page 27


 1306 0672 C141     		rors	r1, r1, r0
 1307              	.LVL303:
 1308 0674 F241     		rors	r2, r2, r6
 1309              	.LVL304:
 1310 0676 D94B     		ldr	r3, .L5
 1311 0678 0E00     		movs	r6, r1
 1312 067a 0499     		ldr	r1, [sp, #16]
 1313 067c BA18     		adds	r2, r7, r2
 1314              	.LVL305:
 1315 067e C918     		adds	r1, r1, r3
 1316 0680 CF19     		adds	r7, r1, r7
 1317              	.LVL306:
 137:strong-arm\src\ripemd160/ripemd160.c **** 	II(dd, ee, aa, bb, cc, X[ 3], 14);
 1318              		.loc 1 137 0
 1319 0682 2900     		movs	r1, r5
 1320 0684 1223     		movs	r3, #18
 1321 0686 5140     		eors	r1, r2
 1322 0688 3140     		ands	r1, r6
 1323 068a 6940     		eors	r1, r5
 1324 068c C919     		adds	r1, r1, r7
 1325              	.LVL307:
 1326 068e D941     		rors	r1, r1, r3
 1327              	.LVL308:
 1328 0690 D24F     		ldr	r7, .L5
 1329              	.LVL309:
 1330 0692 089B     		ldr	r3, [sp, #32]
 1331 0694 C541     		rors	r5, r5, r0
 1332              	.LVL310:
 1333 0696 DF19     		adds	r7, r3, r7
 1334 0698 3B00     		movs	r3, r7
 138:strong-arm\src\ripemd160/ripemd160.c **** 	II(cc, dd, ee, aa, bb, X[ 7],  5);
 1335              		.loc 1 138 0
 1336 069a 1700     		movs	r7, r2
 137:strong-arm\src\ripemd160/ripemd160.c **** 	II(dd, ee, aa, bb, cc, X[ 3], 14);
 1337              		.loc 1 137 0
 1338 069c 6144     		add	r1, r1, ip
 1339              	.LVL311:
 1340              		.loc 1 138 0
 1341 069e 4F40     		eors	r7, r1
 1342 06a0 2F40     		ands	r7, r5
 1343 06a2 5740     		eors	r7, r2
 1344 06a4 6344     		add	r3, r3, ip
 1345 06a6 FB18     		adds	r3, r7, r3
 1346 06a8 1B27     		movs	r7, #27
 1347 06aa C241     		rors	r2, r2, r0
 1348              	.LVL312:
 1349 06ac FB41     		rors	r3, r3, r7
 137:strong-arm\src\ripemd160/ripemd160.c **** 	II(dd, ee, aa, bb, cc, X[ 3], 14);
 1350              		.loc 1 137 0
 1351 06ae 0095     		str	r5, [sp]
 1352              	.LVL313:
 1353              		.loc 1 138 0
 1354 06b0 1700     		movs	r7, r2
 1355 06b2 CA4D     		ldr	r5, .L5
 1356              	.LVL314:
 1357 06b4 109A     		ldr	r2, [sp, #64]
 1358 06b6 F318     		adds	r3, r6, r3
ARM GAS  C:\Users\Ray\AppData\Local\Temp\ccn0usL8.s 			page 28


 1359              	.LVL315:
 1360 06b8 5219     		adds	r2, r2, r5
 1361 06ba 9619     		adds	r6, r2, r6
 1362              	.LVL316:
 139:strong-arm\src\ripemd160/ripemd160.c **** 	II(bb, cc, dd, ee, aa, X[15],  6);
 1363              		.loc 1 139 0
 1364 06bc 0A00     		movs	r2, r1
 1365 06be 1A25     		movs	r5, #26
 1366 06c0 5A40     		eors	r2, r3
 1367 06c2 3A40     		ands	r2, r7
 1368 06c4 4A40     		eors	r2, r1
 1369 06c6 C141     		rors	r1, r1, r0
 1370              	.LVL317:
 1371 06c8 9219     		adds	r2, r2, r6
 1372              	.LVL318:
 1373 06ca EA41     		rors	r2, r2, r5
 1374              	.LVL319:
 1375 06cc 8C46     		mov	ip, r1
 1376 06ce 009D     		ldr	r5, [sp]
 1377 06d0 C24E     		ldr	r6, .L5
 1378 06d2 AA18     		adds	r2, r5, r2
 1379              	.LVL320:
 1380 06d4 0F9D     		ldr	r5, [sp, #60]
 1381 06d6 0099     		ldr	r1, [sp]
 1382              	.LVL321:
 1383 06d8 AE19     		adds	r6, r5, r6
 1384 06da 7518     		adds	r5, r6, r1
 1385              	.LVL322:
 140:strong-arm\src\ripemd160/ripemd160.c **** 	II(aa, bb, cc, dd, ee, X[14],  8);
 1386              		.loc 1 140 0
 1387 06dc 1E00     		movs	r6, r3
 1388 06de 6146     		mov	r1, ip
 1389 06e0 5640     		eors	r6, r2
 1390 06e2 0E40     		ands	r6, r1
 1391 06e4 5E40     		eors	r6, r3
 1392 06e6 7519     		adds	r5, r6, r5
 1393              	.LVL323:
 1394 06e8 1826     		movs	r6, #24
 1395 06ea C341     		rors	r3, r3, r0
 1396              	.LVL324:
 1397 06ec F541     		rors	r5, r5, r6
 1398              	.LVL325:
 1399 06ee BB49     		ldr	r1, .L5
 1400 06f0 1E00     		movs	r6, r3
 1401 06f2 069B     		ldr	r3, [sp, #24]
 1402 06f4 7D19     		adds	r5, r7, r5
 1403              	.LVL326:
 1404 06f6 5B18     		adds	r3, r3, r1
 1405 06f8 DF19     		adds	r7, r3, r7
 1406              	.LVL327:
 141:strong-arm\src\ripemd160/ripemd160.c **** 	II(ee, aa, bb, cc, dd, X[ 5],  6);
 1407              		.loc 1 141 0
 1408 06fa 1300     		movs	r3, r2
 1409 06fc 1A21     		movs	r1, #26
 1410 06fe 6B40     		eors	r3, r5
 1411 0700 3340     		ands	r3, r6
 1412 0702 5340     		eors	r3, r2
ARM GAS  C:\Users\Ray\AppData\Local\Temp\ccn0usL8.s 			page 29


 1413 0704 DB19     		adds	r3, r3, r7
 1414              	.LVL328:
 1415 0706 CB41     		rors	r3, r3, r1
 1416              	.LVL329:
 1417 0708 B44F     		ldr	r7, .L5
 1418              	.LVL330:
 1419 070a 0799     		ldr	r1, [sp, #28]
 1420 070c C241     		rors	r2, r2, r0
 1421              	.LVL331:
 1422 070e CF19     		adds	r7, r1, r7
 1423 0710 3900     		movs	r1, r7
 142:strong-arm\src\ripemd160/ripemd160.c **** 	II(dd, ee, aa, bb, cc, X[ 6],  5);
 1424              		.loc 1 142 0
 1425 0712 2F00     		movs	r7, r5
 141:strong-arm\src\ripemd160/ripemd160.c **** 	II(ee, aa, bb, cc, dd, X[ 5],  6);
 1426              		.loc 1 141 0
 1427 0714 6344     		add	r3, r3, ip
 1428              	.LVL332:
 1429              		.loc 1 142 0
 1430 0716 5F40     		eors	r7, r3
 1431 0718 1740     		ands	r7, r2
 1432 071a 6F40     		eors	r7, r5
 1433 071c 6144     		add	r1, r1, ip
 1434 071e 7918     		adds	r1, r7, r1
 1435 0720 1B27     		movs	r7, #27
 1436 0722 F941     		rors	r1, r1, r7
 141:strong-arm\src\ripemd160/ripemd160.c **** 	II(ee, aa, bb, cc, dd, X[ 5],  6);
 1437              		.loc 1 141 0
 1438 0724 0092     		str	r2, [sp]
 1439              	.LVL333:
 1440 0726 039F     		ldr	r7, [sp, #12]
 1441 0728 AC4A     		ldr	r2, .L5
 1442              	.LVL334:
 1443              		.loc 1 142 0
 1444 072a 7118     		adds	r1, r6, r1
 1445              	.LVL335:
 1446 072c BF18     		adds	r7, r7, r2
 1447 072e BE19     		adds	r6, r7, r6
 1448              	.LVL336:
 143:strong-arm\src\ripemd160/ripemd160.c **** 	II(cc, dd, ee, aa, bb, X[ 2], 12);
 1449              		.loc 1 143 0
 1450 0730 1F00     		movs	r7, r3
 142:strong-arm\src\ripemd160/ripemd160.c **** 	II(dd, ee, aa, bb, cc, X[ 6],  5);
 1451              		.loc 1 142 0
 1452 0732 C541     		rors	r5, r5, r0
 1453              	.LVL337:
 1454              		.loc 1 143 0
 1455 0734 1422     		movs	r2, #20
 1456 0736 4F40     		eors	r7, r1
 1457 0738 2F40     		ands	r7, r5
 1458 073a 5F40     		eors	r7, r3
 1459 073c C341     		rors	r3, r3, r0
 1460              	.LVL338:
 1461 073e BE19     		adds	r6, r7, r6
 1462              	.LVL339:
 1463 0740 D641     		rors	r6, r6, r2
 1464              	.LVL340:
ARM GAS  C:\Users\Ray\AppData\Local\Temp\ccn0usL8.s 			page 30


 1465 0742 9C46     		mov	ip, r3
 1466 0744 009A     		ldr	r2, [sp]
 1467 0746 A64F     		ldr	r7, .L5+4
 1468 0748 9619     		adds	r6, r2, r6
 1469              	.LVL341:
 1470 074a 059A     		ldr	r2, [sp, #20]
 1471 074c 009B     		ldr	r3, [sp]
 1472              	.LVL342:
 1473 074e D719     		adds	r7, r2, r7
 1474 0750 FA18     		adds	r2, r7, r3
 1475              	.LVL343:
 144:strong-arm\src\ripemd160/ripemd160.c **** 	
 145:strong-arm\src\ripemd160/ripemd160.c **** 	/* round 5 */
 146:strong-arm\src\ripemd160/ripemd160.c **** 	JJ(bb, cc, dd, ee, aa, X[ 4],  9);
 1476              		.loc 1 146 0
 1477 0752 6346     		mov	r3, ip
 1478 0754 DF43     		mvns	r7, r3
 1479 0756 0F43     		orrs	r7, r1
 1480 0758 7740     		eors	r7, r6
 1481 075a BA18     		adds	r2, r7, r2
 1482              	.LVL344:
 1483 075c 1727     		movs	r7, #23
 1484 075e C141     		rors	r1, r1, r0
 1485              	.LVL345:
 1486 0760 FA41     		rors	r2, r2, r7
 1487              	.LVL346:
 1488 0762 9F4B     		ldr	r3, .L5+4
 1489 0764 019F     		ldr	r7, [sp, #4]
 1490 0766 AA18     		adds	r2, r5, r2
 1491              	.LVL347:
 1492 0768 FF18     		adds	r7, r7, r3
 1493 076a 7D19     		adds	r5, r7, r5
 1494              	.LVL348:
 147:strong-arm\src\ripemd160/ripemd160.c **** 	JJ(aa, bb, cc, dd, ee, X[ 0], 15);
 1495              		.loc 1 147 0
 1496 076c CF43     		mvns	r7, r1
 1497 076e 1123     		movs	r3, #17
 1498 0770 3743     		orrs	r7, r6
 1499 0772 C641     		rors	r6, r6, r0
 1500              	.LVL349:
 1501 0774 5740     		eors	r7, r2
 1502 0776 7D19     		adds	r5, r7, r5
 1503              	.LVL350:
 1504 0778 DD41     		rors	r5, r5, r3
 1505              	.LVL351:
 1506 077a 994F     		ldr	r7, .L5+4
 1507 077c 069B     		ldr	r3, [sp, #24]
 1508 077e 6544     		add	r5, r5, ip
 1509              	.LVL352:
 1510 0780 DF19     		adds	r7, r3, r7
 1511 0782 3B00     		movs	r3, r7
 148:strong-arm\src\ripemd160/ripemd160.c **** 	JJ(ee, aa, bb, cc, dd, X[ 5],  5);
 1512              		.loc 1 148 0
 1513 0784 F743     		mvns	r7, r6
 1514 0786 1743     		orrs	r7, r2
 1515 0788 6F40     		eors	r7, r5
 1516 078a 6344     		add	r3, r3, ip
ARM GAS  C:\Users\Ray\AppData\Local\Temp\ccn0usL8.s 			page 31


 1517              	.LVL353:
 1518 078c FB18     		adds	r3, r7, r3
 1519              	.LVL354:
 1520 078e 1B27     		movs	r7, #27
 1521 0790 FB41     		rors	r3, r3, r7
 1522              	.LVL355:
 1523 0792 C241     		rors	r2, r2, r0
 1524              	.LVL356:
 1525 0794 CB18     		adds	r3, r1, r3
 1526 0796 9C46     		mov	ip, r3
 1527              	.LVL357:
 1528 0798 0A9F     		ldr	r7, [sp, #40]
 1529 079a 914B     		ldr	r3, .L5+4
 1530              	.LVL358:
 1531 079c FF18     		adds	r7, r7, r3
 1532 079e 7918     		adds	r1, r7, r1
 1533              	.LVL359:
 149:strong-arm\src\ripemd160/ripemd160.c **** 	JJ(dd, ee, aa, bb, cc, X[ 9], 11);
 1534              		.loc 1 149 0
 1535 07a0 D743     		mvns	r7, r2
 1536 07a2 6346     		mov	r3, ip
 1537 07a4 2F43     		orrs	r7, r5
 1538 07a6 5F40     		eors	r7, r3
 1539 07a8 1523     		movs	r3, #21
 1540 07aa 7918     		adds	r1, r7, r1
 1541              	.LVL360:
 1542 07ac C541     		rors	r5, r5, r0
 1543              	.LVL361:
 1544 07ae D941     		rors	r1, r1, r3
 1545              	.LVL362:
 1546 07b0 8B4F     		ldr	r7, .L5+4
 1547 07b2 089B     		ldr	r3, [sp, #32]
 1548 07b4 7118     		adds	r1, r6, r1
 1549              	.LVL363:
 1550 07b6 DF19     		adds	r7, r3, r7
 1551 07b8 BE19     		adds	r6, r7, r6
 1552              	.LVL364:
 150:strong-arm\src\ripemd160/ripemd160.c **** 	JJ(cc, dd, ee, aa, bb, X[ 7],  6);
 1553              		.loc 1 150 0
 1554 07ba 6346     		mov	r3, ip
 1555 07bc EF43     		mvns	r7, r5
 1556 07be 1F43     		orrs	r7, r3
 1557 07c0 1A23     		movs	r3, #26
 1558 07c2 4F40     		eors	r7, r1
 1559 07c4 BE19     		adds	r6, r7, r6
 1560              	.LVL365:
 1561 07c6 DE41     		rors	r6, r6, r3
 1562              	.LVL366:
 1563 07c8 6346     		mov	r3, ip
 1564 07ca C341     		rors	r3, r3, r0
 1565 07cc 9C46     		mov	ip, r3
 1566              	.LVL367:
 1567 07ce 0D9F     		ldr	r7, [sp, #52]
 1568 07d0 834B     		ldr	r3, .L5+4
 1569 07d2 9619     		adds	r6, r2, r6
 1570              	.LVL368:
 1571 07d4 FF18     		adds	r7, r7, r3
ARM GAS  C:\Users\Ray\AppData\Local\Temp\ccn0usL8.s 			page 32


 151:strong-arm\src\ripemd160/ripemd160.c **** 	JJ(bb, cc, dd, ee, aa, X[12],  8);
 1572              		.loc 1 151 0
 1573 07d6 6346     		mov	r3, ip
 1574 07d8 BA18     		adds	r2, r7, r2
 1575              	.LVL369:
 1576 07da DF43     		mvns	r7, r3
 1577 07dc 1823     		movs	r3, #24
 1578 07de 0F43     		orrs	r7, r1
 1579 07e0 C141     		rors	r1, r1, r0
 1580              	.LVL370:
 1581 07e2 7740     		eors	r7, r6
 1582 07e4 BA18     		adds	r2, r7, r2
 1583              	.LVL371:
 1584 07e6 DA41     		rors	r2, r2, r3
 1585              	.LVL372:
 1586 07e8 0F00     		movs	r7, r1
 1587 07ea 039B     		ldr	r3, [sp, #12]
 1588 07ec 7C49     		ldr	r1, .L5+4
 1589 07ee AA18     		adds	r2, r5, r2
 1590              	.LVL373:
 1591 07f0 5918     		adds	r1, r3, r1
 1592 07f2 4D19     		adds	r5, r1, r5
 1593              	.LVL374:
 152:strong-arm\src\ripemd160/ripemd160.c **** 	JJ(aa, bb, cc, dd, ee, X[ 2], 13);
 1594              		.loc 1 152 0
 1595 07f4 F943     		mvns	r1, r7
 1596 07f6 1323     		movs	r3, #19
 1597 07f8 3143     		orrs	r1, r6
 1598 07fa C641     		rors	r6, r6, r0
 1599              	.LVL375:
 1600 07fc 5140     		eors	r1, r2
 1601 07fe 4919     		adds	r1, r1, r5
 1602              	.LVL376:
 1603 0800 D941     		rors	r1, r1, r3
 1604              	.LVL377:
 1605 0802 774D     		ldr	r5, .L5+4
 1606 0804 0B9B     		ldr	r3, [sp, #44]
 1607 0806 6144     		add	r1, r1, ip
 1608              	.LVL378:
 1609 0808 5D19     		adds	r5, r3, r5
 1610 080a 2B00     		movs	r3, r5
 153:strong-arm\src\ripemd160/ripemd160.c **** 	JJ(ee, aa, bb, cc, dd, X[10], 12);
 1611              		.loc 1 153 0
 1612 080c F543     		mvns	r5, r6
 1613 080e 1543     		orrs	r5, r2
 1614 0810 4D40     		eors	r5, r1
 1615 0812 6344     		add	r3, r3, ip
 1616              	.LVL379:
 1617 0814 EB18     		adds	r3, r5, r3
 1618              	.LVL380:
 1619 0816 1425     		movs	r5, #20
 1620 0818 C241     		rors	r2, r2, r0
 1621              	.LVL381:
 1622 081a EB41     		rors	r3, r3, r5
 1623              	.LVL382:
 1624 081c 1500     		movs	r5, r2
 1625 081e FB18     		adds	r3, r7, r3
ARM GAS  C:\Users\Ray\AppData\Local\Temp\ccn0usL8.s 			page 33


 1626 0820 9C46     		mov	ip, r3
 1627              	.LVL383:
 1628 0822 0F9A     		ldr	r2, [sp, #60]
 1629              	.LVL384:
 1630 0824 6E4B     		ldr	r3, .L5+4
 1631              	.LVL385:
 1632 0826 D218     		adds	r2, r2, r3
 1633 0828 D719     		adds	r7, r2, r7
 1634              	.LVL386:
 154:strong-arm\src\ripemd160/ripemd160.c **** 	JJ(dd, ee, aa, bb, cc, X[14],  5);
 1635              		.loc 1 154 0
 1636 082a EA43     		mvns	r2, r5
 1637 082c 6346     		mov	r3, ip
 1638 082e 0A43     		orrs	r2, r1
 1639 0830 5A40     		eors	r2, r3
 1640 0832 1B23     		movs	r3, #27
 1641 0834 D219     		adds	r2, r2, r7
 1642              	.LVL387:
 1643 0836 DA41     		rors	r2, r2, r3
 1644              	.LVL388:
 1645 0838 C141     		rors	r1, r1, r0
 1646              	.LVL389:
 1647 083a B318     		adds	r3, r6, r2
 1648 083c 0093     		str	r3, [sp]
 1649              	.LVL390:
 1650 083e 684F     		ldr	r7, .L5+4
 1651 0840 029B     		ldr	r3, [sp, #8]
 1652              	.LVL391:
 1653 0842 674A     		ldr	r2, .L5+4
 1654 0844 DF19     		adds	r7, r3, r7
 1655 0846 BE19     		adds	r6, r7, r6
 1656              	.LVL392:
 155:strong-arm\src\ripemd160/ripemd160.c **** 	JJ(cc, dd, ee, aa, bb, X[ 1], 12);
 1657              		.loc 1 155 0
 1658 0848 6346     		mov	r3, ip
 1659 084a CF43     		mvns	r7, r1
 1660 084c 1F43     		orrs	r7, r3
 1661 084e 009B     		ldr	r3, [sp]
 1662 0850 5F40     		eors	r7, r3
 1663 0852 1423     		movs	r3, #20
 1664 0854 BE19     		adds	r6, r7, r6
 1665              	.LVL393:
 1666 0856 DE41     		rors	r6, r6, r3
 1667              	.LVL394:
 1668 0858 6346     		mov	r3, ip
 1669 085a C341     		rors	r3, r3, r0
 1670 085c 1F00     		movs	r7, r3
 1671 085e 049B     		ldr	r3, [sp, #16]
 1672 0860 AE19     		adds	r6, r5, r6
 1673              	.LVL395:
 1674 0862 9B18     		adds	r3, r3, r2
 1675 0864 5D19     		adds	r5, r3, r5
 1676              	.LVL396:
 156:strong-arm\src\ripemd160/ripemd160.c **** 	JJ(bb, cc, dd, ee, aa, X[ 3], 13);
 1677              		.loc 1 156 0
 1678 0866 FB43     		mvns	r3, r7
 1679 0868 009A     		ldr	r2, [sp]
ARM GAS  C:\Users\Ray\AppData\Local\Temp\ccn0usL8.s 			page 34


 1680 086a 1343     		orrs	r3, r2
 1681 086c 1322     		movs	r2, #19
 1682 086e 7340     		eors	r3, r6
 1683 0870 5B19     		adds	r3, r3, r5
 1684              	.LVL397:
 1685 0872 D341     		rors	r3, r3, r2
 1686              	.LVL398:
 1687 0874 009A     		ldr	r2, [sp]
 1688 0876 CB18     		adds	r3, r1, r3
 1689 0878 C241     		rors	r2, r2, r0
 1690 087a 9C46     		mov	ip, r3
 1691              	.LVL399:
 1692 087c 099D     		ldr	r5, [sp, #36]
 1693 087e 584B     		ldr	r3, .L5+4
 1694              	.LVL400:
 1695 0880 ED18     		adds	r5, r5, r3
 1696 0882 6918     		adds	r1, r5, r1
 1697              	.LVL401:
 157:strong-arm\src\ripemd160/ripemd160.c **** 	JJ(aa, bb, cc, dd, ee, X[ 8], 14);
 1698              		.loc 1 157 0
 1699 0884 D543     		mvns	r5, r2
 1700 0886 6346     		mov	r3, ip
 1701 0888 3543     		orrs	r5, r6
 1702 088a 5D40     		eors	r5, r3
 1703 088c 1223     		movs	r3, #18
 1704 088e 6918     		adds	r1, r5, r1
 1705              	.LVL402:
 1706 0890 C641     		rors	r6, r6, r0
 1707              	.LVL403:
 1708 0892 D941     		rors	r1, r1, r3
 1709              	.LVL404:
 1710 0894 524D     		ldr	r5, .L5+4
 1711 0896 0C9B     		ldr	r3, [sp, #48]
 1712 0898 7918     		adds	r1, r7, r1
 1713              	.LVL405:
 1714 089a 5D19     		adds	r5, r3, r5
 1715 089c EF19     		adds	r7, r5, r7
 1716              	.LVL406:
 158:strong-arm\src\ripemd160/ripemd160.c **** 	JJ(ee, aa, bb, cc, dd, X[11], 11);
 1717              		.loc 1 158 0
 1718 089e 6346     		mov	r3, ip
 1719 08a0 F543     		mvns	r5, r6
 1720 08a2 1D43     		orrs	r5, r3
 1721 08a4 1523     		movs	r3, #21
 1722 08a6 4D40     		eors	r5, r1
 1723 08a8 ED19     		adds	r5, r5, r7
 1724              	.LVL407:
 1725 08aa DD41     		rors	r5, r5, r3
 1726              	.LVL408:
 1727 08ac 6346     		mov	r3, ip
 1728 08ae C341     		rors	r3, r3, r0
 1729 08b0 9C46     		mov	ip, r3
 1730              	.LVL409:
 1731 08b2 079F     		ldr	r7, [sp, #28]
 1732 08b4 4A4B     		ldr	r3, .L5+4
 1733 08b6 5519     		adds	r5, r2, r5
 1734              	.LVL410:
ARM GAS  C:\Users\Ray\AppData\Local\Temp\ccn0usL8.s 			page 35


 1735 08b8 FF18     		adds	r7, r7, r3
 159:strong-arm\src\ripemd160/ripemd160.c **** 	JJ(dd, ee, aa, bb, cc, X[ 6],  8);
 1736              		.loc 1 159 0
 1737 08ba 6346     		mov	r3, ip
 1738 08bc BA18     		adds	r2, r7, r2
 1739              	.LVL411:
 1740 08be DF43     		mvns	r7, r3
 1741 08c0 1823     		movs	r3, #24
 1742 08c2 0F43     		orrs	r7, r1
 1743 08c4 6F40     		eors	r7, r5
 1744 08c6 BA18     		adds	r2, r7, r2
 1745              	.LVL412:
 1746 08c8 DA41     		rors	r2, r2, r3
 1747              	.LVL413:
 1748 08ca C141     		rors	r1, r1, r0
 1749              	.LVL414:
 1750 08cc B318     		adds	r3, r6, r2
 1751 08ce 1393     		str	r3, [sp, #76]
 1752              	.LVL415:
 1753 08d0 434A     		ldr	r2, .L5+4
 1754 08d2 109B     		ldr	r3, [sp, #64]
 1755              	.LVL416:
 1756 08d4 1491     		str	r1, [sp, #80]
 1757              	.LVL417:
 1758 08d6 9A18     		adds	r2, r3, r2
 1759 08d8 9619     		adds	r6, r2, r6
 1760              	.LVL418:
 160:strong-arm\src\ripemd160/ripemd160.c **** 	JJ(cc, dd, ee, aa, bb, X[15],  5);
 1761              		.loc 1 160 0
 1762 08da CA43     		mvns	r2, r1
 1763 08dc 139B     		ldr	r3, [sp, #76]
 1764 08de 2A43     		orrs	r2, r5
 1765 08e0 5A40     		eors	r2, r3
 1766 08e2 1B23     		movs	r3, #27
 1767 08e4 9619     		adds	r6, r2, r6
 1768              	.LVL419:
 1769 08e6 DE41     		rors	r6, r6, r3
 1770              	.LVL420:
 1771 08e8 3D4A     		ldr	r2, .L5+4
 1772 08ea 0E9B     		ldr	r3, [sp, #56]
 161:strong-arm\src\ripemd160/ripemd160.c **** 	JJ(bb, cc, dd, ee, aa, X[13],  6);
 162:strong-arm\src\ripemd160/ripemd160.c **** 	
 163:strong-arm\src\ripemd160/ripemd160.c **** 	/* parallel round 1 */
 164:strong-arm\src\ripemd160/ripemd160.c **** 	JJJ(aaa, bbb, ccc, ddd, eee, X[ 5],  8);
 1773              		.loc 1 164 0
 1774 08ec 3D49     		ldr	r1, .L5+8
 1775              	.LVL421:
 1776 08ee 9A18     		adds	r2, r3, r2
 1777 08f0 E368     		ldr	r3, [r4, #12]
 1778 08f2 6244     		add	r2, r2, ip
 1779 08f4 DB43     		mvns	r3, r3
 1780 08f6 1792     		str	r2, [sp, #92]
 1781 08f8 A268     		ldr	r2, [r4, #8]
 160:strong-arm\src\ripemd160/ripemd160.c **** 	JJ(cc, dd, ee, aa, bb, X[15],  5);
 1782              		.loc 1 160 0
 1783 08fa C541     		rors	r5, r5, r0
 1784              	.LVL422:
ARM GAS  C:\Users\Ray\AppData\Local\Temp\ccn0usL8.s 			page 36


 1785              		.loc 1 164 0
 1786 08fc 1343     		orrs	r3, r2
 1787 08fe 6268     		ldr	r2, [r4, #4]
 160:strong-arm\src\ripemd160/ripemd160.c **** 	JJ(cc, dd, ee, aa, bb, X[15],  5);
 1788              		.loc 1 160 0
 1789 0900 6644     		add	r6, r6, ip
 1790              		.loc 1 164 0
 1791 0902 5340     		eors	r3, r2
 1792 0904 069A     		ldr	r2, [sp, #24]
 160:strong-arm\src\ripemd160/ripemd160.c **** 	JJ(cc, dd, ee, aa, bb, X[15],  5);
 1793              		.loc 1 160 0
 1794 0906 1596     		str	r6, [sp, #84]
 1795              	.LVL423:
 1796              		.loc 1 164 0
 1797 0908 5218     		adds	r2, r2, r1
 1798 090a 2168     		ldr	r1, [r4]
 160:strong-arm\src\ripemd160/ripemd160.c **** 	JJ(cc, dd, ee, aa, bb, X[15],  5);
 1799              		.loc 1 160 0
 1800 090c 1695     		str	r5, [sp, #88]
 1801              	.LVL424:
 1802              		.loc 1 164 0
 1803 090e 5218     		adds	r2, r2, r1
 1804 0910 9B18     		adds	r3, r3, r2
 1805 0912 1822     		movs	r2, #24
 1806 0914 D341     		rors	r3, r3, r2
 1807 0916 2269     		ldr	r2, [r4, #16]
 165:strong-arm\src\ripemd160/ripemd160.c **** 	JJJ(eee, aaa, bbb, ccc, ddd, X[14],  9);
 1808              		.loc 1 165 0
 1809 0918 3249     		ldr	r1, .L5+8
 164:strong-arm\src\ripemd160/ripemd160.c **** 	JJJ(eee, aaa, bbb, ccc, ddd, X[14],  9);
 1810              		.loc 1 164 0
 1811 091a D318     		adds	r3, r2, r3
 1812              	.LVL425:
 1813              		.loc 1 165 0
 1814 091c 119A     		ldr	r2, [sp, #68]
 166:strong-arm\src\ripemd160/ripemd160.c **** 	JJJ(ddd, eee, aaa, bbb, ccc, X[ 7],  9);
 167:strong-arm\src\ripemd160/ripemd160.c **** 	JJJ(ccc, ddd, eee, aaa, bbb, X[ 0], 11);
 168:strong-arm\src\ripemd160/ripemd160.c **** 	JJJ(bbb, ccc, ddd, eee, aaa, X[ 9], 13);
 169:strong-arm\src\ripemd160/ripemd160.c **** 	JJJ(aaa, bbb, ccc, ddd, eee, X[ 2], 15);
 170:strong-arm\src\ripemd160/ripemd160.c **** 	JJJ(eee, aaa, bbb, ccc, ddd, X[11], 15);
 171:strong-arm\src\ripemd160/ripemd160.c **** 	JJJ(ddd, eee, aaa, bbb, ccc, X[ 4],  5);
 172:strong-arm\src\ripemd160/ripemd160.c **** 	JJJ(ccc, ddd, eee, aaa, bbb, X[13],  7);
 173:strong-arm\src\ripemd160/ripemd160.c **** 	JJJ(bbb, ccc, ddd, eee, aaa, X[ 6],  7);
 174:strong-arm\src\ripemd160/ripemd160.c **** 	JJJ(aaa, bbb, ccc, ddd, eee, X[15],  8);
 175:strong-arm\src\ripemd160/ripemd160.c **** 	JJJ(eee, aaa, bbb, ccc, ddd, X[ 8], 11);
 176:strong-arm\src\ripemd160/ripemd160.c **** 	JJJ(ddd, eee, aaa, bbb, ccc, X[ 1], 14);
 177:strong-arm\src\ripemd160/ripemd160.c **** 	JJJ(ccc, ddd, eee, aaa, bbb, X[10], 14);
 1815              		.loc 1 177 0
 1816 091e 0090     		str	r0, [sp]
 165:strong-arm\src\ripemd160/ripemd160.c **** 	JJJ(ddd, eee, aaa, bbb, ccc, X[ 7],  9);
 1817              		.loc 1 165 0
 1818 0920 D543     		mvns	r5, r2
 1819              	.LVL426:
 1820 0922 6268     		ldr	r2, [r4, #4]
 1821 0924 1543     		orrs	r5, r2
 1822              	.LVL427:
 1823 0926 0F9A     		ldr	r2, [sp, #60]
ARM GAS  C:\Users\Ray\AppData\Local\Temp\ccn0usL8.s 			page 37


 1824 0928 5D40     		eors	r5, r3
 1825              	.LVL428:
 1826 092a 5218     		adds	r2, r2, r1
 1827 092c 2169     		ldr	r1, [r4, #16]
 1828 092e 5218     		adds	r2, r2, r1
 1829 0930 AD18     		adds	r5, r5, r2
 1830 0932 1722     		movs	r2, #23
 1831 0934 D541     		rors	r5, r5, r2
 1832 0936 E268     		ldr	r2, [r4, #12]
 166:strong-arm\src\ripemd160/ripemd160.c **** 	JJJ(ddd, eee, aaa, bbb, ccc, X[ 7],  9);
 1833              		.loc 1 166 0
 1834 0938 2A49     		ldr	r1, .L5+8
 165:strong-arm\src\ripemd160/ripemd160.c **** 	JJJ(ddd, eee, aaa, bbb, ccc, X[ 7],  9);
 1835              		.loc 1 165 0
 1836 093a 5519     		adds	r5, r2, r5
 1837              	.LVL429:
 166:strong-arm\src\ripemd160/ripemd160.c **** 	JJJ(ddd, eee, aaa, bbb, ccc, X[ 7],  9);
 1838              		.loc 1 166 0
 1839 093c 129A     		ldr	r2, [sp, #72]
 1840 093e D743     		mvns	r7, r2
 1841 0940 1F43     		orrs	r7, r3
 1842              	.LVL430:
 1843 0942 C341     		rors	r3, r3, r0
 1844              	.LVL431:
 1845 0944 089A     		ldr	r2, [sp, #32]
 1846 0946 6F40     		eors	r7, r5
 1847              	.LVL432:
 1848 0948 5218     		adds	r2, r2, r1
 1849 094a E168     		ldr	r1, [r4, #12]
 1850              	.LVL433:
 167:strong-arm\src\ripemd160/ripemd160.c **** 	JJJ(bbb, ccc, ddd, eee, aaa, X[ 9], 13);
 1851              		.loc 1 167 0
 1852 094c DE43     		mvns	r6, r3
 1853              	.LVL434:
 166:strong-arm\src\ripemd160/ripemd160.c **** 	JJJ(ddd, eee, aaa, bbb, ccc, X[ 7],  9);
 1854              		.loc 1 166 0
 1855 094e 5218     		adds	r2, r2, r1
 1856 0950 BF18     		adds	r7, r7, r2
 1857 0952 1722     		movs	r2, #23
 1858 0954 D741     		rors	r7, r7, r2
 167:strong-arm\src\ripemd160/ripemd160.c **** 	JJJ(bbb, ccc, ddd, eee, aaa, X[ 9], 13);
 1859              		.loc 1 167 0
 1860 0956 2E43     		orrs	r6, r5
 1861 0958 C541     		rors	r5, r5, r0
 1862              	.LVL435:
 166:strong-arm\src\ripemd160/ripemd160.c **** 	JJJ(ddd, eee, aaa, bbb, ccc, X[ 7],  9);
 1863              		.loc 1 166 0
 1864 095a 119A     		ldr	r2, [sp, #68]
 1865              	.LVL436:
 167:strong-arm\src\ripemd160/ripemd160.c **** 	JJJ(bbb, ccc, ddd, eee, aaa, X[ 9], 13);
 1866              		.loc 1 167 0
 1867 095c 2149     		ldr	r1, .L5+8
 1868              	.LVL437:
 166:strong-arm\src\ripemd160/ripemd160.c **** 	JJJ(ddd, eee, aaa, bbb, ccc, X[ 7],  9);
 1869              		.loc 1 166 0
 1870 095e D719     		adds	r7, r2, r7
 1871              	.LVL438:
ARM GAS  C:\Users\Ray\AppData\Local\Temp\ccn0usL8.s 			page 38


 167:strong-arm\src\ripemd160/ripemd160.c **** 	JJJ(bbb, ccc, ddd, eee, aaa, X[ 9], 13);
 1872              		.loc 1 167 0
 1873 0960 019A     		ldr	r2, [sp, #4]
 1874 0962 7E40     		eors	r6, r7
 1875 0964 5218     		adds	r2, r2, r1
 1876 0966 1199     		ldr	r1, [sp, #68]
 1877              	.LVL439:
 166:strong-arm\src\ripemd160/ripemd160.c **** 	JJJ(ddd, eee, aaa, bbb, ccc, X[ 7],  9);
 1878              		.loc 1 166 0
 1879 0968 9C46     		mov	ip, r3
 1880              	.LVL440:
 167:strong-arm\src\ripemd160/ripemd160.c **** 	JJJ(bbb, ccc, ddd, eee, aaa, X[ 9], 13);
 1881              		.loc 1 167 0
 1882 096a 5218     		adds	r2, r2, r1
 1883 096c B618     		adds	r6, r6, r2
 1884 096e 1522     		movs	r2, #21
 168:strong-arm\src\ripemd160/ripemd160.c **** 	JJJ(aaa, bbb, ccc, ddd, eee, X[ 2], 15);
 1885              		.loc 1 168 0
 1886 0970 E943     		mvns	r1, r5
 167:strong-arm\src\ripemd160/ripemd160.c **** 	JJJ(bbb, ccc, ddd, eee, aaa, X[ 9], 13);
 1887              		.loc 1 167 0
 1888 0972 D641     		rors	r6, r6, r2
 168:strong-arm\src\ripemd160/ripemd160.c **** 	JJJ(aaa, bbb, ccc, ddd, eee, X[ 2], 15);
 1889              		.loc 1 168 0
 1890 0974 3943     		orrs	r1, r7
 1891 0976 0B00     		movs	r3, r1
 1892              	.LVL441:
 167:strong-arm\src\ripemd160/ripemd160.c **** 	JJJ(bbb, ccc, ddd, eee, aaa, X[ 9], 13);
 1893              		.loc 1 167 0
 1894 0978 129A     		ldr	r2, [sp, #72]
 168:strong-arm\src\ripemd160/ripemd160.c **** 	JJJ(aaa, bbb, ccc, ddd, eee, X[ 2], 15);
 1895              		.loc 1 168 0
 1896 097a 1A49     		ldr	r1, .L5+8
 1897              	.LVL442:
 167:strong-arm\src\ripemd160/ripemd160.c **** 	JJJ(bbb, ccc, ddd, eee, aaa, X[ 9], 13);
 1898              		.loc 1 167 0
 1899 097c 9619     		adds	r6, r2, r6
 1900              	.LVL443:
 168:strong-arm\src\ripemd160/ripemd160.c **** 	JJJ(aaa, bbb, ccc, ddd, eee, X[ 2], 15);
 1901              		.loc 1 168 0
 1902 097e 0A9A     		ldr	r2, [sp, #40]
 1903 0980 7340     		eors	r3, r6
 1904              	.LVL444:
 1905 0982 5218     		adds	r2, r2, r1
 1906 0984 1299     		ldr	r1, [sp, #72]
 1907 0986 C741     		rors	r7, r7, r0
 1908              	.LVL445:
 1909 0988 5218     		adds	r2, r2, r1
 1910 098a 9918     		adds	r1, r3, r2
 1911 098c 1322     		movs	r2, #19
 1912 098e 154B     		ldr	r3, .L5+8
 1913 0990 D141     		rors	r1, r1, r2
 1914 0992 039A     		ldr	r2, [sp, #12]
 1915 0994 6144     		add	r1, r1, ip
 1916              	.LVL446:
 1917 0996 D218     		adds	r2, r2, r3
 1918 0998 1300     		movs	r3, r2
ARM GAS  C:\Users\Ray\AppData\Local\Temp\ccn0usL8.s 			page 39


 169:strong-arm\src\ripemd160/ripemd160.c **** 	JJJ(eee, aaa, bbb, ccc, ddd, X[11], 15);
 1919              		.loc 1 169 0
 1920 099a FA43     		mvns	r2, r7
 1921 099c 3243     		orrs	r2, r6
 1922 099e 4A40     		eors	r2, r1
 1923 09a0 6344     		add	r3, r3, ip
 1924              	.LVL447:
 1925 09a2 D318     		adds	r3, r2, r3
 1926              	.LVL448:
 1927 09a4 1122     		movs	r2, #17
 1928 09a6 D341     		rors	r3, r3, r2
 1929              	.LVL449:
 1930 09a8 C641     		rors	r6, r6, r0
 1931              	.LVL450:
 1932 09aa EB18     		adds	r3, r5, r3
 1933 09ac 9C46     		mov	ip, r3
 1934              	.LVL451:
 1935 09ae 0C9A     		ldr	r2, [sp, #48]
 1936 09b0 0C4B     		ldr	r3, .L5+8
 1937              	.LVL452:
 1938 09b2 D218     		adds	r2, r2, r3
 1939 09b4 5519     		adds	r5, r2, r5
 1940              	.LVL453:
 170:strong-arm\src\ripemd160/ripemd160.c **** 	JJJ(ddd, eee, aaa, bbb, ccc, X[ 4],  5);
 1941              		.loc 1 170 0
 1942 09b6 F243     		mvns	r2, r6
 1943 09b8 6346     		mov	r3, ip
 1944 09ba 0A43     		orrs	r2, r1
 1945 09bc 5A40     		eors	r2, r3
 1946 09be 1123     		movs	r3, #17
 1947 09c0 5519     		adds	r5, r2, r5
 1948              	.LVL454:
 1949 09c2 C141     		rors	r1, r1, r0
 1950              	.LVL455:
 1951 09c4 DD41     		rors	r5, r5, r3
 1952              	.LVL456:
 1953 09c6 074A     		ldr	r2, .L5+8
 1954 09c8 059B     		ldr	r3, [sp, #20]
 1955 09ca 7D19     		adds	r5, r7, r5
 1956              	.LVL457:
 1957 09cc 9A18     		adds	r2, r3, r2
 1958 09ce D719     		adds	r7, r2, r7
 1959              	.LVL458:
 171:strong-arm\src\ripemd160/ripemd160.c **** 	JJJ(ccc, ddd, eee, aaa, bbb, X[13],  7);
 1960              		.loc 1 171 0
 1961 09d0 6346     		mov	r3, ip
 1962 09d2 CA43     		mvns	r2, r1
 1963 09d4 1A43     		orrs	r2, r3
 1964 09d6 1B23     		movs	r3, #27
 1965 09d8 06E0     		b	.L6
 1966              	.L7:
 1967 09da C046     		.align	2
 1968              	.L5:
 1969 09dc DCBC1B8F 		.word	-1894007588
 1970 09e0 4EFD53A9 		.word	-1454113458
 1971 09e4 E68BA250 		.word	1352829926
 1972              	.L6:
ARM GAS  C:\Users\Ray\AppData\Local\Temp\ccn0usL8.s 			page 40


 1973 09e8 6A40     		eors	r2, r5
 1974 09ea D719     		adds	r7, r2, r7
 1975              	.LVL459:
 1976 09ec DF41     		rors	r7, r7, r3
 1977              	.LVL460:
 1978 09ee 6346     		mov	r3, ip
 1979 09f0 C341     		rors	r3, r3, r0
 1980 09f2 9C46     		mov	ip, r3
 1981              	.LVL461:
 1982 09f4 0E9A     		ldr	r2, [sp, #56]
 1983 09f6 FE4B     		ldr	r3, .L8
 1984 09f8 F719     		adds	r7, r6, r7
 1985              	.LVL462:
 1986 09fa D218     		adds	r2, r2, r3
 172:strong-arm\src\ripemd160/ripemd160.c **** 	JJJ(bbb, ccc, ddd, eee, aaa, X[ 6],  7);
 1987              		.loc 1 172 0
 1988 09fc 6346     		mov	r3, ip
 1989 09fe 9619     		adds	r6, r2, r6
 1990              	.LVL463:
 1991 0a00 DA43     		mvns	r2, r3
 1992 0a02 1923     		movs	r3, #25
 1993 0a04 2A43     		orrs	r2, r5
 1994 0a06 7A40     		eors	r2, r7
 1995 0a08 9619     		adds	r6, r2, r6
 1996              	.LVL464:
 1997 0a0a C541     		rors	r5, r5, r0
 1998              	.LVL465:
 1999 0a0c DE41     		rors	r6, r6, r3
 2000              	.LVL466:
 2001 0a0e F84A     		ldr	r2, .L8
 2002 0a10 079B     		ldr	r3, [sp, #28]
 2003 0a12 8E19     		adds	r6, r1, r6
 2004              	.LVL467:
 2005 0a14 9A18     		adds	r2, r3, r2
 2006 0a16 5118     		adds	r1, r2, r1
 2007              	.LVL468:
 173:strong-arm\src\ripemd160/ripemd160.c **** 	JJJ(aaa, bbb, ccc, ddd, eee, X[15],  8);
 2008              		.loc 1 173 0
 2009 0a18 EA43     		mvns	r2, r5
 2010 0a1a 1923     		movs	r3, #25
 2011 0a1c 3A43     		orrs	r2, r7
 2012 0a1e C741     		rors	r7, r7, r0
 2013              	.LVL469:
 2014 0a20 7240     		eors	r2, r6
 2015 0a22 5118     		adds	r1, r2, r1
 2016              	.LVL470:
 2017 0a24 D941     		rors	r1, r1, r3
 2018              	.LVL471:
 2019 0a26 F24A     		ldr	r2, .L8
 2020 0a28 109B     		ldr	r3, [sp, #64]
 2021 0a2a 6144     		add	r1, r1, ip
 2022              	.LVL472:
 2023 0a2c 9A18     		adds	r2, r3, r2
 2024 0a2e 1300     		movs	r3, r2
 174:strong-arm\src\ripemd160/ripemd160.c **** 	JJJ(eee, aaa, bbb, ccc, ddd, X[ 8], 11);
 2025              		.loc 1 174 0
 2026 0a30 FA43     		mvns	r2, r7
ARM GAS  C:\Users\Ray\AppData\Local\Temp\ccn0usL8.s 			page 41


 2027 0a32 3243     		orrs	r2, r6
 2028 0a34 6344     		add	r3, r3, ip
 2029              	.LVL473:
 2030 0a36 4A40     		eors	r2, r1
 2031 0a38 D218     		adds	r2, r2, r3
 2032              	.LVL474:
 2033 0a3a 1823     		movs	r3, #24
 2034 0a3c DA41     		rors	r2, r2, r3
 2035              	.LVL475:
 2036 0a3e C641     		rors	r6, r6, r0
 2037              	.LVL476:
 2038 0a40 AB18     		adds	r3, r5, r2
 2039 0a42 9C46     		mov	ip, r3
 2040              	.LVL477:
 2041 0a44 EA4A     		ldr	r2, .L8
 2042 0a46 099B     		ldr	r3, [sp, #36]
 2043              	.LVL478:
 2044 0a48 9B18     		adds	r3, r3, r2
 2045 0a4a 5D19     		adds	r5, r3, r5
 2046              	.LVL479:
 175:strong-arm\src\ripemd160/ripemd160.c **** 	JJJ(ddd, eee, aaa, bbb, ccc, X[ 1], 14);
 2047              		.loc 1 175 0
 2048 0a4c F343     		mvns	r3, r6
 2049 0a4e 6246     		mov	r2, ip
 2050 0a50 0B43     		orrs	r3, r1
 2051 0a52 5340     		eors	r3, r2
 2052 0a54 5D19     		adds	r5, r3, r5
 2053              	.LVL480:
 2054 0a56 1523     		movs	r3, #21
 2055 0a58 C141     		rors	r1, r1, r0
 2056              	.LVL481:
 2057 0a5a DD41     		rors	r5, r5, r3
 2058              	.LVL482:
 2059 0a5c E44A     		ldr	r2, .L8
 2060 0a5e 029B     		ldr	r3, [sp, #8]
 2061 0a60 7D19     		adds	r5, r7, r5
 2062              	.LVL483:
 2063 0a62 9B18     		adds	r3, r3, r2
 2064 0a64 DF19     		adds	r7, r3, r7
 2065              	.LVL484:
 176:strong-arm\src\ripemd160/ripemd160.c **** 	JJJ(ccc, ddd, eee, aaa, bbb, X[10], 14);
 2066              		.loc 1 176 0
 2067 0a66 6246     		mov	r2, ip
 2068 0a68 CB43     		mvns	r3, r1
 2069 0a6a 1343     		orrs	r3, r2
 2070 0a6c 6B40     		eors	r3, r5
 2071 0a6e DF19     		adds	r7, r3, r7
 2072              	.LVL485:
 2073 0a70 1223     		movs	r3, #18
 2074 0a72 DF41     		rors	r7, r7, r3
 2075              	.LVL486:
 2076 0a74 6346     		mov	r3, ip
 2077 0a76 C341     		rors	r3, r3, r0
 2078 0a78 DD4A     		ldr	r2, .L8
 2079 0a7a 1193     		str	r3, [sp, #68]
 2080 0a7c 0B9B     		ldr	r3, [sp, #44]
 2081 0a7e F719     		adds	r7, r6, r7
ARM GAS  C:\Users\Ray\AppData\Local\Temp\ccn0usL8.s 			page 42


 2082              	.LVL487:
 2083 0a80 9B18     		adds	r3, r3, r2
 2084 0a82 9E19     		adds	r6, r3, r6
 2085              	.LVL488:
 2086              		.loc 1 177 0
 2087 0a84 119B     		ldr	r3, [sp, #68]
 2088 0a86 DB43     		mvns	r3, r3
 2089 0a88 2B43     		orrs	r3, r5
 2090 0a8a C541     		rors	r5, r5, r0
 2091              	.LVL489:
 2092 0a8c 1000     		movs	r0, r2
 2093 0a8e 049A     		ldr	r2, [sp, #16]
 2094 0a90 7B40     		eors	r3, r7
 2095 0a92 9446     		mov	ip, r2
 2096 0a94 9E19     		adds	r6, r3, r6
 2097              	.LVL490:
 178:strong-arm\src\ripemd160/ripemd160.c **** 	JJJ(bbb, ccc, ddd, eee, aaa, X[ 3], 12);
 2098              		.loc 1 178 0
 2099 0a96 EA43     		mvns	r2, r5
 177:strong-arm\src\ripemd160/ripemd160.c **** 	JJJ(bbb, ccc, ddd, eee, aaa, X[ 3], 12);
 2100              		.loc 1 177 0
 2101 0a98 1223     		movs	r3, #18
 2102 0a9a 6044     		add	r0, r0, ip
 2103 0a9c 8446     		mov	ip, r0
 2104 0a9e DE41     		rors	r6, r6, r3
 2105              	.LVL491:
 2106              		.loc 1 178 0
 2107 0aa0 1000     		movs	r0, r2
 177:strong-arm\src\ripemd160/ripemd160.c **** 	JJJ(bbb, ccc, ddd, eee, aaa, X[ 3], 12);
 2108              		.loc 1 177 0
 2109 0aa2 8E19     		adds	r6, r1, r6
 2110              	.LVL492:
 2111              		.loc 1 178 0
 2112 0aa4 3843     		orrs	r0, r7
 2113 0aa6 7040     		eors	r0, r6
 2114 0aa8 6144     		add	r1, r1, ip
 2115              	.LVL493:
 2116 0aaa 8446     		mov	ip, r0
 2117 0aac 1422     		movs	r2, #20
 2118 0aae 6144     		add	r1, r1, ip
 2119              	.LVL494:
 2120 0ab0 D141     		rors	r1, r1, r2
 2121              	.LVL495:
 2122 0ab2 119B     		ldr	r3, [sp, #68]
 2123 0ab4 0D9A     		ldr	r2, [sp, #52]
 2124 0ab6 5918     		adds	r1, r3, r1
 2125              	.LVL496:
 2126 0ab8 1623     		movs	r3, #22
 2127 0aba 9446     		mov	ip, r2
 2128 0abc DF41     		rors	r7, r7, r3
 2129              	.LVL497:
 2130 0abe CC48     		ldr	r0, .L8
 2131 0ac0 119B     		ldr	r3, [sp, #68]
 2132 0ac2 6044     		add	r0, r0, ip
 2133 0ac4 8446     		mov	ip, r0
 179:strong-arm\src\ripemd160/ripemd160.c **** 	JJJ(aaa, bbb, ccc, ddd, eee, X[12],  6);
 2134              		.loc 1 179 0
ARM GAS  C:\Users\Ray\AppData\Local\Temp\ccn0usL8.s 			page 43


 2135 0ac6 F843     		mvns	r0, r7
 2136 0ac8 6344     		add	r3, r3, ip
 2137 0aca 1A00     		movs	r2, r3
 2138              	.LVL498:
 2139 0acc 3043     		orrs	r0, r6
 2140 0ace 1623     		movs	r3, #22
 2141 0ad0 4840     		eors	r0, r1
 2142 0ad2 8446     		mov	ip, r0
 2143 0ad4 DE41     		rors	r6, r6, r3
 2144              	.LVL499:
 2145 0ad6 1A20     		movs	r0, #26
 2146 0ad8 079B     		ldr	r3, [sp, #28]
 2147 0ada 6244     		add	r2, r2, ip
 2148              	.LVL500:
 2149 0adc 9C46     		mov	ip, r3
 2150 0ade C241     		rors	r2, r2, r0
 2151              	.LVL501:
 2152 0ae0 C448     		ldr	r0, .L8+4
 2153 0ae2 AA18     		adds	r2, r5, r2
 2154              	.LVL502:
 2155 0ae4 6044     		add	r0, r0, ip
 2156 0ae6 8446     		mov	ip, r0
 180:strong-arm\src\ripemd160/ripemd160.c **** 	
 181:strong-arm\src\ripemd160/ripemd160.c **** 	/* parallel round 2 */
 182:strong-arm\src\ripemd160/ripemd160.c **** 	III(eee, aaa, bbb, ccc, ddd, X[ 6],  9); 
 2157              		.loc 1 182 0
 2158 0ae8 0800     		movs	r0, r1
 2159 0aea 5040     		eors	r0, r2
 2160 0aec 3040     		ands	r0, r6
 2161 0aee 4840     		eors	r0, r1
 2162 0af0 6544     		add	r5, r5, ip
 2163              	.LVL503:
 2164 0af2 8446     		mov	ip, r0
 2165 0af4 1723     		movs	r3, #23
 2166 0af6 6544     		add	r5, r5, ip
 2167              	.LVL504:
 2168 0af8 DD41     		rors	r5, r5, r3
 2169              	.LVL505:
 2170 0afa 013B     		subs	r3, r3, #1
 2171 0afc D941     		rors	r1, r1, r3
 2172              	.LVL506:
 2173 0afe 0C9B     		ldr	r3, [sp, #48]
 2174 0b00 BC48     		ldr	r0, .L8+4
 2175 0b02 9C46     		mov	ip, r3
 2176 0b04 6044     		add	r0, r0, ip
 2177 0b06 8446     		mov	ip, r0
 183:strong-arm\src\ripemd160/ripemd160.c **** 	III(ddd, eee, aaa, bbb, ccc, X[11], 13);
 2178              		.loc 1 183 0
 2179 0b08 1000     		movs	r0, r2
 182:strong-arm\src\ripemd160/ripemd160.c **** 	III(ddd, eee, aaa, bbb, ccc, X[11], 13);
 2180              		.loc 1 182 0
 2181 0b0a 7D19     		adds	r5, r7, r5
 2182              	.LVL507:
 2183              		.loc 1 183 0
 2184 0b0c 6840     		eors	r0, r5
 2185 0b0e 0840     		ands	r0, r1
 2186 0b10 5040     		eors	r0, r2
ARM GAS  C:\Users\Ray\AppData\Local\Temp\ccn0usL8.s 			page 44


 2187 0b12 6744     		add	r7, r7, ip
 2188              	.LVL508:
 2189 0b14 8446     		mov	ip, r0
 2190 0b16 1323     		movs	r3, #19
 2191 0b18 6744     		add	r7, r7, ip
 2192              	.LVL509:
 2193 0b1a DF41     		rors	r7, r7, r3
 2194              	.LVL510:
 2195 0b1c 0333     		adds	r3, r3, #3
 2196 0b1e DA41     		rors	r2, r2, r3
 2197              	.LVL511:
 2198 0b20 049B     		ldr	r3, [sp, #16]
 2199 0b22 B448     		ldr	r0, .L8+4
 2200 0b24 9C46     		mov	ip, r3
 2201 0b26 6044     		add	r0, r0, ip
 2202 0b28 8446     		mov	ip, r0
 184:strong-arm\src\ripemd160/ripemd160.c **** 	III(ccc, ddd, eee, aaa, bbb, X[ 3], 15);
 2203              		.loc 1 184 0
 2204 0b2a 2800     		movs	r0, r5
 183:strong-arm\src\ripemd160/ripemd160.c **** 	III(ddd, eee, aaa, bbb, ccc, X[11], 13);
 2205              		.loc 1 183 0
 2206 0b2c F719     		adds	r7, r6, r7
 2207              	.LVL512:
 2208              		.loc 1 184 0
 2209 0b2e 7840     		eors	r0, r7
 2210 0b30 1040     		ands	r0, r2
 2211 0b32 6840     		eors	r0, r5
 2212 0b34 6644     		add	r6, r6, ip
 2213              	.LVL513:
 2214 0b36 8446     		mov	ip, r0
 2215 0b38 1123     		movs	r3, #17
 2216 0b3a 6644     		add	r6, r6, ip
 2217              	.LVL514:
 2218 0b3c DE41     		rors	r6, r6, r3
 2219              	.LVL515:
 2220 0b3e 0533     		adds	r3, r3, #5
 2221 0b40 DD41     		rors	r5, r5, r3
 2222              	.LVL516:
 2223 0b42 089B     		ldr	r3, [sp, #32]
 2224 0b44 AB48     		ldr	r0, .L8+4
 2225 0b46 9C46     		mov	ip, r3
 2226 0b48 6044     		add	r0, r0, ip
 2227 0b4a 8446     		mov	ip, r0
 2228 0b4c 8E19     		adds	r6, r1, r6
 2229              	.LVL517:
 2230 0b4e 8C44     		add	ip, ip, r1
 2231              	.LVL518:
 185:strong-arm\src\ripemd160/ripemd160.c **** 	III(bbb, ccc, ddd, eee, aaa, X[ 7],  7);
 2232              		.loc 1 185 0
 2233 0b50 3900     		movs	r1, r7
 2234 0b52 1923     		movs	r3, #25
 2235 0b54 7140     		eors	r1, r6
 2236 0b56 2940     		ands	r1, r5
 2237 0b58 7940     		eors	r1, r7
 2238 0b5a 6144     		add	r1, r1, ip
 2239              	.LVL519:
 2240 0b5c D941     		rors	r1, r1, r3
ARM GAS  C:\Users\Ray\AppData\Local\Temp\ccn0usL8.s 			page 45


 2241              	.LVL520:
 2242 0b5e 033B     		subs	r3, r3, #3
 2243 0b60 DF41     		rors	r7, r7, r3
 2244              	.LVL521:
 2245 0b62 019B     		ldr	r3, [sp, #4]
 2246 0b64 A348     		ldr	r0, .L8+4
 2247 0b66 9C46     		mov	ip, r3
 2248 0b68 6044     		add	r0, r0, ip
 2249 0b6a 8446     		mov	ip, r0
 186:strong-arm\src\ripemd160/ripemd160.c **** 	III(aaa, bbb, ccc, ddd, eee, X[ 0], 12);
 2250              		.loc 1 186 0
 2251 0b6c 3000     		movs	r0, r6
 185:strong-arm\src\ripemd160/ripemd160.c **** 	III(bbb, ccc, ddd, eee, aaa, X[ 7],  7);
 2252              		.loc 1 185 0
 2253 0b6e 5118     		adds	r1, r2, r1
 2254              	.LVL522:
 2255              		.loc 1 186 0
 2256 0b70 4840     		eors	r0, r1
 2257 0b72 3840     		ands	r0, r7
 2258 0b74 7040     		eors	r0, r6
 2259 0b76 6244     		add	r2, r2, ip
 2260              	.LVL523:
 2261 0b78 8446     		mov	ip, r0
 2262 0b7a 1423     		movs	r3, #20
 2263 0b7c 6244     		add	r2, r2, ip
 2264              	.LVL524:
 2265 0b7e DA41     		rors	r2, r2, r3
 2266              	.LVL525:
 2267 0b80 0233     		adds	r3, r3, #2
 2268 0b82 DE41     		rors	r6, r6, r3
 2269              	.LVL526:
 2270 0b84 0E9B     		ldr	r3, [sp, #56]
 2271 0b86 9B48     		ldr	r0, .L8+4
 2272 0b88 9C46     		mov	ip, r3
 2273 0b8a 6044     		add	r0, r0, ip
 2274 0b8c 8446     		mov	ip, r0
 187:strong-arm\src\ripemd160/ripemd160.c **** 	III(eee, aaa, bbb, ccc, ddd, X[13],  8);
 2275              		.loc 1 187 0
 2276 0b8e 0800     		movs	r0, r1
 186:strong-arm\src\ripemd160/ripemd160.c **** 	III(aaa, bbb, ccc, ddd, eee, X[ 0], 12);
 2277              		.loc 1 186 0
 2278 0b90 AA18     		adds	r2, r5, r2
 2279              	.LVL527:
 2280              		.loc 1 187 0
 2281 0b92 5040     		eors	r0, r2
 2282 0b94 3040     		ands	r0, r6
 2283 0b96 4840     		eors	r0, r1
 2284 0b98 6544     		add	r5, r5, ip
 2285              	.LVL528:
 2286 0b9a 8446     		mov	ip, r0
 2287 0b9c 1823     		movs	r3, #24
 2288 0b9e 6544     		add	r5, r5, ip
 2289              	.LVL529:
 2290 0ba0 DD41     		rors	r5, r5, r3
 2291              	.LVL530:
 2292 0ba2 023B     		subs	r3, r3, #2
 2293 0ba4 D941     		rors	r1, r1, r3
ARM GAS  C:\Users\Ray\AppData\Local\Temp\ccn0usL8.s 			page 46


 2294              	.LVL531:
 2295 0ba6 069B     		ldr	r3, [sp, #24]
 2296 0ba8 9248     		ldr	r0, .L8+4
 2297 0baa 9C46     		mov	ip, r3
 2298 0bac 6044     		add	r0, r0, ip
 2299 0bae 8446     		mov	ip, r0
 188:strong-arm\src\ripemd160/ripemd160.c **** 	III(ddd, eee, aaa, bbb, ccc, X[ 5],  9);
 2300              		.loc 1 188 0
 2301 0bb0 1000     		movs	r0, r2
 187:strong-arm\src\ripemd160/ripemd160.c **** 	III(eee, aaa, bbb, ccc, ddd, X[13],  8);
 2302              		.loc 1 187 0
 2303 0bb2 7D19     		adds	r5, r7, r5
 2304              	.LVL532:
 2305              		.loc 1 188 0
 2306 0bb4 6840     		eors	r0, r5
 2307 0bb6 0840     		ands	r0, r1
 2308 0bb8 5040     		eors	r0, r2
 2309 0bba 6744     		add	r7, r7, ip
 2310              	.LVL533:
 2311 0bbc 8446     		mov	ip, r0
 2312 0bbe 1723     		movs	r3, #23
 2313 0bc0 6744     		add	r7, r7, ip
 2314              	.LVL534:
 2315 0bc2 DF41     		rors	r7, r7, r3
 2316              	.LVL535:
 2317 0bc4 013B     		subs	r3, r3, #1
 2318 0bc6 DA41     		rors	r2, r2, r3
 2319              	.LVL536:
 2320 0bc8 0B9B     		ldr	r3, [sp, #44]
 2321 0bca 8A48     		ldr	r0, .L8+4
 2322 0bcc 9C46     		mov	ip, r3
 2323 0bce 6044     		add	r0, r0, ip
 2324 0bd0 8446     		mov	ip, r0
 189:strong-arm\src\ripemd160/ripemd160.c **** 	III(ccc, ddd, eee, aaa, bbb, X[10], 11);
 2325              		.loc 1 189 0
 2326 0bd2 2800     		movs	r0, r5
 188:strong-arm\src\ripemd160/ripemd160.c **** 	III(ddd, eee, aaa, bbb, ccc, X[ 5],  9);
 2327              		.loc 1 188 0
 2328 0bd4 F719     		adds	r7, r6, r7
 2329              	.LVL537:
 2330              		.loc 1 189 0
 2331 0bd6 7840     		eors	r0, r7
 2332 0bd8 1040     		ands	r0, r2
 2333 0bda 6840     		eors	r0, r5
 2334 0bdc 6644     		add	r6, r6, ip
 2335              	.LVL538:
 2336 0bde 8446     		mov	ip, r0
 2337 0be0 1523     		movs	r3, #21
 2338 0be2 6644     		add	r6, r6, ip
 2339              	.LVL539:
 2340 0be4 DE41     		rors	r6, r6, r3
 2341              	.LVL540:
 2342 0be6 8B19     		adds	r3, r1, r6
 2343 0be8 9C46     		mov	ip, r3
 2344              	.LVL541:
 2345 0bea 1623     		movs	r3, #22
 2346              	.LVL542:
ARM GAS  C:\Users\Ray\AppData\Local\Temp\ccn0usL8.s 			page 47


 2347 0bec 8148     		ldr	r0, .L8+4
 2348 0bee DD41     		rors	r5, r5, r3
 2349              	.LVL543:
 2350 0bf0 0F9B     		ldr	r3, [sp, #60]
 2351 0bf2 1E18     		adds	r6, r3, r0
 2352 0bf4 7118     		adds	r1, r6, r1
 2353              	.LVL544:
 190:strong-arm\src\ripemd160/ripemd160.c **** 	III(bbb, ccc, ddd, eee, aaa, X[14],  7);
 2354              		.loc 1 190 0
 2355 0bf6 6646     		mov	r6, ip
 2356 0bf8 1923     		movs	r3, #25
 2357 0bfa 7E40     		eors	r6, r7
 2358 0bfc 2E40     		ands	r6, r5
 2359 0bfe 7E40     		eors	r6, r7
 2360 0c00 7118     		adds	r1, r6, r1
 2361              	.LVL545:
 2362 0c02 D941     		rors	r1, r1, r3
 2363              	.LVL546:
 2364 0c04 033B     		subs	r3, r3, #3
 2365 0c06 DF41     		rors	r7, r7, r3
 2366              	.LVL547:
 2367 0c08 109B     		ldr	r3, [sp, #64]
 2368 0c0a 5118     		adds	r1, r2, r1
 2369              	.LVL548:
 2370 0c0c 1E18     		adds	r6, r3, r0
 2371 0c0e B218     		adds	r2, r6, r2
 2372              	.LVL549:
 191:strong-arm\src\ripemd160/ripemd160.c **** 	III(aaa, bbb, ccc, ddd, eee, X[15],  7);
 2373              		.loc 1 191 0
 2374 0c10 6646     		mov	r6, ip
 2375 0c12 6346     		mov	r3, ip
 2376 0c14 4E40     		eors	r6, r1
 2377 0c16 3E40     		ands	r6, r7
 2378 0c18 5E40     		eors	r6, r3
 2379 0c1a 1923     		movs	r3, #25
 2380 0c1c B618     		adds	r6, r6, r2
 2381              	.LVL550:
 2382 0c1e 6246     		mov	r2, ip
 2383 0c20 DE41     		rors	r6, r6, r3
 2384              	.LVL551:
 2385 0c22 033B     		subs	r3, r3, #3
 2386 0c24 DA41     		rors	r2, r2, r3
 2387 0c26 099B     		ldr	r3, [sp, #36]
 2388 0c28 AE19     		adds	r6, r5, r6
 2389              	.LVL552:
 2390 0c2a 9C46     		mov	ip, r3
 2391 0c2c 6044     		add	r0, r0, ip
 2392 0c2e 8446     		mov	ip, r0
 192:strong-arm\src\ripemd160/ripemd160.c **** 	III(eee, aaa, bbb, ccc, ddd, X[ 8], 12);
 2393              		.loc 1 192 0
 2394 0c30 0800     		movs	r0, r1
 2395 0c32 7040     		eors	r0, r6
 2396 0c34 1040     		ands	r0, r2
 2397 0c36 4840     		eors	r0, r1
 2398 0c38 6544     		add	r5, r5, ip
 2399              	.LVL553:
 2400 0c3a 8446     		mov	ip, r0
ARM GAS  C:\Users\Ray\AppData\Local\Temp\ccn0usL8.s 			page 48


 2401 0c3c 1423     		movs	r3, #20
 2402 0c3e 6544     		add	r5, r5, ip
 2403              	.LVL554:
 2404 0c40 DD41     		rors	r5, r5, r3
 2405              	.LVL555:
 2406 0c42 0233     		adds	r3, r3, #2
 2407 0c44 D941     		rors	r1, r1, r3
 2408              	.LVL556:
 2409 0c46 0D9B     		ldr	r3, [sp, #52]
 2410 0c48 6A48     		ldr	r0, .L8+4
 2411 0c4a 9C46     		mov	ip, r3
 2412 0c4c 6044     		add	r0, r0, ip
 2413 0c4e 8446     		mov	ip, r0
 193:strong-arm\src\ripemd160/ripemd160.c **** 	III(ddd, eee, aaa, bbb, ccc, X[12],  7);
 2414              		.loc 1 193 0
 2415 0c50 3000     		movs	r0, r6
 192:strong-arm\src\ripemd160/ripemd160.c **** 	III(eee, aaa, bbb, ccc, ddd, X[ 8], 12);
 2416              		.loc 1 192 0
 2417 0c52 7D19     		adds	r5, r7, r5
 2418              	.LVL557:
 2419              		.loc 1 193 0
 2420 0c54 6840     		eors	r0, r5
 2421 0c56 0840     		ands	r0, r1
 2422 0c58 7040     		eors	r0, r6
 2423 0c5a 6744     		add	r7, r7, ip
 2424              	.LVL558:
 2425 0c5c 8446     		mov	ip, r0
 2426 0c5e 1923     		movs	r3, #25
 2427 0c60 6744     		add	r7, r7, ip
 2428              	.LVL559:
 2429 0c62 DF41     		rors	r7, r7, r3
 2430              	.LVL560:
 2431 0c64 033B     		subs	r3, r3, #3
 2432 0c66 DE41     		rors	r6, r6, r3
 2433              	.LVL561:
 2434 0c68 059B     		ldr	r3, [sp, #20]
 2435 0c6a 6248     		ldr	r0, .L8+4
 2436 0c6c 9C46     		mov	ip, r3
 2437 0c6e 6044     		add	r0, r0, ip
 2438 0c70 8446     		mov	ip, r0
 194:strong-arm\src\ripemd160/ripemd160.c **** 	III(ccc, ddd, eee, aaa, bbb, X[ 4],  6);
 2439              		.loc 1 194 0
 2440 0c72 2800     		movs	r0, r5
 193:strong-arm\src\ripemd160/ripemd160.c **** 	III(ddd, eee, aaa, bbb, ccc, X[12],  7);
 2441              		.loc 1 193 0
 2442 0c74 D719     		adds	r7, r2, r7
 2443              	.LVL562:
 2444              		.loc 1 194 0
 2445 0c76 7840     		eors	r0, r7
 2446 0c78 3040     		ands	r0, r6
 2447 0c7a 6840     		eors	r0, r5
 2448 0c7c 6244     		add	r2, r2, ip
 2449              	.LVL563:
 2450 0c7e 8446     		mov	ip, r0
 2451 0c80 1A23     		movs	r3, #26
 2452 0c82 6244     		add	r2, r2, ip
 2453              	.LVL564:
ARM GAS  C:\Users\Ray\AppData\Local\Temp\ccn0usL8.s 			page 49


 2454 0c84 DA41     		rors	r2, r2, r3
 2455              	.LVL565:
 2456 0c86 043B     		subs	r3, r3, #4
 2457 0c88 DD41     		rors	r5, r5, r3
 2458              	.LVL566:
 2459 0c8a 0A9B     		ldr	r3, [sp, #40]
 2460 0c8c 5948     		ldr	r0, .L8+4
 2461 0c8e 9C46     		mov	ip, r3
 2462 0c90 6044     		add	r0, r0, ip
 2463 0c92 8446     		mov	ip, r0
 195:strong-arm\src\ripemd160/ripemd160.c **** 	III(bbb, ccc, ddd, eee, aaa, X[ 9], 15);
 2464              		.loc 1 195 0
 2465 0c94 3800     		movs	r0, r7
 194:strong-arm\src\ripemd160/ripemd160.c **** 	III(ccc, ddd, eee, aaa, bbb, X[ 4],  6);
 2466              		.loc 1 194 0
 2467 0c96 8A18     		adds	r2, r1, r2
 2468              	.LVL567:
 2469              		.loc 1 195 0
 2470 0c98 5040     		eors	r0, r2
 2471 0c9a 2840     		ands	r0, r5
 2472 0c9c 7840     		eors	r0, r7
 2473 0c9e 6144     		add	r1, r1, ip
 2474              	.LVL568:
 2475 0ca0 8446     		mov	ip, r0
 2476 0ca2 1123     		movs	r3, #17
 2477 0ca4 6144     		add	r1, r1, ip
 2478              	.LVL569:
 2479 0ca6 D941     		rors	r1, r1, r3
 2480              	.LVL570:
 2481 0ca8 0533     		adds	r3, r3, #5
 2482 0caa DF41     		rors	r7, r7, r3
 2483              	.LVL571:
 2484 0cac 029B     		ldr	r3, [sp, #8]
 2485 0cae 5148     		ldr	r0, .L8+4
 2486 0cb0 9C46     		mov	ip, r3
 2487 0cb2 6044     		add	r0, r0, ip
 2488 0cb4 8446     		mov	ip, r0
 196:strong-arm\src\ripemd160/ripemd160.c **** 	III(aaa, bbb, ccc, ddd, eee, X[ 1], 13);
 2489              		.loc 1 196 0
 2490 0cb6 1000     		movs	r0, r2
 195:strong-arm\src\ripemd160/ripemd160.c **** 	III(bbb, ccc, ddd, eee, aaa, X[ 9], 15);
 2491              		.loc 1 195 0
 2492 0cb8 7118     		adds	r1, r6, r1
 2493              	.LVL572:
 2494              		.loc 1 196 0
 2495 0cba 4840     		eors	r0, r1
 2496 0cbc 3840     		ands	r0, r7
 2497 0cbe 5040     		eors	r0, r2
 2498 0cc0 6644     		add	r6, r6, ip
 2499              	.LVL573:
 2500 0cc2 8446     		mov	ip, r0
 2501 0cc4 1323     		movs	r3, #19
 2502 0cc6 6644     		add	r6, r6, ip
 2503              	.LVL574:
 2504 0cc8 DE41     		rors	r6, r6, r3
 2505              	.LVL575:
 2506 0cca 0333     		adds	r3, r3, #3
ARM GAS  C:\Users\Ray\AppData\Local\Temp\ccn0usL8.s 			page 50


 2507 0ccc DA41     		rors	r2, r2, r3
 2508              	.LVL576:
 2509 0cce 039B     		ldr	r3, [sp, #12]
 2510 0cd0 4848     		ldr	r0, .L8+4
 2511 0cd2 9C46     		mov	ip, r3
 2512 0cd4 6044     		add	r0, r0, ip
 2513 0cd6 8446     		mov	ip, r0
 197:strong-arm\src\ripemd160/ripemd160.c **** 	III(eee, aaa, bbb, ccc, ddd, X[ 2], 11);
 2514              		.loc 1 197 0
 2515 0cd8 0800     		movs	r0, r1
 196:strong-arm\src\ripemd160/ripemd160.c **** 	III(aaa, bbb, ccc, ddd, eee, X[ 1], 13);
 2516              		.loc 1 196 0
 2517 0cda AE19     		adds	r6, r5, r6
 2518              	.LVL577:
 2519              		.loc 1 197 0
 2520 0cdc 7040     		eors	r0, r6
 2521 0cde 1040     		ands	r0, r2
 2522 0ce0 4840     		eors	r0, r1
 2523 0ce2 6544     		add	r5, r5, ip
 2524              	.LVL578:
 2525 0ce4 8446     		mov	ip, r0
 2526 0ce6 1523     		movs	r3, #21
 2527 0ce8 6544     		add	r5, r5, ip
 2528              	.LVL579:
 2529 0cea DD41     		rors	r5, r5, r3
 2530              	.LVL580:
 2531 0cec 0133     		adds	r3, r3, #1
 2532 0cee D941     		rors	r1, r1, r3
 2533              	.LVL581:
 2534 0cf0 109B     		ldr	r3, [sp, #64]
 2535 0cf2 4148     		ldr	r0, .L8+8
 2536 0cf4 9C46     		mov	ip, r3
 198:strong-arm\src\ripemd160/ripemd160.c **** 	
 199:strong-arm\src\ripemd160/ripemd160.c **** 	/* parallel round 3 */
 200:strong-arm\src\ripemd160/ripemd160.c **** 	HHH(ddd, eee, aaa, bbb, ccc, X[15],  9);
 2537              		.loc 1 200 0
 2538 0cf6 F343     		mvns	r3, r6
 2539 0cf8 6044     		add	r0, r0, ip
 2540 0cfa 8446     		mov	ip, r0
 2541 0cfc 1800     		movs	r0, r3
 197:strong-arm\src\ripemd160/ripemd160.c **** 	III(eee, aaa, bbb, ccc, ddd, X[ 2], 11);
 2542              		.loc 1 197 0
 2543 0cfe 7D19     		adds	r5, r7, r5
 2544              	.LVL582:
 2545              		.loc 1 200 0
 2546 0d00 2843     		orrs	r0, r5
 2547 0d02 4840     		eors	r0, r1
 2548 0d04 6744     		add	r7, r7, ip
 2549              	.LVL583:
 2550 0d06 8446     		mov	ip, r0
 2551 0d08 1723     		movs	r3, #23
 2552 0d0a 6744     		add	r7, r7, ip
 2553              	.LVL584:
 2554 0d0c DF41     		rors	r7, r7, r3
 2555              	.LVL585:
 2556 0d0e 013B     		subs	r3, r3, #1
 2557 0d10 DE41     		rors	r6, r6, r3
ARM GAS  C:\Users\Ray\AppData\Local\Temp\ccn0usL8.s 			page 51


 2558              	.LVL586:
 2559 0d12 B446     		mov	ip, r6
 2560 0d14 069B     		ldr	r3, [sp, #24]
 2561 0d16 3848     		ldr	r0, .L8+8
 2562 0d18 D719     		adds	r7, r2, r7
 2563              	.LVL587:
 2564 0d1a 1E18     		adds	r6, r3, r0
 2565              	.LVL588:
 2566 0d1c B218     		adds	r2, r6, r2
 2567              	.LVL589:
 201:strong-arm\src\ripemd160/ripemd160.c **** 	HHH(ccc, ddd, eee, aaa, bbb, X[ 5],  7);
 2568              		.loc 1 201 0
 2569 0d1e EE43     		mvns	r6, r5
 2570 0d20 6346     		mov	r3, ip
 2571 0d22 3E43     		orrs	r6, r7
 2572 0d24 5E40     		eors	r6, r3
 2573 0d26 1923     		movs	r3, #25
 2574 0d28 B218     		adds	r2, r6, r2
 2575              	.LVL590:
 2576 0d2a DA41     		rors	r2, r2, r3
 2577              	.LVL591:
 2578 0d2c 033B     		subs	r3, r3, #3
 2579 0d2e DD41     		rors	r5, r5, r3
 2580              	.LVL592:
 2581 0d30 029B     		ldr	r3, [sp, #8]
 2582 0d32 8A18     		adds	r2, r1, r2
 2583              	.LVL593:
 2584 0d34 1E18     		adds	r6, r3, r0
 2585 0d36 7118     		adds	r1, r6, r1
 2586              	.LVL594:
 202:strong-arm\src\ripemd160/ripemd160.c **** 	HHH(bbb, ccc, ddd, eee, aaa, X[ 1], 15);
 2587              		.loc 1 202 0
 2588 0d38 FE43     		mvns	r6, r7
 2589 0d3a 1123     		movs	r3, #17
 2590 0d3c 1643     		orrs	r6, r2
 2591 0d3e 6E40     		eors	r6, r5
 2592 0d40 7618     		adds	r6, r6, r1
 2593              	.LVL595:
 2594 0d42 DE41     		rors	r6, r6, r3
 2595              	.LVL596:
 2596 0d44 0533     		adds	r3, r3, #5
 2597 0d46 DF41     		rors	r7, r7, r3
 2598              	.LVL597:
 2599 0d48 049B     		ldr	r3, [sp, #16]
 2600 0d4a 6644     		add	r6, r6, ip
 2601              	.LVL598:
 2602 0d4c 1918     		adds	r1, r3, r0
 203:strong-arm\src\ripemd160/ripemd160.c **** 	HHH(aaa, bbb, ccc, ddd, eee, X[ 3], 11);
 2603              		.loc 1 203 0
 2604 0d4e D343     		mvns	r3, r2
 2605 0d50 1800     		movs	r0, r3
 2606 0d52 3043     		orrs	r0, r6
 2607 0d54 7840     		eors	r0, r7
 2608 0d56 6144     		add	r1, r1, ip
 2609              	.LVL599:
 2610 0d58 8446     		mov	ip, r0
 2611 0d5a 1523     		movs	r3, #21
ARM GAS  C:\Users\Ray\AppData\Local\Temp\ccn0usL8.s 			page 52


 2612 0d5c 6144     		add	r1, r1, ip
 2613              	.LVL600:
 2614 0d5e D941     		rors	r1, r1, r3
 2615              	.LVL601:
 2616 0d60 0133     		adds	r3, r3, #1
 2617 0d62 DA41     		rors	r2, r2, r3
 2618              	.LVL602:
 2619 0d64 089B     		ldr	r3, [sp, #32]
 2620 0d66 2448     		ldr	r0, .L8+8
 2621 0d68 9C46     		mov	ip, r3
 204:strong-arm\src\ripemd160/ripemd160.c **** 	HHH(eee, aaa, bbb, ccc, ddd, X[ 7],  8);
 2622              		.loc 1 204 0
 2623 0d6a F343     		mvns	r3, r6
 2624 0d6c 6044     		add	r0, r0, ip
 2625 0d6e 8446     		mov	ip, r0
 2626 0d70 1800     		movs	r0, r3
 203:strong-arm\src\ripemd160/ripemd160.c **** 	HHH(aaa, bbb, ccc, ddd, eee, X[ 3], 11);
 2627              		.loc 1 203 0
 2628 0d72 6918     		adds	r1, r5, r1
 2629              	.LVL603:
 2630              		.loc 1 204 0
 2631 0d74 0843     		orrs	r0, r1
 2632 0d76 5040     		eors	r0, r2
 2633 0d78 6544     		add	r5, r5, ip
 2634              	.LVL604:
 2635 0d7a 8446     		mov	ip, r0
 2636 0d7c 1823     		movs	r3, #24
 2637 0d7e 6544     		add	r5, r5, ip
 2638              	.LVL605:
 2639 0d80 DD41     		rors	r5, r5, r3
 2640              	.LVL606:
 2641 0d82 023B     		subs	r3, r3, #2
 2642 0d84 DE41     		rors	r6, r6, r3
 2643              	.LVL607:
 2644 0d86 0F9B     		ldr	r3, [sp, #60]
 2645 0d88 1B48     		ldr	r0, .L8+8
 2646 0d8a 9C46     		mov	ip, r3
 205:strong-arm\src\ripemd160/ripemd160.c **** 	HHH(ddd, eee, aaa, bbb, ccc, X[14],  6);
 2647              		.loc 1 205 0
 2648 0d8c CB43     		mvns	r3, r1
 2649 0d8e 6044     		add	r0, r0, ip
 2650 0d90 8446     		mov	ip, r0
 2651 0d92 1800     		movs	r0, r3
 204:strong-arm\src\ripemd160/ripemd160.c **** 	HHH(eee, aaa, bbb, ccc, ddd, X[ 7],  8);
 2652              		.loc 1 204 0
 2653 0d94 7D19     		adds	r5, r7, r5
 2654              	.LVL608:
 2655              		.loc 1 205 0
 2656 0d96 2843     		orrs	r0, r5
 2657 0d98 7040     		eors	r0, r6
 2658 0d9a 6744     		add	r7, r7, ip
 2659              	.LVL609:
 2660 0d9c 8446     		mov	ip, r0
 2661 0d9e 1A23     		movs	r3, #26
 2662 0da0 6744     		add	r7, r7, ip
 2663              	.LVL610:
 2664 0da2 DF41     		rors	r7, r7, r3
ARM GAS  C:\Users\Ray\AppData\Local\Temp\ccn0usL8.s 			page 53


 2665              	.LVL611:
 2666 0da4 043B     		subs	r3, r3, #4
 2667 0da6 D941     		rors	r1, r1, r3
 2668              	.LVL612:
 2669 0da8 079B     		ldr	r3, [sp, #28]
 2670 0daa 1348     		ldr	r0, .L8+8
 2671 0dac 9C46     		mov	ip, r3
 206:strong-arm\src\ripemd160/ripemd160.c **** 	HHH(ccc, ddd, eee, aaa, bbb, X[ 6],  6);
 2672              		.loc 1 206 0
 2673 0dae EB43     		mvns	r3, r5
 2674 0db0 6044     		add	r0, r0, ip
 2675 0db2 8446     		mov	ip, r0
 2676 0db4 1800     		movs	r0, r3
 205:strong-arm\src\ripemd160/ripemd160.c **** 	HHH(ddd, eee, aaa, bbb, ccc, X[14],  6);
 2677              		.loc 1 205 0
 2678 0db6 D719     		adds	r7, r2, r7
 2679              	.LVL613:
 2680              		.loc 1 206 0
 2681 0db8 3843     		orrs	r0, r7
 2682 0dba 4840     		eors	r0, r1
 2683 0dbc 6244     		add	r2, r2, ip
 2684              	.LVL614:
 2685 0dbe 8446     		mov	ip, r0
 2686 0dc0 1A23     		movs	r3, #26
 2687 0dc2 6244     		add	r2, r2, ip
 2688              	.LVL615:
 2689 0dc4 DA41     		rors	r2, r2, r3
 2690              	.LVL616:
 2691 0dc6 043B     		subs	r3, r3, #4
 2692 0dc8 DD41     		rors	r5, r5, r3
 2693              	.LVL617:
 2694 0dca 0A9B     		ldr	r3, [sp, #40]
 2695 0dcc 0A48     		ldr	r0, .L8+8
 2696 0dce 9C46     		mov	ip, r3
 207:strong-arm\src\ripemd160/ripemd160.c **** 	HHH(bbb, ccc, ddd, eee, aaa, X[ 9], 14);
 2697              		.loc 1 207 0
 2698 0dd0 FB43     		mvns	r3, r7
 2699 0dd2 6044     		add	r0, r0, ip
 2700 0dd4 8446     		mov	ip, r0
 2701 0dd6 1800     		movs	r0, r3
 206:strong-arm\src\ripemd160/ripemd160.c **** 	HHH(ccc, ddd, eee, aaa, bbb, X[ 6],  6);
 2702              		.loc 1 206 0
 2703 0dd8 B218     		adds	r2, r6, r2
 2704              	.LVL618:
 2705              		.loc 1 207 0
 2706 0dda 1043     		orrs	r0, r2
 2707 0ddc 6840     		eors	r0, r5
 2708 0dde 6644     		add	r6, r6, ip
 2709              	.LVL619:
 2710 0de0 8446     		mov	ip, r0
 2711 0de2 1223     		movs	r3, #18
 2712 0de4 6644     		add	r6, r6, ip
 2713              	.LVL620:
 2714 0de6 DE41     		rors	r6, r6, r3
 2715              	.LVL621:
 2716 0de8 0433     		adds	r3, r3, #4
 2717 0dea DF41     		rors	r7, r7, r3
ARM GAS  C:\Users\Ray\AppData\Local\Temp\ccn0usL8.s 			page 54


 2718              	.LVL622:
 2719 0dec 0C9B     		ldr	r3, [sp, #48]
 2720 0dee 05E0     		b	.L9
 2721              	.L10:
 2722              		.align	2
 2723              	.L8:
 2724 0df0 E68BA250 		.word	1352829926
 2725 0df4 24D14D5C 		.word	1548603684
 2726 0df8 F33E706D 		.word	1836072691
 2727              	.L9:
 2728 0dfc FE48     		ldr	r0, .L11
 2729 0dfe 9C46     		mov	ip, r3
 208:strong-arm\src\ripemd160/ripemd160.c **** 	HHH(aaa, bbb, ccc, ddd, eee, X[11], 12);
 2730              		.loc 1 208 0
 2731 0e00 D343     		mvns	r3, r2
 2732 0e02 6044     		add	r0, r0, ip
 2733 0e04 8446     		mov	ip, r0
 2734 0e06 1800     		movs	r0, r3
 207:strong-arm\src\ripemd160/ripemd160.c **** 	HHH(bbb, ccc, ddd, eee, aaa, X[ 9], 14);
 2735              		.loc 1 207 0
 2736 0e08 8E19     		adds	r6, r1, r6
 2737              	.LVL623:
 2738              		.loc 1 208 0
 2739 0e0a 3043     		orrs	r0, r6
 2740 0e0c 7840     		eors	r0, r7
 2741 0e0e 6144     		add	r1, r1, ip
 2742              	.LVL624:
 2743 0e10 8446     		mov	ip, r0
 2744 0e12 1423     		movs	r3, #20
 2745 0e14 6144     		add	r1, r1, ip
 2746              	.LVL625:
 2747 0e16 D941     		rors	r1, r1, r3
 2748              	.LVL626:
 2749 0e18 0233     		adds	r3, r3, #2
 2750 0e1a DA41     		rors	r2, r2, r3
 2751              	.LVL627:
 2752 0e1c 099B     		ldr	r3, [sp, #36]
 2753 0e1e F648     		ldr	r0, .L11
 2754 0e20 9C46     		mov	ip, r3
 209:strong-arm\src\ripemd160/ripemd160.c **** 	HHH(eee, aaa, bbb, ccc, ddd, X[ 8], 13);
 2755              		.loc 1 209 0
 2756 0e22 F343     		mvns	r3, r6
 2757 0e24 6044     		add	r0, r0, ip
 2758 0e26 8446     		mov	ip, r0
 2759 0e28 1800     		movs	r0, r3
 208:strong-arm\src\ripemd160/ripemd160.c **** 	HHH(aaa, bbb, ccc, ddd, eee, X[11], 12);
 2760              		.loc 1 208 0
 2761 0e2a 6918     		adds	r1, r5, r1
 2762              	.LVL628:
 2763              		.loc 1 209 0
 2764 0e2c 0843     		orrs	r0, r1
 2765 0e2e 5040     		eors	r0, r2
 2766 0e30 6544     		add	r5, r5, ip
 2767              	.LVL629:
 2768 0e32 8446     		mov	ip, r0
 2769 0e34 1323     		movs	r3, #19
 2770 0e36 6544     		add	r5, r5, ip
ARM GAS  C:\Users\Ray\AppData\Local\Temp\ccn0usL8.s 			page 55


 2771              	.LVL630:
 2772 0e38 DD41     		rors	r5, r5, r3
 2773              	.LVL631:
 2774 0e3a 0333     		adds	r3, r3, #3
 2775 0e3c DE41     		rors	r6, r6, r3
 2776              	.LVL632:
 2777 0e3e 0D9B     		ldr	r3, [sp, #52]
 2778 0e40 ED48     		ldr	r0, .L11
 2779 0e42 9C46     		mov	ip, r3
 2780 0e44 6044     		add	r0, r0, ip
 2781 0e46 8446     		mov	ip, r0
 2782 0e48 7D19     		adds	r5, r7, r5
 2783              	.LVL633:
 2784 0e4a BC44     		add	ip, ip, r7
 2785              	.LVL634:
 210:strong-arm\src\ripemd160/ripemd160.c **** 	HHH(ddd, eee, aaa, bbb, ccc, X[12],  5);
 2786              		.loc 1 210 0
 2787 0e4c CF43     		mvns	r7, r1
 2788 0e4e 1B23     		movs	r3, #27
 2789 0e50 2F43     		orrs	r7, r5
 2790 0e52 7740     		eors	r7, r6
 2791 0e54 6744     		add	r7, r7, ip
 2792              	.LVL635:
 2793 0e56 DF41     		rors	r7, r7, r3
 2794              	.LVL636:
 2795 0e58 053B     		subs	r3, r3, #5
 2796 0e5a D941     		rors	r1, r1, r3
 2797              	.LVL637:
 2798 0e5c 039B     		ldr	r3, [sp, #12]
 2799 0e5e E648     		ldr	r0, .L11
 2800 0e60 9C46     		mov	ip, r3
 211:strong-arm\src\ripemd160/ripemd160.c **** 	HHH(ccc, ddd, eee, aaa, bbb, X[ 2], 14);
 2801              		.loc 1 211 0
 2802 0e62 EB43     		mvns	r3, r5
 2803 0e64 6044     		add	r0, r0, ip
 2804 0e66 8446     		mov	ip, r0
 2805 0e68 1800     		movs	r0, r3
 210:strong-arm\src\ripemd160/ripemd160.c **** 	HHH(ddd, eee, aaa, bbb, ccc, X[12],  5);
 2806              		.loc 1 210 0
 2807 0e6a D719     		adds	r7, r2, r7
 2808              	.LVL638:
 2809              		.loc 1 211 0
 2810 0e6c 3843     		orrs	r0, r7
 2811 0e6e 4840     		eors	r0, r1
 2812 0e70 6244     		add	r2, r2, ip
 2813              	.LVL639:
 2814 0e72 8446     		mov	ip, r0
 2815 0e74 1223     		movs	r3, #18
 2816 0e76 6244     		add	r2, r2, ip
 2817              	.LVL640:
 2818 0e78 DA41     		rors	r2, r2, r3
 2819              	.LVL641:
 2820 0e7a 0433     		adds	r3, r3, #4
 2821 0e7c DD41     		rors	r5, r5, r3
 2822              	.LVL642:
 2823 0e7e 0B9B     		ldr	r3, [sp, #44]
 2824 0e80 DD48     		ldr	r0, .L11
ARM GAS  C:\Users\Ray\AppData\Local\Temp\ccn0usL8.s 			page 56


 2825 0e82 9C46     		mov	ip, r3
 212:strong-arm\src\ripemd160/ripemd160.c **** 	HHH(bbb, ccc, ddd, eee, aaa, X[10], 13);
 2826              		.loc 1 212 0
 2827 0e84 FB43     		mvns	r3, r7
 2828 0e86 6044     		add	r0, r0, ip
 2829 0e88 8446     		mov	ip, r0
 2830 0e8a 1800     		movs	r0, r3
 211:strong-arm\src\ripemd160/ripemd160.c **** 	HHH(ccc, ddd, eee, aaa, bbb, X[ 2], 14);
 2831              		.loc 1 211 0
 2832 0e8c B218     		adds	r2, r6, r2
 2833              	.LVL643:
 2834              		.loc 1 212 0
 2835 0e8e 1043     		orrs	r0, r2
 2836 0e90 6840     		eors	r0, r5
 2837 0e92 6644     		add	r6, r6, ip
 2838              	.LVL644:
 2839 0e94 8446     		mov	ip, r0
 2840 0e96 1323     		movs	r3, #19
 2841 0e98 6644     		add	r6, r6, ip
 2842              	.LVL645:
 2843 0e9a DE41     		rors	r6, r6, r3
 2844              	.LVL646:
 2845 0e9c 0333     		adds	r3, r3, #3
 2846 0e9e DF41     		rors	r7, r7, r3
 2847              	.LVL647:
 2848 0ea0 019B     		ldr	r3, [sp, #4]
 2849 0ea2 D548     		ldr	r0, .L11
 2850 0ea4 9C46     		mov	ip, r3
 213:strong-arm\src\ripemd160/ripemd160.c **** 	HHH(aaa, bbb, ccc, ddd, eee, X[ 0], 13);
 2851              		.loc 1 213 0
 2852 0ea6 D343     		mvns	r3, r2
 2853 0ea8 6044     		add	r0, r0, ip
 2854 0eaa 8446     		mov	ip, r0
 2855 0eac 1800     		movs	r0, r3
 212:strong-arm\src\ripemd160/ripemd160.c **** 	HHH(bbb, ccc, ddd, eee, aaa, X[10], 13);
 2856              		.loc 1 212 0
 2857 0eae 8E19     		adds	r6, r1, r6
 2858              	.LVL648:
 2859              		.loc 1 213 0
 2860 0eb0 3043     		orrs	r0, r6
 2861 0eb2 7840     		eors	r0, r7
 2862 0eb4 6144     		add	r1, r1, ip
 2863              	.LVL649:
 2864 0eb6 8446     		mov	ip, r0
 2865 0eb8 1323     		movs	r3, #19
 2866 0eba 6144     		add	r1, r1, ip
 2867              	.LVL650:
 2868 0ebc D941     		rors	r1, r1, r3
 2869              	.LVL651:
 2870 0ebe 0333     		adds	r3, r3, #3
 2871 0ec0 DA41     		rors	r2, r2, r3
 2872              	.LVL652:
 2873 0ec2 059B     		ldr	r3, [sp, #20]
 2874 0ec4 CC48     		ldr	r0, .L11
 2875 0ec6 9C46     		mov	ip, r3
 214:strong-arm\src\ripemd160/ripemd160.c **** 	HHH(eee, aaa, bbb, ccc, ddd, X[ 4],  7);
 2876              		.loc 1 214 0
ARM GAS  C:\Users\Ray\AppData\Local\Temp\ccn0usL8.s 			page 57


 2877 0ec8 F343     		mvns	r3, r6
 2878 0eca 6044     		add	r0, r0, ip
 2879 0ecc 8446     		mov	ip, r0
 2880 0ece 1800     		movs	r0, r3
 213:strong-arm\src\ripemd160/ripemd160.c **** 	HHH(aaa, bbb, ccc, ddd, eee, X[ 0], 13);
 2881              		.loc 1 213 0
 2882 0ed0 6918     		adds	r1, r5, r1
 2883              	.LVL653:
 2884              		.loc 1 214 0
 2885 0ed2 0843     		orrs	r0, r1
 2886 0ed4 5040     		eors	r0, r2
 2887 0ed6 6544     		add	r5, r5, ip
 2888              	.LVL654:
 2889 0ed8 8446     		mov	ip, r0
 2890 0eda 1923     		movs	r3, #25
 2891 0edc 6544     		add	r5, r5, ip
 2892              	.LVL655:
 2893 0ede DD41     		rors	r5, r5, r3
 2894              	.LVL656:
 2895 0ee0 033B     		subs	r3, r3, #3
 2896 0ee2 DE41     		rors	r6, r6, r3
 2897              	.LVL657:
 2898 0ee4 B446     		mov	ip, r6
 2899 0ee6 0E9B     		ldr	r3, [sp, #56]
 2900 0ee8 C348     		ldr	r0, .L11
 2901 0eea 7D19     		adds	r5, r7, r5
 2902              	.LVL658:
 2903 0eec 1E18     		adds	r6, r3, r0
 2904              	.LVL659:
 2905 0eee F719     		adds	r7, r6, r7
 2906              	.LVL660:
 215:strong-arm\src\ripemd160/ripemd160.c **** 	HHH(ddd, eee, aaa, bbb, ccc, X[13],  5);
 2907              		.loc 1 215 0
 2908 0ef0 CE43     		mvns	r6, r1
 2909 0ef2 6346     		mov	r3, ip
 2910 0ef4 2E43     		orrs	r6, r5
 2911 0ef6 5E40     		eors	r6, r3
 2912 0ef8 1B23     		movs	r3, #27
 2913 0efa F719     		adds	r7, r6, r7
 2914              	.LVL661:
 2915 0efc DF41     		rors	r7, r7, r3
 2916              	.LVL662:
 2917 0efe 053B     		subs	r3, r3, #5
 2918 0f00 D941     		rors	r1, r1, r3
 2919              	.LVL663:
 2920 0f02 BE48     		ldr	r0, .L11+4
 2921 0f04 099B     		ldr	r3, [sp, #36]
 2922 0f06 D719     		adds	r7, r2, r7
 2923              	.LVL664:
 2924 0f08 1E18     		adds	r6, r3, r0
 2925 0f0a B218     		adds	r2, r6, r2
 2926              	.LVL665:
 216:strong-arm\src\ripemd160/ripemd160.c **** 	
 217:strong-arm\src\ripemd160/ripemd160.c **** 	/* parallel round 4 */   
 218:strong-arm\src\ripemd160/ripemd160.c **** 	GGG(ccc, ddd, eee, aaa, bbb, X[ 8], 15);
 2927              		.loc 1 218 0
 2928 0f0c 2E00     		movs	r6, r5
ARM GAS  C:\Users\Ray\AppData\Local\Temp\ccn0usL8.s 			page 58


 2929 0f0e 1123     		movs	r3, #17
 2930 0f10 4E40     		eors	r6, r1
 2931 0f12 3E40     		ands	r6, r7
 2932 0f14 4E40     		eors	r6, r1
 2933 0f16 B618     		adds	r6, r6, r2
 2934              	.LVL666:
 2935 0f18 DE41     		rors	r6, r6, r3
 2936              	.LVL667:
 2937 0f1a 0533     		adds	r3, r3, #5
 2938 0f1c DD41     		rors	r5, r5, r3
 2939              	.LVL668:
 2940 0f1e 079B     		ldr	r3, [sp, #28]
 2941 0f20 6644     		add	r6, r6, ip
 2942              	.LVL669:
 2943 0f22 1A18     		adds	r2, r3, r0
 219:strong-arm\src\ripemd160/ripemd160.c **** 	GGG(bbb, ccc, ddd, eee, aaa, X[ 6],  5);
 2944              		.loc 1 219 0
 2945 0f24 3800     		movs	r0, r7
 2946 0f26 6840     		eors	r0, r5
 2947 0f28 3040     		ands	r0, r6
 2948 0f2a 6840     		eors	r0, r5
 2949 0f2c 6244     		add	r2, r2, ip
 2950              	.LVL670:
 2951 0f2e 8446     		mov	ip, r0
 2952 0f30 1B23     		movs	r3, #27
 2953 0f32 6244     		add	r2, r2, ip
 2954              	.LVL671:
 2955 0f34 DA41     		rors	r2, r2, r3
 2956              	.LVL672:
 2957 0f36 053B     		subs	r3, r3, #5
 2958 0f38 DF41     		rors	r7, r7, r3
 2959              	.LVL673:
 2960 0f3a 059B     		ldr	r3, [sp, #20]
 2961 0f3c AF48     		ldr	r0, .L11+4
 2962 0f3e 9C46     		mov	ip, r3
 2963 0f40 6044     		add	r0, r0, ip
 2964 0f42 8446     		mov	ip, r0
 220:strong-arm\src\ripemd160/ripemd160.c **** 	GGG(aaa, bbb, ccc, ddd, eee, X[ 4],  8);
 2965              		.loc 1 220 0
 2966 0f44 3000     		movs	r0, r6
 219:strong-arm\src\ripemd160/ripemd160.c **** 	GGG(bbb, ccc, ddd, eee, aaa, X[ 6],  5);
 2967              		.loc 1 219 0
 2968 0f46 8A18     		adds	r2, r1, r2
 2969              	.LVL674:
 2970              		.loc 1 220 0
 2971 0f48 7840     		eors	r0, r7
 2972 0f4a 1040     		ands	r0, r2
 2973 0f4c 7840     		eors	r0, r7
 2974 0f4e 6144     		add	r1, r1, ip
 2975              	.LVL675:
 2976 0f50 8446     		mov	ip, r0
 2977 0f52 1823     		movs	r3, #24
 2978 0f54 6144     		add	r1, r1, ip
 2979              	.LVL676:
 2980 0f56 D941     		rors	r1, r1, r3
 2981              	.LVL677:
 2982 0f58 023B     		subs	r3, r3, #2
ARM GAS  C:\Users\Ray\AppData\Local\Temp\ccn0usL8.s 			page 59


 2983 0f5a DE41     		rors	r6, r6, r3
 2984              	.LVL678:
 2985 0f5c 029B     		ldr	r3, [sp, #8]
 2986 0f5e A748     		ldr	r0, .L11+4
 2987 0f60 9C46     		mov	ip, r3
 2988 0f62 6044     		add	r0, r0, ip
 2989 0f64 8446     		mov	ip, r0
 221:strong-arm\src\ripemd160/ripemd160.c **** 	GGG(eee, aaa, bbb, ccc, ddd, X[ 1], 11);
 2990              		.loc 1 221 0
 2991 0f66 1000     		movs	r0, r2
 220:strong-arm\src\ripemd160/ripemd160.c **** 	GGG(aaa, bbb, ccc, ddd, eee, X[ 4],  8);
 2992              		.loc 1 220 0
 2993 0f68 6918     		adds	r1, r5, r1
 2994              	.LVL679:
 2995              		.loc 1 221 0
 2996 0f6a 7040     		eors	r0, r6
 2997 0f6c 0840     		ands	r0, r1
 2998 0f6e 7040     		eors	r0, r6
 2999 0f70 6544     		add	r5, r5, ip
 3000              	.LVL680:
 3001 0f72 8446     		mov	ip, r0
 3002 0f74 1523     		movs	r3, #21
 3003 0f76 6544     		add	r5, r5, ip
 3004              	.LVL681:
 3005 0f78 DD41     		rors	r5, r5, r3
 3006              	.LVL682:
 3007 0f7a 0133     		adds	r3, r3, #1
 3008 0f7c DA41     		rors	r2, r2, r3
 3009              	.LVL683:
 3010 0f7e 049B     		ldr	r3, [sp, #16]
 3011 0f80 9E48     		ldr	r0, .L11+4
 3012 0f82 9C46     		mov	ip, r3
 3013 0f84 6044     		add	r0, r0, ip
 3014 0f86 8446     		mov	ip, r0
 222:strong-arm\src\ripemd160/ripemd160.c **** 	GGG(ddd, eee, aaa, bbb, ccc, X[ 3], 14);
 3015              		.loc 1 222 0
 3016 0f88 0800     		movs	r0, r1
 221:strong-arm\src\ripemd160/ripemd160.c **** 	GGG(eee, aaa, bbb, ccc, ddd, X[ 1], 11);
 3017              		.loc 1 221 0
 3018 0f8a 7D19     		adds	r5, r7, r5
 3019              	.LVL684:
 3020              		.loc 1 222 0
 3021 0f8c 5040     		eors	r0, r2
 3022 0f8e 2840     		ands	r0, r5
 3023 0f90 5040     		eors	r0, r2
 3024 0f92 6744     		add	r7, r7, ip
 3025              	.LVL685:
 3026 0f94 8446     		mov	ip, r0
 3027 0f96 1223     		movs	r3, #18
 3028 0f98 6744     		add	r7, r7, ip
 3029              	.LVL686:
 3030 0f9a DF41     		rors	r7, r7, r3
 3031              	.LVL687:
 3032 0f9c 0433     		adds	r3, r3, #4
 3033 0f9e D941     		rors	r1, r1, r3
 3034              	.LVL688:
 3035 0fa0 0C9B     		ldr	r3, [sp, #48]
ARM GAS  C:\Users\Ray\AppData\Local\Temp\ccn0usL8.s 			page 60


 3036 0fa2 9648     		ldr	r0, .L11+4
 3037 0fa4 9C46     		mov	ip, r3
 3038 0fa6 6044     		add	r0, r0, ip
 3039 0fa8 8446     		mov	ip, r0
 223:strong-arm\src\ripemd160/ripemd160.c **** 	GGG(ccc, ddd, eee, aaa, bbb, X[11], 14);
 3040              		.loc 1 223 0
 3041 0faa 2800     		movs	r0, r5
 222:strong-arm\src\ripemd160/ripemd160.c **** 	GGG(ddd, eee, aaa, bbb, ccc, X[ 3], 14);
 3042              		.loc 1 222 0
 3043 0fac F719     		adds	r7, r6, r7
 3044              	.LVL689:
 3045              		.loc 1 223 0
 3046 0fae 4840     		eors	r0, r1
 3047 0fb0 3840     		ands	r0, r7
 3048 0fb2 4840     		eors	r0, r1
 3049 0fb4 6644     		add	r6, r6, ip
 3050              	.LVL690:
 3051 0fb6 8446     		mov	ip, r0
 3052 0fb8 1223     		movs	r3, #18
 3053 0fba 6644     		add	r6, r6, ip
 3054              	.LVL691:
 3055 0fbc DE41     		rors	r6, r6, r3
 3056              	.LVL692:
 3057 0fbe 0433     		adds	r3, r3, #4
 3058 0fc0 DD41     		rors	r5, r5, r3
 3059              	.LVL693:
 3060 0fc2 109B     		ldr	r3, [sp, #64]
 3061 0fc4 8D48     		ldr	r0, .L11+4
 3062 0fc6 9C46     		mov	ip, r3
 3063 0fc8 6044     		add	r0, r0, ip
 3064 0fca 8446     		mov	ip, r0
 224:strong-arm\src\ripemd160/ripemd160.c **** 	GGG(bbb, ccc, ddd, eee, aaa, X[15],  6);
 3065              		.loc 1 224 0
 3066 0fcc 3800     		movs	r0, r7
 223:strong-arm\src\ripemd160/ripemd160.c **** 	GGG(ccc, ddd, eee, aaa, bbb, X[11], 14);
 3067              		.loc 1 223 0
 3068 0fce 9619     		adds	r6, r2, r6
 3069              	.LVL694:
 3070              		.loc 1 224 0
 3071 0fd0 6840     		eors	r0, r5
 3072 0fd2 3040     		ands	r0, r6
 3073 0fd4 6840     		eors	r0, r5
 3074 0fd6 6244     		add	r2, r2, ip
 3075              	.LVL695:
 3076 0fd8 8446     		mov	ip, r0
 3077 0fda 1A23     		movs	r3, #26
 3078 0fdc 6244     		add	r2, r2, ip
 3079              	.LVL696:
 3080 0fde DA41     		rors	r2, r2, r3
 3081              	.LVL697:
 3082 0fe0 043B     		subs	r3, r3, #4
 3083 0fe2 DF41     		rors	r7, r7, r3
 3084              	.LVL698:
 3085 0fe4 019B     		ldr	r3, [sp, #4]
 3086 0fe6 8548     		ldr	r0, .L11+4
 3087 0fe8 9C46     		mov	ip, r3
 3088 0fea 6044     		add	r0, r0, ip
ARM GAS  C:\Users\Ray\AppData\Local\Temp\ccn0usL8.s 			page 61


 3089 0fec 8446     		mov	ip, r0
 225:strong-arm\src\ripemd160/ripemd160.c **** 	GGG(aaa, bbb, ccc, ddd, eee, X[ 0], 14);
 3090              		.loc 1 225 0
 3091 0fee 3000     		movs	r0, r6
 224:strong-arm\src\ripemd160/ripemd160.c **** 	GGG(bbb, ccc, ddd, eee, aaa, X[15],  6);
 3092              		.loc 1 224 0
 3093 0ff0 8A18     		adds	r2, r1, r2
 3094              	.LVL699:
 3095              		.loc 1 225 0
 3096 0ff2 7840     		eors	r0, r7
 3097 0ff4 1040     		ands	r0, r2
 3098 0ff6 7840     		eors	r0, r7
 3099 0ff8 6144     		add	r1, r1, ip
 3100              	.LVL700:
 3101 0ffa 8446     		mov	ip, r0
 3102 0ffc 1223     		movs	r3, #18
 3103 0ffe 6144     		add	r1, r1, ip
 3104              	.LVL701:
 3105 1000 D941     		rors	r1, r1, r3
 3106              	.LVL702:
 3107 1002 0433     		adds	r3, r3, #4
 3108 1004 DE41     		rors	r6, r6, r3
 3109              	.LVL703:
 3110 1006 069B     		ldr	r3, [sp, #24]
 3111 1008 7C48     		ldr	r0, .L11+4
 3112 100a 9C46     		mov	ip, r3
 3113 100c 6044     		add	r0, r0, ip
 3114 100e 8446     		mov	ip, r0
 226:strong-arm\src\ripemd160/ripemd160.c **** 	GGG(eee, aaa, bbb, ccc, ddd, X[ 5],  6);
 3115              		.loc 1 226 0
 3116 1010 1000     		movs	r0, r2
 225:strong-arm\src\ripemd160/ripemd160.c **** 	GGG(aaa, bbb, ccc, ddd, eee, X[ 0], 14);
 3117              		.loc 1 225 0
 3118 1012 6918     		adds	r1, r5, r1
 3119              	.LVL704:
 3120              		.loc 1 226 0
 3121 1014 7040     		eors	r0, r6
 3122 1016 0840     		ands	r0, r1
 3123 1018 7040     		eors	r0, r6
 3124 101a 6544     		add	r5, r5, ip
 3125              	.LVL705:
 3126 101c 8446     		mov	ip, r0
 3127 101e 1A23     		movs	r3, #26
 3128 1020 6544     		add	r5, r5, ip
 3129              	.LVL706:
 3130 1022 DD41     		rors	r5, r5, r3
 3131              	.LVL707:
 3132 1024 043B     		subs	r3, r3, #4
 3133 1026 DA41     		rors	r2, r2, r3
 3134              	.LVL708:
 3135 1028 0D9B     		ldr	r3, [sp, #52]
 3136 102a 7448     		ldr	r0, .L11+4
 3137 102c 9C46     		mov	ip, r3
 3138 102e 6044     		add	r0, r0, ip
 3139 1030 8446     		mov	ip, r0
 227:strong-arm\src\ripemd160/ripemd160.c **** 	GGG(ddd, eee, aaa, bbb, ccc, X[12],  9);
 3140              		.loc 1 227 0
ARM GAS  C:\Users\Ray\AppData\Local\Temp\ccn0usL8.s 			page 62


 3141 1032 0800     		movs	r0, r1
 226:strong-arm\src\ripemd160/ripemd160.c **** 	GGG(eee, aaa, bbb, ccc, ddd, X[ 5],  6);
 3142              		.loc 1 226 0
 3143 1034 7D19     		adds	r5, r7, r5
 3144              	.LVL709:
 3145              		.loc 1 227 0
 3146 1036 5040     		eors	r0, r2
 3147 1038 2840     		ands	r0, r5
 3148 103a 5040     		eors	r0, r2
 3149 103c 6744     		add	r7, r7, ip
 3150              	.LVL710:
 3151 103e 8446     		mov	ip, r0
 3152 1040 1723     		movs	r3, #23
 3153 1042 6744     		add	r7, r7, ip
 3154              	.LVL711:
 3155 1044 DF41     		rors	r7, r7, r3
 3156              	.LVL712:
 3157 1046 013B     		subs	r3, r3, #1
 3158 1048 D941     		rors	r1, r1, r3
 3159              	.LVL713:
 3160 104a 039B     		ldr	r3, [sp, #12]
 3161 104c 6B48     		ldr	r0, .L11+4
 3162 104e 9C46     		mov	ip, r3
 3163 1050 6044     		add	r0, r0, ip
 3164 1052 8446     		mov	ip, r0
 228:strong-arm\src\ripemd160/ripemd160.c **** 	GGG(ccc, ddd, eee, aaa, bbb, X[ 2], 12);
 3165              		.loc 1 228 0
 3166 1054 2800     		movs	r0, r5
 227:strong-arm\src\ripemd160/ripemd160.c **** 	GGG(ddd, eee, aaa, bbb, ccc, X[12],  9);
 3167              		.loc 1 227 0
 3168 1056 F719     		adds	r7, r6, r7
 3169              	.LVL714:
 3170              		.loc 1 228 0
 3171 1058 4840     		eors	r0, r1
 3172 105a 3840     		ands	r0, r7
 3173 105c 4840     		eors	r0, r1
 3174 105e 6644     		add	r6, r6, ip
 3175              	.LVL715:
 3176 1060 8446     		mov	ip, r0
 3177 1062 1423     		movs	r3, #20
 3178 1064 6644     		add	r6, r6, ip
 3179              	.LVL716:
 3180 1066 DE41     		rors	r6, r6, r3
 3181              	.LVL717:
 3182 1068 0233     		adds	r3, r3, #2
 3183 106a DD41     		rors	r5, r5, r3
 3184              	.LVL718:
 3185 106c 0E9B     		ldr	r3, [sp, #56]
 3186 106e 6348     		ldr	r0, .L11+4
 3187 1070 9C46     		mov	ip, r3
 3188 1072 6044     		add	r0, r0, ip
 3189 1074 8446     		mov	ip, r0
 229:strong-arm\src\ripemd160/ripemd160.c **** 	GGG(bbb, ccc, ddd, eee, aaa, X[13],  9);
 3190              		.loc 1 229 0
 3191 1076 3800     		movs	r0, r7
 228:strong-arm\src\ripemd160/ripemd160.c **** 	GGG(ccc, ddd, eee, aaa, bbb, X[ 2], 12);
 3192              		.loc 1 228 0
ARM GAS  C:\Users\Ray\AppData\Local\Temp\ccn0usL8.s 			page 63


 3193 1078 9619     		adds	r6, r2, r6
 3194              	.LVL719:
 3195              		.loc 1 229 0
 3196 107a 6840     		eors	r0, r5
 3197 107c 3040     		ands	r0, r6
 3198 107e 6840     		eors	r0, r5
 3199 1080 6244     		add	r2, r2, ip
 3200              	.LVL720:
 3201 1082 8446     		mov	ip, r0
 3202 1084 1723     		movs	r3, #23
 3203 1086 6244     		add	r2, r2, ip
 3204              	.LVL721:
 3205 1088 DA41     		rors	r2, r2, r3
 3206              	.LVL722:
 3207 108a 013B     		subs	r3, r3, #1
 3208 108c DF41     		rors	r7, r7, r3
 3209              	.LVL723:
 3210 108e 0A9B     		ldr	r3, [sp, #40]
 3211 1090 5A48     		ldr	r0, .L11+4
 3212 1092 9C46     		mov	ip, r3
 3213 1094 6044     		add	r0, r0, ip
 3214 1096 8446     		mov	ip, r0
 230:strong-arm\src\ripemd160/ripemd160.c **** 	GGG(aaa, bbb, ccc, ddd, eee, X[ 9], 12);
 3215              		.loc 1 230 0
 3216 1098 3000     		movs	r0, r6
 229:strong-arm\src\ripemd160/ripemd160.c **** 	GGG(bbb, ccc, ddd, eee, aaa, X[13],  9);
 3217              		.loc 1 229 0
 3218 109a 8A18     		adds	r2, r1, r2
 3219              	.LVL724:
 3220              		.loc 1 230 0
 3221 109c 7840     		eors	r0, r7
 3222 109e 1040     		ands	r0, r2
 3223 10a0 7840     		eors	r0, r7
 3224 10a2 6144     		add	r1, r1, ip
 3225              	.LVL725:
 3226 10a4 8446     		mov	ip, r0
 3227 10a6 1423     		movs	r3, #20
 3228 10a8 6144     		add	r1, r1, ip
 3229              	.LVL726:
 3230 10aa D941     		rors	r1, r1, r3
 3231              	.LVL727:
 3232 10ac 0233     		adds	r3, r3, #2
 3233 10ae DE41     		rors	r6, r6, r3
 3234              	.LVL728:
 3235 10b0 089B     		ldr	r3, [sp, #32]
 3236 10b2 5248     		ldr	r0, .L11+4
 3237 10b4 9C46     		mov	ip, r3
 3238 10b6 6044     		add	r0, r0, ip
 3239 10b8 8446     		mov	ip, r0
 231:strong-arm\src\ripemd160/ripemd160.c **** 	GGG(eee, aaa, bbb, ccc, ddd, X[ 7],  5);
 3240              		.loc 1 231 0
 3241 10ba 1000     		movs	r0, r2
 230:strong-arm\src\ripemd160/ripemd160.c **** 	GGG(aaa, bbb, ccc, ddd, eee, X[ 9], 12);
 3242              		.loc 1 230 0
 3243 10bc 6918     		adds	r1, r5, r1
 3244              	.LVL729:
 3245              		.loc 1 231 0
ARM GAS  C:\Users\Ray\AppData\Local\Temp\ccn0usL8.s 			page 64


 3246 10be 7040     		eors	r0, r6
 3247 10c0 0840     		ands	r0, r1
 3248 10c2 7040     		eors	r0, r6
 3249 10c4 6544     		add	r5, r5, ip
 3250              	.LVL730:
 3251 10c6 8446     		mov	ip, r0
 3252 10c8 1B23     		movs	r3, #27
 3253 10ca 6544     		add	r5, r5, ip
 3254              	.LVL731:
 3255 10cc DD41     		rors	r5, r5, r3
 3256              	.LVL732:
 3257 10ce 053B     		subs	r3, r3, #5
 3258 10d0 DA41     		rors	r2, r2, r3
 3259              	.LVL733:
 3260 10d2 0B9B     		ldr	r3, [sp, #44]
 3261 10d4 4948     		ldr	r0, .L11+4
 3262 10d6 9C46     		mov	ip, r3
 3263 10d8 6044     		add	r0, r0, ip
 3264 10da 8446     		mov	ip, r0
 232:strong-arm\src\ripemd160/ripemd160.c **** 	GGG(ddd, eee, aaa, bbb, ccc, X[10], 15);
 3265              		.loc 1 232 0
 3266 10dc 0800     		movs	r0, r1
 231:strong-arm\src\ripemd160/ripemd160.c **** 	GGG(eee, aaa, bbb, ccc, ddd, X[ 7],  5);
 3267              		.loc 1 231 0
 3268 10de 7D19     		adds	r5, r7, r5
 3269              	.LVL734:
 3270              		.loc 1 232 0
 3271 10e0 5040     		eors	r0, r2
 3272 10e2 2840     		ands	r0, r5
 3273 10e4 5040     		eors	r0, r2
 3274 10e6 6744     		add	r7, r7, ip
 3275              	.LVL735:
 3276 10e8 8446     		mov	ip, r0
 3277 10ea 1123     		movs	r3, #17
 3278 10ec 6744     		add	r7, r7, ip
 3279              	.LVL736:
 3280 10ee DF41     		rors	r7, r7, r3
 3281              	.LVL737:
 3282 10f0 0533     		adds	r3, r3, #5
 3283 10f2 D941     		rors	r1, r1, r3
 3284              	.LVL738:
 3285 10f4 0F9B     		ldr	r3, [sp, #60]
 3286 10f6 4148     		ldr	r0, .L11+4
 3287 10f8 9C46     		mov	ip, r3
 3288 10fa 6044     		add	r0, r0, ip
 3289 10fc 8446     		mov	ip, r0
 233:strong-arm\src\ripemd160/ripemd160.c **** 	GGG(ccc, ddd, eee, aaa, bbb, X[14],  8);
 3290              		.loc 1 233 0
 3291 10fe 2800     		movs	r0, r5
 232:strong-arm\src\ripemd160/ripemd160.c **** 	GGG(ddd, eee, aaa, bbb, ccc, X[10], 15);
 3292              		.loc 1 232 0
 3293 1100 F719     		adds	r7, r6, r7
 3294              	.LVL739:
 3295              		.loc 1 233 0
 3296 1102 4840     		eors	r0, r1
 3297 1104 3840     		ands	r0, r7
 3298 1106 4840     		eors	r0, r1
ARM GAS  C:\Users\Ray\AppData\Local\Temp\ccn0usL8.s 			page 65


 3299 1108 6644     		add	r6, r6, ip
 3300              	.LVL740:
 3301 110a 8446     		mov	ip, r0
 3302 110c 1823     		movs	r3, #24
 3303 110e 6644     		add	r6, r6, ip
 3304              	.LVL741:
 3305 1110 DE41     		rors	r6, r6, r3
 3306              	.LVL742:
 3307 1112 023B     		subs	r3, r3, #2
 3308 1114 DD41     		rors	r5, r5, r3
 3309              	.LVL743:
 234:strong-arm\src\ripemd160/ripemd160.c **** 	
 235:strong-arm\src\ripemd160/ripemd160.c **** 	/* parallel round 5 */
 236:strong-arm\src\ripemd160/ripemd160.c **** 	FFF(bbb, ccc, ddd, eee, aaa, X[12] ,  8);
 3310              		.loc 1 236 0
 3311 1116 3800     		movs	r0, r7
 233:strong-arm\src\ripemd160/ripemd160.c **** 	GGG(ccc, ddd, eee, aaa, bbb, X[14],  8);
 3312              		.loc 1 233 0
 3313 1118 9619     		adds	r6, r2, r6
 3314              	.LVL744:
 3315              		.loc 1 236 0
 3316 111a 6840     		eors	r0, r5
 3317 111c 0D9B     		ldr	r3, [sp, #52]
 3318 111e 7040     		eors	r0, r6
 3319 1120 8446     		mov	ip, r0
 3320 1122 9A18     		adds	r2, r3, r2
 3321              	.LVL745:
 3322 1124 1823     		movs	r3, #24
 3323 1126 6244     		add	r2, r2, ip
 3324              	.LVL746:
 3325 1128 DA41     		rors	r2, r2, r3
 3326              	.LVL747:
 3327 112a 023B     		subs	r3, r3, #2
 3328 112c DF41     		rors	r7, r7, r3
 3329              	.LVL748:
 237:strong-arm\src\ripemd160/ripemd160.c **** 	FFF(aaa, bbb, ccc, ddd, eee, X[15] ,  5);
 3330              		.loc 1 237 0
 3331 112e 3000     		movs	r0, r6
 236:strong-arm\src\ripemd160/ripemd160.c **** 	FFF(aaa, bbb, ccc, ddd, eee, X[15] ,  5);
 3332              		.loc 1 236 0
 3333 1130 8A18     		adds	r2, r1, r2
 3334              	.LVL749:
 3335              		.loc 1 237 0
 3336 1132 7840     		eors	r0, r7
 3337 1134 109B     		ldr	r3, [sp, #64]
 3338 1136 5040     		eors	r0, r2
 3339 1138 8446     		mov	ip, r0
 3340 113a 5918     		adds	r1, r3, r1
 3341              	.LVL750:
 3342 113c 1B23     		movs	r3, #27
 3343 113e 6144     		add	r1, r1, ip
 3344              	.LVL751:
 3345 1140 D941     		rors	r1, r1, r3
 3346              	.LVL752:
 3347 1142 053B     		subs	r3, r3, #5
 3348 1144 DE41     		rors	r6, r6, r3
 3349              	.LVL753:
ARM GAS  C:\Users\Ray\AppData\Local\Temp\ccn0usL8.s 			page 66


 238:strong-arm\src\ripemd160/ripemd160.c **** 	FFF(eee, aaa, bbb, ccc, ddd, X[10] , 12);
 3350              		.loc 1 238 0
 3351 1146 1000     		movs	r0, r2
 237:strong-arm\src\ripemd160/ripemd160.c **** 	FFF(aaa, bbb, ccc, ddd, eee, X[15] ,  5);
 3352              		.loc 1 237 0
 3353 1148 6918     		adds	r1, r5, r1
 3354              	.LVL754:
 3355              		.loc 1 238 0
 3356 114a 7040     		eors	r0, r6
 3357 114c 0B9B     		ldr	r3, [sp, #44]
 3358 114e 4840     		eors	r0, r1
 3359 1150 8446     		mov	ip, r0
 3360 1152 5D19     		adds	r5, r3, r5
 3361              	.LVL755:
 3362 1154 1423     		movs	r3, #20
 3363 1156 6544     		add	r5, r5, ip
 3364              	.LVL756:
 3365 1158 DD41     		rors	r5, r5, r3
 3366              	.LVL757:
 3367 115a 0233     		adds	r3, r3, #2
 3368 115c DA41     		rors	r2, r2, r3
 3369              	.LVL758:
 239:strong-arm\src\ripemd160/ripemd160.c **** 	FFF(ddd, eee, aaa, bbb, ccc, X[ 4] ,  9);
 3370              		.loc 1 239 0
 3371 115e 0800     		movs	r0, r1
 238:strong-arm\src\ripemd160/ripemd160.c **** 	FFF(eee, aaa, bbb, ccc, ddd, X[10] , 12);
 3372              		.loc 1 238 0
 3373 1160 7D19     		adds	r5, r7, r5
 3374              	.LVL759:
 3375              		.loc 1 239 0
 3376 1162 5040     		eors	r0, r2
 3377 1164 059B     		ldr	r3, [sp, #20]
 3378 1166 6840     		eors	r0, r5
 3379 1168 8446     		mov	ip, r0
 3380 116a DF19     		adds	r7, r3, r7
 3381              	.LVL760:
 3382 116c 1723     		movs	r3, #23
 3383 116e 6744     		add	r7, r7, ip
 3384              	.LVL761:
 3385 1170 DF41     		rors	r7, r7, r3
 3386              	.LVL762:
 3387 1172 013B     		subs	r3, r3, #1
 3388 1174 D941     		rors	r1, r1, r3
 3389              	.LVL763:
 240:strong-arm\src\ripemd160/ripemd160.c **** 	FFF(ccc, ddd, eee, aaa, bbb, X[ 1] , 12);
 3390              		.loc 1 240 0
 3391 1176 2800     		movs	r0, r5
 239:strong-arm\src\ripemd160/ripemd160.c **** 	FFF(ddd, eee, aaa, bbb, ccc, X[ 4] ,  9);
 3392              		.loc 1 239 0
 3393 1178 F719     		adds	r7, r6, r7
 3394              	.LVL764:
 3395              		.loc 1 240 0
 3396 117a 4840     		eors	r0, r1
 3397 117c 029B     		ldr	r3, [sp, #8]
 3398 117e 7840     		eors	r0, r7
 3399 1180 8446     		mov	ip, r0
 3400 1182 9E19     		adds	r6, r3, r6
ARM GAS  C:\Users\Ray\AppData\Local\Temp\ccn0usL8.s 			page 67


 3401              	.LVL765:
 3402 1184 1423     		movs	r3, #20
 3403 1186 6644     		add	r6, r6, ip
 3404              	.LVL766:
 3405 1188 DE41     		rors	r6, r6, r3
 3406              	.LVL767:
 3407 118a 0233     		adds	r3, r3, #2
 3408 118c DD41     		rors	r5, r5, r3
 3409              	.LVL768:
 241:strong-arm\src\ripemd160/ripemd160.c **** 	FFF(bbb, ccc, ddd, eee, aaa, X[ 5] ,  5);
 3410              		.loc 1 241 0
 3411 118e 3800     		movs	r0, r7
 240:strong-arm\src\ripemd160/ripemd160.c **** 	FFF(ccc, ddd, eee, aaa, bbb, X[ 1] , 12);
 3412              		.loc 1 240 0
 3413 1190 9619     		adds	r6, r2, r6
 3414              	.LVL769:
 3415              		.loc 1 241 0
 3416 1192 6840     		eors	r0, r5
 3417 1194 069B     		ldr	r3, [sp, #24]
 3418 1196 7040     		eors	r0, r6
 3419 1198 8446     		mov	ip, r0
 3420 119a 9A18     		adds	r2, r3, r2
 3421              	.LVL770:
 3422 119c 1B23     		movs	r3, #27
 3423 119e 6244     		add	r2, r2, ip
 3424              	.LVL771:
 3425 11a0 DA41     		rors	r2, r2, r3
 3426              	.LVL772:
 3427 11a2 053B     		subs	r3, r3, #5
 3428 11a4 DF41     		rors	r7, r7, r3
 3429              	.LVL773:
 242:strong-arm\src\ripemd160/ripemd160.c **** 	FFF(aaa, bbb, ccc, ddd, eee, X[ 8] , 14);
 3430              		.loc 1 242 0
 3431 11a6 3000     		movs	r0, r6
 241:strong-arm\src\ripemd160/ripemd160.c **** 	FFF(bbb, ccc, ddd, eee, aaa, X[ 5] ,  5);
 3432              		.loc 1 241 0
 3433 11a8 8A18     		adds	r2, r1, r2
 3434              	.LVL774:
 3435              		.loc 1 242 0
 3436 11aa 7840     		eors	r0, r7
 3437 11ac 099B     		ldr	r3, [sp, #36]
 3438 11ae 5040     		eors	r0, r2
 3439 11b0 8446     		mov	ip, r0
 3440 11b2 5918     		adds	r1, r3, r1
 3441              	.LVL775:
 3442 11b4 1223     		movs	r3, #18
 3443 11b6 6144     		add	r1, r1, ip
 3444              	.LVL776:
 3445 11b8 D941     		rors	r1, r1, r3
 3446              	.LVL777:
 3447 11ba 0433     		adds	r3, r3, #4
 3448 11bc DE41     		rors	r6, r6, r3
 3449              	.LVL778:
 243:strong-arm\src\ripemd160/ripemd160.c **** 	FFF(eee, aaa, bbb, ccc, ddd, X[ 7] ,  6);
 3450              		.loc 1 243 0
 3451 11be 1000     		movs	r0, r2
 242:strong-arm\src\ripemd160/ripemd160.c **** 	FFF(aaa, bbb, ccc, ddd, eee, X[ 8] , 14);
ARM GAS  C:\Users\Ray\AppData\Local\Temp\ccn0usL8.s 			page 68


 3452              		.loc 1 242 0
 3453 11c0 6918     		adds	r1, r5, r1
 3454              	.LVL779:
 3455              		.loc 1 243 0
 3456 11c2 7040     		eors	r0, r6
 3457 11c4 089B     		ldr	r3, [sp, #32]
 3458 11c6 4840     		eors	r0, r1
 3459 11c8 8446     		mov	ip, r0
 3460 11ca 5D19     		adds	r5, r3, r5
 3461              	.LVL780:
 3462 11cc 1A23     		movs	r3, #26
 3463 11ce 6544     		add	r5, r5, ip
 3464              	.LVL781:
 3465 11d0 DD41     		rors	r5, r5, r3
 3466              	.LVL782:
 3467 11d2 043B     		subs	r3, r3, #4
 3468 11d4 DA41     		rors	r2, r2, r3
 3469              	.LVL783:
 244:strong-arm\src\ripemd160/ripemd160.c **** 	FFF(ddd, eee, aaa, bbb, ccc, X[ 6] ,  8);
 3470              		.loc 1 244 0
 3471 11d6 0800     		movs	r0, r1
 243:strong-arm\src\ripemd160/ripemd160.c **** 	FFF(eee, aaa, bbb, ccc, ddd, X[ 7] ,  6);
 3472              		.loc 1 243 0
 3473 11d8 7D19     		adds	r5, r7, r5
 3474              	.LVL784:
 3475              		.loc 1 244 0
 3476 11da 5040     		eors	r0, r2
 3477 11dc 079B     		ldr	r3, [sp, #28]
 3478 11de 6840     		eors	r0, r5
 3479 11e0 8446     		mov	ip, r0
 3480 11e2 DF19     		adds	r7, r3, r7
 3481              	.LVL785:
 3482 11e4 1823     		movs	r3, #24
 3483 11e6 6744     		add	r7, r7, ip
 3484              	.LVL786:
 3485 11e8 DF41     		rors	r7, r7, r3
 3486              	.LVL787:
 3487 11ea 023B     		subs	r3, r3, #2
 3488 11ec D941     		rors	r1, r1, r3
 3489              	.LVL788:
 245:strong-arm\src\ripemd160/ripemd160.c **** 	FFF(ccc, ddd, eee, aaa, bbb, X[ 2] , 13);
 3490              		.loc 1 245 0
 3491 11ee 2800     		movs	r0, r5
 244:strong-arm\src\ripemd160/ripemd160.c **** 	FFF(ddd, eee, aaa, bbb, ccc, X[ 6] ,  8);
 3492              		.loc 1 244 0
 3493 11f0 F719     		adds	r7, r6, r7
 3494              	.LVL789:
 3495              		.loc 1 245 0
 3496 11f2 4840     		eors	r0, r1
 3497 11f4 04E0     		b	.L12
 3498              	.L13:
 3499 11f6 C046     		.align	2
 3500              	.L11:
 3501 11f8 F33E706D 		.word	1836072691
 3502 11fc E9766D7A 		.word	2053994217
 3503              	.L12:
 3504 1200 039B     		ldr	r3, [sp, #12]
ARM GAS  C:\Users\Ray\AppData\Local\Temp\ccn0usL8.s 			page 69


 3505 1202 7840     		eors	r0, r7
 3506 1204 8446     		mov	ip, r0
 3507 1206 9E19     		adds	r6, r3, r6
 3508              	.LVL790:
 3509 1208 1323     		movs	r3, #19
 3510 120a 6644     		add	r6, r6, ip
 3511              	.LVL791:
 3512 120c DE41     		rors	r6, r6, r3
 3513              	.LVL792:
 3514 120e 0333     		adds	r3, r3, #3
 3515 1210 DD41     		rors	r5, r5, r3
 3516              	.LVL793:
 246:strong-arm\src\ripemd160/ripemd160.c **** 	FFF(bbb, ccc, ddd, eee, aaa, X[13] ,  6);
 3517              		.loc 1 246 0
 3518 1212 3800     		movs	r0, r7
 245:strong-arm\src\ripemd160/ripemd160.c **** 	FFF(ccc, ddd, eee, aaa, bbb, X[ 2] , 13);
 3519              		.loc 1 245 0
 3520 1214 9619     		adds	r6, r2, r6
 3521              	.LVL794:
 3522              		.loc 1 246 0
 3523 1216 6840     		eors	r0, r5
 3524 1218 0E9B     		ldr	r3, [sp, #56]
 3525 121a 7040     		eors	r0, r6
 3526 121c 8446     		mov	ip, r0
 3527 121e 9A18     		adds	r2, r3, r2
 3528              	.LVL795:
 3529 1220 1A23     		movs	r3, #26
 3530 1222 6244     		add	r2, r2, ip
 3531              	.LVL796:
 3532 1224 DA41     		rors	r2, r2, r3
 3533              	.LVL797:
 3534 1226 043B     		subs	r3, r3, #4
 3535 1228 DF41     		rors	r7, r7, r3
 3536              	.LVL798:
 247:strong-arm\src\ripemd160/ripemd160.c **** 	FFF(aaa, bbb, ccc, ddd, eee, X[14] ,  5);
 3537              		.loc 1 247 0
 3538 122a 3000     		movs	r0, r6
 246:strong-arm\src\ripemd160/ripemd160.c **** 	FFF(bbb, ccc, ddd, eee, aaa, X[13] ,  6);
 3539              		.loc 1 246 0
 3540 122c 8A18     		adds	r2, r1, r2
 3541              	.LVL799:
 3542              		.loc 1 247 0
 3543 122e 7840     		eors	r0, r7
 3544 1230 0F9B     		ldr	r3, [sp, #60]
 3545 1232 5040     		eors	r0, r2
 3546 1234 8446     		mov	ip, r0
 3547 1236 5918     		adds	r1, r3, r1
 3548              	.LVL800:
 3549 1238 1B23     		movs	r3, #27
 3550 123a 6144     		add	r1, r1, ip
 3551              	.LVL801:
 3552 123c D941     		rors	r1, r1, r3
 3553              	.LVL802:
 3554 123e 053B     		subs	r3, r3, #5
 3555 1240 DE41     		rors	r6, r6, r3
 3556              	.LVL803:
 248:strong-arm\src\ripemd160/ripemd160.c **** 	FFF(eee, aaa, bbb, ccc, ddd, X[ 0] , 15);
ARM GAS  C:\Users\Ray\AppData\Local\Temp\ccn0usL8.s 			page 70


 3557              		.loc 1 248 0
 3558 1242 1000     		movs	r0, r2
 247:strong-arm\src\ripemd160/ripemd160.c **** 	FFF(aaa, bbb, ccc, ddd, eee, X[14] ,  5);
 3559              		.loc 1 247 0
 3560 1244 6918     		adds	r1, r5, r1
 3561              	.LVL804:
 3562              		.loc 1 248 0
 3563 1246 7040     		eors	r0, r6
 3564 1248 019B     		ldr	r3, [sp, #4]
 3565 124a 4840     		eors	r0, r1
 3566 124c 8446     		mov	ip, r0
 3567 124e 5D19     		adds	r5, r3, r5
 3568              	.LVL805:
 3569 1250 1123     		movs	r3, #17
 3570 1252 6544     		add	r5, r5, ip
 3571              	.LVL806:
 3572 1254 DD41     		rors	r5, r5, r3
 3573              	.LVL807:
 3574 1256 0533     		adds	r3, r3, #5
 3575 1258 DA41     		rors	r2, r2, r3
 3576              	.LVL808:
 249:strong-arm\src\ripemd160/ripemd160.c **** 	FFF(ddd, eee, aaa, bbb, ccc, X[ 3] , 13);
 3577              		.loc 1 249 0
 3578 125a 0800     		movs	r0, r1
 248:strong-arm\src\ripemd160/ripemd160.c **** 	FFF(eee, aaa, bbb, ccc, ddd, X[ 0] , 15);
 3579              		.loc 1 248 0
 3580 125c 7D19     		adds	r5, r7, r5
 3581              	.LVL809:
 3582              		.loc 1 249 0
 3583 125e 5040     		eors	r0, r2
 3584 1260 049B     		ldr	r3, [sp, #16]
 3585 1262 6840     		eors	r0, r5
 3586 1264 8446     		mov	ip, r0
 3587 1266 DF19     		adds	r7, r3, r7
 3588              	.LVL810:
 3589 1268 1323     		movs	r3, #19
 3590 126a 6744     		add	r7, r7, ip
 3591              	.LVL811:
 3592 126c DF41     		rors	r7, r7, r3
 3593              	.LVL812:
 3594 126e 0333     		adds	r3, r3, #3
 3595 1270 D941     		rors	r1, r1, r3
 3596              	.LVL813:
 250:strong-arm\src\ripemd160/ripemd160.c **** 	FFF(ccc, ddd, eee, aaa, bbb, X[ 9] , 11);
 3597              		.loc 1 250 0
 3598 1272 2800     		movs	r0, r5
 249:strong-arm\src\ripemd160/ripemd160.c **** 	FFF(ddd, eee, aaa, bbb, ccc, X[ 3] , 13);
 3599              		.loc 1 249 0
 3600 1274 F719     		adds	r7, r6, r7
 3601              	.LVL814:
 3602              		.loc 1 250 0
 3603 1276 4840     		eors	r0, r1
 3604 1278 0A9B     		ldr	r3, [sp, #40]
 3605 127a 7840     		eors	r0, r7
 3606 127c 8446     		mov	ip, r0
 3607 127e 9E19     		adds	r6, r3, r6
 3608              	.LVL815:
ARM GAS  C:\Users\Ray\AppData\Local\Temp\ccn0usL8.s 			page 71


 3609 1280 1523     		movs	r3, #21
 3610 1282 6644     		add	r6, r6, ip
 3611              	.LVL816:
 3612 1284 DE41     		rors	r6, r6, r3
 3613              	.LVL817:
 3614 1286 0133     		adds	r3, r3, #1
 3615 1288 DD41     		rors	r5, r5, r3
 3616              	.LVL818:
 3617 128a 0C9B     		ldr	r3, [sp, #48]
 3618 128c 9619     		adds	r6, r2, r6
 3619              	.LVL819:
 3620 128e 3800     		movs	r0, r7
 3621 1290 9A18     		adds	r2, r3, r2
 3622              	.LVL820:
 3623 1292 1623     		movs	r3, #22
 3624 1294 D841     		rors	r0, r0, r3
 3625              	.LVL821:
 3626 1296 8446     		mov	ip, r0
 3627 1298 6368     		ldr	r3, [r4, #4]
 3628 129a 6344     		add	r3, r3, ip
 3629 129c 0193     		str	r3, [sp, #4]
 3630              	.LVL822:
 251:strong-arm\src\ripemd160/ripemd160.c **** 	FFF(bbb, ccc, ddd, eee, aaa, X[11] , 11);
 252:strong-arm\src\ripemd160/ripemd160.c **** 	
 253:strong-arm\src\ripemd160/ripemd160.c **** 	/* combine results */
 254:strong-arm\src\ripemd160/ripemd160.c **** 	ddd += cc + MDbuf[1];
 255:strong-arm\src\ripemd160/ripemd160.c **** 	MDbuf[1] = MDbuf[2] + dd + eee;
 3631              		.loc 1 255 0
 3632 129e 1623     		movs	r3, #22
 3633              	.LVL823:
 3634 12a0 1398     		ldr	r0, [sp, #76]
 3635 12a2 D841     		rors	r0, r0, r3
 3636              	.LVL824:
 3637 12a4 0300     		movs	r3, r0
 3638 12a6 A068     		ldr	r0, [r4, #8]
 3639              	.LVL825:
 3640 12a8 4019     		adds	r0, r0, r5
 3641 12aa 1B18     		adds	r3, r3, r0
 3642              	.LVL826:
 3643 12ac 6360     		str	r3, [r4, #4]
 256:strong-arm\src\ripemd160/ripemd160.c **** 	MDbuf[2] = MDbuf[3] + ee + aaa;
 3644              		.loc 1 256 0
 3645 12ae E368     		ldr	r3, [r4, #12]
 3646 12b0 1698     		ldr	r0, [sp, #88]
 3647 12b2 5B18     		adds	r3, r3, r1
 3648 12b4 1B18     		adds	r3, r3, r0
 3649 12b6 A360     		str	r3, [r4, #8]
 257:strong-arm\src\ripemd160/ripemd160.c **** 	MDbuf[3] = MDbuf[4] + aa + bbb;
 3650              		.loc 1 257 0
 3651 12b8 1523     		movs	r3, #21
 3652 12ba 7D40     		eors	r5, r7
 3653              	.LVL827:
 3654 12bc 7540     		eors	r5, r6
 3655              	.LVL828:
 3656 12be AA18     		adds	r2, r5, r2
 3657 12c0 DA41     		rors	r2, r2, r3
 3658 12c2 1498     		ldr	r0, [sp, #80]
ARM GAS  C:\Users\Ray\AppData\Local\Temp\ccn0usL8.s 			page 72


 3659 12c4 2369     		ldr	r3, [r4, #16]
 3660 12c6 1B18     		adds	r3, r3, r0
 3661 12c8 5918     		adds	r1, r3, r1
 3662              	.LVL829:
 258:strong-arm\src\ripemd160/ripemd160.c **** 	MDbuf[4] = MDbuf[0] + bb + ccc;
 3663              		.loc 1 258 0
 3664 12ca 169B     		ldr	r3, [sp, #88]
 257:strong-arm\src\ripemd160/ripemd160.c **** 	MDbuf[3] = MDbuf[4] + aa + bbb;
 3665              		.loc 1 257 0
 3666 12cc 5118     		adds	r1, r2, r1
 3667              		.loc 1 258 0
 3668 12ce DA43     		mvns	r2, r3
 3669 12d0 139B     		ldr	r3, [sp, #76]
 257:strong-arm\src\ripemd160/ripemd160.c **** 	MDbuf[3] = MDbuf[4] + aa + bbb;
 3670              		.loc 1 257 0
 3671 12d2 E160     		str	r1, [r4, #12]
 3672              		.loc 1 258 0
 3673 12d4 1A43     		orrs	r2, r3
 3674              	.LVL830:
 3675 12d6 159B     		ldr	r3, [sp, #84]
 3676 12d8 2168     		ldr	r1, [r4]
 3677 12da 5A40     		eors	r2, r3
 3678              	.LVL831:
 3679 12dc 179B     		ldr	r3, [sp, #92]
 3680 12de 8C46     		mov	ip, r1
 3681 12e0 D218     		adds	r2, r2, r3
 3682 12e2 1A23     		movs	r3, #26
 3683 12e4 DA41     		rors	r2, r2, r3
 3684 12e6 0300     		movs	r3, r0
 3685 12e8 6344     		add	r3, r3, ip
 3686 12ea 9E19     		adds	r6, r3, r6
 3687              	.LVL832:
 3688 12ec 9619     		adds	r6, r2, r6
 259:strong-arm\src\ripemd160/ripemd160.c **** 	MDbuf[0] = ddd;
 3689              		.loc 1 259 0
 3690 12ee 159B     		ldr	r3, [sp, #84]
 3691 12f0 019A     		ldr	r2, [sp, #4]
 258:strong-arm\src\ripemd160/ripemd160.c **** 	MDbuf[4] = MDbuf[0] + bb + ccc;
 3692              		.loc 1 258 0
 3693 12f2 2661     		str	r6, [r4, #16]
 3694              		.loc 1 259 0
 3695 12f4 9B18     		adds	r3, r3, r2
 3696              	.LVL833:
 3697 12f6 2360     		str	r3, [r4]
 260:strong-arm\src\ripemd160/ripemd160.c **** }
 3698              		.loc 1 260 0
 3699 12f8 19B0     		add	sp, sp, #100
 3700              		@ sp needed
 3701              	.LVL834:
 3702 12fa F0BD     		pop	{r4, r5, r6, r7, pc}
 3703              		.cfi_endproc
 3704              	.LFE0:
 3705              		.size	compress, .-compress
 3706              		.section	.text.RIPEMD160,"ax",%progbits
 3707              		.align	1
 3708              		.global	RIPEMD160
 3709              		.code	16
ARM GAS  C:\Users\Ray\AppData\Local\Temp\ccn0usL8.s 			page 73


 3710              		.thumb_func
 3711              		.type	RIPEMD160, %function
 3712              	RIPEMD160:
 3713              	.LFB1:
 261:strong-arm\src\ripemd160/ripemd160.c **** 
 262:strong-arm\src\ripemd160/ripemd160.c **** // TODO: We can't really handle data when len == 2^32-1.
 263:strong-arm\src\ripemd160/ripemd160.c **** void RIPEMD160 (uint8_t *hash, uint8_t const *msg, uint32_t len)
 264:strong-arm\src\ripemd160/ripemd160.c **** {
 3714              		.loc 1 264 0
 3715              		.cfi_startproc
 3716              		@ args = 0, pretend = 0, frame = 96
 3717              		@ frame_needed = 0, uses_anonymous_args = 0
 3718              	.LVL835:
 3719 0000 F0B5     		push	{r4, r5, r6, r7, lr}
 3720              		.cfi_def_cfa_offset 20
 3721              		.cfi_offset 4, -20
 3722              		.cfi_offset 5, -16
 3723              		.cfi_offset 6, -12
 3724              		.cfi_offset 7, -8
 3725              		.cfi_offset 14, -4
 3726 0002 1500     		movs	r5, r2
 3727 0004 0E00     		movs	r6, r1
 3728 0006 99B0     		sub	sp, sp, #100
 3729              		.cfi_def_cfa_offset 120
 265:strong-arm\src\ripemd160/ripemd160.c **** 	uint32_t digest[5] = {0x67452301, 0xefcdab89, 0x98badcfe, 0x10325476, 0xc3d2e1f0UL};
 3730              		.loc 1 265 0
 3731 0008 384B     		ldr	r3, .L27
 264:strong-arm\src\ripemd160/ripemd160.c **** 	uint32_t digest[5] = {0x67452301, 0xefcdab89, 0x98badcfe, 0x10325476, 0xc3d2e1f0UL};
 3732              		.loc 1 264 0
 3733 000a 0190     		str	r0, [sp, #4]
 3734              		.loc 1 265 0
 3735 000c 03AA     		add	r2, sp, #12
 3736              	.LVL836:
 3737 000e 13CB     		ldmia	r3!, {r0, r1, r4}
 3738 0010 13C2     		stmia	r2!, {r0, r1, r4}
 3739              	.LVL837:
 3740 0012 AC09     		lsrs	r4, r5, #6
 3741 0014 03CB     		ldmia	r3!, {r0, r1}
 3742 0016 03C2     		stmia	r2!, {r0, r1}
 3743              	.LVL838:
 3744 0018 A401     		lsls	r4, r4, #6
 3745 001a 3419     		adds	r4, r6, r4
 3746              	.LVL839:
 3747              	.L15:
 3748              	.LBB2:
 266:strong-arm\src\ripemd160/ripemd160.c **** 	
 267:strong-arm\src\ripemd160/ripemd160.c **** 	for (uint32_t i = 0; i < (len >> 6); ++i)
 3749              		.loc 1 267 0 discriminator 1
 3750 001c A642     		cmp	r6, r4
 3751 001e 15D0     		beq	.L25
 3752 0020 0020     		movs	r0, #0
 3753              	.LVL840:
 3754              	.L16:
 3755              	.LBB3:
 3756              	.LBB4:
 268:strong-arm\src\ripemd160/ripemd160.c **** 	{
 269:strong-arm\src\ripemd160/ripemd160.c **** 		uint32_t chunk[16];
ARM GAS  C:\Users\Ray\AppData\Local\Temp\ccn0usL8.s 			page 74


 270:strong-arm\src\ripemd160/ripemd160.c **** 		
 271:strong-arm\src\ripemd160/ripemd160.c **** 		for (int j = 0; j < 16; ++j)
 272:strong-arm\src\ripemd160/ripemd160.c **** 		{
 273:strong-arm\src\ripemd160/ripemd160.c **** 			chunk[j] = (uint32_t)(*(msg++));
 274:strong-arm\src\ripemd160/ripemd160.c **** 			chunk[j] |= (uint32_t)(*(msg++)) << 8;
 275:strong-arm\src\ripemd160/ripemd160.c **** 			chunk[j] |= (uint32_t)(*(msg++)) << 16;
 276:strong-arm\src\ripemd160/ripemd160.c **** 			chunk[j] |= (uint32_t)(*(msg++)) << 24;
 3757              		.loc 1 276 0 discriminator 3
 3758 0022 3718     		adds	r7, r6, r0
 3759 0024 7A78     		ldrb	r2, [r7, #1]
 3760 0026 335C     		ldrb	r3, [r6, r0]
 3761 0028 1202     		lsls	r2, r2, #8
 3762 002a 1A43     		orrs	r2, r3
 3763 002c BB78     		ldrb	r3, [r7, #2]
 3764 002e 08A9     		add	r1, sp, #32
 3765 0030 1B04     		lsls	r3, r3, #16
 3766 0032 1A43     		orrs	r2, r3
 3767 0034 FB78     		ldrb	r3, [r7, #3]
 3768 0036 1B06     		lsls	r3, r3, #24
 3769 0038 1343     		orrs	r3, r2
 3770 003a 4350     		str	r3, [r0, r1]
 3771              	.LVL841:
 3772 003c 0430     		adds	r0, r0, #4
 3773              	.LVL842:
 271:strong-arm\src\ripemd160/ripemd160.c **** 		{
 3774              		.loc 1 271 0 discriminator 3
 3775 003e 4028     		cmp	r0, #64
 3776 0040 EFD1     		bne	.L16
 3777              	.LBE4:
 277:strong-arm\src\ripemd160/ripemd160.c **** 		}
 278:strong-arm\src\ripemd160/ripemd160.c **** 	 
 279:strong-arm\src\ripemd160/ripemd160.c **** 		compress (digest, chunk);
 3778              		.loc 1 279 0 discriminator 2
 3779 0042 03A8     		add	r0, sp, #12
 3780              	.LVL843:
 3781 0044 4036     		adds	r6, r6, #64
 3782 0046 FFF7FEFF 		bl	compress
 3783              	.LVL844:
 3784 004a E7E7     		b	.L15
 3785              	.LVL845:
 3786              	.L25:
 3787              	.LBE3:
 3788              	.LBE2:
 3789              	.LBB5:
 280:strong-arm\src\ripemd160/ripemd160.c **** 	}
 281:strong-arm\src\ripemd160/ripemd160.c **** 	
 282:strong-arm\src\ripemd160/ripemd160.c **** 	// Last chunk
 283:strong-arm\src\ripemd160/ripemd160.c **** 	{
 284:strong-arm\src\ripemd160/ripemd160.c **** 		uint32_t chunk[16] = {0};
 3790              		.loc 1 284 0
 3791 004c 08AC     		add	r4, sp, #32
 3792 004e 4022     		movs	r2, #64
 3793 0050 0021     		movs	r1, #0
 3794 0052 2000     		movs	r0, r4
 3795 0054 FFF7FEFF 		bl	memset
 3796              	.LVL846:
 3797              	.LBB6:
ARM GAS  C:\Users\Ray\AppData\Local\Temp\ccn0usL8.s 			page 75


 285:strong-arm\src\ripemd160/ripemd160.c **** 		
 286:strong-arm\src\ripemd160/ripemd160.c **** 		for (uint32_t i = 0; i < (len & 63); ++i)
 3798              		.loc 1 286 0
 3799 0058 3F22     		movs	r2, #63
 3800 005a 3100     		movs	r1, r6
 3801 005c 2A40     		ands	r2, r5
 3802 005e 0092     		str	r2, [sp]
 3803              	.LVL847:
 3804              	.L18:
 3805              		.loc 1 286 0 is_stmt 0 discriminator 1
 3806 0060 009A     		ldr	r2, [sp]
 3807 0062 8B1B     		subs	r3, r1, r6
 3808              	.LVL848:
 3809 0064 9A42     		cmp	r2, r3
 3810 0066 0FD9     		bls	.L26
 3811              	.LVL849:
 287:strong-arm\src\ripemd160/ripemd160.c **** 			chunk[i >> 2] ^= (uint32_t) *msg++ << ((i&3) << 3);
 3812              		.loc 1 287 0 is_stmt 1 discriminator 3
 3813 0068 0A78     		ldrb	r2, [r1]
 3814 006a 9808     		lsrs	r0, r3, #2
 3815 006c 9446     		mov	ip, r2
 3816 006e 1822     		movs	r2, #24
 3817 0070 DB00     		lsls	r3, r3, #3
 3818              	.LVL850:
 3819 0072 1340     		ands	r3, r2
 3820 0074 6246     		mov	r2, ip
 3821 0076 9A40     		lsls	r2, r2, r3
 3822 0078 1300     		movs	r3, r2
 3823 007a 08AF     		add	r7, sp, #32
 3824 007c 8000     		lsls	r0, r0, #2
 3825 007e C259     		ldr	r2, [r0, r7]
 3826 0080 0131     		adds	r1, r1, #1
 3827              	.LVL851:
 3828 0082 5340     		eors	r3, r2
 3829 0084 C351     		str	r3, [r0, r7]
 3830              	.LVL852:
 3831 0086 EBE7     		b	.L18
 3832              	.LVL853:
 3833              	.L26:
 3834              	.LBE6:
 288:strong-arm\src\ripemd160/ripemd160.c **** 		
 289:strong-arm\src\ripemd160/ripemd160.c **** 		chunk[(len >> 2)&15] ^= (uint32_t)1 << (8*(len&3) + 7);
 3835              		.loc 1 289 0
 3836 0088 0323     		movs	r3, #3
 3837              	.LVL854:
 3838 008a 0120     		movs	r0, #1
 3839 008c 2B40     		ands	r3, r5
 3840 008e DB00     		lsls	r3, r3, #3
 3841 0090 0733     		adds	r3, r3, #7
 3842 0092 9840     		lsls	r0, r0, r3
 3843 0094 3C21     		movs	r1, #60
 3844              	.LVL855:
 3845 0096 0300     		movs	r3, r0
 3846 0098 2940     		ands	r1, r5
 3847 009a 6258     		ldr	r2, [r4, r1]
 3848 009c 5340     		eors	r3, r2
 3849 009e 6350     		str	r3, [r4, r1]
ARM GAS  C:\Users\Ray\AppData\Local\Temp\ccn0usL8.s 			page 76


 290:strong-arm\src\ripemd160/ripemd160.c **** 		
 291:strong-arm\src\ripemd160/ripemd160.c **** 		if ((len & 63) > 55)
 3850              		.loc 1 291 0
 3851 00a0 009B     		ldr	r3, [sp]
 3852 00a2 372B     		cmp	r3, #55
 3853 00a4 08D9     		bls	.L20
 292:strong-arm\src\ripemd160/ripemd160.c **** 		{
 293:strong-arm\src\ripemd160/ripemd160.c **** 			compress (digest, chunk);
 3854              		.loc 1 293 0
 3855 00a6 2100     		movs	r1, r4
 3856 00a8 03A8     		add	r0, sp, #12
 3857 00aa FFF7FEFF 		bl	compress
 3858              	.LVL856:
 294:strong-arm\src\ripemd160/ripemd160.c **** 			memset (chunk, 0, 64);
 3859              		.loc 1 294 0
 3860 00ae 4022     		movs	r2, #64
 3861 00b0 0021     		movs	r1, #0
 3862 00b2 2000     		movs	r0, r4
 3863 00b4 FFF7FEFF 		bl	memset
 3864              	.LVL857:
 3865              	.L20:
 295:strong-arm\src\ripemd160/ripemd160.c **** 		}
 296:strong-arm\src\ripemd160/ripemd160.c **** 		
 297:strong-arm\src\ripemd160/ripemd160.c **** 		chunk[14] = len << 3;
 3866              		.loc 1 297 0
 3867 00b8 EB00     		lsls	r3, r5, #3
 298:strong-arm\src\ripemd160/ripemd160.c **** 		chunk[15] = (len >> 29);
 299:strong-arm\src\ripemd160/ripemd160.c **** 		compress (digest, chunk);
 3868              		.loc 1 299 0
 3869 00ba 2100     		movs	r1, r4
 298:strong-arm\src\ripemd160/ripemd160.c **** 		chunk[15] = (len >> 29);
 3870              		.loc 1 298 0
 3871 00bc 6D0F     		lsrs	r5, r5, #29
 3872              	.LVL858:
 3873              		.loc 1 299 0
 3874 00be 03A8     		add	r0, sp, #12
 297:strong-arm\src\ripemd160/ripemd160.c **** 		chunk[15] = (len >> 29);
 3875              		.loc 1 297 0
 3876 00c0 A363     		str	r3, [r4, #56]
 298:strong-arm\src\ripemd160/ripemd160.c **** 		chunk[15] = (len >> 29);
 3877              		.loc 1 298 0
 3878 00c2 E563     		str	r5, [r4, #60]
 3879              		.loc 1 299 0
 3880 00c4 FFF7FEFF 		bl	compress
 3881              	.LVL859:
 3882 00c8 0021     		movs	r1, #0
 3883 00ca 019B     		ldr	r3, [sp, #4]
 3884              	.LVL860:
 3885              	.L21:
 3886              	.LBE5:
 3887              	.LBB7:
 300:strong-arm\src\ripemd160/ripemd160.c **** 	}
 301:strong-arm\src\ripemd160/ripemd160.c **** 	
 302:strong-arm\src\ripemd160/ripemd160.c **** 	for (int i = 0; i < 5; ++i)
 303:strong-arm\src\ripemd160/ripemd160.c **** 	{
 304:strong-arm\src\ripemd160/ripemd160.c **** 		*(hash++) = digest[i];
 3888              		.loc 1 304 0 discriminator 3
ARM GAS  C:\Users\Ray\AppData\Local\Temp\ccn0usL8.s 			page 77


 3889 00cc 03AA     		add	r2, sp, #12
 3890 00ce 5258     		ldr	r2, [r2, r1]
 3891 00d0 0431     		adds	r1, r1, #4
 3892              	.LVL861:
 305:strong-arm\src\ripemd160/ripemd160.c **** 		*(hash++) = digest[i] >> 8;
 3893              		.loc 1 305 0 discriminator 3
 3894 00d2 100A     		lsrs	r0, r2, #8
 304:strong-arm\src\ripemd160/ripemd160.c **** 		*(hash++) = digest[i] >> 8;
 3895              		.loc 1 304 0 discriminator 3
 3896 00d4 1A70     		strb	r2, [r3]
 3897              	.LVL862:
 3898              		.loc 1 305 0 discriminator 3
 3899 00d6 5870     		strb	r0, [r3, #1]
 3900              	.LVL863:
 306:strong-arm\src\ripemd160/ripemd160.c **** 		*(hash++) = digest[i] >> 16;
 3901              		.loc 1 306 0 discriminator 3
 3902 00d8 100C     		lsrs	r0, r2, #16
 307:strong-arm\src\ripemd160/ripemd160.c **** 		*(hash++) = digest[i] >> 24;
 3903              		.loc 1 307 0 discriminator 3
 3904 00da 120E     		lsrs	r2, r2, #24
 306:strong-arm\src\ripemd160/ripemd160.c **** 		*(hash++) = digest[i] >> 16;
 3905              		.loc 1 306 0 discriminator 3
 3906 00dc 9870     		strb	r0, [r3, #2]
 3907              	.LVL864:
 3908              		.loc 1 307 0 discriminator 3
 3909 00de DA70     		strb	r2, [r3, #3]
 3910 00e0 0433     		adds	r3, r3, #4
 302:strong-arm\src\ripemd160/ripemd160.c **** 	{
 3911              		.loc 1 302 0 discriminator 3
 3912 00e2 1429     		cmp	r1, #20
 3913 00e4 F2D1     		bne	.L21
 3914              	.LBE7:
 308:strong-arm\src\ripemd160/ripemd160.c **** 	}
 309:strong-arm\src\ripemd160/ripemd160.c **** }
 3915              		.loc 1 309 0
 3916 00e6 19B0     		add	sp, sp, #100
 3917              		@ sp needed
 3918 00e8 F0BD     		pop	{r4, r5, r6, r7, pc}
 3919              	.L28:
 3920 00ea C046     		.align	2
 3921              	.L27:
 3922 00ec 00000000 		.word	.LANCHOR0
 3923              		.cfi_endproc
 3924              	.LFE1:
 3925              		.size	RIPEMD160, .-RIPEMD160
 3926              		.section	.rodata
 3927              		.align	2
 3928              		.set	.LANCHOR0,. + 0
 3929              	.LC0:
 3930 0000 01234567 		.word	1732584193
 3931 0004 89ABCDEF 		.word	-271733879
 3932 0008 FEDCBA98 		.word	-1732584194
 3933 000c 76543210 		.word	271733878
 3934 0010 F0E1D2C3 		.word	-1009589776
 3935              		.text
 3936              	.Letext0:
 3937              		.file 2 "c:\\program files (x86)\\cypress\\psoc creator\\4.1\\psoc creator\\import\\gnu\\arm\\5.4.
ARM GAS  C:\Users\Ray\AppData\Local\Temp\ccn0usL8.s 			page 78


 3938              		.file 3 "c:\\program files (x86)\\cypress\\psoc creator\\4.1\\psoc creator\\import\\gnu\\arm\\5.4.