ARM GAS  C:\Users\Ray\AppData\Local\Temp\ccfgXv8z.s 			page 1


   1              		.syntax unified
   2              		.cpu cortex-m0
   3              		.fpu softvfp
   4              		.eabi_attribute 20, 1
   5              		.eabi_attribute 21, 1
   6              		.eabi_attribute 23, 3
   7              		.eabi_attribute 24, 1
   8              		.eabi_attribute 25, 1
   9              		.eabi_attribute 26, 1
  10              		.eabi_attribute 30, 4
  11              		.eabi_attribute 34, 0
  12              		.eabi_attribute 18, 4
  13              		.thumb
  14              		.syntax unified
  15              		.file	"sha256.c"
  16              		.text
  17              	.Ltext0:
  18              		.cfi_sections	.debug_frame
  19              		.section	.text.compress,"ax",%progbits
  20              		.align	1
  21              		.code	16
  22              		.thumb_func
  23              		.type	compress, %function
  24              	compress:
  25              	.LFB4:
  26              		.file 1 "strong-arm\\src\\sha256\\sha256.c"
   1:strong-arm\src\sha256/sha256.c **** #include <strong-arm/sha256.h>
   2:strong-arm\src\sha256/sha256.c **** #include <string.h>
   3:strong-arm\src\sha256/sha256.c **** 
   4:strong-arm\src\sha256/sha256.c **** static const uint32_t kk[64] = {0x428a2f98, 0x71374491, 0xb5c0fbcf, 0xe9b5dba5, 0x3956c25b, 0x59f11
   5:strong-arm\src\sha256/sha256.c **** 				0xd807aa98, 0x12835b01, 0x243185be, 0x550c7dc3, 0x72be5d74, 0x80deb1fe, 0x9bdc06a7, 0xc19bf174,
   6:strong-arm\src\sha256/sha256.c **** 				0xe49b69c1, 0xefbe4786, 0x0fc19dc6, 0x240ca1cc, 0x2de92c6f, 0x4a7484aa, 0x5cb0a9dc, 0x76f988da,
   7:strong-arm\src\sha256/sha256.c **** 				0x983e5152, 0xa831c66d, 0xb00327c8, 0xbf597fc7, 0xc6e00bf3, 0xd5a79147, 0x06ca6351, 0x14292967,
   8:strong-arm\src\sha256/sha256.c **** 				0x27b70a85, 0x2e1b2138, 0x4d2c6dfc, 0x53380d13, 0x650a7354, 0x766a0abb, 0x81c2c92e, 0x92722c85,
   9:strong-arm\src\sha256/sha256.c **** 				0xa2bfe8a1, 0xa81a664b, 0xc24b8b70, 0xc76c51a3, 0xd192e819, 0xd6990624, 0xf40e3585, 0x106aa070,
  10:strong-arm\src\sha256/sha256.c **** 				0x19a4c116, 0x1e376c08, 0x2748774c, 0x34b0bcb5, 0x391c0cb3, 0x4ed8aa4a, 0x5b9cca4f, 0x682e6ff3,
  11:strong-arm\src\sha256/sha256.c **** 				0x748f82ee, 0x78a5636f, 0x84c87814, 0x8cc70208, 0x90befffa, 0xa4506ceb, 0xbef9a3f7, 0xc67178f2}
  12:strong-arm\src\sha256/sha256.c **** 
  13:strong-arm\src\sha256/sha256.c **** static inline uint32_t s0 (uint32_t a);
  14:strong-arm\src\sha256/sha256.c **** static inline uint32_t s1 (uint32_t a);
  15:strong-arm\src\sha256/sha256.c **** static inline uint32_t e0 (uint32_t a);
  16:strong-arm\src\sha256/sha256.c **** static inline uint32_t e1 (uint32_t a);
  17:strong-arm\src\sha256/sha256.c **** static void compress (uint32_t *digest, uint32_t *chunk);
  18:strong-arm\src\sha256/sha256.c **** 
  19:strong-arm\src\sha256/sha256.c **** /* gcc should optimize this to ROR instructions on at least X86 and ARM. */
  20:strong-arm\src\sha256/sha256.c **** #define ROR_C(x, n) (((x) >> (n)) | ((x) << (32 - (n))))
  21:strong-arm\src\sha256/sha256.c **** 
  22:strong-arm\src\sha256/sha256.c **** 
  23:strong-arm\src\sha256/sha256.c **** static inline uint32_t s0 (uint32_t a)
  24:strong-arm\src\sha256/sha256.c **** {
  25:strong-arm\src\sha256/sha256.c **** 	uint32_t tmp1, tmp2;
  26:strong-arm\src\sha256/sha256.c **** 	
  27:strong-arm\src\sha256/sha256.c **** 	tmp1 = ROR_C (a, 7);
  28:strong-arm\src\sha256/sha256.c **** 	tmp2 = ROR_C (a, 18);
  29:strong-arm\src\sha256/sha256.c **** 	return tmp1 ^ tmp2 ^ (a >> 3);
  30:strong-arm\src\sha256/sha256.c **** }
  31:strong-arm\src\sha256/sha256.c **** 
ARM GAS  C:\Users\Ray\AppData\Local\Temp\ccfgXv8z.s 			page 2


  32:strong-arm\src\sha256/sha256.c **** static inline uint32_t s1 (uint32_t a)
  33:strong-arm\src\sha256/sha256.c **** {
  34:strong-arm\src\sha256/sha256.c **** 	uint32_t tmp1, tmp2;
  35:strong-arm\src\sha256/sha256.c **** 	
  36:strong-arm\src\sha256/sha256.c **** 	tmp1 = ROR_C (a, 17);
  37:strong-arm\src\sha256/sha256.c **** 	tmp2 = ROR_C (a, 19);
  38:strong-arm\src\sha256/sha256.c **** 	return tmp1 ^ tmp2 ^ (a >> 10);
  39:strong-arm\src\sha256/sha256.c **** }
  40:strong-arm\src\sha256/sha256.c **** 
  41:strong-arm\src\sha256/sha256.c **** static inline uint32_t e0 (uint32_t a)
  42:strong-arm\src\sha256/sha256.c **** {
  43:strong-arm\src\sha256/sha256.c **** 	uint32_t tmp1, tmp2;
  44:strong-arm\src\sha256/sha256.c **** 	
  45:strong-arm\src\sha256/sha256.c **** 	tmp1 = ROR_C (a, 2);
  46:strong-arm\src\sha256/sha256.c **** 	tmp2 = ROR_C (a, 13);
  47:strong-arm\src\sha256/sha256.c **** 	a = ROR_C (a, 22);
  48:strong-arm\src\sha256/sha256.c **** 	return tmp1 ^ tmp2 ^ a;
  49:strong-arm\src\sha256/sha256.c **** }
  50:strong-arm\src\sha256/sha256.c **** 
  51:strong-arm\src\sha256/sha256.c **** static inline uint32_t e1 (uint32_t a)
  52:strong-arm\src\sha256/sha256.c **** {
  53:strong-arm\src\sha256/sha256.c **** 	uint32_t tmp1, tmp2;
  54:strong-arm\src\sha256/sha256.c **** 	
  55:strong-arm\src\sha256/sha256.c **** 	tmp1 = ROR_C (a, 6);
  56:strong-arm\src\sha256/sha256.c **** 	tmp2 = ROR_C (a, 11);
  57:strong-arm\src\sha256/sha256.c **** 	a = ROR_C (a, 25);
  58:strong-arm\src\sha256/sha256.c **** 	return tmp1 ^ tmp2 ^ a;
  59:strong-arm\src\sha256/sha256.c **** }
  60:strong-arm\src\sha256/sha256.c **** 
  61:strong-arm\src\sha256/sha256.c **** static void compress (uint32_t *digest, uint32_t *chunk)
  62:strong-arm\src\sha256/sha256.c **** {
  27              		.loc 1 62 0
  28              		.cfi_startproc
  29              		@ args = 0, pretend = 0, frame = 40
  30              		@ frame_needed = 0, uses_anonymous_args = 0
  31              	.LVL0:
  32 0000 F0B5     		push	{r4, r5, r6, r7, lr}
  33              		.cfi_def_cfa_offset 20
  34              		.cfi_offset 4, -20
  35              		.cfi_offset 5, -16
  36              		.cfi_offset 6, -12
  37              		.cfi_offset 7, -8
  38              		.cfi_offset 14, -4
  63:strong-arm\src\sha256/sha256.c **** 	uint32_t a = digest[0], b = digest[1], c = digest[2], d = digest[3];
  64:strong-arm\src\sha256/sha256.c **** 	uint32_t e = digest[4], f = digest[5], g = digest[6], h = digest[7];
  39              		.loc 1 64 0
  40 0002 4269     		ldr	r2, [r0, #20]
  62:strong-arm\src\sha256/sha256.c **** 	uint32_t a = digest[0], b = digest[1], c = digest[2], d = digest[3];
  41              		.loc 1 62 0
  42 0004 8BB0     		sub	sp, sp, #44
  43              		.cfi_def_cfa_offset 64
  44              		.loc 1 64 0
  45 0006 0292     		str	r2, [sp, #8]
  46 0008 8269     		ldr	r2, [r0, #24]
  63:strong-arm\src\sha256/sha256.c **** 	uint32_t a = digest[0], b = digest[1], c = digest[2], d = digest[3];
  47              		.loc 1 63 0
  48 000a 0368     		ldr	r3, [r0]
ARM GAS  C:\Users\Ray\AppData\Local\Temp\ccfgXv8z.s 			page 3


  49              		.loc 1 64 0
  50 000c 0392     		str	r2, [sp, #12]
  51 000e C269     		ldr	r2, [r0, #28]
  63:strong-arm\src\sha256/sha256.c **** 	uint32_t a = digest[0], b = digest[1], c = digest[2], d = digest[3];
  52              		.loc 1 63 0
  53 0010 9C46     		mov	ip, r3
  54              	.LVL1:
  55              		.loc 1 64 0
  56 0012 0892     		str	r2, [sp, #32]
  57              	.LBB12:
  65:strong-arm\src\sha256/sha256.c **** 	
  66:strong-arm\src\sha256/sha256.c **** 	for (uint32_t i = 0; i < 64; ++i)
  58              		.loc 1 66 0
  59 0014 0022     		movs	r2, #0
  60              	.LBE12:
  63:strong-arm\src\sha256/sha256.c **** 	uint32_t e = digest[4], f = digest[5], g = digest[6], h = digest[7];
  61              		.loc 1 63 0
  62 0016 4368     		ldr	r3, [r0, #4]
  63              	.LVL2:
  62:strong-arm\src\sha256/sha256.c **** 	uint32_t a = digest[0], b = digest[1], c = digest[2], d = digest[3];
  64              		.loc 1 62 0
  65 0018 0491     		str	r1, [sp, #16]
  63:strong-arm\src\sha256/sha256.c **** 	uint32_t e = digest[4], f = digest[5], g = digest[6], h = digest[7];
  66              		.loc 1 63 0
  67 001a 0093     		str	r3, [sp]
  68              	.LVL3:
  69 001c 8368     		ldr	r3, [r0, #8]
  70              	.LVL4:
  71 001e 0193     		str	r3, [sp, #4]
  72              	.LVL5:
  73 0020 C368     		ldr	r3, [r0, #12]
  74              	.LVL6:
  75 0022 0793     		str	r3, [sp, #28]
  76              	.LVL7:
  64:strong-arm\src\sha256/sha256.c **** 	
  77              		.loc 1 64 0
  78 0024 0369     		ldr	r3, [r0, #16]
  79              	.LVL8:
  80              	.L3:
  81              	.LBB17:
  82              	.LBB13:
  67:strong-arm\src\sha256/sha256.c **** 	{
  68:strong-arm\src\sha256/sha256.c **** 		uint32_t w = chunk[i&15];
  83              		.loc 1 68 0
  84 0026 0F25     		movs	r5, #15
  85 0028 0499     		ldr	r1, [sp, #16]
  86 002a 1540     		ands	r5, r2
  87 002c AD00     		lsls	r5, r5, #2
  88 002e 4919     		adds	r1, r1, r5
  89 0030 0591     		str	r1, [sp, #20]
  90 0032 0968     		ldr	r1, [r1]
  91 0034 0691     		str	r1, [sp, #24]
  92              	.LVL9:
  69:strong-arm\src\sha256/sha256.c **** 		
  70:strong-arm\src\sha256/sha256.c **** 		if (i < 48)
  93              		.loc 1 70 0
  94 0036 2F2A     		cmp	r2, #47
ARM GAS  C:\Users\Ray\AppData\Local\Temp\ccfgXv8z.s 			page 4


  95 0038 2ED8     		bhi	.L2
  71:strong-arm\src\sha256/sha256.c **** 			chunk[i&15] = chunk[i&15] + s0 (chunk[(i+1)&15]) + chunk[(i+9)&15] + s1 (chunk[(i+14)&15]);
  96              		.loc 1 71 0
  97 003a 0F24     		movs	r4, #15
  98 003c 511C     		adds	r1, r2, #1
  99              	.LVL10:
 100 003e 2140     		ands	r1, r4
 101 0040 049C     		ldr	r4, [sp, #16]
 102 0042 8900     		lsls	r1, r1, #2
 103 0044 0C59     		ldr	r4, [r1, r4]
 104 0046 1100     		movs	r1, r2
 105 0048 0F25     		movs	r5, #15
 106 004a 0E31     		adds	r1, r1, #14
 107 004c 2940     		ands	r1, r5
 108 004e 049D     		ldr	r5, [sp, #16]
 109 0050 8900     		lsls	r1, r1, #2
 110 0052 1600     		movs	r6, r2
 111 0054 4959     		ldr	r1, [r1, r5]
 112 0056 0F25     		movs	r5, #15
 113 0058 0936     		adds	r6, r6, #9
 114 005a 2E40     		ands	r6, r5
 115 005c 049D     		ldr	r5, [sp, #16]
 116 005e B600     		lsls	r6, r6, #2
 117 0060 7659     		ldr	r6, [r6, r5]
 118 0062 069D     		ldr	r5, [sp, #24]
 119 0064 2700     		movs	r7, r4
 120 0066 AE19     		adds	r6, r5, r6
 121 0068 0725     		movs	r5, #7
 122 006a EF41     		rors	r7, r7, r5
 123 006c 0997     		str	r7, [sp, #36]
 124 006e 2700     		movs	r7, r4
 125 0070 0B35     		adds	r5, r5, #11
 126 0072 EF41     		rors	r7, r7, r5
 127 0074 099D     		ldr	r5, [sp, #36]
 128 0076 E408     		lsrs	r4, r4, #3
 129 0078 6F40     		eors	r7, r5
 130 007a 6740     		eors	r7, r4
 131 007c F619     		adds	r6, r6, r7
 132 007e 1124     		movs	r4, #17
 133 0080 0F00     		movs	r7, r1
 134 0082 0D00     		movs	r5, r1
 135 0084 E741     		rors	r7, r7, r4
 136 0086 0234     		adds	r4, r4, #2
 137 0088 E541     		rors	r5, r5, r4
 138 008a 2C00     		movs	r4, r5
 139 008c 890A     		lsrs	r1, r1, #10
 140 008e 7C40     		eors	r4, r7
 141 0090 4C40     		eors	r4, r1
 142 0092 0599     		ldr	r1, [sp, #20]
 143 0094 3419     		adds	r4, r6, r4
 144 0096 0C60     		str	r4, [r1]
 145              	.LVL11:
 146              	.L2:
  72:strong-arm\src\sha256/sha256.c **** 		
  73:strong-arm\src\sha256/sha256.c **** 		uint32_t t2 = e0 (a) + ((a&b)^(a&c)^(b&c));
 147              		.loc 1 73 0 discriminator 2
 148 0098 009C     		ldr	r4, [sp]
ARM GAS  C:\Users\Ray\AppData\Local\Temp\ccfgXv8z.s 			page 5


 149 009a 0199     		ldr	r1, [sp, #4]
 150 009c 019D     		ldr	r5, [sp, #4]
 151 009e 6140     		eors	r1, r4
 152 00a0 6446     		mov	r4, ip
 153 00a2 2140     		ands	r1, r4
 154 00a4 009C     		ldr	r4, [sp]
 155 00a6 6646     		mov	r6, ip
 156 00a8 2540     		ands	r5, r4
 157 00aa 4D40     		eors	r5, r1
 158 00ac 6446     		mov	r4, ip
 159 00ae 0221     		movs	r1, #2
 160 00b0 CC41     		rors	r4, r4, r1
 161 00b2 0B31     		adds	r1, r1, #11
 162 00b4 CE41     		rors	r6, r6, r1
 163 00b6 3100     		movs	r1, r6
 164 00b8 6646     		mov	r6, ip
 165 00ba 6140     		eors	r1, r4
 166 00bc 1624     		movs	r4, #22
 167 00be E641     		rors	r6, r6, r4
  74:strong-arm\src\sha256/sha256.c **** 		uint32_t t1 = h + e1 (e) + ((e&f)^((~e)&g)) + kk[i] + w;
 168              		.loc 1 74 0 discriminator 2
 169 00c0 0624     		movs	r4, #6
  73:strong-arm\src\sha256/sha256.c **** 		uint32_t t1 = h + e1 (e) + ((e&f)^((~e)&g)) + kk[i] + w;
 170              		.loc 1 73 0 discriminator 2
 171 00c2 7140     		eors	r1, r6
 172              		.loc 1 74 0 discriminator 2
 173 00c4 1E00     		movs	r6, r3
  73:strong-arm\src\sha256/sha256.c **** 		uint32_t t1 = h + e1 (e) + ((e&f)^((~e)&g)) + kk[i] + w;
 174              		.loc 1 73 0 discriminator 2
 175 00c6 6918     		adds	r1, r5, r1
 176              	.LVL12:
 177              		.loc 1 74 0 discriminator 2
 178 00c8 1D00     		movs	r5, r3
 179 00ca E641     		rors	r6, r6, r4
 180 00cc 0534     		adds	r4, r4, #5
 181 00ce E541     		rors	r5, r5, r4
 182 00d0 2C00     		movs	r4, r5
 183 00d2 1925     		movs	r5, #25
 184 00d4 7440     		eors	r4, r6
 185 00d6 1E00     		movs	r6, r3
 186 00d8 EE41     		rors	r6, r6, r5
 187 00da 029D     		ldr	r5, [sp, #8]
 188 00dc 6640     		eors	r6, r4
 189 00de 039C     		ldr	r4, [sp, #12]
 190 00e0 1D40     		ands	r5, r3
 191 00e2 9C43     		bics	r4, r3
 192 00e4 6C40     		eors	r4, r5
 193 00e6 1F4D     		ldr	r5, .L7
 194 00e8 3419     		adds	r4, r6, r4
 195 00ea 9600     		lsls	r6, r2, #2
 196 00ec 7559     		ldr	r5, [r6, r5]
 197              	.LBE13:
  66:strong-arm\src\sha256/sha256.c **** 	{
 198              		.loc 1 66 0 discriminator 2
 199 00ee 0132     		adds	r2, r2, #1
 200              	.LVL13:
 201              	.LBB14:
ARM GAS  C:\Users\Ray\AppData\Local\Temp\ccfgXv8z.s 			page 6


 202              		.loc 1 74 0 discriminator 2
 203 00f0 6419     		adds	r4, r4, r5
 204 00f2 069D     		ldr	r5, [sp, #24]
 205 00f4 6419     		adds	r4, r4, r5
 206 00f6 089D     		ldr	r5, [sp, #32]
 207 00f8 6419     		adds	r4, r4, r5
 208              	.LVL14:
  75:strong-arm\src\sha256/sha256.c **** 		
  76:strong-arm\src\sha256/sha256.c **** 		h = g;
  77:strong-arm\src\sha256/sha256.c **** 		g = f;
  78:strong-arm\src\sha256/sha256.c **** 		f = e;
  79:strong-arm\src\sha256/sha256.c **** 		e = d + t1;
 209              		.loc 1 79 0 discriminator 2
 210 00fa 079D     		ldr	r5, [sp, #28]
  80:strong-arm\src\sha256/sha256.c **** 		d = c;
  81:strong-arm\src\sha256/sha256.c **** 		c = b;
  82:strong-arm\src\sha256/sha256.c **** 		b = a;
  83:strong-arm\src\sha256/sha256.c **** 		a = t1 + t2;
 211              		.loc 1 83 0 discriminator 2
 212 00fc 0919     		adds	r1, r1, r4
 213              	.LVL15:
  79:strong-arm\src\sha256/sha256.c **** 		d = c;
 214              		.loc 1 79 0 discriminator 2
 215 00fe 6519     		adds	r5, r4, r5
 216              	.LVL16:
 217 0100 019C     		ldr	r4, [sp, #4]
 218              	.LVL17:
 219 0102 0794     		str	r4, [sp, #28]
 220 0104 039C     		ldr	r4, [sp, #12]
 221 0106 0894     		str	r4, [sp, #32]
 222              	.LVL18:
 223              	.LBE14:
  66:strong-arm\src\sha256/sha256.c **** 	{
 224              		.loc 1 66 0 discriminator 2
 225 0108 402A     		cmp	r2, #64
 226 010a 09D0     		beq	.L6
 227 010c 029C     		ldr	r4, [sp, #8]
 228 010e 0293     		str	r3, [sp, #8]
 229              	.LVL19:
 230 0110 0394     		str	r4, [sp, #12]
 231              	.LVL20:
 232 0112 009C     		ldr	r4, [sp]
 233              	.LVL21:
 234              	.LBB15:
  79:strong-arm\src\sha256/sha256.c **** 		d = c;
 235              		.loc 1 79 0
 236 0114 2B00     		movs	r3, r5
 237              	.LVL22:
 238              	.LBE15:
 239 0116 0194     		str	r4, [sp, #4]
 240              	.LVL23:
 241 0118 6446     		mov	r4, ip
 242              	.LBB16:
 243              		.loc 1 83 0
 244 011a 8C46     		mov	ip, r1
 245              	.LVL24:
 246              	.LBE16:
ARM GAS  C:\Users\Ray\AppData\Local\Temp\ccfgXv8z.s 			page 7


 247 011c 0094     		str	r4, [sp]
 248              	.LVL25:
 249 011e 82E7     		b	.L3
 250              	.LVL26:
 251              	.L6:
 252              	.LBE17:
  84:strong-arm\src\sha256/sha256.c **** 	}
  85:strong-arm\src\sha256/sha256.c **** 	
  86:strong-arm\src\sha256/sha256.c **** 	digest[0] += a;
 253              		.loc 1 86 0
 254 0120 0268     		ldr	r2, [r0]
 255              	.LVL27:
 256 0122 5118     		adds	r1, r2, r1
 257              	.LVL28:
 258 0124 0160     		str	r1, [r0]
  87:strong-arm\src\sha256/sha256.c **** 	digest[1] += b;
 259              		.loc 1 87 0
 260 0126 4268     		ldr	r2, [r0, #4]
  88:strong-arm\src\sha256/sha256.c **** 	digest[2] += c;
 261              		.loc 1 88 0
 262 0128 8168     		ldr	r1, [r0, #8]
  87:strong-arm\src\sha256/sha256.c **** 	digest[1] += b;
 263              		.loc 1 87 0
 264 012a 6244     		add	r2, r2, ip
 265              		.loc 1 88 0
 266 012c 8C46     		mov	ip, r1
 267              	.LVL29:
  87:strong-arm\src\sha256/sha256.c **** 	digest[1] += b;
 268              		.loc 1 87 0
 269 012e 4260     		str	r2, [r0, #4]
  89:strong-arm\src\sha256/sha256.c **** 	digest[3] += d;
 270              		.loc 1 89 0
 271 0130 C168     		ldr	r1, [r0, #12]
  88:strong-arm\src\sha256/sha256.c **** 	digest[2] += c;
 272              		.loc 1 88 0
 273 0132 009A     		ldr	r2, [sp]
 274 0134 6244     		add	r2, r2, ip
 275              		.loc 1 89 0
 276 0136 8C46     		mov	ip, r1
  88:strong-arm\src\sha256/sha256.c **** 	digest[2] += c;
 277              		.loc 1 88 0
 278 0138 8260     		str	r2, [r0, #8]
 279              		.loc 1 89 0
 280 013a 019A     		ldr	r2, [sp, #4]
 281 013c 6244     		add	r2, r2, ip
 282 013e C260     		str	r2, [r0, #12]
  90:strong-arm\src\sha256/sha256.c **** 	digest[4] += e;
 283              		.loc 1 90 0
 284 0140 0269     		ldr	r2, [r0, #16]
 285 0142 5519     		adds	r5, r2, r5
 286              	.LVL30:
  91:strong-arm\src\sha256/sha256.c **** 	digest[5] += f;
 287              		.loc 1 91 0
 288 0144 4269     		ldr	r2, [r0, #20]
  90:strong-arm\src\sha256/sha256.c **** 	digest[4] += e;
 289              		.loc 1 90 0
 290 0146 0561     		str	r5, [r0, #16]
ARM GAS  C:\Users\Ray\AppData\Local\Temp\ccfgXv8z.s 			page 8


 291              		.loc 1 91 0
 292 0148 D318     		adds	r3, r2, r3
 293              	.LVL31:
  92:strong-arm\src\sha256/sha256.c **** 	digest[6] += g;
 294              		.loc 1 92 0
 295 014a 8269     		ldr	r2, [r0, #24]
  91:strong-arm\src\sha256/sha256.c **** 	digest[5] += f;
 296              		.loc 1 91 0
 297 014c 4361     		str	r3, [r0, #20]
 298              		.loc 1 92 0
 299 014e 9446     		mov	ip, r2
 300 0150 029B     		ldr	r3, [sp, #8]
  93:strong-arm\src\sha256/sha256.c **** 	digest[7] += h;
 301              		.loc 1 93 0
 302 0152 C269     		ldr	r2, [r0, #28]
  92:strong-arm\src\sha256/sha256.c **** 	digest[6] += g;
 303              		.loc 1 92 0
 304 0154 6344     		add	r3, r3, ip
 305 0156 8361     		str	r3, [r0, #24]
 306              		.loc 1 93 0
 307 0158 9446     		mov	ip, r2
 308 015a 2300     		movs	r3, r4
 309 015c 6344     		add	r3, r3, ip
 310 015e C361     		str	r3, [r0, #28]
  94:strong-arm\src\sha256/sha256.c **** }
 311              		.loc 1 94 0
 312 0160 0BB0     		add	sp, sp, #44
 313              	.LVL32:
 314              		@ sp needed
 315              	.LVL33:
 316 0162 F0BD     		pop	{r4, r5, r6, r7, pc}
 317              	.L8:
 318              		.align	2
 319              	.L7:
 320 0164 00000000 		.word	.LANCHOR0
 321              		.cfi_endproc
 322              	.LFE4:
 323              		.size	compress, .-compress
 324              		.section	.text.SHA256,"ax",%progbits
 325              		.align	1
 326              		.global	SHA256
 327              		.code	16
 328              		.thumb_func
 329              		.type	SHA256, %function
 330              	SHA256:
 331              	.LFB5:
  95:strong-arm\src\sha256/sha256.c **** 
  96:strong-arm\src\sha256/sha256.c **** /* TODO: Need to correctly handle the case where len == 2^32-1 */
  97:strong-arm\src\sha256/sha256.c **** void SHA256 (uint8_t *hash, uint8_t const * msg, uint32_t len)
  98:strong-arm\src\sha256/sha256.c **** {
 332              		.loc 1 98 0
 333              		.cfi_startproc
 334              		@ args = 0, pretend = 0, frame = 112
 335              		@ frame_needed = 0, uses_anonymous_args = 0
 336              	.LVL34:
 337 0000 F0B5     		push	{r4, r5, r6, r7, lr}
 338              		.cfi_def_cfa_offset 20
ARM GAS  C:\Users\Ray\AppData\Local\Temp\ccfgXv8z.s 			page 9


 339              		.cfi_offset 4, -20
 340              		.cfi_offset 5, -16
 341              		.cfi_offset 6, -12
 342              		.cfi_offset 7, -8
 343              		.cfi_offset 14, -4
 344 0002 9DB0     		sub	sp, sp, #116
 345              		.cfi_def_cfa_offset 136
  99:strong-arm\src\sha256/sha256.c **** 	uint32_t digest[8] = {0x6a09e667, 0xbb67ae85, 0x3c6ef372, 0xa54ff53a, 0x510e527f, 0x9b05688c, 0x1f
 346              		.loc 1 99 0
 347 0004 04AE     		add	r6, sp, #16
  98:strong-arm\src\sha256/sha256.c **** 	uint32_t digest[8] = {0x6a09e667, 0xbb67ae85, 0x3c6ef372, 0xa54ff53a, 0x510e527f, 0x9b05688c, 0x1f
 348              		.loc 1 98 0
 349 0006 1500     		movs	r5, r2
 350              		.loc 1 99 0
 351 0008 3200     		movs	r2, r6
 352              	.LVL35:
  98:strong-arm\src\sha256/sha256.c **** 	uint32_t digest[8] = {0x6a09e667, 0xbb67ae85, 0x3c6ef372, 0xa54ff53a, 0x510e527f, 0x9b05688c, 0x1f
 353              		.loc 1 98 0
 354 000a 0C00     		movs	r4, r1
 355              		.loc 1 99 0
 356 000c 3A4B     		ldr	r3, .L20
  98:strong-arm\src\sha256/sha256.c **** 	uint32_t digest[8] = {0x6a09e667, 0xbb67ae85, 0x3c6ef372, 0xa54ff53a, 0x510e527f, 0x9b05688c, 0x1f
 357              		.loc 1 98 0
 358 000e 0390     		str	r0, [sp, #12]
 359              		.loc 1 99 0
 360 0010 83CB     		ldmia	r3!, {r0, r1, r7}
 361 0012 83C2     		stmia	r2!, {r0, r1, r7}
 362              	.LVL36:
 363 0014 83CB     		ldmia	r3!, {r0, r1, r7}
 364 0016 83C2     		stmia	r2!, {r0, r1, r7}
 365 0018 03CB     		ldmia	r3!, {r0, r1}
 366 001a 03C2     		stmia	r2!, {r0, r1}
 367              	.LVL37:
 368 001c AB09     		lsrs	r3, r5, #6
 369 001e 9B01     		lsls	r3, r3, #6
 370 0020 E318     		adds	r3, r4, r3
 371 0022 0193     		str	r3, [sp, #4]
 372              	.LVL38:
 373              	.L10:
 374              	.LBB18:
 100:strong-arm\src\sha256/sha256.c **** 	
 101:strong-arm\src\sha256/sha256.c **** 	for (uint32_t i = 0; i < (len >> 6); ++i)
 375              		.loc 1 101 0 discriminator 1
 376 0024 019B     		ldr	r3, [sp, #4]
 377 0026 9C42     		cmp	r4, r3
 378 0028 16D0     		beq	.L12
 379 002a 2300     		movs	r3, r4
 380              		.loc 1 101 0 is_stmt 0
 381 002c 0027     		movs	r7, #0
 382              	.LVL39:
 383              	.L11:
 384              	.LBB19:
 385              	.LBB20:
 102:strong-arm\src\sha256/sha256.c **** 	{
 103:strong-arm\src\sha256/sha256.c **** 		uint32_t chunk[16];
 104:strong-arm\src\sha256/sha256.c **** 		
 105:strong-arm\src\sha256/sha256.c **** 		for (int j = 0; j < 16; ++j)
ARM GAS  C:\Users\Ray\AppData\Local\Temp\ccfgXv8z.s 			page 10


 106:strong-arm\src\sha256/sha256.c **** 		{
 107:strong-arm\src\sha256/sha256.c **** 			chunk[j] = ((uint32_t)*(msg++)) << 24;
 108:strong-arm\src\sha256/sha256.c **** 			chunk[j] |= ((uint32_t)*(msg++)) << 16;
 109:strong-arm\src\sha256/sha256.c **** 			chunk[j] |= ((uint32_t)*(msg++)) << 8;
 110:strong-arm\src\sha256/sha256.c **** 			chunk[j] |= ((uint32_t)*(msg++));
 386              		.loc 1 110 0 is_stmt 1 discriminator 3
 387 002e 1A78     		ldrb	r2, [r3]
 388 0030 0CA9     		add	r1, sp, #48
 389 0032 1006     		lsls	r0, r2, #24
 390 0034 5A78     		ldrb	r2, [r3, #1]
 391 0036 1204     		lsls	r2, r2, #16
 392 0038 0243     		orrs	r2, r0
 393 003a D878     		ldrb	r0, [r3, #3]
 394 003c 0243     		orrs	r2, r0
 395 003e 9878     		ldrb	r0, [r3, #2]
 396 0040 0433     		adds	r3, r3, #4
 397 0042 0002     		lsls	r0, r0, #8
 398 0044 0243     		orrs	r2, r0
 399 0046 7A50     		str	r2, [r7, r1]
 400              	.LVL40:
 401 0048 0437     		adds	r7, r7, #4
 402              	.LVL41:
 105:strong-arm\src\sha256/sha256.c **** 		{
 403              		.loc 1 105 0 discriminator 3
 404 004a 402F     		cmp	r7, #64
 405 004c EFD1     		bne	.L11
 406              	.LBE20:
 111:strong-arm\src\sha256/sha256.c **** 		}
 112:strong-arm\src\sha256/sha256.c **** 		
 113:strong-arm\src\sha256/sha256.c **** 		compress (digest, chunk);
 407              		.loc 1 113 0 discriminator 2
 408 004e 04A8     		add	r0, sp, #16
 409 0050 4034     		adds	r4, r4, #64
 410              	.LVL42:
 411 0052 FFF7FEFF 		bl	compress
 412              	.LVL43:
 413 0056 E5E7     		b	.L10
 414              	.LVL44:
 415              	.L12:
 416              	.LBE19:
 417              	.LBE18:
 418              	.LBB21:
 114:strong-arm\src\sha256/sha256.c **** 	}
 115:strong-arm\src\sha256/sha256.c **** 	
 116:strong-arm\src\sha256/sha256.c **** 	// Last chunk
 117:strong-arm\src\sha256/sha256.c **** 	{
 118:strong-arm\src\sha256/sha256.c **** 		uint32_t chunk[16] = {0};
 419              		.loc 1 118 0
 420 0058 0CAC     		add	r4, sp, #48
 421              	.LVL45:
 422 005a 0021     		movs	r1, #0
 423 005c 4022     		movs	r2, #64
 424 005e 2000     		movs	r0, r4
 425 0060 FFF7FEFF 		bl	memset
 426              	.LVL46:
 427              	.LBB22:
 119:strong-arm\src\sha256/sha256.c **** 		
ARM GAS  C:\Users\Ray\AppData\Local\Temp\ccfgXv8z.s 			page 11


 120:strong-arm\src\sha256/sha256.c **** 		for (uint32_t i = 0; i < (len & 63); ++i)
 428              		.loc 1 120 0
 429 0064 3F21     		movs	r1, #63
 430 0066 0023     		movs	r3, #0
 431 0068 2940     		ands	r1, r5
 432 006a 0291     		str	r1, [sp, #8]
 433              	.LVL47:
 434              	.L13:
 435              		.loc 1 120 0 is_stmt 0 discriminator 1
 436 006c 029A     		ldr	r2, [sp, #8]
 437 006e 9342     		cmp	r3, r2
 438 0070 11D2     		bcs	.L19
 439              	.LVL48:
 121:strong-arm\src\sha256/sha256.c **** 			chunk[i>>2] |= ((uint32_t)*(msg++)) << ((3-(i&3)) << 3);
 440              		.loc 1 121 0 is_stmt 1 discriminator 3
 441 0072 019A     		ldr	r2, [sp, #4]
 442 0074 1821     		movs	r1, #24
 443 0076 D25C     		ldrb	r2, [r2, r3]
 444 0078 9808     		lsrs	r0, r3, #2
 445 007a 9446     		mov	ip, r2
 446 007c DA43     		mvns	r2, r3
 447 007e D200     		lsls	r2, r2, #3
 448 0080 0A40     		ands	r2, r1
 449 0082 6146     		mov	r1, ip
 450 0084 9140     		lsls	r1, r1, r2
 451 0086 0A00     		movs	r2, r1
 452 0088 0CAF     		add	r7, sp, #48
 453 008a 8000     		lsls	r0, r0, #2
 454 008c C159     		ldr	r1, [r0, r7]
 120:strong-arm\src\sha256/sha256.c **** 			chunk[i>>2] |= ((uint32_t)*(msg++)) << ((3-(i&3)) << 3);
 455              		.loc 1 120 0 discriminator 3
 456 008e 0133     		adds	r3, r3, #1
 457              	.LVL49:
 458              		.loc 1 121 0 discriminator 3
 459 0090 0A43     		orrs	r2, r1
 460 0092 C251     		str	r2, [r0, r7]
 461 0094 EAE7     		b	.L13
 462              	.LVL50:
 463              	.L19:
 464              	.LBE22:
 122:strong-arm\src\sha256/sha256.c **** 		
 123:strong-arm\src\sha256/sha256.c **** 		chunk[(len >> 2)&15] ^= (uint32_t)1 << (8*(3-(len&3)) + 7);
 465              		.loc 1 123 0
 466 0096 0323     		movs	r3, #3
 467              	.LVL51:
 468 0098 0120     		movs	r0, #1
 469 009a AB43     		bics	r3, r5
 470 009c DB00     		lsls	r3, r3, #3
 471 009e 0733     		adds	r3, r3, #7
 472 00a0 9840     		lsls	r0, r0, r3
 473 00a2 3C22     		movs	r2, #60
 474 00a4 0300     		movs	r3, r0
 475 00a6 2A40     		ands	r2, r5
 476 00a8 A158     		ldr	r1, [r4, r2]
 477 00aa 4B40     		eors	r3, r1
 478 00ac A350     		str	r3, [r4, r2]
 124:strong-arm\src\sha256/sha256.c **** 		
ARM GAS  C:\Users\Ray\AppData\Local\Temp\ccfgXv8z.s 			page 12


 125:strong-arm\src\sha256/sha256.c **** 		if ((len & 63) > 55)
 479              		.loc 1 125 0
 480 00ae 029B     		ldr	r3, [sp, #8]
 481 00b0 372B     		cmp	r3, #55
 482 00b2 08D9     		bls	.L15
 126:strong-arm\src\sha256/sha256.c **** 		{
 127:strong-arm\src\sha256/sha256.c **** 			compress (digest, chunk);
 483              		.loc 1 127 0
 484 00b4 2100     		movs	r1, r4
 485 00b6 04A8     		add	r0, sp, #16
 486 00b8 FFF7FEFF 		bl	compress
 487              	.LVL52:
 128:strong-arm\src\sha256/sha256.c **** 			memset (chunk, 0, 64);
 488              		.loc 1 128 0
 489 00bc 4022     		movs	r2, #64
 490 00be 0021     		movs	r1, #0
 491 00c0 2000     		movs	r0, r4
 492 00c2 FFF7FEFF 		bl	memset
 493              	.LVL53:
 494              	.L15:
 129:strong-arm\src\sha256/sha256.c **** 		}
 130:strong-arm\src\sha256/sha256.c **** 		
 131:strong-arm\src\sha256/sha256.c **** 		chunk[14] = (len >> 29);
 495              		.loc 1 131 0
 496 00c6 6B0F     		lsrs	r3, r5, #29
 132:strong-arm\src\sha256/sha256.c **** 		chunk[15] = len << 3;
 133:strong-arm\src\sha256/sha256.c **** 		compress (digest, chunk);
 497              		.loc 1 133 0
 498 00c8 2100     		movs	r1, r4
 132:strong-arm\src\sha256/sha256.c **** 		chunk[15] = len << 3;
 499              		.loc 1 132 0
 500 00ca ED00     		lsls	r5, r5, #3
 501              	.LVL54:
 502              		.loc 1 133 0
 503 00cc 04A8     		add	r0, sp, #16
 131:strong-arm\src\sha256/sha256.c **** 		chunk[15] = len << 3;
 504              		.loc 1 131 0
 505 00ce A363     		str	r3, [r4, #56]
 132:strong-arm\src\sha256/sha256.c **** 		chunk[15] = len << 3;
 506              		.loc 1 132 0
 507 00d0 E563     		str	r5, [r4, #60]
 508              		.loc 1 133 0
 509 00d2 FFF7FEFF 		bl	compress
 510              	.LVL55:
 511 00d6 0022     		movs	r2, #0
 512 00d8 039B     		ldr	r3, [sp, #12]
 513              	.LVL56:
 514              	.L16:
 515              	.LBE21:
 516              	.LBB23:
 134:strong-arm\src\sha256/sha256.c **** 	}
 135:strong-arm\src\sha256/sha256.c **** 	
 136:strong-arm\src\sha256/sha256.c **** 	for (int i = 0; i < 8; ++i)
 137:strong-arm\src\sha256/sha256.c **** 	{
 138:strong-arm\src\sha256/sha256.c **** 		*(hash++) = digest[i] >> 24;
 517              		.loc 1 138 0 discriminator 3
 518 00da B158     		ldr	r1, [r6, r2]
ARM GAS  C:\Users\Ray\AppData\Local\Temp\ccfgXv8z.s 			page 13


 519 00dc 0432     		adds	r2, r2, #4
 520              	.LVL57:
 521 00de 080E     		lsrs	r0, r1, #24
 522 00e0 1870     		strb	r0, [r3]
 523              	.LVL58:
 139:strong-arm\src\sha256/sha256.c **** 		*(hash++) = digest[i] >> 16;
 524              		.loc 1 139 0 discriminator 3
 525 00e2 080C     		lsrs	r0, r1, #16
 526 00e4 5870     		strb	r0, [r3, #1]
 527              	.LVL59:
 140:strong-arm\src\sha256/sha256.c **** 		*(hash++) = digest[i] >> 8;
 528              		.loc 1 140 0 discriminator 3
 529 00e6 080A     		lsrs	r0, r1, #8
 530 00e8 9870     		strb	r0, [r3, #2]
 531              	.LVL60:
 141:strong-arm\src\sha256/sha256.c **** 		*(hash++) = digest[i];
 532              		.loc 1 141 0 discriminator 3
 533 00ea D970     		strb	r1, [r3, #3]
 534 00ec 0433     		adds	r3, r3, #4
 136:strong-arm\src\sha256/sha256.c **** 	{
 535              		.loc 1 136 0 discriminator 3
 536 00ee 202A     		cmp	r2, #32
 537 00f0 F3D1     		bne	.L16
 538              	.LBE23:
 142:strong-arm\src\sha256/sha256.c **** 	}
 143:strong-arm\src\sha256/sha256.c **** }
 539              		.loc 1 143 0
 540 00f2 1DB0     		add	sp, sp, #116
 541              		@ sp needed
 542 00f4 F0BD     		pop	{r4, r5, r6, r7, pc}
 543              	.L21:
 544 00f6 C046     		.align	2
 545              	.L20:
 546 00f8 00010000 		.word	.LANCHOR1
 547              		.cfi_endproc
 548              	.LFE5:
 549              		.size	SHA256, .-SHA256
 550              		.section	.text.SHA256_partial,"ax",%progbits
 551              		.align	1
 552              		.global	SHA256_partial
 553              		.code	16
 554              		.thumb_func
 555              		.type	SHA256_partial, %function
 556              	SHA256_partial:
 557              	.LFB6:
 144:strong-arm\src\sha256/sha256.c **** 
 145:strong-arm\src\sha256/sha256.c **** 
 146:strong-arm\src\sha256/sha256.c **** static const uint32_t initial_state[8] = {0x6a09e667, 0xbb67ae85, 0x3c6ef372, 0xa54ff53a, 0x510e527
 147:strong-arm\src\sha256/sha256.c **** void SHA256_partial (uint8_t *hash, SHA256_STATE *const state, uint8_t const *src, uint32_t len, bo
 148:strong-arm\src\sha256/sha256.c **** {
 558              		.loc 1 148 0
 559              		.cfi_startproc
 560              		@ args = 8, pretend = 0, frame = 16
 561              		@ frame_needed = 0, uses_anonymous_args = 0
 562              	.LVL61:
 563 0000 F0B5     		push	{r4, r5, r6, r7, lr}
 564              		.cfi_def_cfa_offset 20
ARM GAS  C:\Users\Ray\AppData\Local\Temp\ccfgXv8z.s 			page 14


 565              		.cfi_offset 4, -20
 566              		.cfi_offset 5, -16
 567              		.cfi_offset 6, -12
 568              		.cfi_offset 7, -8
 569              		.cfi_offset 14, -4
 570 0002 85B0     		sub	sp, sp, #20
 571              		.cfi_def_cfa_offset 40
 572              		.loc 1 148 0
 573 0004 0192     		str	r2, [sp, #4]
 574 0006 1E00     		movs	r6, r3
 575 0008 0BAA     		add	r2, sp, #44
 576              	.LVL62:
 577 000a 0AAB     		add	r3, sp, #40
 578              	.LVL63:
 579 000c 1278     		ldrb	r2, [r2]
 580              	.LVL64:
 581 000e 1B78     		ldrb	r3, [r3]
 582              	.LVL65:
 583 0010 0290     		str	r0, [sp, #8]
 584 0012 0C00     		movs	r4, r1
 585 0014 0392     		str	r2, [sp, #12]
 149:strong-arm\src\sha256/sha256.c **** 	// First data
 150:strong-arm\src\sha256/sha256.c **** 	if (first) {
 586              		.loc 1 150 0
 587 0016 002B     		cmp	r3, #0
 588 0018 0ED0     		beq	.L24
 151:strong-arm\src\sha256/sha256.c **** 		state->chunk_len = 0;
 589              		.loc 1 151 0
 590 001a 0025     		movs	r5, #0
 152:strong-arm\src\sha256/sha256.c **** 		state->totallen = 0;
 153:strong-arm\src\sha256/sha256.c **** 		memmove (state->state, initial_state, 32);
 591              		.loc 1 153 0
 592 001c 2022     		movs	r2, #32
 151:strong-arm\src\sha256/sha256.c **** 		state->chunk_len = 0;
 593              		.loc 1 151 0
 594 001e 0D66     		str	r5, [r1, #96]
 152:strong-arm\src\sha256/sha256.c **** 		state->totallen = 0;
 595              		.loc 1 152 0
 596 0020 4D66     		str	r5, [r1, #100]
 597              		.loc 1 153 0
 598 0022 3849     		ldr	r1, .L39
 599              	.LVL66:
 600 0024 2000     		movs	r0, r4
 601              	.LVL67:
 602 0026 8918     		adds	r1, r1, r2
 603 0028 FFF7FEFF 		bl	memcpy
 604              	.LVL68:
 154:strong-arm\src\sha256/sha256.c **** 		memset (state->chunk, 0, 64);
 605              		.loc 1 154 0
 606 002c 2000     		movs	r0, r4
 607 002e 4022     		movs	r2, #64
 608 0030 2900     		movs	r1, r5
 609 0032 2030     		adds	r0, r0, #32
 610              	.LVL69:
 611              	.L38:
 155:strong-arm\src\sha256/sha256.c **** 	}
 156:strong-arm\src\sha256/sha256.c **** 	
ARM GAS  C:\Users\Ray\AppData\Local\Temp\ccfgXv8z.s 			page 15


 157:strong-arm\src\sha256/sha256.c **** 	while (len > 0)
 158:strong-arm\src\sha256/sha256.c **** 	{
 159:strong-arm\src\sha256/sha256.c **** 		while ((state->chunk_len < 64) && (len > 0))
 160:strong-arm\src\sha256/sha256.c **** 		{
 161:strong-arm\src\sha256/sha256.c **** 			state->chunk[state->chunk_len>>2] |= ((uint32_t)*(src++)) << (8*(3-(state->chunk_len&3)));
 162:strong-arm\src\sha256/sha256.c **** 			state->chunk_len += 1;
 163:strong-arm\src\sha256/sha256.c **** 			--len;
 164:strong-arm\src\sha256/sha256.c **** 			state->totallen += 1;
 165:strong-arm\src\sha256/sha256.c **** 		}
 166:strong-arm\src\sha256/sha256.c **** 		
 167:strong-arm\src\sha256/sha256.c **** 		if (state->chunk_len == 64)
 168:strong-arm\src\sha256/sha256.c **** 		{
 169:strong-arm\src\sha256/sha256.c **** 			compress (state->state, state->chunk);
 170:strong-arm\src\sha256/sha256.c **** 			state->chunk_len = 0;
 171:strong-arm\src\sha256/sha256.c **** 			memset (state->chunk, 0, 64);
 612              		.loc 1 171 0
 613 0034 FFF7FEFF 		bl	memset
 614              	.LVL70:
 615              	.L24:
 157:strong-arm\src\sha256/sha256.c **** 	{
 616              		.loc 1 157 0
 617 0038 002E     		cmp	r6, #0
 618 003a 26D0     		beq	.L28
 619 003c 0199     		ldr	r1, [sp, #4]
 620              	.L29:
 159:strong-arm\src\sha256/sha256.c **** 		{
 621              		.loc 1 159 0
 622 003e 256E     		ldr	r5, [r4, #96]
 623 0040 0191     		str	r1, [sp, #4]
 624              	.LVL71:
 625 0042 3F2D     		cmp	r5, #63
 626 0044 14D8     		bhi	.L25
 159:strong-arm\src\sha256/sha256.c **** 		{
 627              		.loc 1 159 0 is_stmt 0 discriminator 1
 628 0046 002E     		cmp	r6, #0
 629 0048 1FD0     		beq	.L28
 630              	.LVL72:
 161:strong-arm\src\sha256/sha256.c **** 			state->chunk_len += 1;
 631              		.loc 1 161 0 is_stmt 1
 632 004a 0320     		movs	r0, #3
 633 004c 0A78     		ldrb	r2, [r1]
 634 004e A843     		bics	r0, r5
 635 0050 C000     		lsls	r0, r0, #3
 636 0052 8240     		lsls	r2, r2, r0
 637 0054 AB08     		lsrs	r3, r5, #2
 638 0056 9B00     		lsls	r3, r3, #2
 639 0058 E318     		adds	r3, r4, r3
 640 005a 186A     		ldr	r0, [r3, #32]
 162:strong-arm\src\sha256/sha256.c **** 			--len;
 641              		.loc 1 162 0
 642 005c 0135     		adds	r5, r5, #1
 161:strong-arm\src\sha256/sha256.c **** 			state->chunk_len += 1;
 643              		.loc 1 161 0
 644 005e 0243     		orrs	r2, r0
 645 0060 1A62     		str	r2, [r3, #32]
 164:strong-arm\src\sha256/sha256.c **** 		}
 646              		.loc 1 164 0
ARM GAS  C:\Users\Ray\AppData\Local\Temp\ccfgXv8z.s 			page 16


 647 0062 636E     		ldr	r3, [r4, #100]
 162:strong-arm\src\sha256/sha256.c **** 			--len;
 648              		.loc 1 162 0
 649 0064 2566     		str	r5, [r4, #96]
 164:strong-arm\src\sha256/sha256.c **** 		}
 650              		.loc 1 164 0
 651 0066 0133     		adds	r3, r3, #1
 163:strong-arm\src\sha256/sha256.c **** 			state->totallen += 1;
 652              		.loc 1 163 0
 653 0068 013E     		subs	r6, r6, #1
 654              	.LVL73:
 164:strong-arm\src\sha256/sha256.c **** 		}
 655              		.loc 1 164 0
 656 006a 6366     		str	r3, [r4, #100]
 657 006c 0131     		adds	r1, r1, #1
 658              	.LVL74:
 659 006e E6E7     		b	.L29
 660              	.L25:
 167:strong-arm\src\sha256/sha256.c **** 		{
 661              		.loc 1 167 0
 662 0070 402D     		cmp	r5, #64
 663 0072 E1D1     		bne	.L24
 169:strong-arm\src\sha256/sha256.c **** 			state->chunk_len = 0;
 664              		.loc 1 169 0
 665 0074 2700     		movs	r7, r4
 666 0076 2037     		adds	r7, r7, #32
 667 0078 3900     		movs	r1, r7
 668              	.LVL75:
 669 007a 2000     		movs	r0, r4
 670 007c FFF7FEFF 		bl	compress
 671              	.LVL76:
 170:strong-arm\src\sha256/sha256.c **** 			memset (state->chunk, 0, 64);
 672              		.loc 1 170 0
 673 0080 0021     		movs	r1, #0
 674              		.loc 1 171 0
 675 0082 2A00     		movs	r2, r5
 170:strong-arm\src\sha256/sha256.c **** 			memset (state->chunk, 0, 64);
 676              		.loc 1 170 0
 677 0084 2166     		str	r1, [r4, #96]
 678              		.loc 1 171 0
 679 0086 3800     		movs	r0, r7
 680 0088 D4E7     		b	.L38
 681              	.LVL77:
 682              	.L28:
 172:strong-arm\src\sha256/sha256.c **** 		}
 173:strong-arm\src\sha256/sha256.c **** 	}
 174:strong-arm\src\sha256/sha256.c **** 	
 175:strong-arm\src\sha256/sha256.c **** 	// Last data
 176:strong-arm\src\sha256/sha256.c **** 	if (last)
 683              		.loc 1 176 0
 684 008a 039B     		ldr	r3, [sp, #12]
 685 008c 002B     		cmp	r3, #0
 686 008e 37D0     		beq	.L22
 177:strong-arm\src\sha256/sha256.c **** 	{
 178:strong-arm\src\sha256/sha256.c **** 		state->chunk[state->chunk_len>>2] |= (uint32_t)1 << (8*(3-(state->chunk_len&3)) + 7);
 687              		.loc 1 178 0
 688 0090 0323     		movs	r3, #3
ARM GAS  C:\Users\Ray\AppData\Local\Temp\ccfgXv8z.s 			page 17


 689 0092 216E     		ldr	r1, [r4, #96]
 690 0094 2500     		movs	r5, r4
 691 0096 8A08     		lsrs	r2, r1, #2
 692 0098 8B43     		bics	r3, r1
 693 009a 0121     		movs	r1, #1
 694 009c DB00     		lsls	r3, r3, #3
 695 009e 0733     		adds	r3, r3, #7
 696 00a0 9940     		lsls	r1, r1, r3
 697 00a2 0B00     		movs	r3, r1
 698 00a4 9200     		lsls	r2, r2, #2
 699 00a6 A218     		adds	r2, r4, r2
 700 00a8 116A     		ldr	r1, [r2, #32]
 701 00aa 2035     		adds	r5, r5, #32
 702 00ac 0B43     		orrs	r3, r1
 703 00ae 1362     		str	r3, [r2, #32]
 179:strong-arm\src\sha256/sha256.c **** 		
 180:strong-arm\src\sha256/sha256.c **** 		if ((state->totallen & 63) > 55)
 704              		.loc 1 180 0
 705 00b0 3F23     		movs	r3, #63
 706 00b2 626E     		ldr	r2, [r4, #100]
 707 00b4 1340     		ands	r3, r2
 708 00b6 372B     		cmp	r3, #55
 709 00b8 08D9     		bls	.L31
 181:strong-arm\src\sha256/sha256.c **** 		{
 182:strong-arm\src\sha256/sha256.c **** 			compress (state->state, state->chunk);
 710              		.loc 1 182 0
 711 00ba 2900     		movs	r1, r5
 712 00bc 2000     		movs	r0, r4
 713 00be FFF7FEFF 		bl	compress
 714              	.LVL78:
 183:strong-arm\src\sha256/sha256.c **** 			memset (state->chunk, 0, 64);
 715              		.loc 1 183 0
 716 00c2 4022     		movs	r2, #64
 717 00c4 0021     		movs	r1, #0
 718 00c6 2800     		movs	r0, r5
 719 00c8 FFF7FEFF 		bl	memset
 720              	.LVL79:
 721              	.L31:
 184:strong-arm\src\sha256/sha256.c **** 		}
 185:strong-arm\src\sha256/sha256.c **** 		
 186:strong-arm\src\sha256/sha256.c **** 		state->chunk[14] = (state->totallen >> 29);
 722              		.loc 1 186 0
 723 00cc 636E     		ldr	r3, [r4, #100]
 187:strong-arm\src\sha256/sha256.c **** 		state->chunk[15] = state->totallen << 3;
 188:strong-arm\src\sha256/sha256.c **** 		compress (state->state, state->chunk);
 724              		.loc 1 188 0
 725 00ce 2900     		movs	r1, r5
 186:strong-arm\src\sha256/sha256.c **** 		state->chunk[15] = state->totallen << 3;
 726              		.loc 1 186 0
 727 00d0 5A0F     		lsrs	r2, r3, #29
 187:strong-arm\src\sha256/sha256.c **** 		state->chunk[15] = state->totallen << 3;
 728              		.loc 1 187 0
 729 00d2 DB00     		lsls	r3, r3, #3
 730 00d4 E365     		str	r3, [r4, #92]
 186:strong-arm\src\sha256/sha256.c **** 		state->chunk[15] = state->totallen << 3;
 731              		.loc 1 186 0
 732 00d6 A265     		str	r2, [r4, #88]
ARM GAS  C:\Users\Ray\AppData\Local\Temp\ccfgXv8z.s 			page 18


 733              		.loc 1 188 0
 734 00d8 2000     		movs	r0, r4
 735 00da FFF7FEFF 		bl	compress
 736              	.LVL80:
 737 00de 029B     		ldr	r3, [sp, #8]
 738 00e0 1900     		movs	r1, r3
 739 00e2 2031     		adds	r1, r1, #32
 740              	.LVL81:
 741              	.L32:
 742              	.LBB24:
 189:strong-arm\src\sha256/sha256.c **** 		
 190:strong-arm\src\sha256/sha256.c **** 		for (int i = 0; i < 8; ++i)
 191:strong-arm\src\sha256/sha256.c **** 		{
 192:strong-arm\src\sha256/sha256.c **** 			*(hash++) = state->state[i] >> 24;
 743              		.loc 1 192 0 discriminator 3
 744 00e4 2268     		ldr	r2, [r4]
 745 00e6 120E     		lsrs	r2, r2, #24
 746 00e8 1A70     		strb	r2, [r3]
 747              	.LVL82:
 193:strong-arm\src\sha256/sha256.c **** 			*(hash++) = state->state[i] >> 16;
 748              		.loc 1 193 0 discriminator 3
 749 00ea 2268     		ldr	r2, [r4]
 750 00ec 120C     		lsrs	r2, r2, #16
 751 00ee 5A70     		strb	r2, [r3, #1]
 752              	.LVL83:
 194:strong-arm\src\sha256/sha256.c **** 			*(hash++) = state->state[i] >> 8;
 753              		.loc 1 194 0 discriminator 3
 754 00f0 2268     		ldr	r2, [r4]
 755 00f2 120A     		lsrs	r2, r2, #8
 756 00f4 9A70     		strb	r2, [r3, #2]
 757              	.LVL84:
 195:strong-arm\src\sha256/sha256.c **** 			*(hash++) = state->state[i];
 758              		.loc 1 195 0 discriminator 3
 759 00f6 04CC     		ldmia	r4!, {r2}
 760              	.LVL85:
 761 00f8 DA70     		strb	r2, [r3, #3]
 762 00fa 0433     		adds	r3, r3, #4
 190:strong-arm\src\sha256/sha256.c **** 		{
 763              		.loc 1 190 0 discriminator 3
 764 00fc 8B42     		cmp	r3, r1
 765 00fe F1D1     		bne	.L32
 766              	.LVL86:
 767              	.L22:
 768              	.LBE24:
 196:strong-arm\src\sha256/sha256.c **** 		}
 197:strong-arm\src\sha256/sha256.c **** 	}
 198:strong-arm\src\sha256/sha256.c **** }
 769              		.loc 1 198 0
 770 0100 05B0     		add	sp, sp, #20
 771              		@ sp needed
 772 0102 F0BD     		pop	{r4, r5, r6, r7, pc}
 773              	.L40:
 774              		.align	2
 775              	.L39:
 776 0104 00010000 		.word	.LANCHOR1
 777              		.cfi_endproc
 778              	.LFE6:
ARM GAS  C:\Users\Ray\AppData\Local\Temp\ccfgXv8z.s 			page 19


 779              		.size	SHA256_partial, .-SHA256_partial
 780              		.section	.rodata
 781              		.align	2
 782              		.set	.LANCHOR0,. + 0
 783              		.set	.LANCHOR1,. + 256
 784              		.type	kk, %object
 785              		.size	kk, 256
 786              	kk:
 787 0000 982F8A42 		.word	1116352408
 788 0004 91443771 		.word	1899447441
 789 0008 CFFBC0B5 		.word	-1245643825
 790 000c A5DBB5E9 		.word	-373957723
 791 0010 5BC25639 		.word	961987163
 792 0014 F111F159 		.word	1508970993
 793 0018 A4823F92 		.word	-1841331548
 794 001c D55E1CAB 		.word	-1424204075
 795 0020 98AA07D8 		.word	-670586216
 796 0024 015B8312 		.word	310598401
 797 0028 BE853124 		.word	607225278
 798 002c C37D0C55 		.word	1426881987
 799 0030 745DBE72 		.word	1925078388
 800 0034 FEB1DE80 		.word	-2132889090
 801 0038 A706DC9B 		.word	-1680079193
 802 003c 74F19BC1 		.word	-1046744716
 803 0040 C1699BE4 		.word	-459576895
 804 0044 8647BEEF 		.word	-272742522
 805 0048 C69DC10F 		.word	264347078
 806 004c CCA10C24 		.word	604807628
 807 0050 6F2CE92D 		.word	770255983
 808 0054 AA84744A 		.word	1249150122
 809 0058 DCA9B05C 		.word	1555081692
 810 005c DA88F976 		.word	1996064986
 811 0060 52513E98 		.word	-1740746414
 812 0064 6DC631A8 		.word	-1473132947
 813 0068 C82703B0 		.word	-1341970488
 814 006c C77F59BF 		.word	-1084653625
 815 0070 F30BE0C6 		.word	-958395405
 816 0074 4791A7D5 		.word	-710438585
 817 0078 5163CA06 		.word	113926993
 818 007c 67292914 		.word	338241895
 819 0080 850AB727 		.word	666307205
 820 0084 38211B2E 		.word	773529912
 821 0088 FC6D2C4D 		.word	1294757372
 822 008c 130D3853 		.word	1396182291
 823 0090 54730A65 		.word	1695183700
 824 0094 BB0A6A76 		.word	1986661051
 825 0098 2EC9C281 		.word	-2117940946
 826 009c 852C7292 		.word	-1838011259
 827 00a0 A1E8BFA2 		.word	-1564481375
 828 00a4 4B661AA8 		.word	-1474664885
 829 00a8 708B4BC2 		.word	-1035236496
 830 00ac A3516CC7 		.word	-949202525
 831 00b0 19E892D1 		.word	-778901479
 832 00b4 240699D6 		.word	-694614492
 833 00b8 85350EF4 		.word	-200395387
 834 00bc 70A06A10 		.word	275423344
 835 00c0 16C1A419 		.word	430227734
ARM GAS  C:\Users\Ray\AppData\Local\Temp\ccfgXv8z.s 			page 20


 836 00c4 086C371E 		.word	506948616
 837 00c8 4C774827 		.word	659060556
 838 00cc B5BCB034 		.word	883997877
 839 00d0 B30C1C39 		.word	958139571
 840 00d4 4AAAD84E 		.word	1322822218
 841 00d8 4FCA9C5B 		.word	1537002063
 842 00dc F36F2E68 		.word	1747873779
 843 00e0 EE828F74 		.word	1955562222
 844 00e4 6F63A578 		.word	2024104815
 845 00e8 1478C884 		.word	-2067236844
 846 00ec 0802C78C 		.word	-1933114872
 847 00f0 FAFFBE90 		.word	-1866530822
 848 00f4 EB6C50A4 		.word	-1538233109
 849 00f8 F7A3F9BE 		.word	-1090935817
 850 00fc F27871C6 		.word	-965641998
 851              	.LC0:
 852 0100 67E6096A 		.word	1779033703
 853 0104 85AE67BB 		.word	-1150833019
 854 0108 72F36E3C 		.word	1013904242
 855 010c 3AF54FA5 		.word	-1521486534
 856 0110 7F520E51 		.word	1359893119
 857 0114 8C68059B 		.word	-1694144372
 858 0118 ABD9831F 		.word	528734635
 859 011c 19CDE05B 		.word	1541459225
 860              		.type	initial_state, %object
 861              		.size	initial_state, 32
 862              	initial_state:
 863 0120 67E6096A 		.word	1779033703
 864 0124 85AE67BB 		.word	-1150833019
 865 0128 72F36E3C 		.word	1013904242
 866 012c 3AF54FA5 		.word	-1521486534
 867 0130 7F520E51 		.word	1359893119
 868 0134 8C68059B 		.word	-1694144372
 869 0138 ABD9831F 		.word	528734635
 870 013c 19CDE05B 		.word	1541459225
 871              		.text
 872              	.Letext0:
 873              		.file 2 "c:\\program files (x86)\\cypress\\psoc creator\\4.1\\psoc creator\\import\\gnu\\arm\\5.4.
 874              		.file 3 "c:\\program files (x86)\\cypress\\psoc creator\\4.1\\psoc creator\\import\\gnu\\arm\\5.4.
 875              		.file 4 ".\\strong-arm\\include/strong-arm/sha256.h"