ARM GAS  C:\Users\Ray\AppData\Local\Temp\ccQaDTrF.s 			page 1


   1              		.syntax unified
   2              		.cpu cortex-m0
   3              		.fpu softvfp
   4              		.eabi_attribute 20, 1
   5              		.eabi_attribute 21, 1
   6              		.eabi_attribute 23, 3
   7              		.eabi_attribute 24, 1
   8              		.eabi_attribute 25, 1
   9              		.eabi_attribute 26, 1
  10              		.eabi_attribute 30, 4
  11              		.eabi_attribute 34, 0
  12              		.eabi_attribute 18, 4
  13              		.thumb
  14              		.syntax unified
  15              		.file	"threefish.c"
  16              		.text
  17              	.Ltext0:
  18              		.cfi_sections	.debug_frame
  19              		.section	.text.bytes_to_words,"ax",%progbits
  20              		.align	1
  21              		.code	16
  22              		.thumb_func
  23              		.type	bytes_to_words, %function
  24              	bytes_to_words:
  25              	.LFB2:
  26              		.file 1 "strong-arm\\src\\threefish\\threefish.c"
   1:strong-arm\src\threefish/threefish.c **** /* Currently, only 512-bit mode is implemented. */
   2:strong-arm\src\threefish/threefish.c **** #include <strong-arm/threefish.h>
   3:strong-arm\src\threefish/threefish.c **** 
   4:strong-arm\src\threefish/threefish.c **** 
   5:strong-arm\src\threefish/threefish.c **** /* Rotation Constants */
   6:strong-arm\src\threefish/threefish.c **** const uint8_t R8[8][4] = {
   7:strong-arm\src\threefish/threefish.c **** 	{46, 36, 19, 37},
   8:strong-arm\src\threefish/threefish.c **** 	{33, 27, 14, 42},
   9:strong-arm\src\threefish/threefish.c **** 	{17, 49, 36, 39},
  10:strong-arm\src\threefish/threefish.c **** 	{44, 9, 54, 56},
  11:strong-arm\src\threefish/threefish.c **** 	{39, 30, 34, 24},
  12:strong-arm\src\threefish/threefish.c **** 	{13, 50, 10, 17},
  13:strong-arm\src\threefish/threefish.c **** 	{25, 29, 39, 43},
  14:strong-arm\src\threefish/threefish.c **** 	{8, 35, 56, 22}
  15:strong-arm\src\threefish/threefish.c **** };
  16:strong-arm\src\threefish/threefish.c **** 
  17:strong-arm\src\threefish/threefish.c **** /* C240 */
  18:strong-arm\src\threefish/threefish.c **** const uint64_t C240 = 0x1BD11BDAA9FC1A22ull;
  19:strong-arm\src\threefish/threefish.c **** 
  20:strong-arm\src\threefish/threefish.c **** 
  21:strong-arm\src\threefish/threefish.c **** /* Rotate Left */
  22:strong-arm\src\threefish/threefish.c **** #define ROL(x, n) (((x) << (n)) | ((x) >> (64 - (n))))
  23:strong-arm\src\threefish/threefish.c **** 
  24:strong-arm\src\threefish/threefish.c **** /* Rotate Right */
  25:strong-arm\src\threefish/threefish.c **** #define ROR(x, n) (((x) >> (n)) | ((x) << (64 - (n))))
  26:strong-arm\src\threefish/threefish.c **** 
  27:strong-arm\src\threefish/threefish.c **** 
  28:strong-arm\src\threefish/threefish.c **** static uint64_t unpack_uint64_little (uint8_t const src[static 8])
  29:strong-arm\src\threefish/threefish.c **** {
  30:strong-arm\src\threefish/threefish.c **** 	return   ((uint64_t)(src[0]) <<  0)
  31:strong-arm\src\threefish/threefish.c **** 	       | ((uint64_t)(src[1]) <<  8)
ARM GAS  C:\Users\Ray\AppData\Local\Temp\ccQaDTrF.s 			page 2


  32:strong-arm\src\threefish/threefish.c **** 	       | ((uint64_t)(src[2]) << 16)
  33:strong-arm\src\threefish/threefish.c **** 	       | ((uint64_t)(src[3]) << 24)
  34:strong-arm\src\threefish/threefish.c **** 	       | ((uint64_t)(src[4]) << 32)
  35:strong-arm\src\threefish/threefish.c **** 	       | ((uint64_t)(src[5]) << 40)
  36:strong-arm\src\threefish/threefish.c **** 	       | ((uint64_t)(src[6]) << 48)
  37:strong-arm\src\threefish/threefish.c **** 	       | ((uint64_t)(src[7]) << 56);
  38:strong-arm\src\threefish/threefish.c **** }
  39:strong-arm\src\threefish/threefish.c **** 
  40:strong-arm\src\threefish/threefish.c **** 
  41:strong-arm\src\threefish/threefish.c **** static void pack_uint64_little (uint8_t dst[static 8], uint64_t src)
  42:strong-arm\src\threefish/threefish.c **** {
  43:strong-arm\src\threefish/threefish.c **** 	dst[0] = (uint8_t)(src >>  0);
  44:strong-arm\src\threefish/threefish.c **** 	dst[1] = (uint8_t)(src >>  8);
  45:strong-arm\src\threefish/threefish.c **** 	dst[2] = (uint8_t)(src >> 16);
  46:strong-arm\src\threefish/threefish.c **** 	dst[3] = (uint8_t)(src >> 24);
  47:strong-arm\src\threefish/threefish.c **** 	dst[4] = (uint8_t)(src >> 32);
  48:strong-arm\src\threefish/threefish.c **** 	dst[5] = (uint8_t)(src >> 40);
  49:strong-arm\src\threefish/threefish.c **** 	dst[6] = (uint8_t)(src >> 48);
  50:strong-arm\src\threefish/threefish.c **** 	dst[7] = (uint8_t)(src >> 56);
  51:strong-arm\src\threefish/threefish.c **** }
  52:strong-arm\src\threefish/threefish.c **** 
  53:strong-arm\src\threefish/threefish.c **** 
  54:strong-arm\src\threefish/threefish.c **** static void bytes_to_words (uint64_t *dst, uint8_t const *src, uint32_t count)
  55:strong-arm\src\threefish/threefish.c **** {
  27              		.loc 1 55 0
  28              		.cfi_startproc
  29              		@ args = 0, pretend = 0, frame = 0
  30              		@ frame_needed = 0, uses_anonymous_args = 0
  31              	.LVL0:
  32 0000 F0B5     		push	{r4, r5, r6, r7, lr}
  33              		.cfi_def_cfa_offset 20
  34              		.cfi_offset 4, -20
  35              		.cfi_offset 5, -16
  36              		.cfi_offset 6, -12
  37              		.cfi_offset 7, -8
  38              		.cfi_offset 14, -4
  39              	.LVL1:
  40              	.L2:
  56:strong-arm\src\threefish/threefish.c **** 	for (; count; --count)
  41              		.loc 1 56 0 discriminator 1
  42 0002 002A     		cmp	r2, #0
  43 0004 1CD0     		beq	.L5
  44              	.LVL2:
  45              	.LBB20:
  46              	.LBB21:
  30:strong-arm\src\threefish/threefish.c **** 	       | ((uint64_t)(src[1]) <<  8)
  47              		.loc 1 30 0 discriminator 2
  48 0006 4B78     		ldrb	r3, [r1, #1]
  49 0008 0D78     		ldrb	r5, [r1]
  50 000a 8F78     		ldrb	r7, [r1, #2]
  51 000c 1B02     		lsls	r3, r3, #8
  52 000e 2B43     		orrs	r3, r5
  53 0010 3F04     		lsls	r7, r7, #16
  54 0012 1C00     		movs	r4, r3
  55 0014 3B00     		movs	r3, r7
  56 0016 CF78     		ldrb	r7, [r1, #3]
  57 0018 2343     		orrs	r3, r4
ARM GAS  C:\Users\Ray\AppData\Local\Temp\ccQaDTrF.s 			page 3


  58 001a 3F06     		lsls	r7, r7, #24
  59 001c 4C79     		ldrb	r4, [r1, #5]
  60 001e 0E79     		ldrb	r6, [r1, #4]
  61 0020 1F43     		orrs	r7, r3
  62 0022 8B79     		ldrb	r3, [r1, #6]
  63 0024 2402     		lsls	r4, r4, #8
  64 0026 3443     		orrs	r4, r6
  65 0028 1B04     		lsls	r3, r3, #16
  66 002a 2343     		orrs	r3, r4
  67 002c 1C00     		movs	r4, r3
  68 002e CB79     		ldrb	r3, [r1, #7]
  69              	.LBE21:
  70              	.LBE20:
  71              		.loc 1 56 0 discriminator 2
  72 0030 013A     		subs	r2, r2, #1
  73              	.LVL3:
  74              	.LBB23:
  75              	.LBB22:
  30:strong-arm\src\threefish/threefish.c **** 	       | ((uint64_t)(src[1]) <<  8)
  76              		.loc 1 30 0 discriminator 2
  77 0032 1B06     		lsls	r3, r3, #24
  78 0034 2343     		orrs	r3, r4
  79              	.LVL4:
  80              	.LBE22:
  81              	.LBE23:
  57:strong-arm\src\threefish/threefish.c **** 	{
  58:strong-arm\src\threefish/threefish.c **** 		*(dst++) = unpack_uint64_little (src);
  82              		.loc 1 58 0 discriminator 2
  83 0036 0760     		str	r7, [r0]
  84 0038 4360     		str	r3, [r0, #4]
  59:strong-arm\src\threefish/threefish.c **** 		src += 8;
  85              		.loc 1 59 0 discriminator 2
  86 003a 0831     		adds	r1, r1, #8
  87              	.LVL5:
  88 003c 0830     		adds	r0, r0, #8
  89 003e E0E7     		b	.L2
  90              	.LVL6:
  91              	.L5:
  60:strong-arm\src\threefish/threefish.c **** 	}
  61:strong-arm\src\threefish/threefish.c **** }
  92              		.loc 1 61 0
  93              		@ sp needed
  94 0040 F0BD     		pop	{r4, r5, r6, r7, pc}
  95              		.cfi_endproc
  96              	.LFE2:
  97              		.size	bytes_to_words, .-bytes_to_words
  98              		.section	.text.words_to_bytes.constprop.0,"ax",%progbits
  99              		.align	1
 100              		.code	16
 101              		.thumb_func
 102              		.type	words_to_bytes.constprop.0, %function
 103              	words_to_bytes.constprop.0:
 104              	.LFB8:
  62:strong-arm\src\threefish/threefish.c **** 
  63:strong-arm\src\threefish/threefish.c **** 
  64:strong-arm\src\threefish/threefish.c **** static void words_to_bytes (uint8_t *dst, uint64_t const *src, uint32_t count)
 105              		.loc 1 64 0
ARM GAS  C:\Users\Ray\AppData\Local\Temp\ccQaDTrF.s 			page 4


 106              		.cfi_startproc
 107              		@ args = 0, pretend = 0, frame = 0
 108              		@ frame_needed = 0, uses_anonymous_args = 0
 109              	.LVL7:
 110 0000 30B5     		push	{r4, r5, lr}
 111              		.cfi_def_cfa_offset 12
 112              		.cfi_offset 4, -12
 113              		.cfi_offset 5, -8
 114              		.cfi_offset 14, -4
 115 0002 0C00     		movs	r4, r1
 116 0004 4034     		adds	r4, r4, #64
 117              	.LVL8:
 118              	.L7:
  65:strong-arm\src\threefish/threefish.c **** {
  66:strong-arm\src\threefish/threefish.c **** 	for (; count; --count)
  67:strong-arm\src\threefish/threefish.c **** 	{
  68:strong-arm\src\threefish/threefish.c **** 		pack_uint64_little (dst, *src);
 119              		.loc 1 68 0
 120 0006 0A68     		ldr	r2, [r1]
 121 0008 4B68     		ldr	r3, [r1, #4]
 122              	.LVL9:
 123              	.LBB26:
 124              	.LBB27:
  44:strong-arm\src\threefish/threefish.c **** 	dst[2] = (uint8_t)(src >> 16);
 125              		.loc 1 44 0
 126 000a 150A     		lsrs	r5, r2, #8
  43:strong-arm\src\threefish/threefish.c **** 	dst[1] = (uint8_t)(src >>  8);
 127              		.loc 1 43 0
 128 000c 0270     		strb	r2, [r0]
  44:strong-arm\src\threefish/threefish.c **** 	dst[2] = (uint8_t)(src >> 16);
 129              		.loc 1 44 0
 130 000e 4570     		strb	r5, [r0, #1]
  45:strong-arm\src\threefish/threefish.c **** 	dst[3] = (uint8_t)(src >> 24);
 131              		.loc 1 45 0
 132 0010 150C     		lsrs	r5, r2, #16
  46:strong-arm\src\threefish/threefish.c **** 	dst[4] = (uint8_t)(src >> 32);
 133              		.loc 1 46 0
 134 0012 120E     		lsrs	r2, r2, #24
 135              	.LVL10:
 136 0014 C270     		strb	r2, [r0, #3]
  48:strong-arm\src\threefish/threefish.c **** 	dst[6] = (uint8_t)(src >> 48);
 137              		.loc 1 48 0
 138 0016 1A0A     		lsrs	r2, r3, #8
  47:strong-arm\src\threefish/threefish.c **** 	dst[5] = (uint8_t)(src >> 40);
 139              		.loc 1 47 0
 140 0018 0371     		strb	r3, [r0, #4]
  48:strong-arm\src\threefish/threefish.c **** 	dst[6] = (uint8_t)(src >> 48);
 141              		.loc 1 48 0
 142 001a 4271     		strb	r2, [r0, #5]
 143              	.LBE27:
 144              	.LBE26:
  69:strong-arm\src\threefish/threefish.c **** 		src += 1;
 145              		.loc 1 69 0
 146 001c 0831     		adds	r1, r1, #8
 147              	.LVL11:
 148              	.LBB29:
 149              	.LBB28:
ARM GAS  C:\Users\Ray\AppData\Local\Temp\ccQaDTrF.s 			page 5


  49:strong-arm\src\threefish/threefish.c **** 	dst[7] = (uint8_t)(src >> 56);
 150              		.loc 1 49 0
 151 001e 1A0C     		lsrs	r2, r3, #16
  50:strong-arm\src\threefish/threefish.c **** }
 152              		.loc 1 50 0
 153 0020 1B0E     		lsrs	r3, r3, #24
  45:strong-arm\src\threefish/threefish.c **** 	dst[3] = (uint8_t)(src >> 24);
 154              		.loc 1 45 0
 155 0022 8570     		strb	r5, [r0, #2]
  49:strong-arm\src\threefish/threefish.c **** 	dst[7] = (uint8_t)(src >> 56);
 156              		.loc 1 49 0
 157 0024 8271     		strb	r2, [r0, #6]
  50:strong-arm\src\threefish/threefish.c **** }
 158              		.loc 1 50 0
 159 0026 C371     		strb	r3, [r0, #7]
 160              	.LVL12:
 161              	.LBE28:
 162              	.LBE29:
  70:strong-arm\src\threefish/threefish.c **** 		dst += 8;
 163              		.loc 1 70 0
 164 0028 0830     		adds	r0, r0, #8
 165              	.LVL13:
  66:strong-arm\src\threefish/threefish.c **** 	{
 166              		.loc 1 66 0
 167 002a A142     		cmp	r1, r4
 168 002c EBD1     		bne	.L7
  71:strong-arm\src\threefish/threefish.c **** 	}
  72:strong-arm\src\threefish/threefish.c **** }
 169              		.loc 1 72 0
 170              		@ sp needed
 171 002e 30BD     		pop	{r4, r5, pc}
 172              		.cfi_endproc
 173              	.LFE8:
 174              		.size	words_to_bytes.constprop.0, .-words_to_bytes.constprop.0
 175              		.global	__aeabi_llsl
 176              		.global	__aeabi_llsr
 177              		.section	.text.threefish512_encrypt_block,"ax",%progbits
 178              		.align	1
 179              		.global	threefish512_encrypt_block
 180              		.code	16
 181              		.thumb_func
 182              		.type	threefish512_encrypt_block, %function
 183              	threefish512_encrypt_block:
 184              	.LFB6:
  73:strong-arm\src\threefish/threefish.c **** 
  74:strong-arm\src\threefish/threefish.c **** 
  75:strong-arm\src\threefish/threefish.c **** /* Mix function for N_w = 8 */
  76:strong-arm\src\threefish/threefish.c **** static void mix8 (uint64_t *y0, uint64_t *y1, uint8_t roundnum, uint8_t j, uint64_t x0, uint64_t x1
  77:strong-arm\src\threefish/threefish.c **** {
  78:strong-arm\src\threefish/threefish.c **** 	*y0 = x0 + x1;
  79:strong-arm\src\threefish/threefish.c **** 	*y1 = ROL (x1, R8[roundnum&7][j]) ^ *y0;
  80:strong-arm\src\threefish/threefish.c **** }
  81:strong-arm\src\threefish/threefish.c **** 
  82:strong-arm\src\threefish/threefish.c **** 
  83:strong-arm\src\threefish/threefish.c **** /* Inverse Mix function for N_w = 8 */
  84:strong-arm\src\threefish/threefish.c **** static void unmix8 (uint64_t *x0, uint64_t *x1, uint8_t roundnum, uint8_t j, uint64_t y0, uint64_t 
  85:strong-arm\src\threefish/threefish.c **** {
ARM GAS  C:\Users\Ray\AppData\Local\Temp\ccQaDTrF.s 			page 6


  86:strong-arm\src\threefish/threefish.c **** 	*x1 = ROR (y1 ^ y0, R8[roundnum&7][j]);
  87:strong-arm\src\threefish/threefish.c **** 	*x0 = y0 - *x1;
  88:strong-arm\src\threefish/threefish.c **** }
  89:strong-arm\src\threefish/threefish.c **** 
  90:strong-arm\src\threefish/threefish.c **** 
  91:strong-arm\src\threefish/threefish.c **** void threefish512_encrypt_block (uint8_t ciphertext[static 64], uint8_t const key[static 64], uint8
  92:strong-arm\src\threefish/threefish.c **** {
 185              		.loc 1 92 0
 186              		.cfi_startproc
 187              		@ args = 0, pretend = 0, frame = 240
 188              		@ frame_needed = 0, uses_anonymous_args = 0
 189              	.LVL14:
 190 0000 F0B5     		push	{r4, r5, r6, r7, lr}
 191              		.cfi_def_cfa_offset 20
 192              		.cfi_offset 4, -20
 193              		.cfi_offset 5, -16
 194              		.cfi_offset 6, -12
 195              		.cfi_offset 7, -8
 196              		.cfi_offset 14, -4
 197 0002 1400     		movs	r4, r2
 198 0004 1D00     		movs	r5, r3
 199 0006 BDB0     		sub	sp, sp, #244
 200              		.cfi_def_cfa_offset 264
 201              		.loc 1 92 0
 202 0008 1090     		str	r0, [sp, #64]
  93:strong-arm\src\threefish/threefish.c **** 	uint64_t k[9];
  94:strong-arm\src\threefish/threefish.c **** 	uint64_t t[3];
  95:strong-arm\src\threefish/threefish.c **** 	uint64_t v[8];
  96:strong-arm\src\threefish/threefish.c **** 
  97:strong-arm\src\threefish/threefish.c **** 	bytes_to_words (k, key, 8);
 203              		.loc 1 97 0
 204 000a 0822     		movs	r2, #8
 205              	.LVL15:
 206 000c 2AA8     		add	r0, sp, #168
 207              	.LVL16:
 208 000e FFF7FEFF 		bl	bytes_to_words
 209              	.LVL17:
  98:strong-arm\src\threefish/threefish.c **** 	bytes_to_words (t, tweak, 2);
 210              		.loc 1 98 0
 211 0012 2100     		movs	r1, r4
 212 0014 0222     		movs	r2, #2
 213 0016 14A8     		add	r0, sp, #80
  99:strong-arm\src\threefish/threefish.c **** 	bytes_to_words (v, plaintext, 8);
 214              		.loc 1 99 0
 215 0018 1AAC     		add	r4, sp, #104
 216              	.LVL18:
  98:strong-arm\src\threefish/threefish.c **** 	bytes_to_words (t, tweak, 2);
 217              		.loc 1 98 0
 218 001a FFF7FEFF 		bl	bytes_to_words
 219              	.LVL19:
 220              		.loc 1 99 0
 221 001e 2900     		movs	r1, r5
 222 0020 0822     		movs	r2, #8
 223 0022 2000     		movs	r0, r4
 224 0024 FFF7FEFF 		bl	bytes_to_words
 225              	.LVL20:
 100:strong-arm\src\threefish/threefish.c **** 
ARM GAS  C:\Users\Ray\AppData\Local\Temp\ccQaDTrF.s 			page 7


 101:strong-arm\src\threefish/threefish.c **** 	/* Begin Key Schedule */
 102:strong-arm\src\threefish/threefish.c **** 	k[8] = C240 ^ k[0] ^ k[1] ^ k[2] ^ k[3] ^ k[4] ^ k[5] ^ k[6] ^ k[7];
 226              		.loc 1 102 0
 227 0028 3698     		ldr	r0, [sp, #216]
 228 002a 3799     		ldr	r1, [sp, #220]
 229 002c 349A     		ldr	r2, [sp, #208]
 230 002e 359B     		ldr	r3, [sp, #212]
 231 0030 0600     		movs	r6, r0
 232 0032 0F00     		movs	r7, r1
 233 0034 2A98     		ldr	r0, [sp, #168]
 234 0036 2C99     		ldr	r1, [sp, #176]
 235 0038 4140     		eors	r1, r0
 236 003a 2B98     		ldr	r0, [sp, #172]
 237 003c 0090     		str	r0, [sp]
 238 003e 009D     		ldr	r5, [sp]
 239              	.LVL21:
 240 0040 2D98     		ldr	r0, [sp, #180]
 241 0042 4540     		eors	r5, r0
 242 0044 9548     		ldr	r0, .L31
 243 0046 4840     		eors	r0, r1
 244 0048 9549     		ldr	r1, .L31+4
 245 004a 6940     		eors	r1, r5
 246 004c 2E9D     		ldr	r5, [sp, #184]
 247 004e 6840     		eors	r0, r5
 248 0050 2F9D     		ldr	r5, [sp, #188]
 249 0052 6940     		eors	r1, r5
 250 0054 309D     		ldr	r5, [sp, #192]
 251 0056 6840     		eors	r0, r5
 252 0058 319D     		ldr	r5, [sp, #196]
 253 005a 6940     		eors	r1, r5
 254 005c 329D     		ldr	r5, [sp, #200]
 255 005e 6840     		eors	r0, r5
 256 0060 339D     		ldr	r5, [sp, #204]
 257 0062 5040     		eors	r0, r2
 258 0064 6940     		eors	r1, r5
 259 0066 389D     		ldr	r5, [sp, #224]
 260 0068 7040     		eors	r0, r6
 261 006a 6840     		eors	r0, r5
 262 006c 5940     		eors	r1, r3
 263 006e 3A90     		str	r0, [sp, #232]
 264 0070 3998     		ldr	r0, [sp, #228]
 265 0072 7940     		eors	r1, r7
 266 0074 4140     		eors	r1, r0
 267 0076 3B91     		str	r1, [sp, #236]
 103:strong-arm\src\threefish/threefish.c **** 	t[2] = t[0] ^ t[1];
 268              		.loc 1 103 0
 269 0078 1498     		ldr	r0, [sp, #80]
 270 007a 1599     		ldr	r1, [sp, #84]
 271 007c 0290     		str	r0, [sp, #8]
 272 007e 0391     		str	r1, [sp, #12]
 273 0080 1698     		ldr	r0, [sp, #88]
 274 0082 1799     		ldr	r1, [sp, #92]
 275 0084 0490     		str	r0, [sp, #16]
 276 0086 0591     		str	r1, [sp, #20]
 277 0088 0498     		ldr	r0, [sp, #16]
 278 008a 0299     		ldr	r1, [sp, #8]
 279 008c 2500     		movs	r5, r4
ARM GAS  C:\Users\Ray\AppData\Local\Temp\ccQaDTrF.s 			page 8


 280 008e 4140     		eors	r1, r0
 281 0090 0091     		str	r1, [sp]
 282 0092 0598     		ldr	r0, [sp, #20]
 283 0094 0399     		ldr	r1, [sp, #12]
 284 0096 4140     		eors	r1, r0
 285 0098 0191     		str	r1, [sp, #4]
 286 009a 0098     		ldr	r0, [sp]
 287 009c 0199     		ldr	r1, [sp, #4]
 288 009e 1890     		str	r0, [sp, #96]
 289 00a0 1991     		str	r1, [sp, #100]
 104:strong-arm\src\threefish/threefish.c **** 
 105:strong-arm\src\threefish/threefish.c **** 	k[5] += t[0];
 290              		.loc 1 105 0
 291 00a2 0298     		ldr	r0, [sp, #8]
 292 00a4 0399     		ldr	r1, [sp, #12]
 293 00a6 1218     		adds	r2, r2, r0
 294 00a8 4B41     		adcs	r3, r3, r1
 295 00aa 3492     		str	r2, [sp, #208]
 296 00ac 3593     		str	r3, [sp, #212]
 106:strong-arm\src\threefish/threefish.c **** 	k[6] += t[1];
 297              		.loc 1 106 0
 298 00ae 0498     		ldr	r0, [sp, #16]
 299 00b0 0599     		ldr	r1, [sp, #20]
 300 00b2 3200     		movs	r2, r6
 301 00b4 3B00     		movs	r3, r7
 302 00b6 1218     		adds	r2, r2, r0
 303 00b8 4B41     		adcs	r3, r3, r1
 304 00ba 3692     		str	r2, [sp, #216]
 305 00bc 3793     		str	r3, [sp, #220]
 306              	.LVL22:
 307 00be 0023     		movs	r3, #0
 308 00c0 1E00     		movs	r6, r3
 309 00c2 0D93     		str	r3, [sp, #52]
 310 00c4 0E93     		str	r3, [sp, #56]
 311              	.LBB30:
 107:strong-arm\src\threefish/threefish.c **** 
 108:strong-arm\src\threefish/threefish.c **** 	for (uint8_t roundnum = 0; roundnum < 72; ++roundnum)
 312              		.loc 1 108 0
 313 00c6 0C93     		str	r3, [sp, #48]
 314              	.LVL23:
 315              	.L13:
 316              	.LBB31:
 109:strong-arm\src\threefish/threefish.c **** 	{
 110:strong-arm\src\threefish/threefish.c **** 		uint64_t extra;
 111:strong-arm\src\threefish/threefish.c **** 
 112:strong-arm\src\threefish/threefish.c **** 		/* Add subkey */
 113:strong-arm\src\threefish/threefish.c **** 		if ((roundnum & 3) == 0)
 317              		.loc 1 113 0
 318 00c8 0322     		movs	r2, #3
 319 00ca 0C9B     		ldr	r3, [sp, #48]
 320 00cc 1340     		ands	r3, r2
 321 00ce 62D1     		bne	.L10
 322              	.L11:
 323              	.LBB32:
 324              	.LBB33:
 114:strong-arm\src\threefish/threefish.c **** 		{
 115:strong-arm\src\threefish/threefish.c **** 			for (int i = 0; i < 8; ++i)
ARM GAS  C:\Users\Ray\AppData\Local\Temp\ccQaDTrF.s 			page 9


 116:strong-arm\src\threefish/threefish.c **** 				v[i] += k[i];
 325              		.loc 1 116 0 discriminator 3
 326 00d0 2AA9     		add	r1, sp, #168
 327 00d2 EA18     		adds	r2, r5, r3
 328 00d4 C918     		adds	r1, r1, r3
 329 00d6 1668     		ldr	r6, [r2]
 330 00d8 5768     		ldr	r7, [r2, #4]
 331 00da 0868     		ldr	r0, [r1]
 332 00dc 4968     		ldr	r1, [r1, #4]
 333 00de 8019     		adds	r0, r0, r6
 334 00e0 7941     		adcs	r1, r1, r7
 335 00e2 0833     		adds	r3, r3, #8
 336 00e4 1060     		str	r0, [r2]
 337 00e6 5160     		str	r1, [r2, #4]
 338              	.LVL24:
 115:strong-arm\src\threefish/threefish.c **** 				v[i] += k[i];
 339              		.loc 1 115 0 discriminator 3
 340 00e8 402B     		cmp	r3, #64
 341 00ea F1D1     		bne	.L11
 342              	.LVL25:
 343              	.LBE33:
 117:strong-arm\src\threefish/threefish.c **** 
 118:strong-arm\src\threefish/threefish.c **** 			/* Update subkey */
 119:strong-arm\src\threefish/threefish.c **** 			uint8_t s = roundnum >> 2;
 120:strong-arm\src\threefish/threefish.c **** 			extra = k[0];
 344              		.loc 1 120 0
 345 00ec 2A98     		ldr	r0, [sp, #168]
 346 00ee 2B99     		ldr	r1, [sp, #172]
 347              	.LVL26:
 121:strong-arm\src\threefish/threefish.c **** 			k[0] = k[1];
 348              		.loc 1 121 0
 349 00f0 2C9B     		ldr	r3, [sp, #176]
 350 00f2 2D9C     		ldr	r4, [sp, #180]
 122:strong-arm\src\threefish/threefish.c **** 			k[1] = k[2];
 123:strong-arm\src\threefish/threefish.c **** 			k[2] = k[3];
 124:strong-arm\src\threefish/threefish.c **** 			k[3] = k[4];
 125:strong-arm\src\threefish/threefish.c **** 			k[4] = k[5] - t[0];
 351              		.loc 1 125 0
 352 00f4 029E     		ldr	r6, [sp, #8]
 353 00f6 039F     		ldr	r7, [sp, #12]
 121:strong-arm\src\threefish/threefish.c **** 			k[0] = k[1];
 354              		.loc 1 121 0
 355 00f8 2A93     		str	r3, [sp, #168]
 356 00fa 2B94     		str	r4, [sp, #172]
 122:strong-arm\src\threefish/threefish.c **** 			k[1] = k[2];
 357              		.loc 1 122 0
 358 00fc 2E9B     		ldr	r3, [sp, #184]
 359 00fe 2F9C     		ldr	r4, [sp, #188]
 360 0100 2C93     		str	r3, [sp, #176]
 361 0102 2D94     		str	r4, [sp, #180]
 123:strong-arm\src\threefish/threefish.c **** 			k[3] = k[4];
 362              		.loc 1 123 0
 363 0104 309B     		ldr	r3, [sp, #192]
 364 0106 319C     		ldr	r4, [sp, #196]
 365 0108 2E93     		str	r3, [sp, #184]
 366 010a 2F94     		str	r4, [sp, #188]
 124:strong-arm\src\threefish/threefish.c **** 			k[4] = k[5] - t[0];
ARM GAS  C:\Users\Ray\AppData\Local\Temp\ccQaDTrF.s 			page 10


 367              		.loc 1 124 0
 368 010c 329B     		ldr	r3, [sp, #200]
 369 010e 339C     		ldr	r4, [sp, #204]
 370 0110 3093     		str	r3, [sp, #192]
 371 0112 3194     		str	r4, [sp, #196]
 372              		.loc 1 125 0
 373 0114 349B     		ldr	r3, [sp, #208]
 374 0116 359C     		ldr	r4, [sp, #212]
 375 0118 1A00     		movs	r2, r3
 376 011a 2300     		movs	r3, r4
 377 011c 921B     		subs	r2, r2, r6
 378 011e BB41     		sbcs	r3, r3, r7
 126:strong-arm\src\threefish/threefish.c **** 			k[5] = k[6];
 127:strong-arm\src\threefish/threefish.c **** 			k[6] = k[7] - s + t[2];
 379              		.loc 1 127 0
 380 0120 009E     		ldr	r6, [sp]
 381 0122 019F     		ldr	r7, [sp, #4]
 125:strong-arm\src\threefish/threefish.c **** 			k[5] = k[6];
 382              		.loc 1 125 0
 383 0124 3292     		str	r2, [sp, #200]
 384 0126 3393     		str	r3, [sp, #204]
 126:strong-arm\src\threefish/threefish.c **** 			k[5] = k[6];
 385              		.loc 1 126 0
 386 0128 369B     		ldr	r3, [sp, #216]
 387 012a 379C     		ldr	r4, [sp, #220]
 388 012c 3493     		str	r3, [sp, #208]
 389 012e 3594     		str	r4, [sp, #212]
 390              		.loc 1 127 0
 391 0130 0C9B     		ldr	r3, [sp, #48]
 392 0132 9B08     		lsrs	r3, r3, #2
 393 0134 0693     		str	r3, [sp, #24]
 394 0136 0023     		movs	r3, #0
 395 0138 0793     		str	r3, [sp, #28]
 396 013a 389B     		ldr	r3, [sp, #224]
 397 013c 399C     		ldr	r4, [sp, #228]
 398 013e 1A00     		movs	r2, r3
 399 0140 2300     		movs	r3, r4
 400 0142 9219     		adds	r2, r2, r6
 401 0144 7B41     		adcs	r3, r3, r7
 402 0146 069E     		ldr	r6, [sp, #24]
 403 0148 079F     		ldr	r7, [sp, #28]
 404 014a 921B     		subs	r2, r2, r6
 405 014c BB41     		sbcs	r3, r3, r7
 128:strong-arm\src\threefish/threefish.c **** 			k[7] = k[8] + s + 1;
 406              		.loc 1 128 0
 407 014e 0126     		movs	r6, #1
 127:strong-arm\src\threefish/threefish.c **** 			k[7] = k[8] + s + 1;
 408              		.loc 1 127 0
 409 0150 3692     		str	r2, [sp, #216]
 410 0152 3793     		str	r3, [sp, #220]
 411              		.loc 1 128 0
 412 0154 3A9B     		ldr	r3, [sp, #232]
 413 0156 3B9C     		ldr	r4, [sp, #236]
 414 0158 0027     		movs	r7, #0
 415 015a 0893     		str	r3, [sp, #32]
 416 015c 0994     		str	r4, [sp, #36]
 417 015e 1A00     		movs	r2, r3
ARM GAS  C:\Users\Ray\AppData\Local\Temp\ccQaDTrF.s 			page 11


 418 0160 2300     		movs	r3, r4
 419 0162 9219     		adds	r2, r2, r6
 420 0164 7B41     		adcs	r3, r3, r7
 421 0166 069E     		ldr	r6, [sp, #24]
 422 0168 079F     		ldr	r7, [sp, #28]
 423 016a 9219     		adds	r2, r2, r6
 424 016c 7B41     		adcs	r3, r3, r7
 425 016e 3892     		str	r2, [sp, #224]
 426 0170 3993     		str	r3, [sp, #228]
 129:strong-arm\src\threefish/threefish.c **** 			k[8] = extra;
 427              		.loc 1 129 0
 428 0172 039B     		ldr	r3, [sp, #12]
 429 0174 029A     		ldr	r2, [sp, #8]
 430 0176 3A90     		str	r0, [sp, #232]
 431 0178 3B91     		str	r1, [sp, #236]
 432              	.LVL27:
 130:strong-arm\src\threefish/threefish.c **** 
 131:strong-arm\src\threefish/threefish.c **** 			extra = t[0];
 132:strong-arm\src\threefish/threefish.c **** 			t[0] = t[1];
 433              		.loc 1 132 0
 434 017a 0498     		ldr	r0, [sp, #16]
 435 017c 0599     		ldr	r1, [sp, #20]
 436 017e 0290     		str	r0, [sp, #8]
 437 0180 0391     		str	r1, [sp, #12]
 438              	.LVL28:
 133:strong-arm\src\threefish/threefish.c **** 			t[1] = t[2];
 439              		.loc 1 133 0
 440 0182 0098     		ldr	r0, [sp]
 441 0184 0199     		ldr	r1, [sp, #4]
 442 0186 0490     		str	r0, [sp, #16]
 443 0188 0591     		str	r1, [sp, #20]
 134:strong-arm\src\threefish/threefish.c **** 			t[2] = extra;
 444              		.loc 1 134 0
 445 018a 0193     		str	r3, [sp, #4]
 129:strong-arm\src\threefish/threefish.c **** 
 446              		.loc 1 129 0
 447 018c 0123     		movs	r3, #1
 448 018e 1E00     		movs	r6, r3
 449              		.loc 1 134 0
 450 0190 0092     		str	r2, [sp]
 129:strong-arm\src\threefish/threefish.c **** 
 451              		.loc 1 129 0
 452 0192 0D93     		str	r3, [sp, #52]
 453 0194 0E93     		str	r3, [sp, #56]
 454              	.LVL29:
 455              	.L10:
 129:strong-arm\src\threefish/threefish.c **** 
 456              		.loc 1 129 0 is_stmt 0 discriminator 1
 457 0196 0023     		movs	r3, #0
 458              	.LBE32:
 459              	.LBB34:
 460              	.LBB35:
 461              	.LBB36:
  79:strong-arm\src\threefish/threefish.c **** }
 462              		.loc 1 79 0 is_stmt 1 discriminator 1
 463 0198 0C9A     		ldr	r2, [sp, #48]
 464              	.LBE36:
ARM GAS  C:\Users\Ray\AppData\Local\Temp\ccQaDTrF.s 			page 12


 465              	.LBE35:
 466              	.LBE34:
 467              	.LBB43:
 129:strong-arm\src\threefish/threefish.c **** 
 468              		.loc 1 129 0 discriminator 1
 469 019a 1F00     		movs	r7, r3
 470              	.LBE43:
 471              	.LBB44:
 472              	.LBB40:
 473              	.LBB37:
  79:strong-arm\src\threefish/threefish.c **** }
 474              		.loc 1 79 0 discriminator 1
 475 019c 0733     		adds	r3, r3, #7
 476 019e 1340     		ands	r3, r2
 477 01a0 404A     		ldr	r2, .L31+8
 478 01a2 9B00     		lsls	r3, r3, #2
 479 01a4 D318     		adds	r3, r2, r3
 480 01a6 1AAC     		add	r4, sp, #104
 481 01a8 1393     		str	r3, [sp, #76]
 482              	.LVL30:
 483              	.L12:
 484              	.LBE37:
 485              	.LBE40:
 135:strong-arm\src\threefish/threefish.c **** 		}
 136:strong-arm\src\threefish/threefish.c **** 
 137:strong-arm\src\threefish/threefish.c **** 		/* Mix */
 138:strong-arm\src\threefish/threefish.c **** 		for (int j = 0; j < 4; ++j)
 139:strong-arm\src\threefish/threefish.c **** 			mix8 (v+(2*j), v+(2*j)+1, roundnum, j, v[2*j], v[(2*j)+1]);
 486              		.loc 1 139 0 discriminator 3
 487 01aa A268     		ldr	r2, [r4, #8]
 488 01ac E368     		ldr	r3, [r4, #12]
 489 01ae 0892     		str	r2, [sp, #32]
 490 01b0 0993     		str	r3, [sp, #36]
 491              	.LVL31:
 492              	.LBB41:
 493              	.LBB38:
  78:strong-arm\src\threefish/threefish.c **** 	*y1 = ROL (x1, R8[roundnum&7][j]) ^ *y0;
 494              		.loc 1 78 0 discriminator 3
 495 01b2 0898     		ldr	r0, [sp, #32]
 496 01b4 0999     		ldr	r1, [sp, #36]
 497 01b6 2268     		ldr	r2, [r4]
 498 01b8 6368     		ldr	r3, [r4, #4]
 499              	.LVL32:
 500 01ba 1218     		adds	r2, r2, r0
 501 01bc 4B41     		adcs	r3, r3, r1
 502 01be 2260     		str	r2, [r4]
 503 01c0 6360     		str	r3, [r4, #4]
 504              	.LVL33:
 505 01c2 0A92     		str	r2, [sp, #40]
 506 01c4 0B93     		str	r3, [sp, #44]
  79:strong-arm\src\threefish/threefish.c **** }
 507              		.loc 1 79 0 discriminator 3
 508 01c6 139B     		ldr	r3, [sp, #76]
 509 01c8 DB5D     		ldrb	r3, [r3, r7]
 510 01ca 1A00     		movs	r2, r3
 511 01cc 0F93     		str	r3, [sp, #60]
 512 01ce FFF7FEFF 		bl	__aeabi_llsl
ARM GAS  C:\Users\Ray\AppData\Local\Temp\ccQaDTrF.s 			page 13


 513              	.LVL34:
 514 01d2 0F9B     		ldr	r3, [sp, #60]
 515 01d4 1190     		str	r0, [sp, #68]
 516 01d6 5A42     		rsbs	r2, r3, #0
 517 01d8 3F23     		movs	r3, #63
 518 01da 1291     		str	r1, [sp, #72]
 519 01dc 1A40     		ands	r2, r3
 520 01de 0898     		ldr	r0, [sp, #32]
 521 01e0 0999     		ldr	r1, [sp, #36]
 522 01e2 FFF7FEFF 		bl	__aeabi_llsr
 523              	.LVL35:
 524 01e6 119B     		ldr	r3, [sp, #68]
 525 01e8 0343     		orrs	r3, r0
 526 01ea 1800     		movs	r0, r3
 527 01ec 129B     		ldr	r3, [sp, #72]
 528 01ee 0B43     		orrs	r3, r1
 529 01f0 1900     		movs	r1, r3
 530 01f2 0A9B     		ldr	r3, [sp, #40]
 531 01f4 5840     		eors	r0, r3
 532 01f6 0B9B     		ldr	r3, [sp, #44]
 533 01f8 A060     		str	r0, [r4, #8]
 534 01fa 5940     		eors	r1, r3
 535              	.LBE38:
 536              	.LBE41:
 138:strong-arm\src\threefish/threefish.c **** 			mix8 (v+(2*j), v+(2*j)+1, roundnum, j, v[2*j], v[(2*j)+1]);
 537              		.loc 1 138 0 discriminator 3
 538 01fc 3B00     		movs	r3, r7
 539 01fe 0133     		adds	r3, r3, #1
 540              	.LBB42:
 541              	.LBB39:
  79:strong-arm\src\threefish/threefish.c **** }
 542              		.loc 1 79 0 discriminator 3
 543 0200 E160     		str	r1, [r4, #12]
 544              	.LVL36:
 545              	.LBE39:
 546              	.LBE42:
 138:strong-arm\src\threefish/threefish.c **** 			mix8 (v+(2*j), v+(2*j)+1, roundnum, j, v[2*j], v[(2*j)+1]);
 547              		.loc 1 138 0 discriminator 3
 548 0202 1F00     		movs	r7, r3
 549              	.LVL37:
 550 0204 1034     		adds	r4, r4, #16
 551 0206 042B     		cmp	r3, #4
 552 0208 CFD1     		bne	.L12
 553              	.LBE44:
 140:strong-arm\src\threefish/threefish.c **** 
 141:strong-arm\src\threefish/threefish.c **** 		/* Permute */
 142:strong-arm\src\threefish/threefish.c **** 		extra = v[0];
 554              		.loc 1 142 0 discriminator 2
 555 020a 2A68     		ldr	r2, [r5]
 556 020c 6B68     		ldr	r3, [r5, #4]
 557              	.LVL38:
 143:strong-arm\src\threefish/threefish.c **** 		v[0] = v[2];
 558              		.loc 1 143 0 discriminator 2
 559 020e 2869     		ldr	r0, [r5, #16]
 560 0210 6969     		ldr	r1, [r5, #20]
 561 0212 2860     		str	r0, [r5]
 562 0214 6960     		str	r1, [r5, #4]
ARM GAS  C:\Users\Ray\AppData\Local\Temp\ccQaDTrF.s 			page 14


 144:strong-arm\src\threefish/threefish.c **** 		v[2] = v[4];
 563              		.loc 1 144 0 discriminator 2
 564 0216 286A     		ldr	r0, [r5, #32]
 565 0218 696A     		ldr	r1, [r5, #36]
 566 021a 2861     		str	r0, [r5, #16]
 567 021c 6961     		str	r1, [r5, #20]
 145:strong-arm\src\threefish/threefish.c **** 		v[4] = v[6];
 568              		.loc 1 145 0 discriminator 2
 569 021e 286B     		ldr	r0, [r5, #48]
 570 0220 696B     		ldr	r1, [r5, #52]
 146:strong-arm\src\threefish/threefish.c **** 		v[6] = extra;
 571              		.loc 1 146 0 discriminator 2
 572 0222 2A63     		str	r2, [r5, #48]
 573 0224 6B63     		str	r3, [r5, #52]
 147:strong-arm\src\threefish/threefish.c **** 		extra = v[3];
 574              		.loc 1 147 0 discriminator 2
 575 0226 AA69     		ldr	r2, [r5, #24]
 576 0228 EB69     		ldr	r3, [r5, #28]
 577              	.LVL39:
 145:strong-arm\src\threefish/threefish.c **** 		v[4] = v[6];
 578              		.loc 1 145 0 discriminator 2
 579 022a 2862     		str	r0, [r5, #32]
 580 022c 6962     		str	r1, [r5, #36]
 148:strong-arm\src\threefish/threefish.c **** 		v[3] = v[7];
 581              		.loc 1 148 0 discriminator 2
 582 022e A86B     		ldr	r0, [r5, #56]
 583 0230 E96B     		ldr	r1, [r5, #60]
 149:strong-arm\src\threefish/threefish.c **** 		v[7] = extra;
 584              		.loc 1 149 0 discriminator 2
 585 0232 AA63     		str	r2, [r5, #56]
 586 0234 EB63     		str	r3, [r5, #60]
 587              	.LBE31:
 108:strong-arm\src\threefish/threefish.c **** 	{
 588              		.loc 1 108 0 discriminator 2
 589 0236 0C9B     		ldr	r3, [sp, #48]
 590              	.LVL40:
 591              	.LBB46:
 148:strong-arm\src\threefish/threefish.c **** 		v[3] = v[7];
 592              		.loc 1 148 0 discriminator 2
 593 0238 A861     		str	r0, [r5, #24]
 594 023a E961     		str	r1, [r5, #28]
 595              	.LBE46:
 108:strong-arm\src\threefish/threefish.c **** 	{
 596              		.loc 1 108 0 discriminator 2
 597 023c 0133     		adds	r3, r3, #1
 598 023e DBB2     		uxtb	r3, r3
 599 0240 0C93     		str	r3, [sp, #48]
 600              	.LVL41:
 601 0242 482B     		cmp	r3, #72
 602 0244 00D0     		beq	.LCB497
 603 0246 3FE7     		b	.L13	@long jump
 604              	.LCB497:
 605 0248 0E9B     		ldr	r3, [sp, #56]
 606 024a 002B     		cmp	r3, #0
 607 024c 03D0     		beq	.L14
 608 024e 029B     		ldr	r3, [sp, #8]
 609 0250 039C     		ldr	r4, [sp, #12]
ARM GAS  C:\Users\Ray\AppData\Local\Temp\ccQaDTrF.s 			page 15


 610 0252 1493     		str	r3, [sp, #80]
 611 0254 1594     		str	r4, [sp, #84]
 612              	.L14:
 613 0256 0D9B     		ldr	r3, [sp, #52]
 614 0258 002B     		cmp	r3, #0
 615 025a 03D0     		beq	.L15
 616 025c 009B     		ldr	r3, [sp]
 617 025e 019C     		ldr	r4, [sp, #4]
 618 0260 1893     		str	r3, [sp, #96]
 619 0262 1994     		str	r4, [sp, #100]
 620              	.L15:
 621 0264 002E     		cmp	r6, #0
 622 0266 03D0     		beq	.L16
 623 0268 049B     		ldr	r3, [sp, #16]
 624 026a 059C     		ldr	r4, [sp, #20]
 625 026c 1693     		str	r3, [sp, #88]
 626 026e 1794     		str	r4, [sp, #92]
 627              	.L16:
 628              	.LBB47:
 629              	.LBB45:
 129:strong-arm\src\threefish/threefish.c **** 
 630              		.loc 1 129 0
 631 0270 0023     		movs	r3, #0
 632              	.LVL42:
 633              	.L17:
 634              	.LBE45:
 635              	.LBE47:
 636              	.LBE30:
 637              	.LBB48:
 150:strong-arm\src\threefish/threefish.c **** 	}
 151:strong-arm\src\threefish/threefish.c **** 
 152:strong-arm\src\threefish/threefish.c **** 	/* Add last subkey */
 153:strong-arm\src\threefish/threefish.c **** 	for (int i = 0; i < 8; ++i)
 154:strong-arm\src\threefish/threefish.c **** 		v[i] += k[i];
 638              		.loc 1 154 0 discriminator 3
 639 0272 2AA9     		add	r1, sp, #168
 640 0274 EA18     		adds	r2, r5, r3
 641 0276 C918     		adds	r1, r1, r3
 642 0278 1668     		ldr	r6, [r2]
 643 027a 5768     		ldr	r7, [r2, #4]
 644 027c 0868     		ldr	r0, [r1]
 645 027e 4968     		ldr	r1, [r1, #4]
 646 0280 8019     		adds	r0, r0, r6
 647 0282 7941     		adcs	r1, r1, r7
 648 0284 0833     		adds	r3, r3, #8
 649 0286 1060     		str	r0, [r2]
 650 0288 5160     		str	r1, [r2, #4]
 651              	.LVL43:
 153:strong-arm\src\threefish/threefish.c **** 		v[i] += k[i];
 652              		.loc 1 153 0 discriminator 3
 653 028a 402B     		cmp	r3, #64
 654 028c F1D1     		bne	.L17
 655              	.LBE48:
 155:strong-arm\src\threefish/threefish.c **** 
 156:strong-arm\src\threefish/threefish.c **** 	words_to_bytes (ciphertext, v, 8);
 656              		.loc 1 156 0
 657 028e 2900     		movs	r1, r5
ARM GAS  C:\Users\Ray\AppData\Local\Temp\ccQaDTrF.s 			page 16


 658 0290 1098     		ldr	r0, [sp, #64]
 659 0292 FFF7FEFF 		bl	words_to_bytes.constprop.0
 660              	.LVL44:
 157:strong-arm\src\threefish/threefish.c **** }
 661              		.loc 1 157 0
 662 0296 3DB0     		add	sp, sp, #244
 663              		@ sp needed
 664              	.LVL45:
 665 0298 F0BD     		pop	{r4, r5, r6, r7, pc}
 666              	.L32:
 667 029a C046     		.align	2
 668              	.L31:
 669 029c 221AFCA9 		.word	-1443096030
 670 02a0 DA1BD11B 		.word	466688986
 671 02a4 00000000 		.word	.LANCHOR0
 672              		.cfi_endproc
 673              	.LFE6:
 674              		.size	threefish512_encrypt_block, .-threefish512_encrypt_block
 675              		.section	.text.threefish512_decrypt_block,"ax",%progbits
 676              		.align	1
 677              		.global	threefish512_decrypt_block
 678              		.code	16
 679              		.thumb_func
 680              		.type	threefish512_decrypt_block, %function
 681              	threefish512_decrypt_block:
 682              	.LFB7:
 158:strong-arm\src\threefish/threefish.c **** 
 159:strong-arm\src\threefish/threefish.c **** 
 160:strong-arm\src\threefish/threefish.c **** /* 
 161:strong-arm\src\threefish/threefish.c ****  * Decryption is the obvious inverse of encryption.  In other words, do everything backwards.
 162:strong-arm\src\threefish/threefish.c ****  * The only non-obvious thing here is reversing the Key Scheduling since we use a rolling key sched
 163:strong-arm\src\threefish/threefish.c ****  * implementation.
 164:strong-arm\src\threefish/threefish.c ****  */
 165:strong-arm\src\threefish/threefish.c **** void threefish512_decrypt_block (uint8_t plaintext[static 64], uint8_t const key[static 64], uint8_
 166:strong-arm\src\threefish/threefish.c **** {
 683              		.loc 1 166 0
 684              		.cfi_startproc
 685              		@ args = 0, pretend = 0, frame = 256
 686              		@ frame_needed = 0, uses_anonymous_args = 0
 687              	.LVL46:
 688 0000 F0B5     		push	{r4, r5, r6, r7, lr}
 689              		.cfi_def_cfa_offset 20
 690              		.cfi_offset 4, -20
 691              		.cfi_offset 5, -16
 692              		.cfi_offset 6, -12
 693              		.cfi_offset 7, -8
 694              		.cfi_offset 14, -4
 695 0002 1500     		movs	r5, r2
 696 0004 1E00     		movs	r6, r3
 697 0006 C1B0     		sub	sp, sp, #260
 698              		.cfi_def_cfa_offset 280
 167:strong-arm\src\threefish/threefish.c **** 	uint64_t k[9];
 168:strong-arm\src\threefish/threefish.c **** 	uint64_t t[3];
 169:strong-arm\src\threefish/threefish.c **** 	uint64_t v[8];
 170:strong-arm\src\threefish/threefish.c **** 
 171:strong-arm\src\threefish/threefish.c **** 	bytes_to_words (k, key, 8);
 699              		.loc 1 171 0
ARM GAS  C:\Users\Ray\AppData\Local\Temp\ccQaDTrF.s 			page 17


 700 0008 2EAC     		add	r4, sp, #184
 166:strong-arm\src\threefish/threefish.c **** 	uint64_t k[9];
 701              		.loc 1 166 0
 702 000a 1490     		str	r0, [sp, #80]
 703              		.loc 1 171 0
 704 000c 0822     		movs	r2, #8
 705              	.LVL47:
 706 000e 2000     		movs	r0, r4
 707              	.LVL48:
 708 0010 FFF7FEFF 		bl	bytes_to_words
 709              	.LVL49:
 172:strong-arm\src\threefish/threefish.c **** 	bytes_to_words (t, tweak, 2);
 710              		.loc 1 172 0
 711 0014 2900     		movs	r1, r5
 712 0016 0222     		movs	r2, #2
 713 0018 18A8     		add	r0, sp, #96
 173:strong-arm\src\threefish/threefish.c **** 	bytes_to_words (v, ciphertext, 8);
 714              		.loc 1 173 0
 715 001a 1EAD     		add	r5, sp, #120
 716              	.LVL50:
 172:strong-arm\src\threefish/threefish.c **** 	bytes_to_words (t, tweak, 2);
 717              		.loc 1 172 0
 718 001c FFF7FEFF 		bl	bytes_to_words
 719              	.LVL51:
 720              		.loc 1 173 0
 721 0020 3100     		movs	r1, r6
 722 0022 0822     		movs	r2, #8
 723 0024 2800     		movs	r0, r5
 724 0026 FFF7FEFF 		bl	bytes_to_words
 725              	.LVL52:
 174:strong-arm\src\threefish/threefish.c **** 
 175:strong-arm\src\threefish/threefish.c **** 	/* Begin Key Schedule */
 176:strong-arm\src\threefish/threefish.c **** 	k[8] = C240 ^ k[0] ^ k[1] ^ k[2] ^ k[3] ^ k[4] ^ k[5] ^ k[6] ^ k[7];
 726              		.loc 1 176 0
 727 002a A26A     		ldr	r2, [r4, #40]
 728 002c E36A     		ldr	r3, [r4, #44]
 729 002e A068     		ldr	r0, [r4, #8]
 730 0030 2E99     		ldr	r1, [sp, #184]
 731 0032 6668     		ldr	r6, [r4, #4]
 732              	.LVL53:
 733 0034 4140     		eors	r1, r0
 734 0036 E068     		ldr	r0, [r4, #12]
 735 0038 4640     		eors	r6, r0
 736 003a 9A48     		ldr	r0, .L59
 737 003c 4840     		eors	r0, r1
 738 003e 9A49     		ldr	r1, .L59+4
 739 0040 7140     		eors	r1, r6
 740 0042 2669     		ldr	r6, [r4, #16]
 741 0044 7040     		eors	r0, r6
 742 0046 6669     		ldr	r6, [r4, #20]
 743 0048 7140     		eors	r1, r6
 744 004a A669     		ldr	r6, [r4, #24]
 745 004c 7040     		eors	r0, r6
 746 004e E669     		ldr	r6, [r4, #28]
 747 0050 7140     		eors	r1, r6
 748 0052 266A     		ldr	r6, [r4, #32]
 749 0054 7040     		eors	r0, r6
ARM GAS  C:\Users\Ray\AppData\Local\Temp\ccQaDTrF.s 			page 18


 750 0056 666A     		ldr	r6, [r4, #36]
 751 0058 5040     		eors	r0, r2
 752 005a 7140     		eors	r1, r6
 753 005c 266B     		ldr	r6, [r4, #48]
 754 005e 5940     		eors	r1, r3
 755 0060 7040     		eors	r0, r6
 756 0062 666B     		ldr	r6, [r4, #52]
 757 0064 7140     		eors	r1, r6
 758 0066 A66B     		ldr	r6, [r4, #56]
 759 0068 7040     		eors	r0, r6
 760 006a 2064     		str	r0, [r4, #64]
 761 006c E06B     		ldr	r0, [r4, #60]
 762 006e 4140     		eors	r1, r0
 763 0070 6164     		str	r1, [r4, #68]
 177:strong-arm\src\threefish/threefish.c **** 	t[2] = t[0] ^ t[1];
 764              		.loc 1 177 0
 765 0072 1898     		ldr	r0, [sp, #96]
 766 0074 1999     		ldr	r1, [sp, #100]
 767 0076 0490     		str	r0, [sp, #16]
 768 0078 0591     		str	r1, [sp, #20]
 769 007a 1A98     		ldr	r0, [sp, #104]
 770 007c 1B99     		ldr	r1, [sp, #108]
 771 007e 0290     		str	r0, [sp, #8]
 772 0080 0391     		str	r1, [sp, #12]
 773 0082 0298     		ldr	r0, [sp, #8]
 774 0084 0499     		ldr	r1, [sp, #16]
 775 0086 4140     		eors	r1, r0
 776 0088 0091     		str	r1, [sp]
 777 008a 0398     		ldr	r0, [sp, #12]
 778 008c 0599     		ldr	r1, [sp, #20]
 779 008e 4140     		eors	r1, r0
 780 0090 0191     		str	r1, [sp, #4]
 781 0092 0098     		ldr	r0, [sp]
 782 0094 0199     		ldr	r1, [sp, #4]
 783 0096 1C90     		str	r0, [sp, #112]
 784 0098 1D91     		str	r1, [sp, #116]
 178:strong-arm\src\threefish/threefish.c **** 
 179:strong-arm\src\threefish/threefish.c **** 	k[5] += t[0];
 785              		.loc 1 179 0
 786 009a 0498     		ldr	r0, [sp, #16]
 787 009c 0599     		ldr	r1, [sp, #20]
 788 009e 1218     		adds	r2, r2, r0
 789 00a0 4B41     		adcs	r3, r3, r1
 790 00a2 A262     		str	r2, [r4, #40]
 791 00a4 E362     		str	r3, [r4, #44]
 180:strong-arm\src\threefish/threefish.c **** 	k[6] += t[1];
 792              		.loc 1 180 0
 793 00a6 226B     		ldr	r2, [r4, #48]
 794 00a8 636B     		ldr	r3, [r4, #52]
 795 00aa 0298     		ldr	r0, [sp, #8]
 796 00ac 0399     		ldr	r1, [sp, #12]
 797 00ae 1218     		adds	r2, r2, r0
 798 00b0 4B41     		adcs	r3, r3, r1
 181:strong-arm\src\threefish/threefish.c **** 	k[7] += 18;
 799              		.loc 1 181 0
 800 00b2 A06B     		ldr	r0, [r4, #56]
 801 00b4 E16B     		ldr	r1, [r4, #60]
ARM GAS  C:\Users\Ray\AppData\Local\Temp\ccQaDTrF.s 			page 19


 180:strong-arm\src\threefish/threefish.c **** 	k[6] += t[1];
 802              		.loc 1 180 0
 803 00b6 2263     		str	r2, [r4, #48]
 804 00b8 6363     		str	r3, [r4, #52]
 805              		.loc 1 181 0
 806 00ba 1222     		movs	r2, #18
 807 00bc 0023     		movs	r3, #0
 808 00be 1218     		adds	r2, r2, r0
 809 00c0 4B41     		adcs	r3, r3, r1
 810 00c2 A263     		str	r2, [r4, #56]
 811 00c4 E363     		str	r3, [r4, #60]
 812              	.LVL54:
 813 00c6 0023     		movs	r3, #0
 814              	.LVL55:
 815              	.L34:
 816 00c8 EA18     		adds	r2, r5, r3
 817              	.LBB49:
 182:strong-arm\src\threefish/threefish.c **** 
 183:strong-arm\src\threefish/threefish.c **** 	/* Subtract last subkey */
 184:strong-arm\src\threefish/threefish.c **** 	for (int i = 0; i < 8; ++i)
 185:strong-arm\src\threefish/threefish.c **** 		v[i] -= k[i];
 818              		.loc 1 185 0 discriminator 3
 819 00ca E118     		adds	r1, r4, r3
 820 00cc 0868     		ldr	r0, [r1]
 821 00ce 4968     		ldr	r1, [r1, #4]
 822 00d0 1668     		ldr	r6, [r2]
 823 00d2 5768     		ldr	r7, [r2, #4]
 824 00d4 361A     		subs	r6, r6, r0
 825 00d6 8F41     		sbcs	r7, r7, r1
 826 00d8 3000     		movs	r0, r6
 827 00da 3900     		movs	r1, r7
 828 00dc 0833     		adds	r3, r3, #8
 829 00de 1060     		str	r0, [r2]
 830 00e0 5160     		str	r1, [r2, #4]
 184:strong-arm\src\threefish/threefish.c **** 		v[i] -= k[i];
 831              		.loc 1 184 0 discriminator 3
 832 00e2 402B     		cmp	r3, #64
 833 00e4 F0D1     		bne	.L34
 834 00e6 0025     		movs	r5, #0
 835 00e8 0733     		adds	r3, r3, #7
 836 00ea 0B95     		str	r5, [sp, #44]
 837 00ec 0C95     		str	r5, [sp, #48]
 838 00ee 0A93     		str	r3, [sp, #40]
 839              	.L37:
 840              	.LVL56:
 841              	.LBE49:
 842              	.LBB50:
 843              	.LBB51:
 186:strong-arm\src\threefish/threefish.c **** 
 187:strong-arm\src\threefish/threefish.c **** 	for (uint8_t roundnum = 71; roundnum != 255; --roundnum)
 188:strong-arm\src\threefish/threefish.c **** 	{
 189:strong-arm\src\threefish/threefish.c **** 		uint64_t extra;
 190:strong-arm\src\threefish/threefish.c **** 
 191:strong-arm\src\threefish/threefish.c **** 		/* Invert permutation */
 192:strong-arm\src\threefish/threefish.c **** 		extra = v[2];
 844              		.loc 1 192 0
 845 00f0 229A     		ldr	r2, [sp, #136]
ARM GAS  C:\Users\Ray\AppData\Local\Temp\ccQaDTrF.s 			page 20


 846 00f2 239B     		ldr	r3, [sp, #140]
 847              	.LVL57:
 193:strong-arm\src\threefish/threefish.c **** 		v[2] = v[0];
 848              		.loc 1 193 0
 849 00f4 1E98     		ldr	r0, [sp, #120]
 850 00f6 1F99     		ldr	r1, [sp, #124]
 851 00f8 2290     		str	r0, [sp, #136]
 852 00fa 2391     		str	r1, [sp, #140]
 194:strong-arm\src\threefish/threefish.c **** 		v[0] = v[6];
 853              		.loc 1 194 0
 854 00fc 2A98     		ldr	r0, [sp, #168]
 855 00fe 2B99     		ldr	r1, [sp, #172]
 856 0100 1E90     		str	r0, [sp, #120]
 857 0102 1F91     		str	r1, [sp, #124]
 195:strong-arm\src\threefish/threefish.c **** 		v[6] = v[4];
 858              		.loc 1 195 0
 859 0104 2698     		ldr	r0, [sp, #152]
 860 0106 2799     		ldr	r1, [sp, #156]
 196:strong-arm\src\threefish/threefish.c **** 		v[4] = extra;
 861              		.loc 1 196 0
 862 0108 2692     		str	r2, [sp, #152]
 863 010a 2793     		str	r3, [sp, #156]
 197:strong-arm\src\threefish/threefish.c **** 		extra = v[3];
 864              		.loc 1 197 0
 865 010c 249A     		ldr	r2, [sp, #144]
 866 010e 259B     		ldr	r3, [sp, #148]
 867              	.LVL58:
 195:strong-arm\src\threefish/threefish.c **** 		v[6] = v[4];
 868              		.loc 1 195 0
 869 0110 2A90     		str	r0, [sp, #168]
 870 0112 2B91     		str	r1, [sp, #172]
 198:strong-arm\src\threefish/threefish.c **** 		v[3] = v[7];
 871              		.loc 1 198 0
 872 0114 2C98     		ldr	r0, [sp, #176]
 873 0116 2D99     		ldr	r1, [sp, #180]
 199:strong-arm\src\threefish/threefish.c **** 		v[7] = extra;
 874              		.loc 1 199 0
 875 0118 2C92     		str	r2, [sp, #176]
 876 011a 2D93     		str	r3, [sp, #180]
 877              	.LVL59:
 878              	.LBB52:
 200:strong-arm\src\threefish/threefish.c **** 
 201:strong-arm\src\threefish/threefish.c **** 		/* UnMIX */
 202:strong-arm\src\threefish/threefish.c **** 		for (int j = 0; j < 4; ++j)
 879              		.loc 1 202 0
 880 011c 0023     		movs	r3, #0
 881              	.LBB53:
 882              	.LBB54:
  86:strong-arm\src\threefish/threefish.c **** 	*x0 = y0 - *x1;
 883              		.loc 1 86 0
 884 011e 0722     		movs	r2, #7
 885              	.LVL60:
 886              	.LBE54:
 887              	.LBE53:
 888              	.LBE52:
 198:strong-arm\src\threefish/threefish.c **** 		v[7] = extra;
 889              		.loc 1 198 0
ARM GAS  C:\Users\Ray\AppData\Local\Temp\ccQaDTrF.s 			page 21


 890 0120 0690     		str	r0, [sp, #24]
 891 0122 0791     		str	r1, [sp, #28]
 892              	.LBB63:
 893              		.loc 1 202 0
 894 0124 0693     		str	r3, [sp, #24]
 895              	.LBB59:
 896              	.LBB55:
  86:strong-arm\src\threefish/threefish.c **** 	*x0 = y0 - *x1;
 897              		.loc 1 86 0
 898 0126 0A9B     		ldr	r3, [sp, #40]
 899              	.LBE55:
 900              	.LBE59:
 901              	.LBE63:
 198:strong-arm\src\threefish/threefish.c **** 		v[7] = extra;
 902              		.loc 1 198 0
 903 0128 2490     		str	r0, [sp, #144]
 904 012a 2591     		str	r1, [sp, #148]
 905              	.LVL61:
 906              	.LBB64:
 907              	.LBB60:
 908              	.LBB56:
  86:strong-arm\src\threefish/threefish.c **** 	*x0 = y0 - *x1;
 909              		.loc 1 86 0
 910 012c 1340     		ands	r3, r2
 911 012e 5F4A     		ldr	r2, .L59+8
 912 0130 9B00     		lsls	r3, r3, #2
 913 0132 D318     		adds	r3, r2, r3
 914 0134 1EAC     		add	r4, sp, #120
 915 0136 1793     		str	r3, [sp, #92]
 916              	.LVL62:
 917              	.L35:
  86:strong-arm\src\threefish/threefish.c **** 	*x0 = y0 - *x1;
 918              		.loc 1 86 0 is_stmt 0 discriminator 3
 919 0138 A368     		ldr	r3, [r4, #8]
 920              	.LBE56:
 921              	.LBE60:
 203:strong-arm\src\threefish/threefish.c **** 			unmix8 (v+(2*j), v+(2*j)+1, roundnum, j, v[2*j], v[(2*j)+1]);
 922              		.loc 1 203 0 is_stmt 1 discriminator 3
 923 013a 2668     		ldr	r6, [r4]
 924 013c 6768     		ldr	r7, [r4, #4]
 925              	.LVL63:
 926              	.LBB61:
 927              	.LBB57:
  86:strong-arm\src\threefish/threefish.c **** 	*x0 = y0 - *x1;
 928              		.loc 1 86 0 discriminator 3
 929 013e 7340     		eors	r3, r6
 930 0140 1293     		str	r3, [sp, #72]
 931 0142 E368     		ldr	r3, [r4, #12]
 932 0144 069A     		ldr	r2, [sp, #24]
 933 0146 7B40     		eors	r3, r7
 934 0148 1393     		str	r3, [sp, #76]
 935 014a 179B     		ldr	r3, [sp, #92]
 936 014c 1298     		ldr	r0, [sp, #72]
 937 014e 9B5C     		ldrb	r3, [r3, r2]
 938 0150 1399     		ldr	r1, [sp, #76]
 939 0152 1A00     		movs	r2, r3
 940 0154 0D93     		str	r3, [sp, #52]
ARM GAS  C:\Users\Ray\AppData\Local\Temp\ccQaDTrF.s 			page 22


 941 0156 FFF7FEFF 		bl	__aeabi_llsr
 942              	.LVL64:
 943 015a 0D9B     		ldr	r3, [sp, #52]
 944 015c 1590     		str	r0, [sp, #84]
 945 015e 5A42     		rsbs	r2, r3, #0
 946 0160 3F23     		movs	r3, #63
 947 0162 1691     		str	r1, [sp, #88]
 948 0164 1A40     		ands	r2, r3
 949 0166 1298     		ldr	r0, [sp, #72]
 950 0168 1399     		ldr	r1, [sp, #76]
 951 016a FFF7FEFF 		bl	__aeabi_llsl
 952              	.LVL65:
 953 016e 159B     		ldr	r3, [sp, #84]
 954 0170 0343     		orrs	r3, r0
 955 0172 0893     		str	r3, [sp, #32]
 956 0174 169B     		ldr	r3, [sp, #88]
 957 0176 0B43     		orrs	r3, r1
 958 0178 0993     		str	r3, [sp, #36]
 959 017a 089A     		ldr	r2, [sp, #32]
 960 017c 099B     		ldr	r3, [sp, #36]
  87:strong-arm\src\threefish/threefish.c **** }
 961              		.loc 1 87 0 discriminator 3
 962 017e B61A     		subs	r6, r6, r2
 963 0180 9F41     		sbcs	r7, r7, r3
 964              	.LVL66:
  86:strong-arm\src\threefish/threefish.c **** 	*x0 = y0 - *x1;
 965              		.loc 1 86 0 discriminator 3
 966 0182 A260     		str	r2, [r4, #8]
 967 0184 E360     		str	r3, [r4, #12]
 968              	.LBE57:
 969              	.LBE61:
 202:strong-arm\src\threefish/threefish.c **** 			unmix8 (v+(2*j), v+(2*j)+1, roundnum, j, v[2*j], v[(2*j)+1]);
 970              		.loc 1 202 0 discriminator 3
 971 0186 069B     		ldr	r3, [sp, #24]
 972              	.LBB62:
 973              	.LBB58:
  87:strong-arm\src\threefish/threefish.c **** }
 974              		.loc 1 87 0 discriminator 3
 975 0188 2660     		str	r6, [r4]
 976 018a 6760     		str	r7, [r4, #4]
 977              	.LVL67:
 978              	.LBE58:
 979              	.LBE62:
 202:strong-arm\src\threefish/threefish.c **** 			unmix8 (v+(2*j), v+(2*j)+1, roundnum, j, v[2*j], v[(2*j)+1]);
 980              		.loc 1 202 0 discriminator 3
 981 018c 0133     		adds	r3, r3, #1
 982 018e 0693     		str	r3, [sp, #24]
 983              	.LVL68:
 984 0190 1034     		adds	r4, r4, #16
 985 0192 042B     		cmp	r3, #4
 986 0194 D0D1     		bne	.L35
 987              	.LBE64:
 204:strong-arm\src\threefish/threefish.c **** 
 205:strong-arm\src\threefish/threefish.c **** 		/* Subtract subkey */
 206:strong-arm\src\threefish/threefish.c **** 		if ((roundnum & 3) == 0)
 988              		.loc 1 206 0
 989 0196 0A9A     		ldr	r2, [sp, #40]
ARM GAS  C:\Users\Ray\AppData\Local\Temp\ccQaDTrF.s 			page 23


 990 0198 013B     		subs	r3, r3, #1
 991              	.LVL69:
 992 019a 1A40     		ands	r2, r3
 993 019c 06D0     		beq	.L36
 994              	.LVL70:
 995              	.L40:
 996              	.LBE51:
 187:strong-arm\src\threefish/threefish.c **** 	{
 997              		.loc 1 187 0
 998 019e 0A9B     		ldr	r3, [sp, #40]
 999 01a0 013B     		subs	r3, r3, #1
 1000 01a2 DBB2     		uxtb	r3, r3
 1001 01a4 0A93     		str	r3, [sp, #40]
 1002              	.LVL71:
 1003 01a6 FF2B     		cmp	r3, #255
 1004 01a8 A2D1     		bne	.L37
 1005 01aa 60E0     		b	.L58
 1006              	.LVL72:
 1007              	.L36:
 1008              	.LBB69:
 1009              	.LBB65:
 207:strong-arm\src\threefish/threefish.c **** 		{
 208:strong-arm\src\threefish/threefish.c **** 			/* Update subkey */
 209:strong-arm\src\threefish/threefish.c **** 			uint8_t s = roundnum >> 2;
 1010              		.loc 1 209 0
 1011 01ac 0A9B     		ldr	r3, [sp, #40]
 210:strong-arm\src\threefish/threefish.c **** 			extra = k[8];
 211:strong-arm\src\threefish/threefish.c **** 			k[8] = k[7] - (s+1);
 212:strong-arm\src\threefish/threefish.c **** 			k[7] = k[6] - t[1] + s;
 1012              		.loc 1 212 0
 1013 01ae 1192     		str	r2, [sp, #68]
 209:strong-arm\src\threefish/threefish.c **** 			extra = k[8];
 1014              		.loc 1 209 0
 1015 01b0 9C08     		lsrs	r4, r3, #2
 210:strong-arm\src\threefish/threefish.c **** 			extra = k[8];
 1016              		.loc 1 210 0
 1017 01b2 2EAB     		add	r3, sp, #184
 1018 01b4 186C     		ldr	r0, [r3, #64]
 1019 01b6 596C     		ldr	r1, [r3, #68]
 1020 01b8 0690     		str	r0, [sp, #24]
 1021 01ba 0791     		str	r1, [sp, #28]
 1022              	.LVL73:
 211:strong-arm\src\threefish/threefish.c **** 			k[7] = k[6] - t[1] + s;
 1023              		.loc 1 211 0
 1024 01bc 611C     		adds	r1, r4, #1
 1025 01be 0E91     		str	r1, [sp, #56]
 1026 01c0 C917     		asrs	r1, r1, #31
 1027 01c2 0F91     		str	r1, [sp, #60]
 1028 01c4 0E9D     		ldr	r5, [sp, #56]
 1029 01c6 0F9E     		ldr	r6, [sp, #60]
 1030 01c8 986B     		ldr	r0, [r3, #56]
 1031 01ca D96B     		ldr	r1, [r3, #60]
 1032              	.LVL74:
 1033 01cc 401B     		subs	r0, r0, r5
 1034 01ce B141     		sbcs	r1, r1, r6
 1035              		.loc 1 212 0
 1036 01d0 029D     		ldr	r5, [sp, #8]
ARM GAS  C:\Users\Ray\AppData\Local\Temp\ccQaDTrF.s 			page 24


 1037 01d2 039E     		ldr	r6, [sp, #12]
 211:strong-arm\src\threefish/threefish.c **** 			k[7] = k[6] - t[1] + s;
 1038              		.loc 1 211 0
 1039 01d4 1864     		str	r0, [r3, #64]
 1040 01d6 5964     		str	r1, [r3, #68]
 1041              	.LVL75:
 1042              		.loc 1 212 0
 1043 01d8 186B     		ldr	r0, [r3, #48]
 1044 01da 596B     		ldr	r1, [r3, #52]
 1045 01dc 401B     		subs	r0, r0, r5
 1046 01de B141     		sbcs	r1, r1, r6
 1047 01e0 1094     		str	r4, [sp, #64]
 1048 01e2 109C     		ldr	r4, [sp, #64]
 1049 01e4 119D     		ldr	r5, [sp, #68]
 1050 01e6 0019     		adds	r0, r0, r4
 1051 01e8 6941     		adcs	r1, r1, r5
 213:strong-arm\src\threefish/threefish.c **** 			k[6] = k[5];
 214:strong-arm\src\threefish/threefish.c **** 			k[5] = k[4] + t[2];
 1052              		.loc 1 214 0
 1053 01ea 009C     		ldr	r4, [sp]
 1054 01ec 019D     		ldr	r5, [sp, #4]
 212:strong-arm\src\threefish/threefish.c **** 			k[6] = k[5];
 1055              		.loc 1 212 0
 1056 01ee 9863     		str	r0, [r3, #56]
 1057 01f0 D963     		str	r1, [r3, #60]
 213:strong-arm\src\threefish/threefish.c **** 			k[6] = k[5];
 1058              		.loc 1 213 0
 1059 01f2 986A     		ldr	r0, [r3, #40]
 1060 01f4 D96A     		ldr	r1, [r3, #44]
 1061 01f6 1863     		str	r0, [r3, #48]
 1062 01f8 5963     		str	r1, [r3, #52]
 1063              		.loc 1 214 0
 1064 01fa 186A     		ldr	r0, [r3, #32]
 1065 01fc 596A     		ldr	r1, [r3, #36]
 1066 01fe 0019     		adds	r0, r0, r4
 1067 0200 6941     		adcs	r1, r1, r5
 1068 0202 9862     		str	r0, [r3, #40]
 1069 0204 D962     		str	r1, [r3, #44]
 215:strong-arm\src\threefish/threefish.c **** 			k[4] = k[3];
 1070              		.loc 1 215 0
 1071 0206 9869     		ldr	r0, [r3, #24]
 1072 0208 D969     		ldr	r1, [r3, #28]
 1073 020a 1862     		str	r0, [r3, #32]
 1074 020c 5962     		str	r1, [r3, #36]
 216:strong-arm\src\threefish/threefish.c **** 			k[3] = k[2];
 1075              		.loc 1 216 0
 1076 020e 1869     		ldr	r0, [r3, #16]
 1077 0210 5969     		ldr	r1, [r3, #20]
 1078 0212 9861     		str	r0, [r3, #24]
 1079 0214 D961     		str	r1, [r3, #28]
 217:strong-arm\src\threefish/threefish.c **** 			k[2] = k[1];
 1080              		.loc 1 217 0
 1081 0216 9868     		ldr	r0, [r3, #8]
 1082 0218 D968     		ldr	r1, [r3, #12]
 1083 021a 1861     		str	r0, [r3, #16]
 1084 021c 5961     		str	r1, [r3, #20]
 218:strong-arm\src\threefish/threefish.c **** 			k[1] = k[0];
ARM GAS  C:\Users\Ray\AppData\Local\Temp\ccQaDTrF.s 			page 25


 1085              		.loc 1 218 0
 1086 021e 2E98     		ldr	r0, [sp, #184]
 1087 0220 2F99     		ldr	r1, [sp, #188]
 1088 0222 9860     		str	r0, [r3, #8]
 1089 0224 D960     		str	r1, [r3, #12]
 219:strong-arm\src\threefish/threefish.c **** 			k[0] = extra;
 1090              		.loc 1 219 0
 1091 0226 0698     		ldr	r0, [sp, #24]
 1092 0228 0799     		ldr	r1, [sp, #28]
 1093 022a 2E90     		str	r0, [sp, #184]
 1094 022c 2F91     		str	r1, [sp, #188]
 1095              	.LVL76:
 1096              	.L39:
 1097 022e 1EA9     		add	r1, sp, #120
 1098 0230 8C18     		adds	r4, r1, r2
 1099              	.LBB66:
 220:strong-arm\src\threefish/threefish.c **** 
 221:strong-arm\src\threefish/threefish.c **** 			extra = t[2];
 222:strong-arm\src\threefish/threefish.c **** 			t[2] = t[1];
 223:strong-arm\src\threefish/threefish.c **** 			t[1] = t[0];
 224:strong-arm\src\threefish/threefish.c **** 			t[0] = extra;
 225:strong-arm\src\threefish/threefish.c **** 
 226:strong-arm\src\threefish/threefish.c **** 			/* Subtract */
 227:strong-arm\src\threefish/threefish.c **** 			for (int i = 0; i < 8; ++i)
 228:strong-arm\src\threefish/threefish.c **** 				v[i] -= k[i];
 1100              		.loc 1 228 0 discriminator 3
 1101 0232 9918     		adds	r1, r3, r2
 1102 0234 0868     		ldr	r0, [r1]
 1103 0236 4968     		ldr	r1, [r1, #4]
 1104 0238 2568     		ldr	r5, [r4]
 1105 023a 6668     		ldr	r6, [r4, #4]
 1106 023c 2D1A     		subs	r5, r5, r0
 1107 023e 8E41     		sbcs	r6, r6, r1
 1108 0240 2800     		movs	r0, r5
 1109 0242 3100     		movs	r1, r6
 1110 0244 0832     		adds	r2, r2, #8
 1111 0246 2060     		str	r0, [r4]
 1112 0248 6160     		str	r1, [r4, #4]
 227:strong-arm\src\threefish/threefish.c **** 				v[i] -= k[i];
 1113              		.loc 1 227 0 discriminator 3
 1114 024a 402A     		cmp	r2, #64
 1115 024c EFD1     		bne	.L39
 1116              	.LBE66:
 223:strong-arm\src\threefish/threefish.c **** 			t[0] = extra;
 1117              		.loc 1 223 0
 1118 024e 0498     		ldr	r0, [sp, #16]
 1119 0250 0599     		ldr	r1, [sp, #20]
 1120              	.LBB67:
 1121 0252 0125     		movs	r5, #1
 1122 0254 029A     		ldr	r2, [sp, #8]
 1123 0256 039B     		ldr	r3, [sp, #12]
 1124 0258 0B95     		str	r5, [sp, #44]
 1125              	.LBE67:
 1126 025a 0290     		str	r0, [sp, #8]
 1127 025c 0391     		str	r1, [sp, #12]
 224:strong-arm\src\threefish/threefish.c **** 
 1128              		.loc 1 224 0
ARM GAS  C:\Users\Ray\AppData\Local\Temp\ccQaDTrF.s 			page 26


 1129 025e 0098     		ldr	r0, [sp]
 1130 0260 0199     		ldr	r1, [sp, #4]
 1131              	.LBB68:
 1132 0262 0C95     		str	r5, [sp, #48]
 1133              	.LBE68:
 1134 0264 0490     		str	r0, [sp, #16]
 1135 0266 0591     		str	r1, [sp, #20]
 222:strong-arm\src\threefish/threefish.c **** 			t[1] = t[0];
 1136              		.loc 1 222 0
 1137 0268 0092     		str	r2, [sp]
 1138              	.LVL77:
 1139 026a 0193     		str	r3, [sp, #4]
 1140 026c 97E7     		b	.L40
 1141              	.L58:
 1142 026e 0C9B     		ldr	r3, [sp, #48]
 1143 0270 002B     		cmp	r3, #0
 1144 0272 03D0     		beq	.L41
 1145 0274 029B     		ldr	r3, [sp, #8]
 1146 0276 039C     		ldr	r4, [sp, #12]
 1147 0278 1A93     		str	r3, [sp, #104]
 1148 027a 1B94     		str	r4, [sp, #108]
 1149              	.L41:
 1150 027c 0B9B     		ldr	r3, [sp, #44]
 1151 027e 002B     		cmp	r3, #0
 1152 0280 03D0     		beq	.L42
 1153 0282 009B     		ldr	r3, [sp]
 1154 0284 019C     		ldr	r4, [sp, #4]
 1155 0286 1C93     		str	r3, [sp, #112]
 1156 0288 1D94     		str	r4, [sp, #116]
 1157              	.L42:
 1158 028a 002D     		cmp	r5, #0
 1159 028c 03D0     		beq	.L43
 1160 028e 049B     		ldr	r3, [sp, #16]
 1161 0290 059C     		ldr	r4, [sp, #20]
 1162 0292 1893     		str	r3, [sp, #96]
 1163 0294 1994     		str	r4, [sp, #100]
 1164              	.L43:
 1165              	.LBE65:
 1166              	.LBE69:
 1167              	.LBE50:
 229:strong-arm\src\threefish/threefish.c **** 		}
 230:strong-arm\src\threefish/threefish.c **** 	}
 231:strong-arm\src\threefish/threefish.c **** 
 232:strong-arm\src\threefish/threefish.c **** 	words_to_bytes (plaintext, v, 8);
 1168              		.loc 1 232 0
 1169 0296 1EA9     		add	r1, sp, #120
 1170 0298 1498     		ldr	r0, [sp, #80]
 1171 029a FFF7FEFF 		bl	words_to_bytes.constprop.0
 1172              	.LVL78:
 233:strong-arm\src\threefish/threefish.c **** }
 1173              		.loc 1 233 0
 1174 029e 41B0     		add	sp, sp, #260
 1175              		@ sp needed
 1176 02a0 F0BD     		pop	{r4, r5, r6, r7, pc}
 1177              	.L60:
 1178 02a2 C046     		.align	2
 1179              	.L59:
ARM GAS  C:\Users\Ray\AppData\Local\Temp\ccQaDTrF.s 			page 27


 1180 02a4 221AFCA9 		.word	-1443096030
 1181 02a8 DA1BD11B 		.word	466688986
 1182 02ac 00000000 		.word	.LANCHOR0
 1183              		.cfi_endproc
 1184              	.LFE7:
 1185              		.size	threefish512_decrypt_block, .-threefish512_decrypt_block
 1186              		.global	C240
 1187              		.global	R8
 1188              		.section	.rodata
 1189              		.align	3
 1190              		.set	.LANCHOR0,. + 0
 1191              		.type	R8, %object
 1192              		.size	R8, 32
 1193              	R8:
 1194 0000 2E       		.byte	46
 1195 0001 24       		.byte	36
 1196 0002 13       		.byte	19
 1197 0003 25       		.byte	37
 1198 0004 21       		.byte	33
 1199 0005 1B       		.byte	27
 1200 0006 0E       		.byte	14
 1201 0007 2A       		.byte	42
 1202 0008 11       		.byte	17
 1203 0009 31       		.byte	49
 1204 000a 24       		.byte	36
 1205 000b 27       		.byte	39
 1206 000c 2C       		.byte	44
 1207 000d 09       		.byte	9
 1208 000e 36       		.byte	54
 1209 000f 38       		.byte	56
 1210 0010 27       		.byte	39
 1211 0011 1E       		.byte	30
 1212 0012 22       		.byte	34
 1213 0013 18       		.byte	24
 1214 0014 0D       		.byte	13
 1215 0015 32       		.byte	50
 1216 0016 0A       		.byte	10
 1217 0017 11       		.byte	17
 1218 0018 19       		.byte	25
 1219 0019 1D       		.byte	29
 1220 001a 27       		.byte	39
 1221 001b 2B       		.byte	43
 1222 001c 08       		.byte	8
 1223 001d 23       		.byte	35
 1224 001e 38       		.byte	56
 1225 001f 16       		.byte	22
 1226              		.type	C240, %object
 1227              		.size	C240, 8
 1228              	C240:
 1229 0020 221AFCA9 		.word	-1443096030
 1230 0024 DA1BD11B 		.word	466688986
 1231              		.text
 1232              	.Letext0:
 1233              		.file 2 "c:\\program files (x86)\\cypress\\psoc creator\\4.1\\psoc creator\\import\\gnu\\arm\\5.4.
 1234              		.file 3 "c:\\program files (x86)\\cypress\\psoc creator\\4.1\\psoc creator\\import\\gnu\\arm\\5.4.