ARM GAS  C:\Users\Ray\AppData\Local\Temp\ccnFqZB3.s 			page 1


   1              		.syntax unified
   2              		.cpu cortex-m0
   3              		.fpu softvfp
   4              		.eabi_attribute 20, 1
   5              		.eabi_attribute 21, 1
   6              		.eabi_attribute 23, 3
   7              		.eabi_attribute 24, 1
   8              		.eabi_attribute 25, 1
   9              		.eabi_attribute 26, 1
  10              		.eabi_attribute 30, 4
  11              		.eabi_attribute 34, 0
  12              		.eabi_attribute 18, 4
  13              		.thumb
  14              		.syntax unified
  15              		.file	"util.c"
  16              		.text
  17              	.Ltext0:
  18              		.cfi_sections	.debug_frame
  19              		.section	.text.error_state,"ax",%progbits
  20              		.align	1
  21              		.global	error_state
  22              		.code	16
  23              		.thumb_func
  24              		.type	error_state, %function
  25              	error_state:
  26              	.LFB0:
  27              		.file 1 "strong-arm\\src\\private\\util.c"
   1:strong-arm\src\private/util.c **** #include "util.h"
   2:strong-arm\src\private/util.c **** 
   3:strong-arm\src\private/util.c **** #ifdef TARGET_STM32F4
   4:strong-arm\src\private/util.c **** 	#include <stm32f4xx.h>
   5:strong-arm\src\private/util.c **** #endif
   6:strong-arm\src\private/util.c **** 
   7:strong-arm\src\private/util.c **** 
   8:strong-arm\src\private/util.c **** // TODO: Go into low power mode, blink LED? Maybe even poweroff?
   9:strong-arm\src\private/util.c **** void error_state (void)
  10:strong-arm\src\private/util.c **** {
  28              		.loc 1 10 0
  29              		.cfi_startproc
  30              		@ Volatile: function does not return.
  31              		@ args = 0, pretend = 0, frame = 0
  32              		@ frame_needed = 0, uses_anonymous_args = 0
  33              		@ link register save eliminated.
  34              	.L2:
  35 0000 FEE7     		b	.L2
  36              		.cfi_endproc
  37              	.LFE0:
  38              		.size	error_state, .-error_state
  39              		.section	.text.blog2,"ax",%progbits
  40              		.align	1
  41              		.global	blog2
  42              		.code	16
  43              		.thumb_func
  44              		.type	blog2, %function
  45              	blog2:
  46              	.LFB1:
  11:strong-arm\src\private/util.c **** 	// Disable interrupts
ARM GAS  C:\Users\Ray\AppData\Local\Temp\ccnFqZB3.s 			page 2


  12:strong-arm\src\private/util.c **** #ifdef TARGET_STM32F4
  13:strong-arm\src\private/util.c **** 	__disable_irq ();
  14:strong-arm\src\private/util.c **** #endif
  15:strong-arm\src\private/util.c **** 
  16:strong-arm\src\private/util.c **** 	while (1)
  17:strong-arm\src\private/util.c **** 	{
  18:strong-arm\src\private/util.c **** 	}
  19:strong-arm\src\private/util.c **** }
  20:strong-arm\src\private/util.c **** 
  21:strong-arm\src\private/util.c **** uint32_t blog2 (uint32_t a)
  22:strong-arm\src\private/util.c **** {
  47              		.loc 1 22 0
  48              		.cfi_startproc
  49              		@ args = 0, pretend = 0, frame = 40
  50              		@ frame_needed = 0, uses_anonymous_args = 0
  51              	.LVL0:
  52              		.loc 1 22 0
  53 0000 F0B5     		push	{r4, r5, r6, r7, lr}
  54              		.cfi_def_cfa_offset 20
  55              		.cfi_offset 4, -20
  56              		.cfi_offset 5, -16
  57              		.cfi_offset 6, -12
  58              		.cfi_offset 7, -8
  59              		.cfi_offset 14, -4
  23:strong-arm\src\private/util.c **** 	const uint32_t b[] = {0x2, 0xC, 0xF0, 0xFF00, 0xFFFF0000};
  60              		.loc 1 23 0
  61 0002 104B     		ldr	r3, .L11
  22:strong-arm\src\private/util.c **** 	const uint32_t b[] = {0x2, 0xC, 0xF0, 0xFF00, 0xFFFF0000};
  62              		.loc 1 22 0
  63 0004 8BB0     		sub	sp, sp, #44
  64              		.cfi_def_cfa_offset 64
  65              		.loc 1 23 0
  66 0006 1C00     		movs	r4, r3
  67 0008 6946     		mov	r1, sp
  68 000a E0CC     		ldmia	r4!, {r5, r6, r7}
  69 000c E0C1     		stmia	r1!, {r5, r6, r7}
  70 000e 60CC     		ldmia	r4!, {r5, r6}
  71 0010 60C1     		stmia	r1!, {r5, r6}
  24:strong-arm\src\private/util.c **** 	const uint32_t S[] = {1, 2, 4, 8, 16};
  72              		.loc 1 24 0
  73 0012 05A9     		add	r1, sp, #20
  74 0014 0C00     		movs	r4, r1
  75 0016 1433     		adds	r3, r3, #20
  76 0018 E0CB     		ldmia	r3!, {r5, r6, r7}
  77 001a E0C4     		stmia	r4!, {r5, r6, r7}
  78 001c 60CB     		ldmia	r3!, {r5, r6}
  79 001e 60C4     		stmia	r4!, {r5, r6}
  80              	.LVL1:
  81 0020 0023     		movs	r3, #0
  23:strong-arm\src\private/util.c **** 	const uint32_t b[] = {0x2, 0xC, 0xF0, 0xFF00, 0xFFFF0000};
  82              		.loc 1 23 0
  83 0022 6A46     		mov	r2, sp
  25:strong-arm\src\private/util.c **** 	uint32_t r = 0;
  84              		.loc 1 25 0
  85 0024 1C00     		movs	r4, r3
  86              	.LVL2:
  87              	.L5:
ARM GAS  C:\Users\Ray\AppData\Local\Temp\ccnFqZB3.s 			page 3


  88              	.LBB2:
  26:strong-arm\src\private/util.c **** 
  27:strong-arm\src\private/util.c **** 	for (int i = 4; i >= 0; --i)
  28:strong-arm\src\private/util.c **** 	{
  29:strong-arm\src\private/util.c **** 		if (a & b[i])
  89              		.loc 1 29 0
  90 0026 D518     		adds	r5, r2, r3
  91 0028 2D69     		ldr	r5, [r5, #16]
  92 002a 0542     		tst	r5, r0
  93 002c 03D0     		beq	.L4
  30:strong-arm\src\private/util.c **** 		{
  31:strong-arm\src\private/util.c **** 			a >>= S[i];
  94              		.loc 1 31 0
  95 002e CD18     		adds	r5, r1, r3
  96 0030 2D69     		ldr	r5, [r5, #16]
  97 0032 E840     		lsrs	r0, r0, r5
  98              	.LVL3:
  32:strong-arm\src\private/util.c **** 			r |= S[i];
  99              		.loc 1 32 0
 100 0034 2C43     		orrs	r4, r5
 101              	.LVL4:
 102              	.L4:
 103 0036 043B     		subs	r3, r3, #4
  27:strong-arm\src\private/util.c **** 	{
 104              		.loc 1 27 0 discriminator 2
 105 0038 1D00     		movs	r5, r3
 106 003a 1435     		adds	r5, r5, #20
 107 003c F3D1     		bne	.L5
 108              	.LBE2:
  33:strong-arm\src\private/util.c **** 		} 
  34:strong-arm\src\private/util.c **** 	}
  35:strong-arm\src\private/util.c **** 
  36:strong-arm\src\private/util.c **** 	return r;
  37:strong-arm\src\private/util.c **** }
 109              		.loc 1 37 0
 110 003e 2000     		movs	r0, r4
 111              	.LVL5:
 112 0040 0BB0     		add	sp, sp, #44
 113              		@ sp needed
 114              	.LVL6:
 115 0042 F0BD     		pop	{r4, r5, r6, r7, pc}
 116              	.L12:
 117              		.align	2
 118              	.L11:
 119 0044 00000000 		.word	.LANCHOR0
 120              		.cfi_endproc
 121              	.LFE1:
 122              		.size	blog2, .-blog2
 123              		.section	.rodata
 124              		.align	2
 125              		.set	.LANCHOR0,. + 0
 126              	.LC0:
 127 0000 02000000 		.word	2
 128 0004 0C000000 		.word	12
 129 0008 F0000000 		.word	240
 130 000c 00FF0000 		.word	65280
 131 0010 0000FFFF 		.word	-65536
ARM GAS  C:\Users\Ray\AppData\Local\Temp\ccnFqZB3.s 			page 4


 132              	.LC1:
 133 0014 01000000 		.word	1
 134 0018 02000000 		.word	2
 135 001c 04000000 		.word	4
 136 0020 08000000 		.word	8
 137 0024 10000000 		.word	16
 138              		.text
 139              	.Letext0:
 140              		.file 2 "c:\\program files (x86)\\cypress\\psoc creator\\4.1\\psoc creator\\import\\gnu\\arm\\5.4.
 141              		.file 3 "c:\\program files (x86)\\cypress\\psoc creator\\4.1\\psoc creator\\import\\gnu\\arm\\5.4.