ARM GAS  C:\Users\Ray\AppData\Local\Temp\ccdfnkDI.s 			page 1


   1              		.syntax unified
   2              		.cpu cortex-m0
   3              		.fpu softvfp
   4              		.eabi_attribute 20, 1
   5              		.eabi_attribute 21, 1
   6              		.eabi_attribute 23, 3
   7              		.eabi_attribute 24, 1
   8              		.eabi_attribute 25, 1
   9              		.eabi_attribute 26, 1
  10              		.eabi_attribute 30, 4
  11              		.eabi_attribute 34, 0
  12              		.eabi_attribute 18, 4
  13              		.thumb
  14              		.syntax unified
  15              		.file	"main.c"
  16              		.text
  17              	.Ltext0:
  18              		.cfi_sections	.debug_frame
  19              		.section	.text.Reset_ISR,"ax",%progbits
  20              		.align	1
  21              		.global	Reset_ISR
  22              		.code	16
  23              		.thumb_func
  24              		.type	Reset_ISR, %function
  25              	Reset_ISR:
  26              	.LFB35:
  27              		.file 1 "main.c"
   1:main.c        **** /* ========================================
   2:main.c        ****  *
   3:main.c        ****  * Copyright YOUR COMPANY, THE YEAR
   4:main.c        ****  * All Rights Reserved
   5:main.c        ****  * UNPUBLISHED, LICENSED SOFTWARE.
   6:main.c        ****  *
   7:main.c        ****  * CONFIDENTIAL AND PROPRIETARY INFORMATION
   8:main.c        ****  * WHICH IS THE PROPERTY OF your company.
   9:main.c        ****  *
  10:main.c        ****  * ========================================
  11:main.c        **** */
  12:main.c        **** 
  13:main.c        **** #include "project.h"
  14:main.c        **** #include <stdlib.h>
  15:main.c        **** #include "usbserialprotocol.h"
  16:main.c        **** #include "SW1.h"
  17:main.c        **** #include "Reset_isr.h"
  18:main.c        **** #include <strong-arm/sha256.h>
  19:main.c        **** #include <strong-arm/aes.h>
  20:main.c        **** #include <strong-arm/random.h>
  21:main.c        **** #include <strong-arm/hmac.h>
  22:main.c        **** #include <stdio.h>
  23:main.c        **** 
  24:main.c        **** #define PIN_LEN 8
  25:main.c        **** #define UUID_LEN 36
  26:main.c        **** #define PINCHG_SUC "SUCCESS"
  27:main.c        **** #define PROV_MSG "P"
  28:main.c        **** #define RECV_OK "K"
  29:main.c        **** #define NONCE_OK "OK"
  30:main.c        **** #define COMPUTE_HMAC '2'
ARM GAS  C:\Users\Ray\AppData\Local\Temp\ccdfnkDI.s 			page 2


  31:main.c        **** #define GET_UUID '3'
  32:main.c        **** 
  33:main.c        **** //CARD
  34:main.c        **** 
  35:main.c        **** /* 
  36:main.c        ****  * How to read from EEPROM (persistent memory):
  37:main.c        ****  * 
  38:main.c        ****  * // read variable:
  39:main.c        ****  * static const uint8 EEPROM_BUF_VAR[len] = { val1, val2, ... };
  40:main.c        ****  * // write variable:
  41:main.c        ****  * volatile const uint8 *ptr = EEPROM_BUF_VAR;
  42:main.c        ****  * 
  43:main.c        ****  * uint8 val1 = *ptr;
  44:main.c        ****  * uint8 buf[4] = { 0x01, 0x02, 0x03, 0x04 };
  45:main.c        ****  * USER_INFO_Write(message, EEPROM_BUF_VAR, 4u); 
  46:main.c        ****  */
  47:main.c        **** 
  48:main.c        **** // global EEPROM read variables
  49:main.c        **** static const uint8 PIN[PIN_LEN] = {0x36, 0x35, 0x34, 0x33, 0x35, 0x34, 0x34, 0x36}; //eCTF
  50:main.c        **** static const uint8 UUID[UUID_LEN] = {0x37, 0x33, 0x36, 0x35, 0x36, 0x33, 0x37, 0x35, 0x37, 0x32, 0x
  51:main.c        **** static const uint8 BANK_AES_KEY[33] = { 0x00 };
  52:main.c        **** 
  53:main.c        **** 
  54:main.c        **** uint8_t hex2byte(char upper_digit, char lower_digit)
  55:main.c        **** {
  56:main.c        ****     uint8_t value = 0;
  57:main.c        ****     
  58:main.c        ****     // Lower nybble.
  59:main.c        ****     if(lower_digit >= '0' && lower_digit <= '9')
  60:main.c        ****     {
  61:main.c        ****         value = lower_digit - '0';
  62:main.c        ****     }
  63:main.c        ****     else if(lower_digit >= 'a' && lower_digit <= 'f')
  64:main.c        ****     {
  65:main.c        ****         value = lower_digit - 'a' + 0xA;
  66:main.c        ****     }
  67:main.c        ****     else if(lower_digit >= 'A' && lower_digit <= 'F')
  68:main.c        ****     {
  69:main.c        ****         value = lower_digit - 'A' + 0xA;
  70:main.c        ****     }
  71:main.c        ****     
  72:main.c        ****     // Upper nybble.
  73:main.c        ****     if(upper_digit >= '0' && upper_digit <= '9')
  74:main.c        ****     {
  75:main.c        ****         value |= (upper_digit - '0') << 4;
  76:main.c        ****     }
  77:main.c        ****     else if(upper_digit >= 'a' && upper_digit <= 'f')
  78:main.c        ****     {
  79:main.c        ****         value |= (upper_digit - 'a' + 0xA) << 4;
  80:main.c        ****     }
  81:main.c        ****     else if(upper_digit >= 'A' && upper_digit <= 'F')
  82:main.c        ****     {
  83:main.c        ****         value |= (upper_digit - 'A' + 0xA) << 4;
  84:main.c        ****     }
  85:main.c        ****     
  86:main.c        ****     // Return result.
  87:main.c        ****     return value;
ARM GAS  C:\Users\Ray\AppData\Local\Temp\ccdfnkDI.s 			page 3


  88:main.c        **** }
  89:main.c        **** 
  90:main.c        **** void bytes2hex(uint8_t byte, char* dest)
  91:main.c        **** {       
  92:main.c        ****     sprintf(dest, "%02X", byte);
  93:main.c        **** }
  94:main.c        **** 
  95:main.c        **** 
  96:main.c        **** // reset interrupt on button press
  97:main.c        **** CY_ISR(Reset_ISR)
  98:main.c        **** {
  28              		.loc 1 98 0
  29              		.cfi_startproc
  30              		@ args = 0, pretend = 0, frame = 0
  31              		@ frame_needed = 0, uses_anonymous_args = 0
  32 0000 10B5     		push	{r4, lr}
  33              		.cfi_def_cfa_offset 8
  34              		.cfi_offset 4, -8
  35              		.cfi_offset 14, -4
  99:main.c        ****     pushMessage((uint8*)"In interrupt\n", strlen("In interrupt\n"));
  36              		.loc 1 99 0
  37 0002 0D21     		movs	r1, #13
  38 0004 0348     		ldr	r0, .L2
  39 0006 FFF7FEFF 		bl	pushMessage
  40              	.LVL0:
 100:main.c        ****     SW1_ClearInterrupt();
 101:main.c        ****     CySoftwareReset();
 102:main.c        **** }
  41              		.loc 1 102 0
  42              		@ sp needed
 100:main.c        ****     SW1_ClearInterrupt();
  43              		.loc 1 100 0
  44 000a FFF7FEFF 		bl	SW1_ClearInterrupt
  45              	.LVL1:
 101:main.c        **** }
  46              		.loc 1 101 0
  47 000e FFF7FEFF 		bl	CySoftwareReset
  48              	.LVL2:
  49              		.loc 1 102 0
  50 0012 10BD     		pop	{r4, pc}
  51              	.L3:
  52              		.align	2
  53              	.L2:
  54 0014 00000000 		.word	.LC0
  55              		.cfi_endproc
  56              	.LFE35:
  57              		.size	Reset_ISR, .-Reset_ISR
  58              		.section	.text.hex2byte,"ax",%progbits
  59              		.align	1
  60              		.global	hex2byte
  61              		.code	16
  62              		.thumb_func
  63              		.type	hex2byte, %function
  64              	hex2byte:
  65              	.LFB33:
  55:main.c        ****     uint8_t value = 0;
  66              		.loc 1 55 0
ARM GAS  C:\Users\Ray\AppData\Local\Temp\ccdfnkDI.s 			page 4


  67              		.cfi_startproc
  68              		@ args = 0, pretend = 0, frame = 0
  69              		@ frame_needed = 0, uses_anonymous_args = 0
  70              		@ link register save eliminated.
  71              	.LVL3:
  55:main.c        ****     uint8_t value = 0;
  72              		.loc 1 55 0
  73 0000 0300     		movs	r3, r0
  59:main.c        ****     {
  74              		.loc 1 59 0
  75 0002 0800     		movs	r0, r1
  76              	.LVL4:
  77 0004 3038     		subs	r0, r0, #48
  78 0006 C0B2     		uxtb	r0, r0
  79 0008 0928     		cmp	r0, #9
  80 000a 0CD9     		bls	.L5
  63:main.c        ****     {
  81              		.loc 1 63 0
  82 000c 0A00     		movs	r2, r1
  83 000e 613A     		subs	r2, r2, #97
  84 0010 052A     		cmp	r2, #5
  85 0012 01D8     		bhi	.L6
  65:main.c        ****     }
  86              		.loc 1 65 0
  87 0014 5739     		subs	r1, r1, #87
  88              	.LVL5:
  89 0016 05E0     		b	.L11
  90              	.LVL6:
  91              	.L6:
  67:main.c        ****     {
  92              		.loc 1 67 0
  93 0018 0A00     		movs	r2, r1
  94 001a 413A     		subs	r2, r2, #65
  56:main.c        ****     
  95              		.loc 1 56 0
  96 001c 0020     		movs	r0, #0
  67:main.c        ****     {
  97              		.loc 1 67 0
  98 001e 052A     		cmp	r2, #5
  99 0020 01D8     		bhi	.L5
  69:main.c        ****     }
 100              		.loc 1 69 0
 101 0022 3739     		subs	r1, r1, #55
 102              	.LVL7:
 103              	.L11:
 104 0024 C8B2     		uxtb	r0, r1
 105              	.LVL8:
 106              	.L5:
  73:main.c        ****     {
 107              		.loc 1 73 0
 108 0026 1A00     		movs	r2, r3
 109 0028 303A     		subs	r2, r2, #48
 110 002a D1B2     		uxtb	r1, r2
 111 002c 0929     		cmp	r1, #9
 112 002e 03D8     		bhi	.L7
  75:main.c        ****     }
 113              		.loc 1 75 0
ARM GAS  C:\Users\Ray\AppData\Local\Temp\ccdfnkDI.s 			page 5


 114 0030 1201     		lsls	r2, r2, #4
 115 0032 0243     		orrs	r2, r0
 116 0034 1100     		movs	r1, r2
 117 0036 07E0     		b	.L12
 118              	.L7:
  77:main.c        ****     {
 119              		.loc 1 77 0
 120 0038 1A00     		movs	r2, r3
 121 003a 613A     		subs	r2, r2, #97
 122 003c 052A     		cmp	r2, #5
 123 003e 05D8     		bhi	.L9
  79:main.c        ****     }
 124              		.loc 1 79 0
 125 0040 573B     		subs	r3, r3, #87
 126 0042 1B01     		lsls	r3, r3, #4
 127 0044 0343     		orrs	r3, r0
 128 0046 1900     		movs	r1, r3
 129              	.L12:
 130 0048 C8B2     		uxtb	r0, r1
 131              	.LVL9:
 132 004a 07E0     		b	.L8
 133              	.L9:
  81:main.c        ****     {
 134              		.loc 1 81 0
 135 004c 1A00     		movs	r2, r3
 136 004e 413A     		subs	r2, r2, #65
 137 0050 052A     		cmp	r2, #5
 138 0052 03D8     		bhi	.L8
  83:main.c        ****     }
 139              		.loc 1 83 0
 140 0054 373B     		subs	r3, r3, #55
 141 0056 1B01     		lsls	r3, r3, #4
 142 0058 1843     		orrs	r0, r3
 143              	.LVL10:
 144 005a C0B2     		uxtb	r0, r0
 145              	.LVL11:
 146              	.L8:
  88:main.c        **** 
 147              		.loc 1 88 0
 148              		@ sp needed
 149 005c 7047     		bx	lr
 150              		.cfi_endproc
 151              	.LFE33:
 152              		.size	hex2byte, .-hex2byte
 153              		.section	.text.bytes2hex,"ax",%progbits
 154              		.align	1
 155              		.global	bytes2hex
 156              		.code	16
 157              		.thumb_func
 158              		.type	bytes2hex, %function
 159              	bytes2hex:
 160              	.LFB34:
  91:main.c        ****     sprintf(dest, "%02X", byte);
 161              		.loc 1 91 0
 162              		.cfi_startproc
 163              		@ args = 0, pretend = 0, frame = 0
 164              		@ frame_needed = 0, uses_anonymous_args = 0
ARM GAS  C:\Users\Ray\AppData\Local\Temp\ccdfnkDI.s 			page 6


 165              	.LVL12:
 166 0000 10B5     		push	{r4, lr}
 167              		.cfi_def_cfa_offset 8
 168              		.cfi_offset 4, -8
 169              		.cfi_offset 14, -4
  91:main.c        ****     sprintf(dest, "%02X", byte);
 170              		.loc 1 91 0
 171 0002 0200     		movs	r2, r0
 172 0004 0800     		movs	r0, r1
 173              	.LVL13:
  92:main.c        **** }
 174              		.loc 1 92 0
 175 0006 0249     		ldr	r1, .L15
 176              	.LVL14:
 177 0008 FFF7FEFF 		bl	sprintf
 178              	.LVL15:
  93:main.c        **** 
 179              		.loc 1 93 0
 180              		@ sp needed
 181 000c 10BD     		pop	{r4, pc}
 182              	.L16:
 183 000e C046     		.align	2
 184              	.L15:
 185 0010 0E000000 		.word	.LC2
 186              		.cfi_endproc
 187              	.LFE34:
 188              		.size	bytes2hex, .-bytes2hex
 189              		.section	.text.provision,"ax",%progbits
 190              		.align	1
 191              		.global	provision
 192              		.code	16
 193              		.thumb_func
 194              		.type	provision, %function
 195              	provision:
 196              	.LFB36:
 103:main.c        **** 
 104:main.c        **** // provisions card (should only ever be called once)
 105:main.c        **** void provision()
 106:main.c        **** {
 197              		.loc 1 106 0
 198              		.cfi_startproc
 199              		@ args = 0, pretend = 0, frame = 208
 200              		@ frame_needed = 0, uses_anonymous_args = 0
 201 0000 30B5     		push	{r4, r5, lr}
 202              		.cfi_def_cfa_offset 12
 203              		.cfi_offset 4, -12
 204              		.cfi_offset 5, -8
 205              		.cfi_offset 14, -4
 206 0002 B5B0     		sub	sp, sp, #212
 207              		.cfi_def_cfa_offset 224
 107:main.c        ****     uint8 message[109] = {0x00};
 208              		.loc 1 107 0
 209 0004 6D22     		movs	r2, #109
 210 0006 0021     		movs	r1, #0
 211 0008 18A8     		add	r0, sp, #96
 212 000a FFF7FEFF 		bl	memset
 213              	.LVL16:
ARM GAS  C:\Users\Ray\AppData\Local\Temp\ccdfnkDI.s 			page 7


 108:main.c        ****     
 109:main.c        ****     // synchronize with bank
 110:main.c        ****     syncConnection(SYNC_PROV);
 214              		.loc 1 110 0
 215 000e 0120     		movs	r0, #1
 216 0010 FFF7FEFF 		bl	syncConnection
 217              	.LVL17:
 111:main.c        ****  
 112:main.c        ****     pushMessage((uint8*)PROV_MSG, (uint8)strlen(PROV_MSG));
 218              		.loc 1 112 0
 219 0014 0121     		movs	r1, #1
 220 0016 1548     		ldr	r0, .L20
 221 0018 FFF7FEFF 		bl	pushMessage
 222              	.LVL18:
 113:main.c        **** 
 114:main.c        ****     // set account number
 115:main.c        ****     pullMessage(message);
 116:main.c        ****     char hex_bank_key[64];
 117:main.c        ****     memcpy(hex_bank_key, message, sizeof(hex_bank_key));
 223              		.loc 1 117 0
 224 001c 08AD     		add	r5, sp, #32
 115:main.c        ****     char hex_bank_key[64];
 225              		.loc 1 115 0
 226 001e 18A8     		add	r0, sp, #96
 227 0020 FFF7FEFF 		bl	pullMessage
 228              	.LVL19:
 229              		.loc 1 117 0
 230 0024 4022     		movs	r2, #64
 231 0026 18A9     		add	r1, sp, #96
 232 0028 2800     		movs	r0, r5
 233 002a FFF7FEFF 		bl	memcpy
 234              	.LVL20:
 235              	.LBB2:
 118:main.c        **** 
 119:main.c        ****     uint8_t bank_key[32];
 120:main.c        **** 
 121:main.c        ****     for(int i = 0; i < 32; ++i)
 236              		.loc 1 121 0
 237 002e 0024     		movs	r4, #0
 238              	.LVL21:
 239              	.L18:
 240 0030 6300     		lsls	r3, r4, #1
 122:main.c        ****     {
 123:main.c        ****         bank_key[i] = hex2byte(hex_bank_key[2*i], hex_bank_key[2*i + 1]);
 241              		.loc 1 123 0 discriminator 3
 242 0032 EA18     		adds	r2, r5, r3
 243 0034 E85C     		ldrb	r0, [r5, r3]
 244 0036 5178     		ldrb	r1, [r2, #1]
 245 0038 FFF7FEFF 		bl	hex2byte
 246              	.LVL22:
 247 003c 6B46     		mov	r3, sp
 248 003e E054     		strb	r0, [r4, r3]
 121:main.c        ****     {
 249              		.loc 1 121 0 discriminator 3
 250 0040 0134     		adds	r4, r4, #1
 251              	.LVL23:
 252 0042 202C     		cmp	r4, #32
ARM GAS  C:\Users\Ray\AppData\Local\Temp\ccdfnkDI.s 			page 8


 253 0044 F4D1     		bne	.L18
 254              	.LBE2:
 124:main.c        ****     }
 125:main.c        **** 
 126:main.c        ****     USER_INFO_Write(bank_key, BANK_AES_KEY, sizeof(bank_key));
 255              		.loc 1 126 0
 256 0046 0A4D     		ldr	r5, .L20+4
 257 0048 2200     		movs	r2, r4
 258 004a 2900     		movs	r1, r5
 259 004c 6846     		mov	r0, sp
 260 004e FFF7FEFF 		bl	USER_INFO_Write
 261              	.LVL24:
 127:main.c        ****     USER_INFO_Write(message + sizeof(hex_bank_key), UUID, UUID_LEN);
 262              		.loc 1 127 0
 263 0052 2900     		movs	r1, r5
 264 0054 2422     		movs	r2, #36
 265 0056 2131     		adds	r1, r1, #33
 266 0058 28A8     		add	r0, sp, #160
 267 005a FFF7FEFF 		bl	USER_INFO_Write
 268              	.LVL25:
 128:main.c        **** 
 129:main.c        ****     pushMessage((uint8*)RECV_OK, strlen(RECV_OK));
 269              		.loc 1 129 0
 270 005e 0121     		movs	r1, #1
 271 0060 0448     		ldr	r0, .L20+8
 272 0062 FFF7FEFF 		bl	pushMessage
 273              	.LVL26:
 130:main.c        **** }
 274              		.loc 1 130 0
 275 0066 35B0     		add	sp, sp, #212
 276              		@ sp needed
 277              	.LVL27:
 278 0068 30BD     		pop	{r4, r5, pc}
 279              	.L21:
 280 006a C046     		.align	2
 281              	.L20:
 282 006c 13000000 		.word	.LC6
 283 0070 00000000 		.word	.LANCHOR0
 284 0074 15000000 		.word	.LC9
 285              		.cfi_endproc
 286              	.LFE36:
 287              		.size	provision, .-provision
 288              		.section	.text.startup.main,"ax",%progbits
 289              		.align	1
 290              		.global	main
 291              		.code	16
 292              		.thumb_func
 293              		.type	main, %function
 294              	main:
 295              	.LFB37:
 131:main.c        **** 
 132:main.c        **** 
 133:main.c        **** int main(void)
 134:main.c        **** {
 296              		.loc 1 134 0
 297              		.cfi_startproc
 298              		@ args = 0, pretend = 0, frame = 208
ARM GAS  C:\Users\Ray\AppData\Local\Temp\ccdfnkDI.s 			page 9


 299              		@ frame_needed = 0, uses_anonymous_args = 0
 300 0000 70B5     		push	{r4, r5, r6, lr}
 301              		.cfi_def_cfa_offset 16
 302              		.cfi_offset 4, -16
 303              		.cfi_offset 5, -12
 304              		.cfi_offset 6, -8
 305              		.cfi_offset 14, -4
 306 0002 B6B0     		sub	sp, sp, #216
 307              		.cfi_def_cfa_offset 232
 135:main.c        ****     // enable global interrupts -- DO NOT DELETE
 136:main.c        ****     CyGlobalIntEnable;
 308              		.loc 1 136 0
 309              		.syntax divided
 310              	@ 136 "main.c" 1
 311 0004 62B6     		CPSIE   i
 312              	@ 0 "" 2
 137:main.c        ****     
 138:main.c        ****     // start reset button
 139:main.c        ****     Reset_isr_StartEx(Reset_ISR);
 313              		.loc 1 139 0
 314              		.thumb
 315              		.syntax unified
 316 0006 2448     		ldr	r0, .L28
 317 0008 FFF7FEFF 		bl	Reset_isr_StartEx
 318              	.LVL28:
 140:main.c        ****     
 141:main.c        ****     /* Declare vairables here */
 142:main.c        ****     uint8 i;
 143:main.c        ****     uint8 message[128];
 144:main.c        ****     
 145:main.c        ****     // local EEPROM read variable
 146:main.c        ****     static const uint8 PROVISIONED[1] = {0x00};
 147:main.c        ****     
 148:main.c        ****     // EEPROM write variable
 149:main.c        ****     volatile const uint8 *ptr = PROVISIONED;
 150:main.c        ****     
 151:main.c        ****     /* Place your initialization/startup code here (e.g. MyInst_Start()) */
 152:main.c        ****     USER_INFO_Start();
 319              		.loc 1 152 0
 320 000c FFF7FEFF 		bl	USER_INFO_Start
 321              	.LVL29:
 153:main.c        ****     USB_UART_Start();
 322              		.loc 1 153 0
 323 0010 FFF7FEFF 		bl	USB_UART_Start
 324              	.LVL30:
 154:main.c        ****     
 155:main.c        ****     // Provision card if on first boot
 156:main.c        ****     // ptr = PROVISIONED;
 157:main.c        ****     if (*ptr == 0x00) {
 325              		.loc 1 157 0
 326 0014 214C     		ldr	r4, .L28+4
 327 0016 2500     		movs	r5, r4
 328 0018 4535     		adds	r5, r5, #69
 329 001a 2B78     		ldrb	r3, [r5]
 330 001c 002B     		cmp	r3, #0
 331 001e 08D1     		bne	.L23
 158:main.c        ****         provision();
ARM GAS  C:\Users\Ray\AppData\Local\Temp\ccdfnkDI.s 			page 10


 332              		.loc 1 158 0
 333 0020 FFF7FEFF 		bl	provision
 334              	.LVL31:
 159:main.c        ****         
 160:main.c        ****         // Mark as provisioned
 161:main.c        ****         i = 0x01;
 335              		.loc 1 161 0
 336 0024 0B20     		movs	r0, #11
 337 0026 0122     		movs	r2, #1
 338 0028 6844     		add	r0, r0, sp
 162:main.c        ****         USER_INFO_Write(&i,PROVISIONED, 1u);
 339              		.loc 1 162 0
 340 002a 2900     		movs	r1, r5
 161:main.c        ****         USER_INFO_Write(&i,PROVISIONED, 1u);
 341              		.loc 1 161 0
 342 002c 0270     		strb	r2, [r0]
 343              		.loc 1 162 0
 344 002e FFF7FEFF 		bl	USER_INFO_Write
 345              	.LVL32:
 346              	.L23:
 347              	.LBB3:
 163:main.c        ****     }
 164:main.c        **** 
 165:main.c        ****     // USB_UART_UartPutString("Provisioned!\r\n");
 166:main.c        ****     
 167:main.c        ****     // Go into infinite loop
 168:main.c        ****     while (1) {
 169:main.c        ****                /* Place your application code here. */
 170:main.c        ****         
 171:main.c        ****         // syncronize communication with bank
 172:main.c        ****         syncConnection(SYNC_NORM);
 173:main.c        **** 
 174:main.c        ****         // get command
 175:main.c        ****         pullMessage(message);
 176:main.c        ****         pushMessage((uint8*)RECV_OK, strlen(RECV_OK));
 177:main.c        **** 
 178:main.c        ****         if (message[0] == GET_UUID) {
 179:main.c        ****             pushMessage(UUID, UUID_LEN);
 180:main.c        ****         } else if (message[0] == COMPUTE_HMAC) {
 181:main.c        ****             // receive challenge nonce from ATM
 182:main.c        ****             uint8_t nonce[4];
 183:main.c        ****             pullMessage(message);
 184:main.c        ****             memcpy(nonce, message, sizeof(nonce));
 185:main.c        ****             pushMessage((uint8*)NONCE_OK, strlen(NONCE_OK));
 186:main.c        **** 
 187:main.c        ****             //Send HMAC
 188:main.c        ****             uint8_t hmac_output[32];
 189:main.c        ****             uint8_t hmac_data[40];
 190:main.c        **** 
 191:main.c        ****             memcpy(hmac_data, UUID, UUID_LEN);
 192:main.c        ****             memcpy(hmac_data + UUID_LEN, nonce, sizeof(nonce));
 193:main.c        **** 
 194:main.c        ****             HMAC(hmac_output, BANK_AES_KEY, 32, hmac_data, sizeof(hmac_data));
 348              		.loc 1 194 0
 349 0032 2826     		movs	r6, #40
 350              	.L24:
 351              	.LBE3:
ARM GAS  C:\Users\Ray\AppData\Local\Temp\ccdfnkDI.s 			page 11


 172:main.c        **** 
 352              		.loc 1 172 0
 353 0034 0020     		movs	r0, #0
 175:main.c        ****         pushMessage((uint8*)RECV_OK, strlen(RECV_OK));
 354              		.loc 1 175 0
 355 0036 16AD     		add	r5, sp, #88
 172:main.c        **** 
 356              		.loc 1 172 0
 357 0038 FFF7FEFF 		bl	syncConnection
 358              	.LVL33:
 175:main.c        ****         pushMessage((uint8*)RECV_OK, strlen(RECV_OK));
 359              		.loc 1 175 0
 360 003c 2800     		movs	r0, r5
 361 003e FFF7FEFF 		bl	pullMessage
 362              	.LVL34:
 176:main.c        **** 
 363              		.loc 1 176 0
 364 0042 0121     		movs	r1, #1
 365 0044 1648     		ldr	r0, .L28+8
 366 0046 FFF7FEFF 		bl	pushMessage
 367              	.LVL35:
 178:main.c        ****             pushMessage(UUID, UUID_LEN);
 368              		.loc 1 178 0
 369 004a 2B78     		ldrb	r3, [r5]
 370 004c 332B     		cmp	r3, #51
 371 004e 03D1     		bne	.L25
 179:main.c        ****         } else if (message[0] == COMPUTE_HMAC) {
 372              		.loc 1 179 0
 373 0050 2000     		movs	r0, r4
 374 0052 2421     		movs	r1, #36
 375 0054 2130     		adds	r0, r0, #33
 376 0056 1BE0     		b	.L27
 377              	.L25:
 180:main.c        ****             // receive challenge nonce from ATM
 378              		.loc 1 180 0
 379 0058 322B     		cmp	r3, #50
 380 005a EBD1     		bne	.L24
 381              	.LBB4:
 183:main.c        ****             memcpy(nonce, message, sizeof(nonce));
 382              		.loc 1 183 0
 383 005c 2800     		movs	r0, r5
 384 005e FFF7FEFF 		bl	pullMessage
 385              	.LVL36:
 184:main.c        ****             pushMessage((uint8*)NONCE_OK, strlen(NONCE_OK));
 386              		.loc 1 184 0
 387 0062 2B68     		ldr	r3, [r5]
 185:main.c        **** 
 388              		.loc 1 185 0
 389 0064 0221     		movs	r1, #2
 390 0066 0F48     		ldr	r0, .L28+12
 184:main.c        ****             pushMessage((uint8*)NONCE_OK, strlen(NONCE_OK));
 391              		.loc 1 184 0
 392 0068 0393     		str	r3, [sp, #12]
 185:main.c        **** 
 393              		.loc 1 185 0
 394 006a FFF7FEFF 		bl	pushMessage
 395              	.LVL37:
ARM GAS  C:\Users\Ray\AppData\Local\Temp\ccdfnkDI.s 			page 12


 191:main.c        ****             memcpy(hmac_data + UUID_LEN, nonce, sizeof(nonce));
 396              		.loc 1 191 0
 397 006e 2100     		movs	r1, r4
 398 0070 2422     		movs	r2, #36
 399 0072 2131     		adds	r1, r1, #33
 400 0074 0CA8     		add	r0, sp, #48
 401 0076 FFF7FEFF 		bl	memcpy
 402              	.LVL38:
 192:main.c        **** 
 403              		.loc 1 192 0
 404 007a 039B     		ldr	r3, [sp, #12]
 405              		.loc 1 194 0
 406 007c 2100     		movs	r1, r4
 192:main.c        **** 
 407              		.loc 1 192 0
 408 007e 1593     		str	r3, [sp, #84]
 409              		.loc 1 194 0
 410 0080 04A8     		add	r0, sp, #16
 411 0082 0096     		str	r6, [sp]
 412 0084 0CAB     		add	r3, sp, #48
 413 0086 2022     		movs	r2, #32
 414 0088 FFF7FEFF 		bl	HMAC
 415              	.LVL39:
 195:main.c        **** 
 196:main.c        ****             pushMessage(hmac_output, sizeof(hmac_output));
 416              		.loc 1 196 0
 417 008c 2021     		movs	r1, #32
 418 008e 04A8     		add	r0, sp, #16
 419              	.L27:
 420 0090 FFF7FEFF 		bl	pushMessage
 421              	.LVL40:
 422 0094 CEE7     		b	.L24
 423              	.L29:
 424 0096 C046     		.align	2
 425              	.L28:
 426 0098 00000000 		.word	Reset_ISR
 427 009c 00000000 		.word	.LANCHOR0
 428 00a0 15000000 		.word	.LC9
 429 00a4 17000000 		.word	.LC15
 430              	.LBE4:
 431              		.cfi_endproc
 432              	.LFE37:
 433              		.size	main, .-main
 434              		.section	.rodata
 435              		.set	.LANCHOR0,. + 0
 436              		.type	BANK_AES_KEY, %object
 437              		.size	BANK_AES_KEY, 33
 438              	BANK_AES_KEY:
 439 0000 00000000 		.space	33
 439      00000000 
 439      00000000 
 439      00000000 
 439      00000000 
 440              		.type	UUID, %object
 441              		.size	UUID, 36
 442              	UUID:
 443 0021 37       		.byte	55
ARM GAS  C:\Users\Ray\AppData\Local\Temp\ccdfnkDI.s 			page 13


 444 0022 33       		.byte	51
 445 0023 36       		.byte	54
 446 0024 35       		.byte	53
 447 0025 36       		.byte	54
 448 0026 33       		.byte	51
 449 0027 37       		.byte	55
 450 0028 35       		.byte	53
 451 0029 37       		.byte	55
 452 002a 32       		.byte	50
 453 002b 36       		.byte	54
 454 002c 39       		.byte	57
 455 002d 37       		.byte	55
 456 002e 34       		.byte	52
 457 002f 37       		.byte	55
 458 0030 39       		.byte	57
 459 0031 00000000 		.space	20
 459      00000000 
 459      00000000 
 459      00000000 
 459      00000000 
 460              		.type	PROVISIONED.6667, %object
 461              		.size	PROVISIONED.6667, 1
 462              	PROVISIONED.6667:
 463 0045 00       		.space	1
 464              		.section	.rodata.str1.1,"aMS",%progbits,1
 465              	.LC0:
 466 0000 496E2069 		.ascii	"In interrupt\012\000"
 466      6E746572 
 466      72757074 
 466      0A00
 467              	.LC2:
 468 000e 25303258 		.ascii	"%02X\000"
 468      00
 469              	.LC6:
 470 0013 5000     		.ascii	"P\000"
 471              	.LC9:
 472 0015 4B00     		.ascii	"K\000"
 473              	.LC15:
 474 0017 4F4B00   		.ascii	"OK\000"
 475              		.text
 476              	.Letext0:
 477              		.file 2 "c:\\program files (x86)\\cypress\\psoc creator\\4.1\\psoc creator\\import\\gnu\\arm\\5.4.
 478              		.file 3 "c:\\program files (x86)\\cypress\\psoc creator\\4.1\\psoc creator\\import\\gnu\\arm\\5.4.
 479              		.file 4 "Generated_Source\\PSoC4/cytypes.h"
 480              		.file 5 "usbserialprotocol.h"
 481              		.file 6 "Generated_Source\\PSoC4/SW1.h"
 482              		.file 7 "Generated_Source\\PSoC4/CyLib.h"
 483              		.file 8 "c:\\program files (x86)\\cypress\\psoc creator\\4.1\\psoc creator\\import\\gnu\\arm\\5.4.
 484              		.file 9 "Generated_Source\\PSoC4/USER_INFO.h"
 485              		.file 10 "..\\strong-arm.cylib\\strong-arm\\include/strong-arm/hmac.h"
 486              		.file 11 "Generated_Source\\PSoC4/Reset_isr.h"
 487              		.file 12 "Generated_Source\\PSoC4/USB_UART.h"