ARM GAS  C:\Users\Ray\AppData\Local\Temp\ccJcGBXj.s 			page 1


   1              		.syntax unified
   2              		.cpu cortex-m0
   3              		.fpu softvfp
   4              		.eabi_attribute 20, 1
   5              		.eabi_attribute 21, 1
   6              		.eabi_attribute 23, 3
   7              		.eabi_attribute 24, 1
   8              		.eabi_attribute 25, 1
   9              		.eabi_attribute 26, 1
  10              		.eabi_attribute 30, 4
  11              		.eabi_attribute 34, 0
  12              		.eabi_attribute 18, 4
  13              		.thumb
  14              		.syntax unified
  15              		.file	"USB_UART_UART.c"
  16              		.text
  17              	.Ltext0:
  18              		.cfi_sections	.debug_frame
  19              		.section	.text.USB_UART_UartInit,"ax",%progbits
  20              		.align	1
  21              		.global	USB_UART_UartInit
  22              		.code	16
  23              		.thumb_func
  24              		.type	USB_UART_UartInit, %function
  25              	USB_UART_UartInit:
  26              	.LFB0:
  27              		.file 1 "Generated_Source\\PSoC4\\USB_UART_UART.c"
   1:Generated_Source\PSoC4/USB_UART_UART.c **** /***************************************************************************//**
   2:Generated_Source\PSoC4/USB_UART_UART.c **** * \file USB_UART_UART.c
   3:Generated_Source\PSoC4/USB_UART_UART.c **** * \version 4.0
   4:Generated_Source\PSoC4/USB_UART_UART.c **** *
   5:Generated_Source\PSoC4/USB_UART_UART.c **** * \brief
   6:Generated_Source\PSoC4/USB_UART_UART.c **** *  This file provides the source code to the API for the SCB Component in
   7:Generated_Source\PSoC4/USB_UART_UART.c **** *  UART mode.
   8:Generated_Source\PSoC4/USB_UART_UART.c **** *
   9:Generated_Source\PSoC4/USB_UART_UART.c **** * Note:
  10:Generated_Source\PSoC4/USB_UART_UART.c **** *
  11:Generated_Source\PSoC4/USB_UART_UART.c **** *******************************************************************************
  12:Generated_Source\PSoC4/USB_UART_UART.c **** * \copyright
  13:Generated_Source\PSoC4/USB_UART_UART.c **** * Copyright 2013-2017, Cypress Semiconductor Corporation.  All rights reserved.
  14:Generated_Source\PSoC4/USB_UART_UART.c **** * You may use this file only in accordance with the license, terms, conditions,
  15:Generated_Source\PSoC4/USB_UART_UART.c **** * disclaimers, and limitations in the end user license agreement accompanying
  16:Generated_Source\PSoC4/USB_UART_UART.c **** * the software package with which this file was provided.
  17:Generated_Source\PSoC4/USB_UART_UART.c **** *******************************************************************************/
  18:Generated_Source\PSoC4/USB_UART_UART.c **** 
  19:Generated_Source\PSoC4/USB_UART_UART.c **** #include "USB_UART_PVT.h"
  20:Generated_Source\PSoC4/USB_UART_UART.c **** #include "USB_UART_SPI_UART_PVT.h"
  21:Generated_Source\PSoC4/USB_UART_UART.c **** #include "cyapicallbacks.h"
  22:Generated_Source\PSoC4/USB_UART_UART.c **** 
  23:Generated_Source\PSoC4/USB_UART_UART.c **** #if (USB_UART_UART_WAKE_ENABLE_CONST && USB_UART_UART_RX_WAKEUP_IRQ)
  24:Generated_Source\PSoC4/USB_UART_UART.c ****     /**
  25:Generated_Source\PSoC4/USB_UART_UART.c ****     * \addtogroup group_globals
  26:Generated_Source\PSoC4/USB_UART_UART.c ****     * \{
  27:Generated_Source\PSoC4/USB_UART_UART.c ****     */
  28:Generated_Source\PSoC4/USB_UART_UART.c ****     /** This global variable determines whether to enable Skip Start
  29:Generated_Source\PSoC4/USB_UART_UART.c ****     * functionality when USB_UART_Sleep() function is called:
  30:Generated_Source\PSoC4/USB_UART_UART.c ****     * 0 – disable, other values – enable. Default value is 1.
ARM GAS  C:\Users\Ray\AppData\Local\Temp\ccJcGBXj.s 			page 2


  31:Generated_Source\PSoC4/USB_UART_UART.c ****     * It is only available when Enable wakeup from Deep Sleep Mode is enabled.
  32:Generated_Source\PSoC4/USB_UART_UART.c ****     */
  33:Generated_Source\PSoC4/USB_UART_UART.c ****     uint8 USB_UART_skipStart = 1u;
  34:Generated_Source\PSoC4/USB_UART_UART.c ****     /** \} globals */
  35:Generated_Source\PSoC4/USB_UART_UART.c **** #endif /* (USB_UART_UART_WAKE_ENABLE_CONST && USB_UART_UART_RX_WAKEUP_IRQ) */
  36:Generated_Source\PSoC4/USB_UART_UART.c **** 
  37:Generated_Source\PSoC4/USB_UART_UART.c **** #if(USB_UART_SCB_MODE_UNCONFIG_CONST_CFG)
  38:Generated_Source\PSoC4/USB_UART_UART.c **** 
  39:Generated_Source\PSoC4/USB_UART_UART.c ****     /***************************************
  40:Generated_Source\PSoC4/USB_UART_UART.c ****     *  Configuration Structure Initialization
  41:Generated_Source\PSoC4/USB_UART_UART.c ****     ***************************************/
  42:Generated_Source\PSoC4/USB_UART_UART.c **** 
  43:Generated_Source\PSoC4/USB_UART_UART.c ****     const USB_UART_UART_INIT_STRUCT USB_UART_configUart =
  44:Generated_Source\PSoC4/USB_UART_UART.c ****     {
  45:Generated_Source\PSoC4/USB_UART_UART.c ****         USB_UART_UART_SUB_MODE,
  46:Generated_Source\PSoC4/USB_UART_UART.c ****         USB_UART_UART_DIRECTION,
  47:Generated_Source\PSoC4/USB_UART_UART.c ****         USB_UART_UART_DATA_BITS_NUM,
  48:Generated_Source\PSoC4/USB_UART_UART.c ****         USB_UART_UART_PARITY_TYPE,
  49:Generated_Source\PSoC4/USB_UART_UART.c ****         USB_UART_UART_STOP_BITS_NUM,
  50:Generated_Source\PSoC4/USB_UART_UART.c ****         USB_UART_UART_OVS_FACTOR,
  51:Generated_Source\PSoC4/USB_UART_UART.c ****         USB_UART_UART_IRDA_LOW_POWER,
  52:Generated_Source\PSoC4/USB_UART_UART.c ****         USB_UART_UART_MEDIAN_FILTER_ENABLE,
  53:Generated_Source\PSoC4/USB_UART_UART.c ****         USB_UART_UART_RETRY_ON_NACK,
  54:Generated_Source\PSoC4/USB_UART_UART.c ****         USB_UART_UART_IRDA_POLARITY,
  55:Generated_Source\PSoC4/USB_UART_UART.c ****         USB_UART_UART_DROP_ON_PARITY_ERR,
  56:Generated_Source\PSoC4/USB_UART_UART.c ****         USB_UART_UART_DROP_ON_FRAME_ERR,
  57:Generated_Source\PSoC4/USB_UART_UART.c ****         USB_UART_UART_WAKE_ENABLE,
  58:Generated_Source\PSoC4/USB_UART_UART.c ****         0u,
  59:Generated_Source\PSoC4/USB_UART_UART.c ****         NULL,
  60:Generated_Source\PSoC4/USB_UART_UART.c ****         0u,
  61:Generated_Source\PSoC4/USB_UART_UART.c ****         NULL,
  62:Generated_Source\PSoC4/USB_UART_UART.c ****         USB_UART_UART_MP_MODE_ENABLE,
  63:Generated_Source\PSoC4/USB_UART_UART.c ****         USB_UART_UART_MP_ACCEPT_ADDRESS,
  64:Generated_Source\PSoC4/USB_UART_UART.c ****         USB_UART_UART_MP_RX_ADDRESS,
  65:Generated_Source\PSoC4/USB_UART_UART.c ****         USB_UART_UART_MP_RX_ADDRESS_MASK,
  66:Generated_Source\PSoC4/USB_UART_UART.c ****         (uint32) USB_UART_SCB_IRQ_INTERNAL,
  67:Generated_Source\PSoC4/USB_UART_UART.c ****         USB_UART_UART_INTR_RX_MASK,
  68:Generated_Source\PSoC4/USB_UART_UART.c ****         USB_UART_UART_RX_TRIGGER_LEVEL,
  69:Generated_Source\PSoC4/USB_UART_UART.c ****         USB_UART_UART_INTR_TX_MASK,
  70:Generated_Source\PSoC4/USB_UART_UART.c ****         USB_UART_UART_TX_TRIGGER_LEVEL,
  71:Generated_Source\PSoC4/USB_UART_UART.c ****         (uint8) USB_UART_UART_BYTE_MODE_ENABLE,
  72:Generated_Source\PSoC4/USB_UART_UART.c ****         (uint8) USB_UART_UART_CTS_ENABLE,
  73:Generated_Source\PSoC4/USB_UART_UART.c ****         (uint8) USB_UART_UART_CTS_POLARITY,
  74:Generated_Source\PSoC4/USB_UART_UART.c ****         (uint8) USB_UART_UART_RTS_POLARITY,
  75:Generated_Source\PSoC4/USB_UART_UART.c ****         (uint8) USB_UART_UART_RTS_FIFO_LEVEL,
  76:Generated_Source\PSoC4/USB_UART_UART.c ****         (uint8) USB_UART_UART_RX_BREAK_WIDTH
  77:Generated_Source\PSoC4/USB_UART_UART.c ****     };
  78:Generated_Source\PSoC4/USB_UART_UART.c **** 
  79:Generated_Source\PSoC4/USB_UART_UART.c **** 
  80:Generated_Source\PSoC4/USB_UART_UART.c ****     /*******************************************************************************
  81:Generated_Source\PSoC4/USB_UART_UART.c ****     * Function Name: USB_UART_UartInit
  82:Generated_Source\PSoC4/USB_UART_UART.c ****     ****************************************************************************//**
  83:Generated_Source\PSoC4/USB_UART_UART.c ****     *
  84:Generated_Source\PSoC4/USB_UART_UART.c ****     *  Configures the USB_UART for UART operation.
  85:Generated_Source\PSoC4/USB_UART_UART.c ****     *
  86:Generated_Source\PSoC4/USB_UART_UART.c ****     *  This function is intended specifically to be used when the USB_UART
  87:Generated_Source\PSoC4/USB_UART_UART.c ****     *  configuration is set to “Unconfigured USB_UART” in the customizer.
ARM GAS  C:\Users\Ray\AppData\Local\Temp\ccJcGBXj.s 			page 3


  88:Generated_Source\PSoC4/USB_UART_UART.c ****     *  After initializing the USB_UART in UART mode using this function,
  89:Generated_Source\PSoC4/USB_UART_UART.c ****     *  the component can be enabled using the USB_UART_Start() or
  90:Generated_Source\PSoC4/USB_UART_UART.c ****     * USB_UART_Enable() function.
  91:Generated_Source\PSoC4/USB_UART_UART.c ****     *  This function uses a pointer to a structure that provides the configuration
  92:Generated_Source\PSoC4/USB_UART_UART.c ****     *  settings. This structure contains the same information that would otherwise
  93:Generated_Source\PSoC4/USB_UART_UART.c ****     *  be provided by the customizer settings.
  94:Generated_Source\PSoC4/USB_UART_UART.c ****     *
  95:Generated_Source\PSoC4/USB_UART_UART.c ****     *  \param config: pointer to a structure that contains the following list of
  96:Generated_Source\PSoC4/USB_UART_UART.c ****     *   fields. These fields match the selections available in the customizer.
  97:Generated_Source\PSoC4/USB_UART_UART.c ****     *   Refer to the customizer for further description of the settings.
  98:Generated_Source\PSoC4/USB_UART_UART.c ****     *
  99:Generated_Source\PSoC4/USB_UART_UART.c ****     *******************************************************************************/
 100:Generated_Source\PSoC4/USB_UART_UART.c ****     void USB_UART_UartInit(const USB_UART_UART_INIT_STRUCT *config)
 101:Generated_Source\PSoC4/USB_UART_UART.c ****     {
 102:Generated_Source\PSoC4/USB_UART_UART.c ****         uint32 pinsConfig;
 103:Generated_Source\PSoC4/USB_UART_UART.c **** 
 104:Generated_Source\PSoC4/USB_UART_UART.c ****         if (NULL == config)
 105:Generated_Source\PSoC4/USB_UART_UART.c ****         {
 106:Generated_Source\PSoC4/USB_UART_UART.c ****             CYASSERT(0u != 0u); /* Halt execution due to bad function parameter */
 107:Generated_Source\PSoC4/USB_UART_UART.c ****         }
 108:Generated_Source\PSoC4/USB_UART_UART.c ****         else
 109:Generated_Source\PSoC4/USB_UART_UART.c ****         {
 110:Generated_Source\PSoC4/USB_UART_UART.c ****             /* Get direction to configure UART pins: TX, RX or TX+RX */
 111:Generated_Source\PSoC4/USB_UART_UART.c ****             pinsConfig  = config->direction;
 112:Generated_Source\PSoC4/USB_UART_UART.c **** 
 113:Generated_Source\PSoC4/USB_UART_UART.c ****         #if !(USB_UART_CY_SCBIP_V0 || USB_UART_CY_SCBIP_V1)
 114:Generated_Source\PSoC4/USB_UART_UART.c ****             /* Add RTS and CTS pins to configure */
 115:Generated_Source\PSoC4/USB_UART_UART.c ****             pinsConfig |= (0u != config->rtsRxFifoLevel) ? (USB_UART_UART_RTS_PIN_ENABLE) : (0u);
 116:Generated_Source\PSoC4/USB_UART_UART.c ****             pinsConfig |= (0u != config->enableCts)      ? (USB_UART_UART_CTS_PIN_ENABLE) : (0u);
 117:Generated_Source\PSoC4/USB_UART_UART.c ****         #endif /* !(USB_UART_CY_SCBIP_V0 || USB_UART_CY_SCBIP_V1) */
 118:Generated_Source\PSoC4/USB_UART_UART.c **** 
 119:Generated_Source\PSoC4/USB_UART_UART.c ****             /* Configure pins */
 120:Generated_Source\PSoC4/USB_UART_UART.c ****             USB_UART_SetPins(USB_UART_SCB_MODE_UART, config->mode, pinsConfig);
 121:Generated_Source\PSoC4/USB_UART_UART.c **** 
 122:Generated_Source\PSoC4/USB_UART_UART.c ****             /* Store internal configuration */
 123:Generated_Source\PSoC4/USB_UART_UART.c ****             USB_UART_scbMode       = (uint8) USB_UART_SCB_MODE_UART;
 124:Generated_Source\PSoC4/USB_UART_UART.c ****             USB_UART_scbEnableWake = (uint8) config->enableWake;
 125:Generated_Source\PSoC4/USB_UART_UART.c ****             USB_UART_scbEnableIntr = (uint8) config->enableInterrupt;
 126:Generated_Source\PSoC4/USB_UART_UART.c **** 
 127:Generated_Source\PSoC4/USB_UART_UART.c ****             /* Set RX direction internal variables */
 128:Generated_Source\PSoC4/USB_UART_UART.c ****             USB_UART_rxBuffer      =         config->rxBuffer;
 129:Generated_Source\PSoC4/USB_UART_UART.c ****             USB_UART_rxDataBits    = (uint8) config->dataBits;
 130:Generated_Source\PSoC4/USB_UART_UART.c ****             USB_UART_rxBufferSize  =         config->rxBufferSize;
 131:Generated_Source\PSoC4/USB_UART_UART.c **** 
 132:Generated_Source\PSoC4/USB_UART_UART.c ****             /* Set TX direction internal variables */
 133:Generated_Source\PSoC4/USB_UART_UART.c ****             USB_UART_txBuffer      =         config->txBuffer;
 134:Generated_Source\PSoC4/USB_UART_UART.c ****             USB_UART_txDataBits    = (uint8) config->dataBits;
 135:Generated_Source\PSoC4/USB_UART_UART.c ****             USB_UART_txBufferSize  =         config->txBufferSize;
 136:Generated_Source\PSoC4/USB_UART_UART.c **** 
 137:Generated_Source\PSoC4/USB_UART_UART.c ****             /* Configure UART interface */
 138:Generated_Source\PSoC4/USB_UART_UART.c ****             if(USB_UART_UART_MODE_IRDA == config->mode)
 139:Generated_Source\PSoC4/USB_UART_UART.c ****             {
 140:Generated_Source\PSoC4/USB_UART_UART.c ****                 /* OVS settings: IrDA */
 141:Generated_Source\PSoC4/USB_UART_UART.c ****                 USB_UART_CTRL_REG  = ((0u != config->enableIrdaLowPower) ?
 142:Generated_Source\PSoC4/USB_UART_UART.c ****                                                 (USB_UART_UART_GET_CTRL_OVS_IRDA_LP(config->oversam
 143:Generated_Source\PSoC4/USB_UART_UART.c ****                                                 (USB_UART_CTRL_OVS_IRDA_OVS16));
 144:Generated_Source\PSoC4/USB_UART_UART.c ****             }
ARM GAS  C:\Users\Ray\AppData\Local\Temp\ccJcGBXj.s 			page 4


 145:Generated_Source\PSoC4/USB_UART_UART.c ****             else
 146:Generated_Source\PSoC4/USB_UART_UART.c ****             {
 147:Generated_Source\PSoC4/USB_UART_UART.c ****                 /* OVS settings: UART and SmartCard */
 148:Generated_Source\PSoC4/USB_UART_UART.c ****                 USB_UART_CTRL_REG  = USB_UART_GET_CTRL_OVS(config->oversample);
 149:Generated_Source\PSoC4/USB_UART_UART.c ****             }
 150:Generated_Source\PSoC4/USB_UART_UART.c **** 
 151:Generated_Source\PSoC4/USB_UART_UART.c ****             USB_UART_CTRL_REG     |= USB_UART_GET_CTRL_BYTE_MODE  (config->enableByteMode)      |
 152:Generated_Source\PSoC4/USB_UART_UART.c ****                                              USB_UART_GET_CTRL_ADDR_ACCEPT(config->multiprocAcceptA
 153:Generated_Source\PSoC4/USB_UART_UART.c ****                                              USB_UART_CTRL_UART;
 154:Generated_Source\PSoC4/USB_UART_UART.c **** 
 155:Generated_Source\PSoC4/USB_UART_UART.c ****             /* Configure sub-mode: UART, SmartCard or IrDA */
 156:Generated_Source\PSoC4/USB_UART_UART.c ****             USB_UART_UART_CTRL_REG = USB_UART_GET_UART_CTRL_MODE(config->mode);
 157:Generated_Source\PSoC4/USB_UART_UART.c **** 
 158:Generated_Source\PSoC4/USB_UART_UART.c ****             /* Configure RX direction */
 159:Generated_Source\PSoC4/USB_UART_UART.c ****             USB_UART_UART_RX_CTRL_REG = USB_UART_GET_UART_RX_CTRL_MODE(config->stopBits)           
 160:Generated_Source\PSoC4/USB_UART_UART.c ****                                         USB_UART_GET_UART_RX_CTRL_POLARITY(config->enableInvertedRx
 161:Generated_Source\PSoC4/USB_UART_UART.c ****                                         USB_UART_GET_UART_RX_CTRL_MP_MODE(config->enableMultiproc) 
 162:Generated_Source\PSoC4/USB_UART_UART.c ****                                         USB_UART_GET_UART_RX_CTRL_DROP_ON_PARITY_ERR(config->dropOn
 163:Generated_Source\PSoC4/USB_UART_UART.c ****                                         USB_UART_GET_UART_RX_CTRL_DROP_ON_FRAME_ERR(config->dropOnF
 164:Generated_Source\PSoC4/USB_UART_UART.c ****                                         USB_UART_GET_UART_RX_CTRL_BREAK_WIDTH(config->breakWidth);
 165:Generated_Source\PSoC4/USB_UART_UART.c **** 
 166:Generated_Source\PSoC4/USB_UART_UART.c ****             if(USB_UART_UART_PARITY_NONE != config->parity)
 167:Generated_Source\PSoC4/USB_UART_UART.c ****             {
 168:Generated_Source\PSoC4/USB_UART_UART.c ****                USB_UART_UART_RX_CTRL_REG |= USB_UART_GET_UART_RX_CTRL_PARITY(config->parity) |
 169:Generated_Source\PSoC4/USB_UART_UART.c ****                                                     USB_UART_UART_RX_CTRL_PARITY_ENABLED;
 170:Generated_Source\PSoC4/USB_UART_UART.c ****             }
 171:Generated_Source\PSoC4/USB_UART_UART.c **** 
 172:Generated_Source\PSoC4/USB_UART_UART.c ****             USB_UART_RX_CTRL_REG      = USB_UART_GET_RX_CTRL_DATA_WIDTH(config->dataBits)       |
 173:Generated_Source\PSoC4/USB_UART_UART.c ****                                                 USB_UART_GET_RX_CTRL_MEDIAN(config->enableMedianFil
 174:Generated_Source\PSoC4/USB_UART_UART.c ****                                                 USB_UART_GET_UART_RX_CTRL_ENABLED(config->direction
 175:Generated_Source\PSoC4/USB_UART_UART.c **** 
 176:Generated_Source\PSoC4/USB_UART_UART.c ****             USB_UART_RX_FIFO_CTRL_REG = USB_UART_GET_RX_FIFO_CTRL_TRIGGER_LEVEL(config->rxTriggerLe
 177:Generated_Source\PSoC4/USB_UART_UART.c **** 
 178:Generated_Source\PSoC4/USB_UART_UART.c ****             /* Configure MP address */
 179:Generated_Source\PSoC4/USB_UART_UART.c ****             USB_UART_RX_MATCH_REG     = USB_UART_GET_RX_MATCH_ADDR(config->multiprocAddr) |
 180:Generated_Source\PSoC4/USB_UART_UART.c ****                                                 USB_UART_GET_RX_MATCH_MASK(config->multiprocAddrMas
 181:Generated_Source\PSoC4/USB_UART_UART.c **** 
 182:Generated_Source\PSoC4/USB_UART_UART.c ****             /* Configure RX direction */
 183:Generated_Source\PSoC4/USB_UART_UART.c ****             USB_UART_UART_TX_CTRL_REG = USB_UART_GET_UART_TX_CTRL_MODE(config->stopBits) |
 184:Generated_Source\PSoC4/USB_UART_UART.c ****                                                 USB_UART_GET_UART_TX_CTRL_RETRY_NACK(config->enable
 185:Generated_Source\PSoC4/USB_UART_UART.c **** 
 186:Generated_Source\PSoC4/USB_UART_UART.c ****             if(USB_UART_UART_PARITY_NONE != config->parity)
 187:Generated_Source\PSoC4/USB_UART_UART.c ****             {
 188:Generated_Source\PSoC4/USB_UART_UART.c ****                USB_UART_UART_TX_CTRL_REG |= USB_UART_GET_UART_TX_CTRL_PARITY(config->parity) |
 189:Generated_Source\PSoC4/USB_UART_UART.c ****                                                     USB_UART_UART_TX_CTRL_PARITY_ENABLED;
 190:Generated_Source\PSoC4/USB_UART_UART.c ****             }
 191:Generated_Source\PSoC4/USB_UART_UART.c **** 
 192:Generated_Source\PSoC4/USB_UART_UART.c ****             USB_UART_TX_CTRL_REG      = USB_UART_GET_TX_CTRL_DATA_WIDTH(config->dataBits)    |
 193:Generated_Source\PSoC4/USB_UART_UART.c ****                                                 USB_UART_GET_UART_TX_CTRL_ENABLED(config->direction
 194:Generated_Source\PSoC4/USB_UART_UART.c **** 
 195:Generated_Source\PSoC4/USB_UART_UART.c ****             USB_UART_TX_FIFO_CTRL_REG = USB_UART_GET_TX_FIFO_CTRL_TRIGGER_LEVEL(config->txTriggerLe
 196:Generated_Source\PSoC4/USB_UART_UART.c **** 
 197:Generated_Source\PSoC4/USB_UART_UART.c ****         #if !(USB_UART_CY_SCBIP_V0 || USB_UART_CY_SCBIP_V1)
 198:Generated_Source\PSoC4/USB_UART_UART.c ****             USB_UART_UART_FLOW_CTRL_REG = USB_UART_GET_UART_FLOW_CTRL_CTS_ENABLE(config->enableCts)
 199:Generated_Source\PSoC4/USB_UART_UART.c ****                                             USB_UART_GET_UART_FLOW_CTRL_CTS_POLARITY (config->ctsPo
 200:Generated_Source\PSoC4/USB_UART_UART.c ****                                             USB_UART_GET_UART_FLOW_CTRL_RTS_POLARITY (config->rtsPo
 201:Generated_Source\PSoC4/USB_UART_UART.c ****                                             USB_UART_GET_UART_FLOW_CTRL_TRIGGER_LEVEL(config->rtsRx
ARM GAS  C:\Users\Ray\AppData\Local\Temp\ccJcGBXj.s 			page 5


 202:Generated_Source\PSoC4/USB_UART_UART.c ****         #endif /* !(USB_UART_CY_SCBIP_V0 || USB_UART_CY_SCBIP_V1) */
 203:Generated_Source\PSoC4/USB_UART_UART.c **** 
 204:Generated_Source\PSoC4/USB_UART_UART.c ****             /* Configure interrupt with UART handler but do not enable it */
 205:Generated_Source\PSoC4/USB_UART_UART.c ****             CyIntDisable    (USB_UART_ISR_NUMBER);
 206:Generated_Source\PSoC4/USB_UART_UART.c ****             CyIntSetPriority(USB_UART_ISR_NUMBER, USB_UART_ISR_PRIORITY);
 207:Generated_Source\PSoC4/USB_UART_UART.c ****             (void) CyIntSetVector(USB_UART_ISR_NUMBER, &USB_UART_SPI_UART_ISR);
 208:Generated_Source\PSoC4/USB_UART_UART.c **** 
 209:Generated_Source\PSoC4/USB_UART_UART.c ****             /* Configure WAKE interrupt */
 210:Generated_Source\PSoC4/USB_UART_UART.c ****         #if(USB_UART_UART_RX_WAKEUP_IRQ)
 211:Generated_Source\PSoC4/USB_UART_UART.c ****             CyIntDisable    (USB_UART_RX_WAKE_ISR_NUMBER);
 212:Generated_Source\PSoC4/USB_UART_UART.c ****             CyIntSetPriority(USB_UART_RX_WAKE_ISR_NUMBER, USB_UART_RX_WAKE_ISR_PRIORITY);
 213:Generated_Source\PSoC4/USB_UART_UART.c ****             (void) CyIntSetVector(USB_UART_RX_WAKE_ISR_NUMBER, &USB_UART_UART_WAKEUP_ISR);
 214:Generated_Source\PSoC4/USB_UART_UART.c ****         #endif /* (USB_UART_UART_RX_WAKEUP_IRQ) */
 215:Generated_Source\PSoC4/USB_UART_UART.c **** 
 216:Generated_Source\PSoC4/USB_UART_UART.c ****             /* Configure interrupt sources */
 217:Generated_Source\PSoC4/USB_UART_UART.c ****             USB_UART_INTR_I2C_EC_MASK_REG = USB_UART_NO_INTR_SOURCES;
 218:Generated_Source\PSoC4/USB_UART_UART.c ****             USB_UART_INTR_SPI_EC_MASK_REG = USB_UART_NO_INTR_SOURCES;
 219:Generated_Source\PSoC4/USB_UART_UART.c ****             USB_UART_INTR_SLAVE_MASK_REG  = USB_UART_NO_INTR_SOURCES;
 220:Generated_Source\PSoC4/USB_UART_UART.c ****             USB_UART_INTR_MASTER_MASK_REG = USB_UART_NO_INTR_SOURCES;
 221:Generated_Source\PSoC4/USB_UART_UART.c ****             USB_UART_INTR_RX_MASK_REG     = config->rxInterruptMask;
 222:Generated_Source\PSoC4/USB_UART_UART.c ****             USB_UART_INTR_TX_MASK_REG     = config->txInterruptMask;
 223:Generated_Source\PSoC4/USB_UART_UART.c **** 
 224:Generated_Source\PSoC4/USB_UART_UART.c ****             /* Configure TX interrupt sources to restore. */
 225:Generated_Source\PSoC4/USB_UART_UART.c ****             USB_UART_IntrTxMask = LO16(USB_UART_INTR_TX_MASK_REG);
 226:Generated_Source\PSoC4/USB_UART_UART.c **** 
 227:Generated_Source\PSoC4/USB_UART_UART.c ****             /* Clear RX buffer indexes */
 228:Generated_Source\PSoC4/USB_UART_UART.c ****             USB_UART_rxBufferHead     = 0u;
 229:Generated_Source\PSoC4/USB_UART_UART.c ****             USB_UART_rxBufferTail     = 0u;
 230:Generated_Source\PSoC4/USB_UART_UART.c ****             USB_UART_rxBufferOverflow = 0u;
 231:Generated_Source\PSoC4/USB_UART_UART.c **** 
 232:Generated_Source\PSoC4/USB_UART_UART.c ****             /* Clear TX buffer indexes */
 233:Generated_Source\PSoC4/USB_UART_UART.c ****             USB_UART_txBufferHead = 0u;
 234:Generated_Source\PSoC4/USB_UART_UART.c ****             USB_UART_txBufferTail = 0u;
 235:Generated_Source\PSoC4/USB_UART_UART.c ****         }
 236:Generated_Source\PSoC4/USB_UART_UART.c ****     }
 237:Generated_Source\PSoC4/USB_UART_UART.c **** 
 238:Generated_Source\PSoC4/USB_UART_UART.c **** #else
 239:Generated_Source\PSoC4/USB_UART_UART.c **** 
 240:Generated_Source\PSoC4/USB_UART_UART.c ****     /*******************************************************************************
 241:Generated_Source\PSoC4/USB_UART_UART.c ****     * Function Name: USB_UART_UartInit
 242:Generated_Source\PSoC4/USB_UART_UART.c ****     ****************************************************************************//**
 243:Generated_Source\PSoC4/USB_UART_UART.c ****     *
 244:Generated_Source\PSoC4/USB_UART_UART.c ****     *  Configures the SCB for the UART operation.
 245:Generated_Source\PSoC4/USB_UART_UART.c ****     *
 246:Generated_Source\PSoC4/USB_UART_UART.c ****     *******************************************************************************/
 247:Generated_Source\PSoC4/USB_UART_UART.c ****     void USB_UART_UartInit(void)
 248:Generated_Source\PSoC4/USB_UART_UART.c ****     {
  28              		.loc 1 248 0
  29              		.cfi_startproc
  30              		@ args = 0, pretend = 0, frame = 0
  31              		@ frame_needed = 0, uses_anonymous_args = 0
  32 0000 10B5     		push	{r4, lr}
  33              		.cfi_def_cfa_offset 8
  34              		.cfi_offset 4, -8
  35              		.cfi_offset 14, -4
 249:Generated_Source\PSoC4/USB_UART_UART.c ****         /* Configure UART interface */
 250:Generated_Source\PSoC4/USB_UART_UART.c ****         USB_UART_CTRL_REG = USB_UART_UART_DEFAULT_CTRL;
ARM GAS  C:\Users\Ray\AppData\Local\Temp\ccJcGBXj.s 			page 6


 251:Generated_Source\PSoC4/USB_UART_UART.c **** 
 252:Generated_Source\PSoC4/USB_UART_UART.c ****         /* Configure sub-mode: UART, SmartCard or IrDA */
 253:Generated_Source\PSoC4/USB_UART_UART.c ****         USB_UART_UART_CTRL_REG = USB_UART_UART_DEFAULT_UART_CTRL;
  36              		.loc 1 253 0
  37 0002 0024     		movs	r4, #0
 254:Generated_Source\PSoC4/USB_UART_UART.c **** 
 255:Generated_Source\PSoC4/USB_UART_UART.c ****         /* Configure RX direction */
 256:Generated_Source\PSoC4/USB_UART_UART.c ****         USB_UART_UART_RX_CTRL_REG = USB_UART_UART_DEFAULT_UART_RX_CTRL;
 257:Generated_Source\PSoC4/USB_UART_UART.c ****         USB_UART_RX_CTRL_REG      = USB_UART_UART_DEFAULT_RX_CTRL;
 258:Generated_Source\PSoC4/USB_UART_UART.c ****         USB_UART_RX_FIFO_CTRL_REG = USB_UART_UART_DEFAULT_RX_FIFO_CTRL;
  38              		.loc 1 258 0
  39 0004 0721     		movs	r1, #7
 250:Generated_Source\PSoC4/USB_UART_UART.c **** 
  40              		.loc 1 250 0
  41 0006 1E4A     		ldr	r2, .L2
  42 0008 1E4B     		ldr	r3, .L2+4
 259:Generated_Source\PSoC4/USB_UART_UART.c ****         USB_UART_RX_MATCH_REG     = USB_UART_UART_DEFAULT_RX_MATCH_REG;
 260:Generated_Source\PSoC4/USB_UART_UART.c **** 
 261:Generated_Source\PSoC4/USB_UART_UART.c ****         /* Configure TX direction */
 262:Generated_Source\PSoC4/USB_UART_UART.c ****         USB_UART_UART_TX_CTRL_REG = USB_UART_UART_DEFAULT_UART_TX_CTRL;
 263:Generated_Source\PSoC4/USB_UART_UART.c ****         USB_UART_TX_CTRL_REG      = USB_UART_UART_DEFAULT_TX_CTRL;
 264:Generated_Source\PSoC4/USB_UART_UART.c ****         USB_UART_TX_FIFO_CTRL_REG = USB_UART_UART_DEFAULT_TX_FIFO_CTRL;
 265:Generated_Source\PSoC4/USB_UART_UART.c **** 
 266:Generated_Source\PSoC4/USB_UART_UART.c ****     #if !(USB_UART_CY_SCBIP_V0 || USB_UART_CY_SCBIP_V1)
 267:Generated_Source\PSoC4/USB_UART_UART.c ****         USB_UART_UART_FLOW_CTRL_REG = USB_UART_UART_DEFAULT_FLOW_CTRL;
 268:Generated_Source\PSoC4/USB_UART_UART.c ****     #endif /* !(USB_UART_CY_SCBIP_V0 || USB_UART_CY_SCBIP_V1) */
 269:Generated_Source\PSoC4/USB_UART_UART.c **** 
 270:Generated_Source\PSoC4/USB_UART_UART.c ****         /* Configure interrupt with UART handler but do not enable it */
 271:Generated_Source\PSoC4/USB_UART_UART.c ****     #if(USB_UART_SCB_IRQ_INTERNAL)
 272:Generated_Source\PSoC4/USB_UART_UART.c ****         CyIntDisable    (USB_UART_ISR_NUMBER);
  43              		.loc 1 272 0
  44 000a 0A20     		movs	r0, #10
 250:Generated_Source\PSoC4/USB_UART_UART.c **** 
  45              		.loc 1 250 0
  46 000c 1A60     		str	r2, [r3]
 253:Generated_Source\PSoC4/USB_UART_UART.c **** 
  47              		.loc 1 253 0
  48 000e 1E4B     		ldr	r3, .L2+8
 256:Generated_Source\PSoC4/USB_UART_UART.c ****         USB_UART_RX_CTRL_REG      = USB_UART_UART_DEFAULT_RX_CTRL;
  49              		.loc 1 256 0
  50 0010 1E4A     		ldr	r2, .L2+12
 253:Generated_Source\PSoC4/USB_UART_UART.c **** 
  51              		.loc 1 253 0
  52 0012 1C60     		str	r4, [r3]
 256:Generated_Source\PSoC4/USB_UART_UART.c ****         USB_UART_RX_CTRL_REG      = USB_UART_UART_DEFAULT_RX_CTRL;
  53              		.loc 1 256 0
  54 0014 1E4B     		ldr	r3, .L2+16
 273:Generated_Source\PSoC4/USB_UART_UART.c ****         CyIntSetPriority(USB_UART_ISR_NUMBER, USB_UART_ISR_PRIORITY);
 274:Generated_Source\PSoC4/USB_UART_UART.c ****         (void) CyIntSetVector(USB_UART_ISR_NUMBER, &USB_UART_SPI_UART_ISR);
 275:Generated_Source\PSoC4/USB_UART_UART.c ****     #endif /* (USB_UART_SCB_IRQ_INTERNAL) */
 276:Generated_Source\PSoC4/USB_UART_UART.c **** 
 277:Generated_Source\PSoC4/USB_UART_UART.c ****         /* Configure WAKE interrupt */
 278:Generated_Source\PSoC4/USB_UART_UART.c ****     #if(USB_UART_UART_RX_WAKEUP_IRQ)
 279:Generated_Source\PSoC4/USB_UART_UART.c ****         CyIntDisable    (USB_UART_RX_WAKE_ISR_NUMBER);
 280:Generated_Source\PSoC4/USB_UART_UART.c ****         CyIntSetPriority(USB_UART_RX_WAKE_ISR_NUMBER, USB_UART_RX_WAKE_ISR_PRIORITY);
 281:Generated_Source\PSoC4/USB_UART_UART.c ****         (void) CyIntSetVector(USB_UART_RX_WAKE_ISR_NUMBER, &USB_UART_UART_WAKEUP_ISR);
 282:Generated_Source\PSoC4/USB_UART_UART.c ****     #endif /* (USB_UART_UART_RX_WAKEUP_IRQ) */
ARM GAS  C:\Users\Ray\AppData\Local\Temp\ccJcGBXj.s 			page 7


 283:Generated_Source\PSoC4/USB_UART_UART.c **** 
 284:Generated_Source\PSoC4/USB_UART_UART.c ****         /* Configure interrupt sources */
 285:Generated_Source\PSoC4/USB_UART_UART.c ****         USB_UART_INTR_I2C_EC_MASK_REG = USB_UART_UART_DEFAULT_INTR_I2C_EC_MASK;
 286:Generated_Source\PSoC4/USB_UART_UART.c ****         USB_UART_INTR_SPI_EC_MASK_REG = USB_UART_UART_DEFAULT_INTR_SPI_EC_MASK;
 287:Generated_Source\PSoC4/USB_UART_UART.c ****         USB_UART_INTR_SLAVE_MASK_REG  = USB_UART_UART_DEFAULT_INTR_SLAVE_MASK;
 288:Generated_Source\PSoC4/USB_UART_UART.c ****         USB_UART_INTR_MASTER_MASK_REG = USB_UART_UART_DEFAULT_INTR_MASTER_MASK;
 289:Generated_Source\PSoC4/USB_UART_UART.c ****         USB_UART_INTR_RX_MASK_REG     = USB_UART_UART_DEFAULT_INTR_RX_MASK;
 290:Generated_Source\PSoC4/USB_UART_UART.c ****         USB_UART_INTR_TX_MASK_REG     = USB_UART_UART_DEFAULT_INTR_TX_MASK;
 291:Generated_Source\PSoC4/USB_UART_UART.c **** 
 292:Generated_Source\PSoC4/USB_UART_UART.c ****         /* Configure TX interrupt sources to restore. */
 293:Generated_Source\PSoC4/USB_UART_UART.c ****         USB_UART_IntrTxMask = LO16(USB_UART_INTR_TX_MASK_REG);
 294:Generated_Source\PSoC4/USB_UART_UART.c **** 
 295:Generated_Source\PSoC4/USB_UART_UART.c ****     #if(USB_UART_INTERNAL_RX_SW_BUFFER_CONST)
 296:Generated_Source\PSoC4/USB_UART_UART.c ****         USB_UART_rxBufferHead     = 0u;
 297:Generated_Source\PSoC4/USB_UART_UART.c ****         USB_UART_rxBufferTail     = 0u;
 298:Generated_Source\PSoC4/USB_UART_UART.c ****         USB_UART_rxBufferOverflow = 0u;
 299:Generated_Source\PSoC4/USB_UART_UART.c ****     #endif /* (USB_UART_INTERNAL_RX_SW_BUFFER_CONST) */
 300:Generated_Source\PSoC4/USB_UART_UART.c **** 
 301:Generated_Source\PSoC4/USB_UART_UART.c ****     #if(USB_UART_INTERNAL_TX_SW_BUFFER_CONST)
 302:Generated_Source\PSoC4/USB_UART_UART.c ****         USB_UART_txBufferHead = 0u;
 303:Generated_Source\PSoC4/USB_UART_UART.c ****         USB_UART_txBufferTail = 0u;
 304:Generated_Source\PSoC4/USB_UART_UART.c ****     #endif /* (USB_UART_INTERNAL_TX_SW_BUFFER_CONST) */
 305:Generated_Source\PSoC4/USB_UART_UART.c ****     }
  55              		.loc 1 305 0
  56              		@ sp needed
 256:Generated_Source\PSoC4/USB_UART_UART.c ****         USB_UART_RX_CTRL_REG      = USB_UART_UART_DEFAULT_RX_CTRL;
  57              		.loc 1 256 0
  58 0016 1A60     		str	r2, [r3]
 257:Generated_Source\PSoC4/USB_UART_UART.c ****         USB_UART_RX_FIFO_CTRL_REG = USB_UART_UART_DEFAULT_RX_FIFO_CTRL;
  59              		.loc 1 257 0
  60 0018 1E4B     		ldr	r3, .L2+20
  61 001a 1F4A     		ldr	r2, .L2+24
  62 001c 1360     		str	r3, [r2]
 258:Generated_Source\PSoC4/USB_UART_UART.c ****         USB_UART_RX_MATCH_REG     = USB_UART_UART_DEFAULT_RX_MATCH_REG;
  63              		.loc 1 258 0
  64 001e 1F4A     		ldr	r2, .L2+28
  65 0020 1160     		str	r1, [r2]
 259:Generated_Source\PSoC4/USB_UART_UART.c **** 
  66              		.loc 1 259 0
  67 0022 1F4A     		ldr	r2, .L2+32
 262:Generated_Source\PSoC4/USB_UART_UART.c ****         USB_UART_TX_CTRL_REG      = USB_UART_UART_DEFAULT_TX_CTRL;
  68              		.loc 1 262 0
  69 0024 0639     		subs	r1, r1, #6
 259:Generated_Source\PSoC4/USB_UART_UART.c **** 
  70              		.loc 1 259 0
  71 0026 1460     		str	r4, [r2]
 262:Generated_Source\PSoC4/USB_UART_UART.c ****         USB_UART_TX_CTRL_REG      = USB_UART_UART_DEFAULT_TX_CTRL;
  72              		.loc 1 262 0
  73 0028 1E4A     		ldr	r2, .L2+36
  74 002a 1160     		str	r1, [r2]
 263:Generated_Source\PSoC4/USB_UART_UART.c ****         USB_UART_TX_FIFO_CTRL_REG = USB_UART_UART_DEFAULT_TX_FIFO_CTRL;
  75              		.loc 1 263 0
  76 002c 1E4A     		ldr	r2, .L2+40
  77 002e 1360     		str	r3, [r2]
 264:Generated_Source\PSoC4/USB_UART_UART.c **** 
  78              		.loc 1 264 0
  79 0030 1E4B     		ldr	r3, .L2+44
ARM GAS  C:\Users\Ray\AppData\Local\Temp\ccJcGBXj.s 			page 8


  80 0032 1C60     		str	r4, [r3]
 272:Generated_Source\PSoC4/USB_UART_UART.c ****         CyIntSetPriority(USB_UART_ISR_NUMBER, USB_UART_ISR_PRIORITY);
  81              		.loc 1 272 0
  82 0034 FFF7FEFF 		bl	CyIntDisable
  83              	.LVL0:
 273:Generated_Source\PSoC4/USB_UART_UART.c ****         (void) CyIntSetVector(USB_UART_ISR_NUMBER, &USB_UART_SPI_UART_ISR);
  84              		.loc 1 273 0
  85 0038 0321     		movs	r1, #3
  86 003a 0A20     		movs	r0, #10
  87 003c FFF7FEFF 		bl	CyIntSetPriority
  88              	.LVL1:
 274:Generated_Source\PSoC4/USB_UART_UART.c ****     #endif /* (USB_UART_SCB_IRQ_INTERNAL) */
  89              		.loc 1 274 0
  90 0040 1B49     		ldr	r1, .L2+48
  91 0042 0A20     		movs	r0, #10
  92 0044 FFF7FEFF 		bl	CyIntSetVector
  93              	.LVL2:
 289:Generated_Source\PSoC4/USB_UART_UART.c ****         USB_UART_INTR_TX_MASK_REG     = USB_UART_UART_DEFAULT_INTR_TX_MASK;
  94              		.loc 1 289 0
  95 0048 0422     		movs	r2, #4
 285:Generated_Source\PSoC4/USB_UART_UART.c ****         USB_UART_INTR_SPI_EC_MASK_REG = USB_UART_UART_DEFAULT_INTR_SPI_EC_MASK;
  96              		.loc 1 285 0
  97 004a 1A4B     		ldr	r3, .L2+52
  98 004c 1C60     		str	r4, [r3]
 286:Generated_Source\PSoC4/USB_UART_UART.c ****         USB_UART_INTR_SLAVE_MASK_REG  = USB_UART_UART_DEFAULT_INTR_SLAVE_MASK;
  99              		.loc 1 286 0
 100 004e 1A4B     		ldr	r3, .L2+56
 101 0050 1C60     		str	r4, [r3]
 287:Generated_Source\PSoC4/USB_UART_UART.c ****         USB_UART_INTR_MASTER_MASK_REG = USB_UART_UART_DEFAULT_INTR_MASTER_MASK;
 102              		.loc 1 287 0
 103 0052 1A4B     		ldr	r3, .L2+60
 104 0054 1C60     		str	r4, [r3]
 288:Generated_Source\PSoC4/USB_UART_UART.c ****         USB_UART_INTR_RX_MASK_REG     = USB_UART_UART_DEFAULT_INTR_RX_MASK;
 105              		.loc 1 288 0
 106 0056 1A4B     		ldr	r3, .L2+64
 107 0058 1C60     		str	r4, [r3]
 289:Generated_Source\PSoC4/USB_UART_UART.c ****         USB_UART_INTR_TX_MASK_REG     = USB_UART_UART_DEFAULT_INTR_TX_MASK;
 108              		.loc 1 289 0
 109 005a 1A4B     		ldr	r3, .L2+68
 110 005c 1A60     		str	r2, [r3]
 290:Generated_Source\PSoC4/USB_UART_UART.c **** 
 111              		.loc 1 290 0
 112 005e 1A4B     		ldr	r3, .L2+72
 113 0060 1C60     		str	r4, [r3]
 293:Generated_Source\PSoC4/USB_UART_UART.c **** 
 114              		.loc 1 293 0
 115 0062 1A68     		ldr	r2, [r3]
 116 0064 194B     		ldr	r3, .L2+76
 117 0066 1A80     		strh	r2, [r3]
 296:Generated_Source\PSoC4/USB_UART_UART.c ****         USB_UART_rxBufferTail     = 0u;
 118              		.loc 1 296 0
 119 0068 194B     		ldr	r3, .L2+80
 120 006a 1C60     		str	r4, [r3]
 297:Generated_Source\PSoC4/USB_UART_UART.c ****         USB_UART_rxBufferOverflow = 0u;
 121              		.loc 1 297 0
 122 006c 194B     		ldr	r3, .L2+84
 123 006e 1C60     		str	r4, [r3]
ARM GAS  C:\Users\Ray\AppData\Local\Temp\ccJcGBXj.s 			page 9


 298:Generated_Source\PSoC4/USB_UART_UART.c ****     #endif /* (USB_UART_INTERNAL_RX_SW_BUFFER_CONST) */
 124              		.loc 1 298 0
 125 0070 194B     		ldr	r3, .L2+88
 126 0072 1C70     		strb	r4, [r3]
 302:Generated_Source\PSoC4/USB_UART_UART.c ****         USB_UART_txBufferTail = 0u;
 127              		.loc 1 302 0
 128 0074 194B     		ldr	r3, .L2+92
 129 0076 1C60     		str	r4, [r3]
 303:Generated_Source\PSoC4/USB_UART_UART.c ****     #endif /* (USB_UART_INTERNAL_TX_SW_BUFFER_CONST) */
 130              		.loc 1 303 0
 131 0078 194B     		ldr	r3, .L2+96
 132 007a 1C60     		str	r4, [r3]
 133              		.loc 1 305 0
 134 007c 10BD     		pop	{r4, pc}
 135              	.L3:
 136 007e C046     		.align	2
 137              	.L2:
 138 0080 0B000002 		.word	33554443
 139 0084 00000640 		.word	1074135040
 140 0088 40000640 		.word	1074135104
 141 008c 01000A00 		.word	655361
 142 0090 48000640 		.word	1074135112
 143 0094 07000080 		.word	-2147483641
 144 0098 00030640 		.word	1074135808
 145 009c 04030640 		.word	1074135812
 146 00a0 10030640 		.word	1074135824
 147 00a4 44000640 		.word	1074135108
 148 00a8 00020640 		.word	1074135552
 149 00ac 04020640 		.word	1074135556
 150 00b0 00000000 		.word	USB_UART_SPI_UART_ISR
 151 00b4 880E0640 		.word	1074138760
 152 00b8 C80E0640 		.word	1074138824
 153 00bc 480F0640 		.word	1074138952
 154 00c0 080F0640 		.word	1074138888
 155 00c4 C80F0640 		.word	1074139080
 156 00c8 880F0640 		.word	1074139016
 157 00cc 00000000 		.word	USB_UART_IntrTxMask
 158 00d0 00000000 		.word	USB_UART_rxBufferHead
 159 00d4 00000000 		.word	USB_UART_rxBufferTail
 160 00d8 00000000 		.word	USB_UART_rxBufferOverflow
 161 00dc 00000000 		.word	USB_UART_txBufferHead
 162 00e0 00000000 		.word	USB_UART_txBufferTail
 163              		.cfi_endproc
 164              	.LFE0:
 165              		.size	USB_UART_UartInit, .-USB_UART_UartInit
 166              		.section	.text.USB_UART_UartPostEnable,"ax",%progbits
 167              		.align	1
 168              		.global	USB_UART_UartPostEnable
 169              		.code	16
 170              		.thumb_func
 171              		.type	USB_UART_UartPostEnable, %function
 172              	USB_UART_UartPostEnable:
 173              	.LFB1:
 306:Generated_Source\PSoC4/USB_UART_UART.c **** #endif /* (USB_UART_SCB_MODE_UNCONFIG_CONST_CFG) */
 307:Generated_Source\PSoC4/USB_UART_UART.c **** 
 308:Generated_Source\PSoC4/USB_UART_UART.c **** 
 309:Generated_Source\PSoC4/USB_UART_UART.c **** /*******************************************************************************
ARM GAS  C:\Users\Ray\AppData\Local\Temp\ccJcGBXj.s 			page 10


 310:Generated_Source\PSoC4/USB_UART_UART.c **** * Function Name: USB_UART_UartPostEnable
 311:Generated_Source\PSoC4/USB_UART_UART.c **** ****************************************************************************//**
 312:Generated_Source\PSoC4/USB_UART_UART.c **** *
 313:Generated_Source\PSoC4/USB_UART_UART.c **** *  Restores HSIOM settings for the UART output pins (TX and/or RTS) to be
 314:Generated_Source\PSoC4/USB_UART_UART.c **** *  controlled by the SCB UART.
 315:Generated_Source\PSoC4/USB_UART_UART.c **** *
 316:Generated_Source\PSoC4/USB_UART_UART.c **** *******************************************************************************/
 317:Generated_Source\PSoC4/USB_UART_UART.c **** void USB_UART_UartPostEnable(void)
 318:Generated_Source\PSoC4/USB_UART_UART.c **** {
 174              		.loc 1 318 0
 175              		.cfi_startproc
 176              		@ args = 0, pretend = 0, frame = 0
 177              		@ frame_needed = 0, uses_anonymous_args = 0
 178              		@ link register save eliminated.
 319:Generated_Source\PSoC4/USB_UART_UART.c **** #if (USB_UART_SCB_MODE_UNCONFIG_CONST_CFG)
 320:Generated_Source\PSoC4/USB_UART_UART.c ****     #if (USB_UART_TX_SDA_MISO_PIN)
 321:Generated_Source\PSoC4/USB_UART_UART.c ****         if (USB_UART_CHECK_TX_SDA_MISO_PIN_USED)
 322:Generated_Source\PSoC4/USB_UART_UART.c ****         {
 323:Generated_Source\PSoC4/USB_UART_UART.c ****             /* Set SCB UART to drive the output pin */
 324:Generated_Source\PSoC4/USB_UART_UART.c ****             USB_UART_SET_HSIOM_SEL(USB_UART_TX_SDA_MISO_HSIOM_REG, USB_UART_TX_SDA_MISO_HSIOM_MASK,
 325:Generated_Source\PSoC4/USB_UART_UART.c ****                                            USB_UART_TX_SDA_MISO_HSIOM_POS, USB_UART_TX_SDA_MISO_HSI
 326:Generated_Source\PSoC4/USB_UART_UART.c ****         }
 327:Generated_Source\PSoC4/USB_UART_UART.c ****     #endif /* (USB_UART_TX_SDA_MISO_PIN_PIN) */
 328:Generated_Source\PSoC4/USB_UART_UART.c **** 
 329:Generated_Source\PSoC4/USB_UART_UART.c ****     #if !(USB_UART_CY_SCBIP_V0 || USB_UART_CY_SCBIP_V1)
 330:Generated_Source\PSoC4/USB_UART_UART.c ****         #if (USB_UART_SS0_PIN)
 331:Generated_Source\PSoC4/USB_UART_UART.c ****             if (USB_UART_CHECK_SS0_PIN_USED)
 332:Generated_Source\PSoC4/USB_UART_UART.c ****             {
 333:Generated_Source\PSoC4/USB_UART_UART.c ****                 /* Set SCB UART to drive the output pin */
 334:Generated_Source\PSoC4/USB_UART_UART.c ****                 USB_UART_SET_HSIOM_SEL(USB_UART_SS0_HSIOM_REG, USB_UART_SS0_HSIOM_MASK,
 335:Generated_Source\PSoC4/USB_UART_UART.c ****                                                USB_UART_SS0_HSIOM_POS, USB_UART_SS0_HSIOM_SEL_UART)
 336:Generated_Source\PSoC4/USB_UART_UART.c ****             }
 337:Generated_Source\PSoC4/USB_UART_UART.c ****         #endif /* (USB_UART_SS0_PIN) */
 338:Generated_Source\PSoC4/USB_UART_UART.c ****     #endif /* !(USB_UART_CY_SCBIP_V0 || USB_UART_CY_SCBIP_V1) */
 339:Generated_Source\PSoC4/USB_UART_UART.c **** 
 340:Generated_Source\PSoC4/USB_UART_UART.c **** #else
 341:Generated_Source\PSoC4/USB_UART_UART.c ****     #if (USB_UART_UART_TX_PIN)
 342:Generated_Source\PSoC4/USB_UART_UART.c ****          /* Set SCB UART to drive the output pin */
 343:Generated_Source\PSoC4/USB_UART_UART.c ****         USB_UART_SET_HSIOM_SEL(USB_UART_TX_HSIOM_REG, USB_UART_TX_HSIOM_MASK,
 179              		.loc 1 343 0
 180 0000 F021     		movs	r1, #240
 181 0002 054A     		ldr	r2, .L5
 344:Generated_Source\PSoC4/USB_UART_UART.c ****                                        USB_UART_TX_HSIOM_POS, USB_UART_TX_HSIOM_SEL_UART);
 345:Generated_Source\PSoC4/USB_UART_UART.c ****     #endif /* (USB_UART_UART_TX_PIN) */
 346:Generated_Source\PSoC4/USB_UART_UART.c **** 
 347:Generated_Source\PSoC4/USB_UART_UART.c ****     #if (USB_UART_UART_RTS_PIN)
 348:Generated_Source\PSoC4/USB_UART_UART.c ****         /* Set SCB UART to drive the output pin */
 349:Generated_Source\PSoC4/USB_UART_UART.c ****         USB_UART_SET_HSIOM_SEL(USB_UART_RTS_HSIOM_REG, USB_UART_RTS_HSIOM_MASK,
 350:Generated_Source\PSoC4/USB_UART_UART.c ****                                        USB_UART_RTS_HSIOM_POS, USB_UART_RTS_HSIOM_SEL_UART);
 351:Generated_Source\PSoC4/USB_UART_UART.c ****     #endif /* (USB_UART_UART_RTS_PIN) */
 352:Generated_Source\PSoC4/USB_UART_UART.c **** #endif /* (USB_UART_SCB_MODE_UNCONFIG_CONST_CFG) */
 353:Generated_Source\PSoC4/USB_UART_UART.c **** 
 354:Generated_Source\PSoC4/USB_UART_UART.c ****     /* Restore TX interrupt sources. */
 355:Generated_Source\PSoC4/USB_UART_UART.c ****     USB_UART_SetTxInterruptMode(USB_UART_IntrTxMask);
 356:Generated_Source\PSoC4/USB_UART_UART.c **** }
 182              		.loc 1 356 0
 183              		@ sp needed
ARM GAS  C:\Users\Ray\AppData\Local\Temp\ccJcGBXj.s 			page 11


 343:Generated_Source\PSoC4/USB_UART_UART.c ****                                        USB_UART_TX_HSIOM_POS, USB_UART_TX_HSIOM_SEL_UART);
 184              		.loc 1 343 0
 185 0004 1368     		ldr	r3, [r2]
 186 0006 8B43     		bics	r3, r1
 187 0008 6039     		subs	r1, r1, #96
 188 000a 0B43     		orrs	r3, r1
 189 000c 1360     		str	r3, [r2]
 355:Generated_Source\PSoC4/USB_UART_UART.c **** }
 190              		.loc 1 355 0
 191 000e 034B     		ldr	r3, .L5+4
 192 0010 1A88     		ldrh	r2, [r3]
 193 0012 034B     		ldr	r3, .L5+8
 194 0014 1A60     		str	r2, [r3]
 195              		.loc 1 356 0
 196 0016 7047     		bx	lr
 197              	.L6:
 198              		.align	2
 199              	.L5:
 200 0018 10000140 		.word	1073807376
 201 001c 00000000 		.word	USB_UART_IntrTxMask
 202 0020 880F0640 		.word	1074139016
 203              		.cfi_endproc
 204              	.LFE1:
 205              		.size	USB_UART_UartPostEnable, .-USB_UART_UartPostEnable
 206              		.section	.text.USB_UART_UartStop,"ax",%progbits
 207              		.align	1
 208              		.global	USB_UART_UartStop
 209              		.code	16
 210              		.thumb_func
 211              		.type	USB_UART_UartStop, %function
 212              	USB_UART_UartStop:
 213              	.LFB2:
 357:Generated_Source\PSoC4/USB_UART_UART.c **** 
 358:Generated_Source\PSoC4/USB_UART_UART.c **** 
 359:Generated_Source\PSoC4/USB_UART_UART.c **** /*******************************************************************************
 360:Generated_Source\PSoC4/USB_UART_UART.c **** * Function Name: USB_UART_UartStop
 361:Generated_Source\PSoC4/USB_UART_UART.c **** ****************************************************************************//**
 362:Generated_Source\PSoC4/USB_UART_UART.c **** *
 363:Generated_Source\PSoC4/USB_UART_UART.c **** *  Changes the HSIOM settings for the UART output pins (TX and/or RTS) to keep
 364:Generated_Source\PSoC4/USB_UART_UART.c **** *  them inactive after the block is disabled. The output pins are controlled by
 365:Generated_Source\PSoC4/USB_UART_UART.c **** *  the GPIO data register. Also, the function disables the skip start feature
 366:Generated_Source\PSoC4/USB_UART_UART.c **** *  to not cause it to trigger after the component is enabled.
 367:Generated_Source\PSoC4/USB_UART_UART.c **** *
 368:Generated_Source\PSoC4/USB_UART_UART.c **** *******************************************************************************/
 369:Generated_Source\PSoC4/USB_UART_UART.c **** void USB_UART_UartStop(void)
 370:Generated_Source\PSoC4/USB_UART_UART.c **** {
 214              		.loc 1 370 0
 215              		.cfi_startproc
 216              		@ args = 0, pretend = 0, frame = 0
 217              		@ frame_needed = 0, uses_anonymous_args = 0
 218              		@ link register save eliminated.
 371:Generated_Source\PSoC4/USB_UART_UART.c **** #if(USB_UART_SCB_MODE_UNCONFIG_CONST_CFG)
 372:Generated_Source\PSoC4/USB_UART_UART.c ****     #if (USB_UART_TX_SDA_MISO_PIN)
 373:Generated_Source\PSoC4/USB_UART_UART.c ****         if (USB_UART_CHECK_TX_SDA_MISO_PIN_USED)
 374:Generated_Source\PSoC4/USB_UART_UART.c ****         {
 375:Generated_Source\PSoC4/USB_UART_UART.c ****             /* Set GPIO to drive output pin */
 376:Generated_Source\PSoC4/USB_UART_UART.c ****             USB_UART_SET_HSIOM_SEL(USB_UART_TX_SDA_MISO_HSIOM_REG, USB_UART_TX_SDA_MISO_HSIOM_MASK,
ARM GAS  C:\Users\Ray\AppData\Local\Temp\ccJcGBXj.s 			page 12


 377:Generated_Source\PSoC4/USB_UART_UART.c ****                                            USB_UART_TX_SDA_MISO_HSIOM_POS, USB_UART_TX_SDA_MISO_HSI
 378:Generated_Source\PSoC4/USB_UART_UART.c ****         }
 379:Generated_Source\PSoC4/USB_UART_UART.c ****     #endif /* (USB_UART_TX_SDA_MISO_PIN_PIN) */
 380:Generated_Source\PSoC4/USB_UART_UART.c **** 
 381:Generated_Source\PSoC4/USB_UART_UART.c ****     #if !(USB_UART_CY_SCBIP_V0 || USB_UART_CY_SCBIP_V1)
 382:Generated_Source\PSoC4/USB_UART_UART.c ****         #if (USB_UART_SS0_PIN)
 383:Generated_Source\PSoC4/USB_UART_UART.c ****             if (USB_UART_CHECK_SS0_PIN_USED)
 384:Generated_Source\PSoC4/USB_UART_UART.c ****             {
 385:Generated_Source\PSoC4/USB_UART_UART.c ****                 /* Set output pin state after block is disabled */
 386:Generated_Source\PSoC4/USB_UART_UART.c ****                 USB_UART_spi_ss0_Write(USB_UART_GET_UART_RTS_INACTIVE);
 387:Generated_Source\PSoC4/USB_UART_UART.c **** 
 388:Generated_Source\PSoC4/USB_UART_UART.c ****                 /* Set GPIO to drive output pin */
 389:Generated_Source\PSoC4/USB_UART_UART.c ****                 USB_UART_SET_HSIOM_SEL(USB_UART_SS0_HSIOM_REG, USB_UART_SS0_HSIOM_MASK,
 390:Generated_Source\PSoC4/USB_UART_UART.c ****                                                USB_UART_SS0_HSIOM_POS, USB_UART_SS0_HSIOM_SEL_GPIO)
 391:Generated_Source\PSoC4/USB_UART_UART.c ****             }
 392:Generated_Source\PSoC4/USB_UART_UART.c ****         #endif /* (USB_UART_SS0_PIN) */
 393:Generated_Source\PSoC4/USB_UART_UART.c ****     #endif /* !(USB_UART_CY_SCBIP_V0 || USB_UART_CY_SCBIP_V1) */
 394:Generated_Source\PSoC4/USB_UART_UART.c **** 
 395:Generated_Source\PSoC4/USB_UART_UART.c **** #else
 396:Generated_Source\PSoC4/USB_UART_UART.c ****     #if (USB_UART_UART_TX_PIN)
 397:Generated_Source\PSoC4/USB_UART_UART.c ****         /* Set GPIO to drive output pin */
 398:Generated_Source\PSoC4/USB_UART_UART.c ****         USB_UART_SET_HSIOM_SEL(USB_UART_TX_HSIOM_REG, USB_UART_TX_HSIOM_MASK,
 219              		.loc 1 398 0
 220 0000 F021     		movs	r1, #240
 221 0002 064A     		ldr	r2, .L8
 399:Generated_Source\PSoC4/USB_UART_UART.c ****                                        USB_UART_TX_HSIOM_POS, USB_UART_TX_HSIOM_SEL_GPIO);
 400:Generated_Source\PSoC4/USB_UART_UART.c ****     #endif /* (USB_UART_UART_TX_PIN) */
 401:Generated_Source\PSoC4/USB_UART_UART.c **** 
 402:Generated_Source\PSoC4/USB_UART_UART.c ****     #if (USB_UART_UART_RTS_PIN)
 403:Generated_Source\PSoC4/USB_UART_UART.c ****         /* Set output pin state after block is disabled */
 404:Generated_Source\PSoC4/USB_UART_UART.c ****         USB_UART_rts_Write(USB_UART_GET_UART_RTS_INACTIVE);
 405:Generated_Source\PSoC4/USB_UART_UART.c **** 
 406:Generated_Source\PSoC4/USB_UART_UART.c ****         /* Set GPIO to drive output pin */
 407:Generated_Source\PSoC4/USB_UART_UART.c ****         USB_UART_SET_HSIOM_SEL(USB_UART_RTS_HSIOM_REG, USB_UART_RTS_HSIOM_MASK,
 408:Generated_Source\PSoC4/USB_UART_UART.c ****                                        USB_UART_RTS_HSIOM_POS, USB_UART_RTS_HSIOM_SEL_GPIO);
 409:Generated_Source\PSoC4/USB_UART_UART.c ****     #endif /* (USB_UART_UART_RTS_PIN) */
 410:Generated_Source\PSoC4/USB_UART_UART.c **** 
 411:Generated_Source\PSoC4/USB_UART_UART.c **** #endif /* (USB_UART_SCB_MODE_UNCONFIG_CONST_CFG) */
 412:Generated_Source\PSoC4/USB_UART_UART.c **** 
 413:Generated_Source\PSoC4/USB_UART_UART.c **** #if (USB_UART_UART_WAKE_ENABLE_CONST)
 414:Generated_Source\PSoC4/USB_UART_UART.c ****     /* Disable skip start feature used for wakeup */
 415:Generated_Source\PSoC4/USB_UART_UART.c ****     USB_UART_UART_RX_CTRL_REG &= (uint32) ~USB_UART_UART_RX_CTRL_SKIP_START;
 416:Generated_Source\PSoC4/USB_UART_UART.c **** #endif /* (USB_UART_UART_WAKE_ENABLE_CONST) */
 417:Generated_Source\PSoC4/USB_UART_UART.c **** 
 418:Generated_Source\PSoC4/USB_UART_UART.c ****     /* Store TX interrupt sources (exclude level triggered). */
 419:Generated_Source\PSoC4/USB_UART_UART.c ****     USB_UART_IntrTxMask = LO16(USB_UART_GetTxInterruptMode() & USB_UART_INTR_UART_TX_RESTORE);
 420:Generated_Source\PSoC4/USB_UART_UART.c **** }
 222              		.loc 1 420 0
 223              		@ sp needed
 398:Generated_Source\PSoC4/USB_UART_UART.c ****                                        USB_UART_TX_HSIOM_POS, USB_UART_TX_HSIOM_SEL_GPIO);
 224              		.loc 1 398 0
 225 0004 1368     		ldr	r3, [r2]
 226 0006 8B43     		bics	r3, r1
 227 0008 1360     		str	r3, [r2]
 419:Generated_Source\PSoC4/USB_UART_UART.c **** }
 228              		.loc 1 419 0
 229 000a 054B     		ldr	r3, .L8+4
ARM GAS  C:\Users\Ray\AppData\Local\Temp\ccJcGBXj.s 			page 13


 230 000c 1A68     		ldr	r2, [r3]
 231 000e E423     		movs	r3, #228
 232 0010 DB00     		lsls	r3, r3, #3
 233 0012 1340     		ands	r3, r2
 234 0014 034A     		ldr	r2, .L8+8
 235 0016 1380     		strh	r3, [r2]
 236              		.loc 1 420 0
 237 0018 7047     		bx	lr
 238              	.L9:
 239 001a C046     		.align	2
 240              	.L8:
 241 001c 10000140 		.word	1073807376
 242 0020 880F0640 		.word	1074139016
 243 0024 00000000 		.word	USB_UART_IntrTxMask
 244              		.cfi_endproc
 245              	.LFE2:
 246              		.size	USB_UART_UartStop, .-USB_UART_UartStop
 247              		.section	.text.USB_UART_UartSetRxAddress,"ax",%progbits
 248              		.align	1
 249              		.global	USB_UART_UartSetRxAddress
 250              		.code	16
 251              		.thumb_func
 252              		.type	USB_UART_UartSetRxAddress, %function
 253              	USB_UART_UartSetRxAddress:
 254              	.LFB3:
 421:Generated_Source\PSoC4/USB_UART_UART.c **** 
 422:Generated_Source\PSoC4/USB_UART_UART.c **** 
 423:Generated_Source\PSoC4/USB_UART_UART.c **** /*******************************************************************************
 424:Generated_Source\PSoC4/USB_UART_UART.c **** * Function Name: USB_UART_UartSetRxAddress
 425:Generated_Source\PSoC4/USB_UART_UART.c **** ****************************************************************************//**
 426:Generated_Source\PSoC4/USB_UART_UART.c **** *
 427:Generated_Source\PSoC4/USB_UART_UART.c **** *  Sets the hardware detectable receiver address for the UART in the
 428:Generated_Source\PSoC4/USB_UART_UART.c **** *  Multiprocessor mode.
 429:Generated_Source\PSoC4/USB_UART_UART.c **** *
 430:Generated_Source\PSoC4/USB_UART_UART.c **** *  \param address: Address for hardware address detection.
 431:Generated_Source\PSoC4/USB_UART_UART.c **** *
 432:Generated_Source\PSoC4/USB_UART_UART.c **** *******************************************************************************/
 433:Generated_Source\PSoC4/USB_UART_UART.c **** void USB_UART_UartSetRxAddress(uint32 address)
 434:Generated_Source\PSoC4/USB_UART_UART.c **** {
 255              		.loc 1 434 0
 256              		.cfi_startproc
 257              		@ args = 0, pretend = 0, frame = 0
 258              		@ frame_needed = 0, uses_anonymous_args = 0
 259              		@ link register save eliminated.
 260              	.LVL3:
 435:Generated_Source\PSoC4/USB_UART_UART.c ****      uint32 matchReg;
 436:Generated_Source\PSoC4/USB_UART_UART.c **** 
 437:Generated_Source\PSoC4/USB_UART_UART.c ****     matchReg = USB_UART_RX_MATCH_REG;
 438:Generated_Source\PSoC4/USB_UART_UART.c **** 
 439:Generated_Source\PSoC4/USB_UART_UART.c ****     matchReg &= ((uint32) ~USB_UART_RX_MATCH_ADDR_MASK); /* Clear address bits */
 261              		.loc 1 439 0
 262 0000 FF22     		movs	r2, #255
 437:Generated_Source\PSoC4/USB_UART_UART.c **** 
 263              		.loc 1 437 0
 264 0002 0349     		ldr	r1, .L11
 440:Generated_Source\PSoC4/USB_UART_UART.c ****     matchReg |= ((uint32)  (address & USB_UART_RX_MATCH_ADDR_MASK)); /* Set address  */
 265              		.loc 1 440 0
ARM GAS  C:\Users\Ray\AppData\Local\Temp\ccJcGBXj.s 			page 14


 266 0004 1040     		ands	r0, r2
 267              	.LVL4:
 437:Generated_Source\PSoC4/USB_UART_UART.c **** 
 268              		.loc 1 437 0
 269 0006 0B68     		ldr	r3, [r1]
 270              	.LVL5:
 441:Generated_Source\PSoC4/USB_UART_UART.c **** 
 442:Generated_Source\PSoC4/USB_UART_UART.c ****     USB_UART_RX_MATCH_REG = matchReg;
 443:Generated_Source\PSoC4/USB_UART_UART.c **** }
 271              		.loc 1 443 0
 272              		@ sp needed
 439:Generated_Source\PSoC4/USB_UART_UART.c ****     matchReg |= ((uint32)  (address & USB_UART_RX_MATCH_ADDR_MASK)); /* Set address  */
 273              		.loc 1 439 0
 274 0008 9343     		bics	r3, r2
 275              	.LVL6:
 440:Generated_Source\PSoC4/USB_UART_UART.c ****     matchReg |= ((uint32)  (address & USB_UART_RX_MATCH_ADDR_MASK)); /* Set address  */
 276              		.loc 1 440 0
 277 000a 1843     		orrs	r0, r3
 278              	.LVL7:
 442:Generated_Source\PSoC4/USB_UART_UART.c **** }
 279              		.loc 1 442 0
 280 000c 0860     		str	r0, [r1]
 281              		.loc 1 443 0
 282 000e 7047     		bx	lr
 283              	.L12:
 284              		.align	2
 285              	.L11:
 286 0010 10030640 		.word	1074135824
 287              		.cfi_endproc
 288              	.LFE3:
 289              		.size	USB_UART_UartSetRxAddress, .-USB_UART_UartSetRxAddress
 290              		.section	.text.USB_UART_UartSetRxAddressMask,"ax",%progbits
 291              		.align	1
 292              		.global	USB_UART_UartSetRxAddressMask
 293              		.code	16
 294              		.thumb_func
 295              		.type	USB_UART_UartSetRxAddressMask, %function
 296              	USB_UART_UartSetRxAddressMask:
 297              	.LFB4:
 444:Generated_Source\PSoC4/USB_UART_UART.c **** 
 445:Generated_Source\PSoC4/USB_UART_UART.c **** 
 446:Generated_Source\PSoC4/USB_UART_UART.c **** /*******************************************************************************
 447:Generated_Source\PSoC4/USB_UART_UART.c **** * Function Name: USB_UART_UartSetRxAddressMask
 448:Generated_Source\PSoC4/USB_UART_UART.c **** ****************************************************************************//**
 449:Generated_Source\PSoC4/USB_UART_UART.c **** *
 450:Generated_Source\PSoC4/USB_UART_UART.c **** *  Sets the hardware address mask for the UART in the Multiprocessor mode.
 451:Generated_Source\PSoC4/USB_UART_UART.c **** *
 452:Generated_Source\PSoC4/USB_UART_UART.c **** *  \param addressMask: Address mask.
 453:Generated_Source\PSoC4/USB_UART_UART.c **** *   - Bit value 0 – excludes bit from address comparison.
 454:Generated_Source\PSoC4/USB_UART_UART.c **** *   - Bit value 1 – the bit needs to match with the corresponding bit
 455:Generated_Source\PSoC4/USB_UART_UART.c **** *     of the address.
 456:Generated_Source\PSoC4/USB_UART_UART.c **** *
 457:Generated_Source\PSoC4/USB_UART_UART.c **** *******************************************************************************/
 458:Generated_Source\PSoC4/USB_UART_UART.c **** void USB_UART_UartSetRxAddressMask(uint32 addressMask)
 459:Generated_Source\PSoC4/USB_UART_UART.c **** {
 298              		.loc 1 459 0
 299              		.cfi_startproc
ARM GAS  C:\Users\Ray\AppData\Local\Temp\ccJcGBXj.s 			page 15


 300              		@ args = 0, pretend = 0, frame = 0
 301              		@ frame_needed = 0, uses_anonymous_args = 0
 302              		@ link register save eliminated.
 303              	.LVL8:
 460:Generated_Source\PSoC4/USB_UART_UART.c ****     uint32 matchReg;
 461:Generated_Source\PSoC4/USB_UART_UART.c **** 
 462:Generated_Source\PSoC4/USB_UART_UART.c ****     matchReg = USB_UART_RX_MATCH_REG;
 304              		.loc 1 462 0
 305 0000 034A     		ldr	r2, .L14
 463:Generated_Source\PSoC4/USB_UART_UART.c **** 
 464:Generated_Source\PSoC4/USB_UART_UART.c ****     matchReg &= ((uint32) ~USB_UART_RX_MATCH_MASK_MASK); /* Clear address mask bits */
 306              		.loc 1 464 0
 307 0002 044B     		ldr	r3, .L14+4
 462:Generated_Source\PSoC4/USB_UART_UART.c **** 
 308              		.loc 1 462 0
 309 0004 1168     		ldr	r1, [r2]
 310              	.LVL9:
 465:Generated_Source\PSoC4/USB_UART_UART.c ****     matchReg |= ((uint32) (addressMask << USB_UART_RX_MATCH_MASK_POS));
 311              		.loc 1 465 0
 312 0006 0004     		lsls	r0, r0, #16
 313              	.LVL10:
 464:Generated_Source\PSoC4/USB_UART_UART.c ****     matchReg |= ((uint32) (addressMask << USB_UART_RX_MATCH_MASK_POS));
 314              		.loc 1 464 0
 315 0008 0B40     		ands	r3, r1
 316              	.LVL11:
 317              		.loc 1 465 0
 318 000a 1843     		orrs	r0, r3
 319              	.LVL12:
 466:Generated_Source\PSoC4/USB_UART_UART.c **** 
 467:Generated_Source\PSoC4/USB_UART_UART.c ****     USB_UART_RX_MATCH_REG = matchReg;
 320              		.loc 1 467 0
 321 000c 1060     		str	r0, [r2]
 468:Generated_Source\PSoC4/USB_UART_UART.c **** }
 322              		.loc 1 468 0
 323              		@ sp needed
 324 000e 7047     		bx	lr
 325              	.L15:
 326              		.align	2
 327              	.L14:
 328 0010 10030640 		.word	1074135824
 329 0014 FFFF00FF 		.word	-16711681
 330              		.cfi_endproc
 331              	.LFE4:
 332              		.size	USB_UART_UartSetRxAddressMask, .-USB_UART_UartSetRxAddressMask
 333              		.section	.text.USB_UART_UartGetChar,"ax",%progbits
 334              		.align	1
 335              		.global	USB_UART_UartGetChar
 336              		.code	16
 337              		.thumb_func
 338              		.type	USB_UART_UartGetChar, %function
 339              	USB_UART_UartGetChar:
 340              	.LFB5:
 469:Generated_Source\PSoC4/USB_UART_UART.c **** 
 470:Generated_Source\PSoC4/USB_UART_UART.c **** 
 471:Generated_Source\PSoC4/USB_UART_UART.c **** #if(USB_UART_UART_RX_DIRECTION)
 472:Generated_Source\PSoC4/USB_UART_UART.c ****     /*******************************************************************************
 473:Generated_Source\PSoC4/USB_UART_UART.c ****     * Function Name: USB_UART_UartGetChar
ARM GAS  C:\Users\Ray\AppData\Local\Temp\ccJcGBXj.s 			page 16


 474:Generated_Source\PSoC4/USB_UART_UART.c ****     ****************************************************************************//**
 475:Generated_Source\PSoC4/USB_UART_UART.c ****     *
 476:Generated_Source\PSoC4/USB_UART_UART.c ****     *  Retrieves next data element from receive buffer.
 477:Generated_Source\PSoC4/USB_UART_UART.c ****     *  This function is designed for ASCII characters and returns a char where
 478:Generated_Source\PSoC4/USB_UART_UART.c ****     *  1 to 255 are valid characters and 0 indicates an error occurred or no data
 479:Generated_Source\PSoC4/USB_UART_UART.c ****     *  is present.
 480:Generated_Source\PSoC4/USB_UART_UART.c ****     *  - RX software buffer is disabled: Returns data element retrieved from RX
 481:Generated_Source\PSoC4/USB_UART_UART.c ****     *    FIFO.
 482:Generated_Source\PSoC4/USB_UART_UART.c ****     *  - RX software buffer is enabled: Returns data element from the software
 483:Generated_Source\PSoC4/USB_UART_UART.c ****     *    receive buffer.
 484:Generated_Source\PSoC4/USB_UART_UART.c ****     *
 485:Generated_Source\PSoC4/USB_UART_UART.c ****     *  \return
 486:Generated_Source\PSoC4/USB_UART_UART.c ****     *   Next data element from the receive buffer. ASCII character values from
 487:Generated_Source\PSoC4/USB_UART_UART.c ****     *   1 to 255 are valid. A returned zero signifies an error condition or no
 488:Generated_Source\PSoC4/USB_UART_UART.c ****     *   data available.
 489:Generated_Source\PSoC4/USB_UART_UART.c ****     *
 490:Generated_Source\PSoC4/USB_UART_UART.c ****     *  \sideeffect
 491:Generated_Source\PSoC4/USB_UART_UART.c ****     *   The errors bits may not correspond with reading characters due to
 492:Generated_Source\PSoC4/USB_UART_UART.c ****     *   RX FIFO and software buffer usage.
 493:Generated_Source\PSoC4/USB_UART_UART.c ****     *   RX software buffer is enabled: The internal software buffer overflow
 494:Generated_Source\PSoC4/USB_UART_UART.c ****     *   is not treated as an error condition.
 495:Generated_Source\PSoC4/USB_UART_UART.c ****     *   Check USB_UART_rxBufferOverflow to capture that error condition.
 496:Generated_Source\PSoC4/USB_UART_UART.c ****     *
 497:Generated_Source\PSoC4/USB_UART_UART.c ****     *******************************************************************************/
 498:Generated_Source\PSoC4/USB_UART_UART.c ****     uint32 USB_UART_UartGetChar(void)
 499:Generated_Source\PSoC4/USB_UART_UART.c ****     {
 341              		.loc 1 499 0
 342              		.cfi_startproc
 343              		@ args = 0, pretend = 0, frame = 0
 344              		@ frame_needed = 0, uses_anonymous_args = 0
 345              	.LVL13:
 346 0000 10B5     		push	{r4, lr}
 347              		.cfi_def_cfa_offset 8
 348              		.cfi_offset 4, -8
 349              		.cfi_offset 14, -4
 500:Generated_Source\PSoC4/USB_UART_UART.c ****         uint32 rxData = 0u;
 501:Generated_Source\PSoC4/USB_UART_UART.c **** 
 502:Generated_Source\PSoC4/USB_UART_UART.c ****         /* Reads data only if there is data to read */
 503:Generated_Source\PSoC4/USB_UART_UART.c ****         if (0u != USB_UART_SpiUartGetRxBufferSize())
 350              		.loc 1 503 0
 351 0002 FFF7FEFF 		bl	USB_UART_SpiUartGetRxBufferSize
 352              	.LVL14:
 353 0006 0300     		movs	r3, r0
 500:Generated_Source\PSoC4/USB_UART_UART.c ****         uint32 rxData = 0u;
 354              		.loc 1 500 0
 355 0008 0020     		movs	r0, #0
 356              		.loc 1 503 0
 357 000a 8342     		cmp	r3, r0
 358 000c 01D0     		beq	.L17
 504:Generated_Source\PSoC4/USB_UART_UART.c ****         {
 505:Generated_Source\PSoC4/USB_UART_UART.c ****             rxData = USB_UART_SpiUartReadRxData();
 359              		.loc 1 505 0
 360 000e FFF7FEFF 		bl	USB_UART_SpiUartReadRxData
 361              	.LVL15:
 362              	.L17:
 506:Generated_Source\PSoC4/USB_UART_UART.c ****         }
 507:Generated_Source\PSoC4/USB_UART_UART.c **** 
ARM GAS  C:\Users\Ray\AppData\Local\Temp\ccJcGBXj.s 			page 17


 508:Generated_Source\PSoC4/USB_UART_UART.c ****         if (USB_UART_CHECK_INTR_RX(USB_UART_INTR_RX_ERR))
 363              		.loc 1 508 0
 364 0012 D822     		movs	r2, #216
 365 0014 034B     		ldr	r3, .L25
 366 0016 9200     		lsls	r2, r2, #2
 367 0018 1968     		ldr	r1, [r3]
 368 001a 1142     		tst	r1, r2
 369 001c 01D0     		beq	.L18
 370              	.LVL16:
 509:Generated_Source\PSoC4/USB_UART_UART.c ****         {
 510:Generated_Source\PSoC4/USB_UART_UART.c ****             rxData = 0u; /* Error occurred: returns zero */
 371              		.loc 1 510 0
 372 001e 0020     		movs	r0, #0
 511:Generated_Source\PSoC4/USB_UART_UART.c ****             USB_UART_ClearRxInterruptSource(USB_UART_INTR_RX_ERR);
 373              		.loc 1 511 0
 374 0020 1A60     		str	r2, [r3]
 375              	.LVL17:
 376              	.L18:
 512:Generated_Source\PSoC4/USB_UART_UART.c ****         }
 513:Generated_Source\PSoC4/USB_UART_UART.c **** 
 514:Generated_Source\PSoC4/USB_UART_UART.c ****         return (rxData);
 515:Generated_Source\PSoC4/USB_UART_UART.c ****     }
 377              		.loc 1 515 0
 378              		@ sp needed
 379 0022 10BD     		pop	{r4, pc}
 380              	.L26:
 381              		.align	2
 382              	.L25:
 383 0024 C00F0640 		.word	1074139072
 384              		.cfi_endproc
 385              	.LFE5:
 386              		.size	USB_UART_UartGetChar, .-USB_UART_UartGetChar
 387              		.section	.text.USB_UART_UartGetByte,"ax",%progbits
 388              		.align	1
 389              		.global	USB_UART_UartGetByte
 390              		.code	16
 391              		.thumb_func
 392              		.type	USB_UART_UartGetByte, %function
 393              	USB_UART_UartGetByte:
 394              	.LFB6:
 516:Generated_Source\PSoC4/USB_UART_UART.c **** 
 517:Generated_Source\PSoC4/USB_UART_UART.c **** 
 518:Generated_Source\PSoC4/USB_UART_UART.c ****     /*******************************************************************************
 519:Generated_Source\PSoC4/USB_UART_UART.c ****     * Function Name: USB_UART_UartGetByte
 520:Generated_Source\PSoC4/USB_UART_UART.c ****     ****************************************************************************//**
 521:Generated_Source\PSoC4/USB_UART_UART.c ****     *
 522:Generated_Source\PSoC4/USB_UART_UART.c ****     *  Retrieves the next data element from the receive buffer, returns the
 523:Generated_Source\PSoC4/USB_UART_UART.c ****     *  received byte and error condition.
 524:Generated_Source\PSoC4/USB_UART_UART.c ****     *   - The RX software buffer is disabled: returns the data element retrieved
 525:Generated_Source\PSoC4/USB_UART_UART.c ****     *     from the RX FIFO. Undefined data will be returned if the RX FIFO is
 526:Generated_Source\PSoC4/USB_UART_UART.c ****     *     empty.
 527:Generated_Source\PSoC4/USB_UART_UART.c ****     *   - The RX software buffer is enabled: returns data element from the
 528:Generated_Source\PSoC4/USB_UART_UART.c ****     *     software receive buffer.
 529:Generated_Source\PSoC4/USB_UART_UART.c ****     *
 530:Generated_Source\PSoC4/USB_UART_UART.c ****     *  \return
 531:Generated_Source\PSoC4/USB_UART_UART.c ****     *   Bits 7-0 contain the next data element from the receive buffer and
 532:Generated_Source\PSoC4/USB_UART_UART.c ****     *   other bits contain the error condition.
ARM GAS  C:\Users\Ray\AppData\Local\Temp\ccJcGBXj.s 			page 18


 533:Generated_Source\PSoC4/USB_UART_UART.c ****     *   - USB_UART_UART_RX_OVERFLOW - Attempt to write to a full
 534:Generated_Source\PSoC4/USB_UART_UART.c ****     *     receiver FIFO.
 535:Generated_Source\PSoC4/USB_UART_UART.c ****     *   - USB_UART_UART_RX_UNDERFLOW    Attempt to read from an empty
 536:Generated_Source\PSoC4/USB_UART_UART.c ****     *     receiver FIFO.
 537:Generated_Source\PSoC4/USB_UART_UART.c ****     *   - USB_UART_UART_RX_FRAME_ERROR - UART framing error detected.
 538:Generated_Source\PSoC4/USB_UART_UART.c ****     *   - USB_UART_UART_RX_PARITY_ERROR - UART parity error detected.
 539:Generated_Source\PSoC4/USB_UART_UART.c ****     *
 540:Generated_Source\PSoC4/USB_UART_UART.c ****     *  \sideeffect
 541:Generated_Source\PSoC4/USB_UART_UART.c ****     *   The errors bits may not correspond with reading characters due to
 542:Generated_Source\PSoC4/USB_UART_UART.c ****     *   RX FIFO and software buffer usage.
 543:Generated_Source\PSoC4/USB_UART_UART.c ****     *   RX software buffer is enabled: The internal software buffer overflow
 544:Generated_Source\PSoC4/USB_UART_UART.c ****     *   is not treated as an error condition.
 545:Generated_Source\PSoC4/USB_UART_UART.c ****     *   Check USB_UART_rxBufferOverflow to capture that error condition.
 546:Generated_Source\PSoC4/USB_UART_UART.c ****     *
 547:Generated_Source\PSoC4/USB_UART_UART.c ****     *******************************************************************************/
 548:Generated_Source\PSoC4/USB_UART_UART.c ****     uint32 USB_UART_UartGetByte(void)
 549:Generated_Source\PSoC4/USB_UART_UART.c ****     {
 395              		.loc 1 549 0
 396              		.cfi_startproc
 397              		@ args = 0, pretend = 0, frame = 0
 398              		@ frame_needed = 0, uses_anonymous_args = 0
 399 0000 70B5     		push	{r4, r5, r6, lr}
 400              		.cfi_def_cfa_offset 16
 401              		.cfi_offset 4, -16
 402              		.cfi_offset 5, -12
 403              		.cfi_offset 6, -8
 404              		.cfi_offset 14, -4
 550:Generated_Source\PSoC4/USB_UART_UART.c ****         uint32 rxData;
 551:Generated_Source\PSoC4/USB_UART_UART.c ****         uint32 tmpStatus;
 552:Generated_Source\PSoC4/USB_UART_UART.c **** 
 553:Generated_Source\PSoC4/USB_UART_UART.c ****         #if (USB_UART_CHECK_RX_SW_BUFFER)
 554:Generated_Source\PSoC4/USB_UART_UART.c ****         {
 555:Generated_Source\PSoC4/USB_UART_UART.c ****             USB_UART_DisableInt();
 405              		.loc 1 555 0
 406 0002 0A20     		movs	r0, #10
 407 0004 FFF7FEFF 		bl	CyIntDisable
 408              	.LVL18:
 556:Generated_Source\PSoC4/USB_UART_UART.c ****         }
 557:Generated_Source\PSoC4/USB_UART_UART.c ****         #endif
 558:Generated_Source\PSoC4/USB_UART_UART.c **** 
 559:Generated_Source\PSoC4/USB_UART_UART.c ****         if (0u != USB_UART_SpiUartGetRxBufferSize())
 409              		.loc 1 559 0
 410 0008 FFF7FEFF 		bl	USB_UART_SpiUartGetRxBufferSize
 411              	.LVL19:
 412 000c 0D4D     		ldr	r5, .L30
 413 000e 0028     		cmp	r0, #0
 414 0010 06D0     		beq	.L28
 560:Generated_Source\PSoC4/USB_UART_UART.c ****         {
 561:Generated_Source\PSoC4/USB_UART_UART.c ****             /* Enables interrupt to receive more bytes: at least one byte is in
 562:Generated_Source\PSoC4/USB_UART_UART.c ****             * buffer.
 563:Generated_Source\PSoC4/USB_UART_UART.c ****             */
 564:Generated_Source\PSoC4/USB_UART_UART.c ****             #if (USB_UART_CHECK_RX_SW_BUFFER)
 565:Generated_Source\PSoC4/USB_UART_UART.c ****             {
 566:Generated_Source\PSoC4/USB_UART_UART.c ****                 USB_UART_EnableInt();
 415              		.loc 1 566 0
 416 0012 0A20     		movs	r0, #10
 417 0014 FFF7FEFF 		bl	CyIntEnable
ARM GAS  C:\Users\Ray\AppData\Local\Temp\ccJcGBXj.s 			page 19


 418              	.LVL20:
 567:Generated_Source\PSoC4/USB_UART_UART.c ****             }
 568:Generated_Source\PSoC4/USB_UART_UART.c ****             #endif
 569:Generated_Source\PSoC4/USB_UART_UART.c **** 
 570:Generated_Source\PSoC4/USB_UART_UART.c ****             /* Get received byte */
 571:Generated_Source\PSoC4/USB_UART_UART.c ****             rxData = USB_UART_SpiUartReadRxData();
 419              		.loc 1 571 0
 420 0018 FFF7FEFF 		bl	USB_UART_SpiUartReadRxData
 421              	.LVL21:
 422 001c 0400     		movs	r4, r0
 423              	.LVL22:
 424 001e 06E0     		b	.L29
 425              	.LVL23:
 426              	.L28:
 572:Generated_Source\PSoC4/USB_UART_UART.c ****         }
 573:Generated_Source\PSoC4/USB_UART_UART.c ****         else
 574:Generated_Source\PSoC4/USB_UART_UART.c ****         {
 575:Generated_Source\PSoC4/USB_UART_UART.c ****             /* Reads a byte directly from RX FIFO: underflow is raised in the
 576:Generated_Source\PSoC4/USB_UART_UART.c ****             * case of empty. Otherwise the first received byte will be read.
 577:Generated_Source\PSoC4/USB_UART_UART.c ****             */
 578:Generated_Source\PSoC4/USB_UART_UART.c ****             rxData = USB_UART_RX_FIFO_RD_REG;
 427              		.loc 1 578 0
 428 0020 094B     		ldr	r3, .L30+4
 579:Generated_Source\PSoC4/USB_UART_UART.c **** 
 580:Generated_Source\PSoC4/USB_UART_UART.c **** 
 581:Generated_Source\PSoC4/USB_UART_UART.c ****             /* Enables interrupt to receive more bytes. */
 582:Generated_Source\PSoC4/USB_UART_UART.c ****             #if (USB_UART_CHECK_RX_SW_BUFFER)
 583:Generated_Source\PSoC4/USB_UART_UART.c ****             {
 584:Generated_Source\PSoC4/USB_UART_UART.c **** 
 585:Generated_Source\PSoC4/USB_UART_UART.c ****                 /* The byte has been read from RX FIFO. Clear RX interrupt to
 586:Generated_Source\PSoC4/USB_UART_UART.c ****                 * not involve interrupt handler when RX FIFO is empty.
 587:Generated_Source\PSoC4/USB_UART_UART.c ****                 */
 588:Generated_Source\PSoC4/USB_UART_UART.c ****                 USB_UART_ClearRxInterruptSource(USB_UART_INTR_RX_NOT_EMPTY);
 589:Generated_Source\PSoC4/USB_UART_UART.c **** 
 590:Generated_Source\PSoC4/USB_UART_UART.c ****                 USB_UART_EnableInt();
 429              		.loc 1 590 0
 430 0022 0A20     		movs	r0, #10
 578:Generated_Source\PSoC4/USB_UART_UART.c **** 
 431              		.loc 1 578 0
 432 0024 1C68     		ldr	r4, [r3]
 433              	.LVL24:
 588:Generated_Source\PSoC4/USB_UART_UART.c **** 
 434              		.loc 1 588 0
 435 0026 0423     		movs	r3, #4
 436 0028 2B60     		str	r3, [r5]
 437              		.loc 1 590 0
 438 002a FFF7FEFF 		bl	CyIntEnable
 439              	.LVL25:
 440              	.L29:
 591:Generated_Source\PSoC4/USB_UART_UART.c ****             }
 592:Generated_Source\PSoC4/USB_UART_UART.c ****             #endif
 593:Generated_Source\PSoC4/USB_UART_UART.c ****         }
 594:Generated_Source\PSoC4/USB_UART_UART.c **** 
 595:Generated_Source\PSoC4/USB_UART_UART.c ****         /* Get and clear RX error mask */
 596:Generated_Source\PSoC4/USB_UART_UART.c ****         tmpStatus = (USB_UART_GetRxInterruptSource() & USB_UART_INTR_RX_ERR);
 597:Generated_Source\PSoC4/USB_UART_UART.c ****         USB_UART_ClearRxInterruptSource(USB_UART_INTR_RX_ERR);
 441              		.loc 1 597 0
ARM GAS  C:\Users\Ray\AppData\Local\Temp\ccJcGBXj.s 			page 20


 442 002e D823     		movs	r3, #216
 443 0030 9B00     		lsls	r3, r3, #2
 596:Generated_Source\PSoC4/USB_UART_UART.c ****         USB_UART_ClearRxInterruptSource(USB_UART_INTR_RX_ERR);
 444              		.loc 1 596 0
 445 0032 2868     		ldr	r0, [r5]
 446              	.LVL26:
 447              		.loc 1 597 0
 448 0034 2B60     		str	r3, [r5]
 449              	.LVL27:
 598:Generated_Source\PSoC4/USB_UART_UART.c **** 
 599:Generated_Source\PSoC4/USB_UART_UART.c ****         /* Puts together data and error status:
 600:Generated_Source\PSoC4/USB_UART_UART.c ****         * MP mode and accept address: 9th bit is set to notify mark.
 601:Generated_Source\PSoC4/USB_UART_UART.c ****         */
 602:Generated_Source\PSoC4/USB_UART_UART.c ****         rxData |= ((uint32) (tmpStatus << 8u));
 603:Generated_Source\PSoC4/USB_UART_UART.c **** 
 604:Generated_Source\PSoC4/USB_UART_UART.c ****         return (rxData);
 450              		.loc 1 604 0
 451 0036 D823     		movs	r3, #216
 452 0038 0002     		lsls	r0, r0, #8
 453              	.LVL28:
 454 003a 9B02     		lsls	r3, r3, #10
 455 003c 1840     		ands	r0, r3
 456 003e 2043     		orrs	r0, r4
 605:Generated_Source\PSoC4/USB_UART_UART.c ****     }
 457              		.loc 1 605 0
 458              		@ sp needed
 459 0040 70BD     		pop	{r4, r5, r6, pc}
 460              	.L31:
 461 0042 C046     		.align	2
 462              	.L30:
 463 0044 C00F0640 		.word	1074139072
 464 0048 40030640 		.word	1074135872
 465              		.cfi_endproc
 466              	.LFE6:
 467              		.size	USB_UART_UartGetByte, .-USB_UART_UartGetByte
 468              		.section	.text.USB_UART_UartPutString,"ax",%progbits
 469              		.align	1
 470              		.global	USB_UART_UartPutString
 471              		.code	16
 472              		.thumb_func
 473              		.type	USB_UART_UartPutString, %function
 474              	USB_UART_UartPutString:
 475              	.LFB7:
 606:Generated_Source\PSoC4/USB_UART_UART.c **** 
 607:Generated_Source\PSoC4/USB_UART_UART.c **** 
 608:Generated_Source\PSoC4/USB_UART_UART.c ****     #if !(USB_UART_CY_SCBIP_V0 || USB_UART_CY_SCBIP_V1)
 609:Generated_Source\PSoC4/USB_UART_UART.c ****         /*******************************************************************************
 610:Generated_Source\PSoC4/USB_UART_UART.c ****         * Function Name: USB_UART_UartSetRtsPolarity
 611:Generated_Source\PSoC4/USB_UART_UART.c ****         ****************************************************************************//**
 612:Generated_Source\PSoC4/USB_UART_UART.c ****         *
 613:Generated_Source\PSoC4/USB_UART_UART.c ****         *  Sets active polarity of RTS output signal.
 614:Generated_Source\PSoC4/USB_UART_UART.c ****         *  Only available for PSoC 4100 BLE / PSoC 4200 BLE / PSoC 4100M / PSoC 4200M /
 615:Generated_Source\PSoC4/USB_UART_UART.c ****         *  PSoC 4200L / PSoC 4000S / PSoC 4100S / PSoC Analog Coprocessor devices.
 616:Generated_Source\PSoC4/USB_UART_UART.c ****         *
 617:Generated_Source\PSoC4/USB_UART_UART.c ****         *  \param polarity: Active polarity of RTS output signal.
 618:Generated_Source\PSoC4/USB_UART_UART.c ****         *   - USB_UART_UART_RTS_ACTIVE_LOW  - RTS signal is active low.
 619:Generated_Source\PSoC4/USB_UART_UART.c ****         *   - USB_UART_UART_RTS_ACTIVE_HIGH - RTS signal is active high.
ARM GAS  C:\Users\Ray\AppData\Local\Temp\ccJcGBXj.s 			page 21


 620:Generated_Source\PSoC4/USB_UART_UART.c ****         *
 621:Generated_Source\PSoC4/USB_UART_UART.c ****         *******************************************************************************/
 622:Generated_Source\PSoC4/USB_UART_UART.c ****         void USB_UART_UartSetRtsPolarity(uint32 polarity)
 623:Generated_Source\PSoC4/USB_UART_UART.c ****         {
 624:Generated_Source\PSoC4/USB_UART_UART.c ****             if(0u != polarity)
 625:Generated_Source\PSoC4/USB_UART_UART.c ****             {
 626:Generated_Source\PSoC4/USB_UART_UART.c ****                 USB_UART_UART_FLOW_CTRL_REG |= (uint32)  USB_UART_UART_FLOW_CTRL_RTS_POLARITY;
 627:Generated_Source\PSoC4/USB_UART_UART.c ****             }
 628:Generated_Source\PSoC4/USB_UART_UART.c ****             else
 629:Generated_Source\PSoC4/USB_UART_UART.c ****             {
 630:Generated_Source\PSoC4/USB_UART_UART.c ****                 USB_UART_UART_FLOW_CTRL_REG &= (uint32) ~USB_UART_UART_FLOW_CTRL_RTS_POLARITY;
 631:Generated_Source\PSoC4/USB_UART_UART.c ****             }
 632:Generated_Source\PSoC4/USB_UART_UART.c ****         }
 633:Generated_Source\PSoC4/USB_UART_UART.c **** 
 634:Generated_Source\PSoC4/USB_UART_UART.c **** 
 635:Generated_Source\PSoC4/USB_UART_UART.c ****         /*******************************************************************************
 636:Generated_Source\PSoC4/USB_UART_UART.c ****         * Function Name: USB_UART_UartSetRtsFifoLevel
 637:Generated_Source\PSoC4/USB_UART_UART.c ****         ****************************************************************************//**
 638:Generated_Source\PSoC4/USB_UART_UART.c ****         *
 639:Generated_Source\PSoC4/USB_UART_UART.c ****         *  Sets level in the RX FIFO for RTS signal activation.
 640:Generated_Source\PSoC4/USB_UART_UART.c ****         *  While the RX FIFO has fewer entries than the RX FIFO level the RTS signal
 641:Generated_Source\PSoC4/USB_UART_UART.c ****         *  remains active, otherwise the RTS signal becomes inactive.
 642:Generated_Source\PSoC4/USB_UART_UART.c ****         *  Only available for PSoC 4100 BLE / PSoC 4200 BLE / PSoC 4100M / PSoC 4200M /
 643:Generated_Source\PSoC4/USB_UART_UART.c ****         *  PSoC 4200L / PSoC 4000S / PSoC 4100S / PSoC Analog Coprocessor devices.
 644:Generated_Source\PSoC4/USB_UART_UART.c ****         *
 645:Generated_Source\PSoC4/USB_UART_UART.c ****         *  \param level: Level in the RX FIFO for RTS signal activation.
 646:Generated_Source\PSoC4/USB_UART_UART.c ****         *   The range of valid level values is between 0 and RX FIFO depth - 1.
 647:Generated_Source\PSoC4/USB_UART_UART.c ****         *   Setting level value to 0 disables RTS signal activation.
 648:Generated_Source\PSoC4/USB_UART_UART.c ****         *
 649:Generated_Source\PSoC4/USB_UART_UART.c ****         *******************************************************************************/
 650:Generated_Source\PSoC4/USB_UART_UART.c ****         void USB_UART_UartSetRtsFifoLevel(uint32 level)
 651:Generated_Source\PSoC4/USB_UART_UART.c ****         {
 652:Generated_Source\PSoC4/USB_UART_UART.c ****             uint32 uartFlowCtrl;
 653:Generated_Source\PSoC4/USB_UART_UART.c **** 
 654:Generated_Source\PSoC4/USB_UART_UART.c ****             uartFlowCtrl = USB_UART_UART_FLOW_CTRL_REG;
 655:Generated_Source\PSoC4/USB_UART_UART.c **** 
 656:Generated_Source\PSoC4/USB_UART_UART.c ****             uartFlowCtrl &= ((uint32) ~USB_UART_UART_FLOW_CTRL_TRIGGER_LEVEL_MASK); /* Clear level 
 657:Generated_Source\PSoC4/USB_UART_UART.c ****             uartFlowCtrl |= ((uint32) (USB_UART_UART_FLOW_CTRL_TRIGGER_LEVEL_MASK & level));
 658:Generated_Source\PSoC4/USB_UART_UART.c **** 
 659:Generated_Source\PSoC4/USB_UART_UART.c ****             USB_UART_UART_FLOW_CTRL_REG = uartFlowCtrl;
 660:Generated_Source\PSoC4/USB_UART_UART.c ****         }
 661:Generated_Source\PSoC4/USB_UART_UART.c ****     #endif /* !(USB_UART_CY_SCBIP_V0 || USB_UART_CY_SCBIP_V1) */
 662:Generated_Source\PSoC4/USB_UART_UART.c **** 
 663:Generated_Source\PSoC4/USB_UART_UART.c **** #endif /* (USB_UART_UART_RX_DIRECTION) */
 664:Generated_Source\PSoC4/USB_UART_UART.c **** 
 665:Generated_Source\PSoC4/USB_UART_UART.c **** 
 666:Generated_Source\PSoC4/USB_UART_UART.c **** #if(USB_UART_UART_TX_DIRECTION)
 667:Generated_Source\PSoC4/USB_UART_UART.c ****     /*******************************************************************************
 668:Generated_Source\PSoC4/USB_UART_UART.c ****     * Function Name: USB_UART_UartPutString
 669:Generated_Source\PSoC4/USB_UART_UART.c ****     ****************************************************************************//**
 670:Generated_Source\PSoC4/USB_UART_UART.c ****     *
 671:Generated_Source\PSoC4/USB_UART_UART.c ****     *  Places a NULL terminated string in the transmit buffer to be sent at the
 672:Generated_Source\PSoC4/USB_UART_UART.c ****     *  next available bus time.
 673:Generated_Source\PSoC4/USB_UART_UART.c ****     *  This function is blocking and waits until there is a space available to put
 674:Generated_Source\PSoC4/USB_UART_UART.c ****     *  requested data in transmit buffer.
 675:Generated_Source\PSoC4/USB_UART_UART.c ****     *
 676:Generated_Source\PSoC4/USB_UART_UART.c ****     *  \param string: pointer to the null terminated string array to be placed in the
ARM GAS  C:\Users\Ray\AppData\Local\Temp\ccJcGBXj.s 			page 22


 677:Generated_Source\PSoC4/USB_UART_UART.c ****     *   transmit buffer.
 678:Generated_Source\PSoC4/USB_UART_UART.c ****     *
 679:Generated_Source\PSoC4/USB_UART_UART.c ****     *******************************************************************************/
 680:Generated_Source\PSoC4/USB_UART_UART.c ****     void USB_UART_UartPutString(const char8 string[])
 681:Generated_Source\PSoC4/USB_UART_UART.c ****     {
 476              		.loc 1 681 0
 477              		.cfi_startproc
 478              		@ args = 0, pretend = 0, frame = 0
 479              		@ frame_needed = 0, uses_anonymous_args = 0
 480              	.LVL29:
 481 0000 10B5     		push	{r4, lr}
 482              		.cfi_def_cfa_offset 8
 483              		.cfi_offset 4, -8
 484              		.cfi_offset 14, -4
 485 0002 0400     		movs	r4, r0
 486              	.LVL30:
 487              	.L33:
 488 0004 0134     		adds	r4, r4, #1
 489              	.LVL31:
 682:Generated_Source\PSoC4/USB_UART_UART.c ****         uint32 bufIndex;
 683:Generated_Source\PSoC4/USB_UART_UART.c **** 
 684:Generated_Source\PSoC4/USB_UART_UART.c ****         bufIndex = 0u;
 685:Generated_Source\PSoC4/USB_UART_UART.c **** 
 686:Generated_Source\PSoC4/USB_UART_UART.c ****         /* Blocks the control flow until all data has been sent */
 687:Generated_Source\PSoC4/USB_UART_UART.c ****         while(string[bufIndex] != ((char8) 0))
 490              		.loc 1 687 0
 491 0006 631E     		subs	r3, r4, #1
 492 0008 1878     		ldrb	r0, [r3]
 493 000a 0028     		cmp	r0, #0
 494 000c 02D0     		beq	.L35
 688:Generated_Source\PSoC4/USB_UART_UART.c ****         {
 689:Generated_Source\PSoC4/USB_UART_UART.c ****             USB_UART_UartPutChar((uint32) string[bufIndex]);
 495              		.loc 1 689 0
 496 000e FFF7FEFF 		bl	USB_UART_SpiUartWriteTxData
 497              	.LVL32:
 498 0012 F7E7     		b	.L33
 499              	.LVL33:
 500              	.L35:
 690:Generated_Source\PSoC4/USB_UART_UART.c ****             bufIndex++;
 691:Generated_Source\PSoC4/USB_UART_UART.c ****         }
 692:Generated_Source\PSoC4/USB_UART_UART.c ****     }
 501              		.loc 1 692 0
 502              		@ sp needed
 503              	.LVL34:
 504 0014 10BD     		pop	{r4, pc}
 505              		.cfi_endproc
 506              	.LFE7:
 507              		.size	USB_UART_UartPutString, .-USB_UART_UartPutString
 508              		.section	.text.USB_UART_UartPutCRLF,"ax",%progbits
 509              		.align	1
 510              		.global	USB_UART_UartPutCRLF
 511              		.code	16
 512              		.thumb_func
 513              		.type	USB_UART_UartPutCRLF, %function
 514              	USB_UART_UartPutCRLF:
 515              	.LFB8:
 693:Generated_Source\PSoC4/USB_UART_UART.c **** 
ARM GAS  C:\Users\Ray\AppData\Local\Temp\ccJcGBXj.s 			page 23


 694:Generated_Source\PSoC4/USB_UART_UART.c **** 
 695:Generated_Source\PSoC4/USB_UART_UART.c ****     /*******************************************************************************
 696:Generated_Source\PSoC4/USB_UART_UART.c ****     * Function Name: USB_UART_UartPutCRLF
 697:Generated_Source\PSoC4/USB_UART_UART.c ****     ****************************************************************************//**
 698:Generated_Source\PSoC4/USB_UART_UART.c ****     *
 699:Generated_Source\PSoC4/USB_UART_UART.c ****     *  Places byte of data followed by a carriage return (0x0D) and line feed
 700:Generated_Source\PSoC4/USB_UART_UART.c ****     *  (0x0A) in the transmit buffer.
 701:Generated_Source\PSoC4/USB_UART_UART.c ****     *  This function is blocking and waits until there is a space available to put
 702:Generated_Source\PSoC4/USB_UART_UART.c ****     *  all requested data in transmit buffer.
 703:Generated_Source\PSoC4/USB_UART_UART.c ****     *
 704:Generated_Source\PSoC4/USB_UART_UART.c ****     *  \param txDataByte: the data to be transmitted.
 705:Generated_Source\PSoC4/USB_UART_UART.c ****     *
 706:Generated_Source\PSoC4/USB_UART_UART.c ****     *******************************************************************************/
 707:Generated_Source\PSoC4/USB_UART_UART.c ****     void USB_UART_UartPutCRLF(uint32 txDataByte)
 708:Generated_Source\PSoC4/USB_UART_UART.c ****     {
 516              		.loc 1 708 0
 517              		.cfi_startproc
 518              		@ args = 0, pretend = 0, frame = 0
 519              		@ frame_needed = 0, uses_anonymous_args = 0
 520              	.LVL35:
 521 0000 10B5     		push	{r4, lr}
 522              		.cfi_def_cfa_offset 8
 523              		.cfi_offset 4, -8
 524              		.cfi_offset 14, -4
 709:Generated_Source\PSoC4/USB_UART_UART.c ****         USB_UART_UartPutChar(txDataByte);  /* Blocks control flow until all data has been sent */
 525              		.loc 1 709 0
 526 0002 FFF7FEFF 		bl	USB_UART_SpiUartWriteTxData
 527              	.LVL36:
 710:Generated_Source\PSoC4/USB_UART_UART.c ****         USB_UART_UartPutChar(0x0Du);       /* Blocks control flow until all data has been sent */
 528              		.loc 1 710 0
 529 0006 0D20     		movs	r0, #13
 530 0008 FFF7FEFF 		bl	USB_UART_SpiUartWriteTxData
 531              	.LVL37:
 711:Generated_Source\PSoC4/USB_UART_UART.c ****         USB_UART_UartPutChar(0x0Au);       /* Blocks control flow until all data has been sent */
 532              		.loc 1 711 0
 533 000c 0A20     		movs	r0, #10
 534 000e FFF7FEFF 		bl	USB_UART_SpiUartWriteTxData
 535              	.LVL38:
 712:Generated_Source\PSoC4/USB_UART_UART.c ****     }
 536              		.loc 1 712 0
 537              		@ sp needed
 538 0012 10BD     		pop	{r4, pc}
 539              		.cfi_endproc
 540              	.LFE8:
 541              		.size	USB_UART_UartPutCRLF, .-USB_UART_UartPutCRLF
 542              		.section	.text.USB_UART_UartSendBreakBlocking,"ax",%progbits
 543              		.align	1
 544              		.global	USB_UART_UartSendBreakBlocking
 545              		.code	16
 546              		.thumb_func
 547              		.type	USB_UART_UartSendBreakBlocking, %function
 548              	USB_UART_UartSendBreakBlocking:
 549              	.LFB9:
 713:Generated_Source\PSoC4/USB_UART_UART.c **** 
 714:Generated_Source\PSoC4/USB_UART_UART.c **** 
 715:Generated_Source\PSoC4/USB_UART_UART.c ****     #if !(USB_UART_CY_SCBIP_V0 || USB_UART_CY_SCBIP_V1)
 716:Generated_Source\PSoC4/USB_UART_UART.c ****         /*******************************************************************************
ARM GAS  C:\Users\Ray\AppData\Local\Temp\ccJcGBXj.s 			page 24


 717:Generated_Source\PSoC4/USB_UART_UART.c ****         * Function Name: USB_UARTSCB_UartEnableCts
 718:Generated_Source\PSoC4/USB_UART_UART.c ****         ****************************************************************************//**
 719:Generated_Source\PSoC4/USB_UART_UART.c ****         *
 720:Generated_Source\PSoC4/USB_UART_UART.c ****         *  Enables usage of CTS input signal by the UART transmitter.
 721:Generated_Source\PSoC4/USB_UART_UART.c ****         *  Only available for PSoC 4100 BLE / PSoC 4200 BLE / PSoC 4100M / PSoC 4200M /
 722:Generated_Source\PSoC4/USB_UART_UART.c ****         *  PSoC 4200L / PSoC 4000S / PSoC 4100S / PSoC Analog Coprocessor devices.
 723:Generated_Source\PSoC4/USB_UART_UART.c ****         *
 724:Generated_Source\PSoC4/USB_UART_UART.c ****         *******************************************************************************/
 725:Generated_Source\PSoC4/USB_UART_UART.c ****         void USB_UART_UartEnableCts(void)
 726:Generated_Source\PSoC4/USB_UART_UART.c ****         {
 727:Generated_Source\PSoC4/USB_UART_UART.c ****             USB_UART_UART_FLOW_CTRL_REG |= (uint32)  USB_UART_UART_FLOW_CTRL_CTS_ENABLE;
 728:Generated_Source\PSoC4/USB_UART_UART.c ****         }
 729:Generated_Source\PSoC4/USB_UART_UART.c **** 
 730:Generated_Source\PSoC4/USB_UART_UART.c **** 
 731:Generated_Source\PSoC4/USB_UART_UART.c ****         /*******************************************************************************
 732:Generated_Source\PSoC4/USB_UART_UART.c ****         * Function Name: USB_UART_UartDisableCts
 733:Generated_Source\PSoC4/USB_UART_UART.c ****         ****************************************************************************//**
 734:Generated_Source\PSoC4/USB_UART_UART.c ****         *
 735:Generated_Source\PSoC4/USB_UART_UART.c ****         *  Disables usage of CTS input signal by the UART transmitter.
 736:Generated_Source\PSoC4/USB_UART_UART.c ****         *  Only available for PSoC 4100 BLE / PSoC 4200 BLE / PSoC 4100M / PSoC 4200M /
 737:Generated_Source\PSoC4/USB_UART_UART.c ****         *  PSoC 4200L / PSoC 4000S / PSoC 4100S / PSoC Analog Coprocessor devices.
 738:Generated_Source\PSoC4/USB_UART_UART.c ****         *
 739:Generated_Source\PSoC4/USB_UART_UART.c ****         *******************************************************************************/
 740:Generated_Source\PSoC4/USB_UART_UART.c ****         void USB_UART_UartDisableCts(void)
 741:Generated_Source\PSoC4/USB_UART_UART.c ****         {
 742:Generated_Source\PSoC4/USB_UART_UART.c ****             USB_UART_UART_FLOW_CTRL_REG &= (uint32) ~USB_UART_UART_FLOW_CTRL_CTS_ENABLE;
 743:Generated_Source\PSoC4/USB_UART_UART.c ****         }
 744:Generated_Source\PSoC4/USB_UART_UART.c **** 
 745:Generated_Source\PSoC4/USB_UART_UART.c **** 
 746:Generated_Source\PSoC4/USB_UART_UART.c ****         /*******************************************************************************
 747:Generated_Source\PSoC4/USB_UART_UART.c ****         * Function Name: USB_UART_UartSetCtsPolarity
 748:Generated_Source\PSoC4/USB_UART_UART.c ****         ****************************************************************************//**
 749:Generated_Source\PSoC4/USB_UART_UART.c ****         *
 750:Generated_Source\PSoC4/USB_UART_UART.c ****         *  Sets active polarity of CTS input signal.
 751:Generated_Source\PSoC4/USB_UART_UART.c ****         *  Only available for PSoC 4100 BLE / PSoC 4200 BLE / PSoC 4100M / PSoC 4200M /
 752:Generated_Source\PSoC4/USB_UART_UART.c ****         *  PSoC 4200L / PSoC 4000S / PSoC 4100S / PSoC Analog Coprocessor devices.
 753:Generated_Source\PSoC4/USB_UART_UART.c ****         *
 754:Generated_Source\PSoC4/USB_UART_UART.c ****         * \param
 755:Generated_Source\PSoC4/USB_UART_UART.c ****         * polarity: Active polarity of CTS output signal.
 756:Generated_Source\PSoC4/USB_UART_UART.c ****         *   - USB_UART_UART_CTS_ACTIVE_LOW  - CTS signal is active low.
 757:Generated_Source\PSoC4/USB_UART_UART.c ****         *   - USB_UART_UART_CTS_ACTIVE_HIGH - CTS signal is active high.
 758:Generated_Source\PSoC4/USB_UART_UART.c ****         *
 759:Generated_Source\PSoC4/USB_UART_UART.c ****         *******************************************************************************/
 760:Generated_Source\PSoC4/USB_UART_UART.c ****         void USB_UART_UartSetCtsPolarity(uint32 polarity)
 761:Generated_Source\PSoC4/USB_UART_UART.c ****         {
 762:Generated_Source\PSoC4/USB_UART_UART.c ****             if (0u != polarity)
 763:Generated_Source\PSoC4/USB_UART_UART.c ****             {
 764:Generated_Source\PSoC4/USB_UART_UART.c ****                 USB_UART_UART_FLOW_CTRL_REG |= (uint32)  USB_UART_UART_FLOW_CTRL_CTS_POLARITY;
 765:Generated_Source\PSoC4/USB_UART_UART.c ****             }
 766:Generated_Source\PSoC4/USB_UART_UART.c ****             else
 767:Generated_Source\PSoC4/USB_UART_UART.c ****             {
 768:Generated_Source\PSoC4/USB_UART_UART.c ****                 USB_UART_UART_FLOW_CTRL_REG &= (uint32) ~USB_UART_UART_FLOW_CTRL_CTS_POLARITY;
 769:Generated_Source\PSoC4/USB_UART_UART.c ****             }
 770:Generated_Source\PSoC4/USB_UART_UART.c ****         }
 771:Generated_Source\PSoC4/USB_UART_UART.c ****     #endif /* !(USB_UART_CY_SCBIP_V0 || USB_UART_CY_SCBIP_V1) */
 772:Generated_Source\PSoC4/USB_UART_UART.c **** 
 773:Generated_Source\PSoC4/USB_UART_UART.c **** 
ARM GAS  C:\Users\Ray\AppData\Local\Temp\ccJcGBXj.s 			page 25


 774:Generated_Source\PSoC4/USB_UART_UART.c ****     /*******************************************************************************
 775:Generated_Source\PSoC4/USB_UART_UART.c ****     * Function Name: USB_UART_UartSendBreakBlocking
 776:Generated_Source\PSoC4/USB_UART_UART.c ****     ****************************************************************************//**
 777:Generated_Source\PSoC4/USB_UART_UART.c ****     *
 778:Generated_Source\PSoC4/USB_UART_UART.c ****     * Sends a break condition (logic low) of specified width on UART TX line.
 779:Generated_Source\PSoC4/USB_UART_UART.c ****     * Blocks until break is completed. Only call this function when UART TX FIFO
 780:Generated_Source\PSoC4/USB_UART_UART.c ****     * and shifter are empty.
 781:Generated_Source\PSoC4/USB_UART_UART.c ****     *
 782:Generated_Source\PSoC4/USB_UART_UART.c ****     * \param breakWidth
 783:Generated_Source\PSoC4/USB_UART_UART.c ****     * Width of break condition. Valid range is 4 to 16 bits.
 784:Generated_Source\PSoC4/USB_UART_UART.c ****     *
 785:Generated_Source\PSoC4/USB_UART_UART.c ****     * \note
 786:Generated_Source\PSoC4/USB_UART_UART.c ****     * Before sending break all UART TX interrupt sources are disabled. The state
 787:Generated_Source\PSoC4/USB_UART_UART.c ****     * of UART TX interrupt sources is restored before function returns.
 788:Generated_Source\PSoC4/USB_UART_UART.c ****     *
 789:Generated_Source\PSoC4/USB_UART_UART.c ****     * \sideeffect
 790:Generated_Source\PSoC4/USB_UART_UART.c ****     * If this function is called while there is data in the TX FIFO or shifter that
 791:Generated_Source\PSoC4/USB_UART_UART.c ****     * data will be shifted out in packets the size of breakWidth.
 792:Generated_Source\PSoC4/USB_UART_UART.c ****     *
 793:Generated_Source\PSoC4/USB_UART_UART.c ****     *******************************************************************************/
 794:Generated_Source\PSoC4/USB_UART_UART.c ****     void USB_UART_UartSendBreakBlocking(uint32 breakWidth)
 795:Generated_Source\PSoC4/USB_UART_UART.c ****     {
 550              		.loc 1 795 0
 551              		.cfi_startproc
 552              		@ args = 0, pretend = 0, frame = 8
 553              		@ frame_needed = 0, uses_anonymous_args = 0
 554              	.LVL39:
 555 0000 F7B5     		push	{r0, r1, r2, r4, r5, r6, r7, lr}
 556              		.cfi_def_cfa_offset 32
 557              		.cfi_offset 0, -32
 558              		.cfi_offset 1, -28
 559              		.cfi_offset 2, -24
 560              		.cfi_offset 4, -20
 561              		.cfi_offset 5, -16
 562              		.cfi_offset 6, -12
 563              		.cfi_offset 7, -8
 564              		.cfi_offset 14, -4
 796:Generated_Source\PSoC4/USB_UART_UART.c ****         uint32 txCtrlReg;
 797:Generated_Source\PSoC4/USB_UART_UART.c ****         uint32 txIntrReg;
 798:Generated_Source\PSoC4/USB_UART_UART.c **** 
 799:Generated_Source\PSoC4/USB_UART_UART.c ****         /* Disable all UART TX interrupt source and clear UART TX Done history */
 800:Generated_Source\PSoC4/USB_UART_UART.c ****         txIntrReg = USB_UART_GetTxInterruptMode();
 801:Generated_Source\PSoC4/USB_UART_UART.c ****         USB_UART_SetTxInterruptMode(0u);
 802:Generated_Source\PSoC4/USB_UART_UART.c ****         USB_UART_ClearTxInterruptSource(USB_UART_INTR_TX_UART_DONE);
 565              		.loc 1 802 0
 566 0002 8024     		movs	r4, #128
 801:Generated_Source\PSoC4/USB_UART_UART.c ****         USB_UART_ClearTxInterruptSource(USB_UART_INTR_TX_UART_DONE);
 567              		.loc 1 801 0
 568 0004 0026     		movs	r6, #0
 803:Generated_Source\PSoC4/USB_UART_UART.c **** 
 804:Generated_Source\PSoC4/USB_UART_UART.c ****         /* Store TX CTRL configuration */
 805:Generated_Source\PSoC4/USB_UART_UART.c ****         txCtrlReg = USB_UART_TX_CTRL_REG;
 806:Generated_Source\PSoC4/USB_UART_UART.c **** 
 807:Generated_Source\PSoC4/USB_UART_UART.c ****         /* Set break width */
 808:Generated_Source\PSoC4/USB_UART_UART.c ****         USB_UART_TX_CTRL_REG = (USB_UART_TX_CTRL_REG & (uint32) ~USB_UART_TX_CTRL_DATA_WIDTH_MASK) 
 569              		.loc 1 808 0
 570 0006 0F27     		movs	r7, #15
ARM GAS  C:\Users\Ray\AppData\Local\Temp\ccJcGBXj.s 			page 26


 800:Generated_Source\PSoC4/USB_UART_UART.c ****         USB_UART_SetTxInterruptMode(0u);
 571              		.loc 1 800 0
 572 0008 0E4A     		ldr	r2, .L41
 802:Generated_Source\PSoC4/USB_UART_UART.c **** 
 573              		.loc 1 802 0
 574 000a 0F4D     		ldr	r5, .L41+4
 800:Generated_Source\PSoC4/USB_UART_UART.c ****         USB_UART_SetTxInterruptMode(0u);
 575              		.loc 1 800 0
 576 000c 1368     		ldr	r3, [r2]
 802:Generated_Source\PSoC4/USB_UART_UART.c **** 
 577              		.loc 1 802 0
 578 000e A400     		lsls	r4, r4, #2
 800:Generated_Source\PSoC4/USB_UART_UART.c ****         USB_UART_SetTxInterruptMode(0u);
 579              		.loc 1 800 0
 580 0010 0193     		str	r3, [sp, #4]
 581              	.LVL40:
 805:Generated_Source\PSoC4/USB_UART_UART.c **** 
 582              		.loc 1 805 0
 583 0012 0E4B     		ldr	r3, .L41+8
 584              	.LVL41:
 801:Generated_Source\PSoC4/USB_UART_UART.c ****         USB_UART_ClearTxInterruptSource(USB_UART_INTR_TX_UART_DONE);
 585              		.loc 1 801 0
 586 0014 1660     		str	r6, [r2]
 802:Generated_Source\PSoC4/USB_UART_UART.c **** 
 587              		.loc 1 802 0
 588 0016 2C60     		str	r4, [r5]
 805:Generated_Source\PSoC4/USB_UART_UART.c **** 
 589              		.loc 1 805 0
 590 0018 1968     		ldr	r1, [r3]
 591              		.loc 1 808 0
 592 001a 0138     		subs	r0, r0, #1
 593              	.LVL42:
 805:Generated_Source\PSoC4/USB_UART_UART.c **** 
 594              		.loc 1 805 0
 595 001c 8C46     		mov	ip, r1
 596              	.LVL43:
 597              		.loc 1 808 0
 598 001e 1968     		ldr	r1, [r3]
 599              	.LVL44:
 600 0020 3840     		ands	r0, r7
 601              	.LVL45:
 602 0022 B943     		bics	r1, r7
 603 0024 0843     		orrs	r0, r1
 809:Generated_Source\PSoC4/USB_UART_UART.c ****                                         USB_UART_GET_TX_CTRL_DATA_WIDTH(breakWidth);
 810:Generated_Source\PSoC4/USB_UART_UART.c **** 
 811:Generated_Source\PSoC4/USB_UART_UART.c ****         /* Generate break */
 812:Generated_Source\PSoC4/USB_UART_UART.c ****         USB_UART_TX_FIFO_WR_REG = 0u;
 604              		.loc 1 812 0
 605 0026 0A49     		ldr	r1, .L41+12
 808:Generated_Source\PSoC4/USB_UART_UART.c ****                                         USB_UART_GET_TX_CTRL_DATA_WIDTH(breakWidth);
 606              		.loc 1 808 0
 607 0028 1860     		str	r0, [r3]
 608              		.loc 1 812 0
 609 002a 0E60     		str	r6, [r1]
 610              	.L38:
 813:Generated_Source\PSoC4/USB_UART_UART.c **** 
 814:Generated_Source\PSoC4/USB_UART_UART.c ****         /* Wait for break completion */
ARM GAS  C:\Users\Ray\AppData\Local\Temp\ccJcGBXj.s 			page 27


 815:Generated_Source\PSoC4/USB_UART_UART.c ****         while (0u == (USB_UART_GetTxInterruptSource() & USB_UART_INTR_TX_UART_DONE))
 611              		.loc 1 815 0 discriminator 1
 612 002c 2968     		ldr	r1, [r5]
 613 002e 2142     		tst	r1, r4
 614 0030 FCD0     		beq	.L38
 816:Generated_Source\PSoC4/USB_UART_UART.c ****         {
 817:Generated_Source\PSoC4/USB_UART_UART.c ****         }
 818:Generated_Source\PSoC4/USB_UART_UART.c **** 
 819:Generated_Source\PSoC4/USB_UART_UART.c ****         /* Clear all UART TX interrupt sources to  */
 820:Generated_Source\PSoC4/USB_UART_UART.c ****         USB_UART_ClearTxInterruptSource(USB_UART_INTR_TX_ALL);
 615              		.loc 1 820 0
 616 0032 0848     		ldr	r0, .L41+16
 617 0034 0449     		ldr	r1, .L41+4
 821:Generated_Source\PSoC4/USB_UART_UART.c **** 
 822:Generated_Source\PSoC4/USB_UART_UART.c ****         /* Restore TX interrupt sources and data width */
 823:Generated_Source\PSoC4/USB_UART_UART.c ****         USB_UART_TX_CTRL_REG = txCtrlReg;
 824:Generated_Source\PSoC4/USB_UART_UART.c ****         USB_UART_SetTxInterruptMode(txIntrReg);
 825:Generated_Source\PSoC4/USB_UART_UART.c ****     }
 618              		.loc 1 825 0
 619              		@ sp needed
 820:Generated_Source\PSoC4/USB_UART_UART.c **** 
 620              		.loc 1 820 0
 621 0036 0860     		str	r0, [r1]
 823:Generated_Source\PSoC4/USB_UART_UART.c ****         USB_UART_SetTxInterruptMode(txIntrReg);
 622              		.loc 1 823 0
 623 0038 6146     		mov	r1, ip
 624 003a 1960     		str	r1, [r3]
 824:Generated_Source\PSoC4/USB_UART_UART.c ****     }
 625              		.loc 1 824 0
 626 003c 019B     		ldr	r3, [sp, #4]
 627 003e 1360     		str	r3, [r2]
 628              		.loc 1 825 0
 629 0040 F7BD     		pop	{r0, r1, r2, r4, r5, r6, r7, pc}
 630              	.L42:
 631 0042 C046     		.align	2
 632              	.L41:
 633 0044 880F0640 		.word	1074139016
 634 0048 800F0640 		.word	1074139008
 635 004c 00020640 		.word	1074135552
 636 0050 40020640 		.word	1074135616
 637 0054 F3070000 		.word	2035
 638              		.cfi_endproc
 639              	.LFE9:
 640              		.size	USB_UART_UartSendBreakBlocking, .-USB_UART_UartSendBreakBlocking
 641              		.text
 642              	.Letext0:
 643              		.file 2 "Generated_Source\\PSoC4/cytypes.h"
 644              		.file 3 "Generated_Source\\PSoC4\\USB_UART_PVT.h"
 645              		.file 4 "Generated_Source\\PSoC4\\USB_UART_SPI_UART_PVT.h"
 646              		.file 5 "Generated_Source\\PSoC4/CyLib.h"
 647              		.file 6 "Generated_Source\\PSoC4\\USB_UART_SPI_UART.h"