ARM GAS  C:\Users\Ray\AppData\Local\Temp\cc0hFEkW.s 			page 1


   1              		.syntax unified
   2              		.cpu cortex-m0
   3              		.fpu softvfp
   4              		.eabi_attribute 20, 1
   5              		.eabi_attribute 21, 1
   6              		.eabi_attribute 23, 3
   7              		.eabi_attribute 24, 1
   8              		.eabi_attribute 25, 1
   9              		.eabi_attribute 26, 1
  10              		.eabi_attribute 30, 4
  11              		.eabi_attribute 34, 0
  12              		.eabi_attribute 18, 4
  13              		.thumb
  14              		.syntax unified
  15              		.file	"usbserialprotocol.c"
  16              		.text
  17              	.Ltext0:
  18              		.cfi_sections	.debug_frame
  19              		.section	.text.getValidByte,"ax",%progbits
  20              		.align	1
  21              		.global	getValidByte
  22              		.code	16
  23              		.thumb_func
  24              		.type	getValidByte, %function
  25              	getValidByte:
  26              	.LFB32:
  27              		.file 1 "usbserialprotocol.c"
   1:usbserialprotocol.c **** /* ========================================
   2:usbserialprotocol.c ****  *
   3:usbserialprotocol.c ****  * Copyright YOUR COMPANY, THE YEAR
   4:usbserialprotocol.c ****  * All Rights Reserved
   5:usbserialprotocol.c ****  * UNPUBLISHED, LICENSED SOFTWARE.
   6:usbserialprotocol.c ****  *
   7:usbserialprotocol.c ****  * CONFIDENTIAL AND PROPRIETARY INFORMATION
   8:usbserialprotocol.c ****  * WHICH IS THE PROPERTY OF your company.
   9:usbserialprotocol.c ****  *
  10:usbserialprotocol.c ****  * ========================================
  11:usbserialprotocol.c **** */
  12:usbserialprotocol.c **** 
  13:usbserialprotocol.c **** #include "usbserialprotocol.h"
  14:usbserialprotocol.c **** 
  15:usbserialprotocol.c **** #define RECV_OK 0
  16:usbserialprotocol.c **** #define RECV_ER 1
  17:usbserialprotocol.c **** #define RDY_MSG_RECV "READY"
  18:usbserialprotocol.c **** #define RDY_MSG_NORM "CARD_N"
  19:usbserialprotocol.c **** #define RDY_MSG_PROV "CARD_P"
  20:usbserialprotocol.c **** #define RDY_BAD "BAD"
  21:usbserialprotocol.c **** #define GO_MSG "GO"
  22:usbserialprotocol.c **** 
  23:usbserialprotocol.c **** 
  24:usbserialprotocol.c **** uint8 getValidByte()
  25:usbserialprotocol.c **** {
  28              		.loc 1 25 0
  29              		.cfi_startproc
  30              		@ args = 0, pretend = 0, frame = 0
  31              		@ frame_needed = 0, uses_anonymous_args = 0
  32 0000 10B5     		push	{r4, lr}
ARM GAS  C:\Users\Ray\AppData\Local\Temp\cc0hFEkW.s 			page 2


  33              		.cfi_def_cfa_offset 8
  34              		.cfi_offset 4, -8
  35              		.cfi_offset 14, -4
  36              	.L2:
  26:usbserialprotocol.c ****     uint8 retval = 0u;
  27:usbserialprotocol.c ****     while(USB_UART_SpiUartGetRxBufferSize() < 1); // wait for byte
  37              		.loc 1 27 0 discriminator 1
  38 0002 FFF7FEFF 		bl	USB_UART_SpiUartGetRxBufferSize
  39              	.LVL0:
  40 0006 0028     		cmp	r0, #0
  41 0008 FBD0     		beq	.L2
  28:usbserialprotocol.c ****     retval = USB_UART_UartGetByte();
  42              		.loc 1 28 0
  43 000a FFF7FEFF 		bl	USB_UART_UartGetByte
  44              	.LVL1:
  29:usbserialprotocol.c ****     return retval;
  30:usbserialprotocol.c **** }
  45              		.loc 1 30 0
  46              		@ sp needed
  29:usbserialprotocol.c ****     return retval;
  47              		.loc 1 29 0
  48 000e C0B2     		uxtb	r0, r0
  49              		.loc 1 30 0
  50 0010 10BD     		pop	{r4, pc}
  51              		.cfi_endproc
  52              	.LFE32:
  53              		.size	getValidByte, .-getValidByte
  54              		.section	.text.pushMessage,"ax",%progbits
  55              		.align	1
  56              		.global	pushMessage
  57              		.code	16
  58              		.thumb_func
  59              		.type	pushMessage, %function
  60              	pushMessage:
  61              	.LFB33:
  31:usbserialprotocol.c **** 
  32:usbserialprotocol.c **** 
  33:usbserialprotocol.c **** int pushMessage(const uint8 data[], uint8 size)
  34:usbserialprotocol.c **** {
  62              		.loc 1 34 0
  63              		.cfi_startproc
  64              		@ args = 0, pretend = 0, frame = 0
  65              		@ frame_needed = 0, uses_anonymous_args = 0
  66              	.LVL2:
  67 0000 70B5     		push	{r4, r5, r6, lr}
  68              		.cfi_def_cfa_offset 16
  69              		.cfi_offset 4, -16
  70              		.cfi_offset 5, -12
  71              		.cfi_offset 6, -8
  72              		.cfi_offset 14, -4
  73              		.loc 1 34 0
  74 0002 0600     		movs	r6, r0
  35:usbserialprotocol.c ****     int i;
  36:usbserialprotocol.c **** 
  37:usbserialprotocol.c ****     USB_UART_UartPutChar(size);
  75              		.loc 1 37 0
  76 0004 0800     		movs	r0, r1
ARM GAS  C:\Users\Ray\AppData\Local\Temp\cc0hFEkW.s 			page 3


  77              	.LVL3:
  34:usbserialprotocol.c ****     int i;
  78              		.loc 1 34 0
  79 0006 0D00     		movs	r5, r1
  38:usbserialprotocol.c ****     
  39:usbserialprotocol.c ****     for (i = 0; i < size; i++) {
  80              		.loc 1 39 0
  81 0008 3400     		movs	r4, r6
  37:usbserialprotocol.c ****     
  82              		.loc 1 37 0
  83 000a FFF7FEFF 		bl	USB_UART_SpiUartWriteTxData
  84              	.LVL4:
  85              	.L7:
  86              		.loc 1 39 0 discriminator 1
  87 000e A31B     		subs	r3, r4, r6
  88 0010 9D42     		cmp	r5, r3
  89 0012 04DD     		ble	.L9
  40:usbserialprotocol.c ****         USB_UART_UartPutChar(data[i]);   
  90              		.loc 1 40 0 discriminator 3
  91 0014 2078     		ldrb	r0, [r4]
  92 0016 FFF7FEFF 		bl	USB_UART_SpiUartWriteTxData
  93              	.LVL5:
  94 001a 0134     		adds	r4, r4, #1
  95              	.LVL6:
  96 001c F7E7     		b	.L7
  97              	.L9:
  41:usbserialprotocol.c ****     }
  42:usbserialprotocol.c ****     
  43:usbserialprotocol.c ****     return RECV_OK;
  44:usbserialprotocol.c **** }
  98              		.loc 1 44 0
  99 001e 0020     		movs	r0, #0
 100              		@ sp needed
 101              	.LVL7:
 102              	.LVL8:
 103 0020 70BD     		pop	{r4, r5, r6, pc}
 104              		.cfi_endproc
 105              	.LFE33:
 106              		.size	pushMessage, .-pushMessage
 107              		.section	.text.pullMessage,"ax",%progbits
 108              		.align	1
 109              		.global	pullMessage
 110              		.code	16
 111              		.thumb_func
 112              		.type	pullMessage, %function
 113              	pullMessage:
 114              	.LFB34:
  45:usbserialprotocol.c **** 
  46:usbserialprotocol.c **** 
  47:usbserialprotocol.c **** uint8 pullMessage(uint8 data[])
  48:usbserialprotocol.c **** {
 115              		.loc 1 48 0
 116              		.cfi_startproc
 117              		@ args = 0, pretend = 0, frame = 0
 118              		@ frame_needed = 0, uses_anonymous_args = 0
 119              	.LVL9:
 120 0000 70B5     		push	{r4, r5, r6, lr}
ARM GAS  C:\Users\Ray\AppData\Local\Temp\cc0hFEkW.s 			page 4


 121              		.cfi_def_cfa_offset 16
 122              		.cfi_offset 4, -16
 123              		.cfi_offset 5, -12
 124              		.cfi_offset 6, -8
 125              		.cfi_offset 14, -4
 126              		.loc 1 48 0
 127 0002 0600     		movs	r6, r0
  49:usbserialprotocol.c ****     int i, len;
  50:usbserialprotocol.c ****     
  51:usbserialprotocol.c ****     len = getValidByte();
 128              		.loc 1 51 0
 129 0004 FFF7FEFF 		bl	getValidByte
 130              	.LVL10:
  52:usbserialprotocol.c ****     
  53:usbserialprotocol.c ****     for (i = 0; i < len; i++) {
 131              		.loc 1 53 0
 132 0008 3400     		movs	r4, r6
  51:usbserialprotocol.c ****     
 133              		.loc 1 51 0
 134 000a 0500     		movs	r5, r0
 135              	.LVL11:
 136              	.L11:
 137              		.loc 1 53 0 discriminator 1
 138 000c A31B     		subs	r3, r4, r6
 139 000e 9D42     		cmp	r5, r3
 140 0010 04DD     		ble	.L13
  54:usbserialprotocol.c ****         data[i] = getValidByte();   
 141              		.loc 1 54 0 discriminator 3
 142 0012 FFF7FEFF 		bl	getValidByte
 143              	.LVL12:
 144 0016 2070     		strb	r0, [r4]
 145              	.LVL13:
 146 0018 0134     		adds	r4, r4, #1
 147              	.LVL14:
 148 001a F7E7     		b	.L11
 149              	.L13:
  55:usbserialprotocol.c ****     }
  56:usbserialprotocol.c ****     
  57:usbserialprotocol.c ****    return len;
  58:usbserialprotocol.c **** }
 150              		.loc 1 58 0
 151 001c 2800     		movs	r0, r5
 152              		@ sp needed
 153              	.LVL15:
 154              	.LVL16:
 155              	.LVL17:
 156 001e 70BD     		pop	{r4, r5, r6, pc}
 157              		.cfi_endproc
 158              	.LFE34:
 159              		.size	pullMessage, .-pullMessage
 160              		.section	.text.syncConnection,"ax",%progbits
 161              		.align	1
 162              		.global	syncConnection
 163              		.code	16
 164              		.thumb_func
 165              		.type	syncConnection, %function
 166              	syncConnection:
ARM GAS  C:\Users\Ray\AppData\Local\Temp\cc0hFEkW.s 			page 5


 167              	.LFB35:
  59:usbserialprotocol.c **** 
  60:usbserialprotocol.c **** /* 
  61:usbserialprotocol.c ****  * generic PSoC synchronization protocol:
  62:usbserialprotocol.c ****  *
  63:usbserialprotocol.c ****  * 1) ATM -> "READY" -> PSoC
  64:usbserialprotocol.c ****  * 2) if bad:  PSoC -> received bad message -> ATM; goto 1)
  65:usbserialprotocol.c ****  *    if good: PSoC -> PSoC name (prov/norm) -> ATM
  66:usbserialprotocol.c ****  * 3) ATM -> "GO" -> PSoC
  67:usbserialprotocol.c ****  * 4) if bad: goto 1)
  68:usbserialprotocol.c ****  */
  69:usbserialprotocol.c **** void syncConnection(int prov) 
  70:usbserialprotocol.c **** {
 168              		.loc 1 70 0
 169              		.cfi_startproc
 170              		@ args = 0, pretend = 0, frame = 32
 171              		@ frame_needed = 0, uses_anonymous_args = 0
 172              	.LVL18:
 173 0000 10B5     		push	{r4, lr}
 174              		.cfi_def_cfa_offset 8
 175              		.cfi_offset 4, -8
 176              		.cfi_offset 14, -4
 177 0002 0400     		movs	r4, r0
 178 0004 88B0     		sub	sp, sp, #32
 179              		.cfi_def_cfa_offset 40
 180              	.LVL19:
 181              	.L18:
  71:usbserialprotocol.c ****     uint8 message[32];
  72:usbserialprotocol.c ****     
  73:usbserialprotocol.c ****     // marco-polo with bank until connection is in sync
  74:usbserialprotocol.c ****     do {
  75:usbserialprotocol.c ****         pullMessage(message);                               // 1)
 182              		.loc 1 75 0
 183 0006 6846     		mov	r0, sp
 184 0008 FFF7FEFF 		bl	pullMessage
 185              	.LVL20:
  76:usbserialprotocol.c ****         
  77:usbserialprotocol.c ****         if (strcmp((char*)message, RDY_MSG_RECV)) {
 186              		.loc 1 77 0
 187 000c 1149     		ldr	r1, .L21
 188 000e 6846     		mov	r0, sp
 189 0010 FFF7FEFF 		bl	strcmp
 190              	.LVL21:
 191 0014 0028     		cmp	r0, #0
 192 0016 0BD0     		beq	.L15
  78:usbserialprotocol.c ****             strcpy((char*)message, RDY_BAD);
 193              		.loc 1 78 0
 194 0018 0F49     		ldr	r1, .L21+4
 195 001a 6846     		mov	r0, sp
 196 001c FFF7FEFF 		bl	strcpy
 197              	.LVL22:
  79:usbserialprotocol.c ****             pushMessage(message, strlen((char*)message));   // 2) bad
 198              		.loc 1 79 0
 199 0020 6846     		mov	r0, sp
 200 0022 FFF7FEFF 		bl	strlen
 201              	.LVL23:
 202 0026 C1B2     		uxtb	r1, r0
ARM GAS  C:\Users\Ray\AppData\Local\Temp\cc0hFEkW.s 			page 6


 203 0028 6846     		mov	r0, sp
 204 002a FFF7FEFF 		bl	pushMessage
 205              	.LVL24:
 206 002e 09E0     		b	.L16
 207              	.L15:
  80:usbserialprotocol.c ****         } else if (prov) {
  81:usbserialprotocol.c ****             pushMessage((uint8*)RDY_MSG_PROV, 
 208              		.loc 1 81 0
 209 0030 0621     		movs	r1, #6
 210 0032 0A48     		ldr	r0, .L21+8
  80:usbserialprotocol.c ****         } else if (prov) {
 211              		.loc 1 80 0
 212 0034 002C     		cmp	r4, #0
 213 0036 00D1     		bne	.L20
  82:usbserialprotocol.c ****                         strlen(RDY_MSG_PROV));              // 2) good prov
  83:usbserialprotocol.c ****             
  84:usbserialprotocol.c ****             pullMessage(message);                           // 3)
  85:usbserialprotocol.c ****         } else {
  86:usbserialprotocol.c ****             pushMessage((uint8*)RDY_MSG_NORM, 
 214              		.loc 1 86 0
 215 0038 0948     		ldr	r0, .L21+12
 216              	.L20:
 217 003a FFF7FEFF 		bl	pushMessage
 218              	.LVL25:
  87:usbserialprotocol.c ****                         strlen(RDY_MSG_NORM));              // 2) good norm
  88:usbserialprotocol.c ****             
  89:usbserialprotocol.c ****             pullMessage(message);                           // 3
 219              		.loc 1 89 0
 220 003e 6846     		mov	r0, sp
 221 0040 FFF7FEFF 		bl	pullMessage
 222              	.LVL26:
 223              	.L16:
  90:usbserialprotocol.c ****         }
  91:usbserialprotocol.c ****         
  92:usbserialprotocol.c ****     } while (strcmp((char*)message, GO_MSG));               // 4)
 224              		.loc 1 92 0
 225 0044 0749     		ldr	r1, .L21+16
 226 0046 6846     		mov	r0, sp
 227 0048 FFF7FEFF 		bl	strcmp
 228              	.LVL27:
 229 004c 0028     		cmp	r0, #0
 230 004e DAD1     		bne	.L18
  93:usbserialprotocol.c **** }
 231              		.loc 1 93 0
 232 0050 08B0     		add	sp, sp, #32
 233              		@ sp needed
 234              	.LVL28:
 235 0052 10BD     		pop	{r4, pc}
 236              	.L22:
 237              		.align	2
 238              	.L21:
 239 0054 00000000 		.word	.LC2
 240 0058 06000000 		.word	.LC4
 241 005c 0A000000 		.word	.LC6
 242 0060 11000000 		.word	.LC8
 243 0064 18000000 		.word	.LC10
 244              		.cfi_endproc
ARM GAS  C:\Users\Ray\AppData\Local\Temp\cc0hFEkW.s 			page 7


 245              	.LFE35:
 246              		.size	syncConnection, .-syncConnection
 247              		.section	.rodata.str1.1,"aMS",%progbits,1
 248              	.LC2:
 249 0000 52454144 		.ascii	"READY\000"
 249      5900
 250              	.LC4:
 251 0006 42414400 		.ascii	"BAD\000"
 252              	.LC6:
 253 000a 43415244 		.ascii	"CARD_P\000"
 253      5F5000
 254              	.LC8:
 255 0011 43415244 		.ascii	"CARD_N\000"
 255      5F4E00
 256              	.LC10:
 257 0018 474F00   		.ascii	"GO\000"
 258              		.text
 259              	.Letext0:
 260              		.file 2 "Generated_Source\\PSoC4/cytypes.h"
 261              		.file 3 "Generated_Source\\PSoC4/USB_UART_SPI_UART.h"
 262              		.file 4 "c:\\program files (x86)\\cypress\\psoc creator\\4.1\\psoc creator\\import\\gnu\\arm\\5.4.