ARM GAS  C:\Users\Ray\AppData\Local\Temp\ccS9gWhK.s 			page 1


   1              		.syntax unified
   2              		.cpu cortex-m0
   3              		.fpu softvfp
   4              		.eabi_attribute 20, 1
   5              		.eabi_attribute 21, 1
   6              		.eabi_attribute 23, 3
   7              		.eabi_attribute 24, 1
   8              		.eabi_attribute 25, 1
   9              		.eabi_attribute 26, 1
  10              		.eabi_attribute 30, 1
  11              		.eabi_attribute 34, 0
  12              		.eabi_attribute 18, 4
  13              		.thumb
  14              		.syntax unified
  15              		.file	"ADC.c"
  16              		.text
  17              	.Ltext0:
  18              		.cfi_sections	.debug_frame
  19              		.section	.text.ADC_Init,"ax",%progbits
  20              		.align	2
  21              		.global	ADC_Init
  22              		.code	16
  23              		.thumb_func
  24              		.type	ADC_Init, %function
  25              	ADC_Init:
  26              	.LFB1:
  27              		.file 1 "Generated_Source\\PSoC4\\ADC.c"
   1:Generated_Source\PSoC4/ADC.c **** /*******************************************************************************
   2:Generated_Source\PSoC4/ADC.c **** * File Name: ADC.c
   3:Generated_Source\PSoC4/ADC.c **** * Version 2.50
   4:Generated_Source\PSoC4/ADC.c **** *
   5:Generated_Source\PSoC4/ADC.c **** * Description:
   6:Generated_Source\PSoC4/ADC.c **** *  This file provides the source code to the API for the Sequencing Successive
   7:Generated_Source\PSoC4/ADC.c **** *  Approximation ADC Component Component.
   8:Generated_Source\PSoC4/ADC.c **** *
   9:Generated_Source\PSoC4/ADC.c **** * Note:
  10:Generated_Source\PSoC4/ADC.c **** *
  11:Generated_Source\PSoC4/ADC.c **** ********************************************************************************
  12:Generated_Source\PSoC4/ADC.c **** * Copyright 2008-2017, Cypress Semiconductor Corporation.  All rights reserved.
  13:Generated_Source\PSoC4/ADC.c **** * You may use this file only in accordance with the license, terms, conditions,
  14:Generated_Source\PSoC4/ADC.c **** * disclaimers, and limitations in the end user license agreement accompanying
  15:Generated_Source\PSoC4/ADC.c **** * the software package with which this file was provided.
  16:Generated_Source\PSoC4/ADC.c **** *******************************************************************************/
  17:Generated_Source\PSoC4/ADC.c **** 
  18:Generated_Source\PSoC4/ADC.c **** #include "ADC.h"
  19:Generated_Source\PSoC4/ADC.c **** 
  20:Generated_Source\PSoC4/ADC.c **** 
  21:Generated_Source\PSoC4/ADC.c **** /***************************************
  22:Generated_Source\PSoC4/ADC.c **** * Global data allocation
  23:Generated_Source\PSoC4/ADC.c **** ***************************************/
  24:Generated_Source\PSoC4/ADC.c **** uint8 ADC_initVar = 0u;
  25:Generated_Source\PSoC4/ADC.c **** volatile int16 ADC_offset[ADC_TOTAL_CHANNELS_NUM];
  26:Generated_Source\PSoC4/ADC.c **** volatile int32 ADC_countsPer10Volt[ADC_TOTAL_CHANNELS_NUM];   /* Gain compensation */
  27:Generated_Source\PSoC4/ADC.c **** 
  28:Generated_Source\PSoC4/ADC.c **** 
  29:Generated_Source\PSoC4/ADC.c **** /***************************************
  30:Generated_Source\PSoC4/ADC.c **** * Local data allocation
ARM GAS  C:\Users\Ray\AppData\Local\Temp\ccS9gWhK.s 			page 2


  31:Generated_Source\PSoC4/ADC.c **** ***************************************/
  32:Generated_Source\PSoC4/ADC.c **** /* Channels configuration generated by customiser */
  33:Generated_Source\PSoC4/ADC.c **** static const uint32 CYCODE ADC_channelsConfig[] = { 0x00000400u, 0x00000500u, 0x00001400u, 0x000014
  34:Generated_Source\PSoC4/ADC.c **** 
  35:Generated_Source\PSoC4/ADC.c **** 
  36:Generated_Source\PSoC4/ADC.c **** /*******************************************************************************
  37:Generated_Source\PSoC4/ADC.c **** * Function Name: ADC_Start
  38:Generated_Source\PSoC4/ADC.c **** ********************************************************************************
  39:Generated_Source\PSoC4/ADC.c **** *
  40:Generated_Source\PSoC4/ADC.c **** * Summary:
  41:Generated_Source\PSoC4/ADC.c **** *  Performs all required initialization for this component
  42:Generated_Source\PSoC4/ADC.c **** *  and enables the power. The power will be set to the appropriate
  43:Generated_Source\PSoC4/ADC.c **** *  power based on the clock frequency.
  44:Generated_Source\PSoC4/ADC.c **** *
  45:Generated_Source\PSoC4/ADC.c **** * Parameters:
  46:Generated_Source\PSoC4/ADC.c **** *  None.
  47:Generated_Source\PSoC4/ADC.c **** *
  48:Generated_Source\PSoC4/ADC.c **** * Return:
  49:Generated_Source\PSoC4/ADC.c **** *  None.
  50:Generated_Source\PSoC4/ADC.c **** *
  51:Generated_Source\PSoC4/ADC.c **** * Global variables:
  52:Generated_Source\PSoC4/ADC.c **** *  The ADC_initVar variable is used to indicate when/if initial
  53:Generated_Source\PSoC4/ADC.c **** *  configuration of this component has happened. The variable is initialized to
  54:Generated_Source\PSoC4/ADC.c **** *  zero and set to 1 the first time ADC_Start() is called. This allows for
  55:Generated_Source\PSoC4/ADC.c **** *  component Re-Start without re-initialization in all subsequent calls to the
  56:Generated_Source\PSoC4/ADC.c **** *  ADC_Start() routine.
  57:Generated_Source\PSoC4/ADC.c **** *  If re-initialization of the component is required the variable should be set
  58:Generated_Source\PSoC4/ADC.c **** *  to zero before call of ADC_Start() routine, or the user may call
  59:Generated_Source\PSoC4/ADC.c **** *  ADC_Init() and ADC_Enable() as done in the
  60:Generated_Source\PSoC4/ADC.c **** *  ADC_Start() routine.
  61:Generated_Source\PSoC4/ADC.c **** *
  62:Generated_Source\PSoC4/ADC.c **** *******************************************************************************/
  63:Generated_Source\PSoC4/ADC.c **** void ADC_Start(void)
  64:Generated_Source\PSoC4/ADC.c **** {
  65:Generated_Source\PSoC4/ADC.c ****     /* If not Initialized then initialize all required hardware and software */
  66:Generated_Source\PSoC4/ADC.c ****     if(ADC_initVar == 0u)
  67:Generated_Source\PSoC4/ADC.c ****     {
  68:Generated_Source\PSoC4/ADC.c ****         ADC_Init();
  69:Generated_Source\PSoC4/ADC.c ****         ADC_initVar = 1u;
  70:Generated_Source\PSoC4/ADC.c ****     }
  71:Generated_Source\PSoC4/ADC.c ****     ADC_Enable();
  72:Generated_Source\PSoC4/ADC.c **** }
  73:Generated_Source\PSoC4/ADC.c **** 
  74:Generated_Source\PSoC4/ADC.c **** 
  75:Generated_Source\PSoC4/ADC.c **** /*******************************************************************************
  76:Generated_Source\PSoC4/ADC.c **** * Function Name: ADC_Init
  77:Generated_Source\PSoC4/ADC.c **** ********************************************************************************
  78:Generated_Source\PSoC4/ADC.c **** *
  79:Generated_Source\PSoC4/ADC.c **** * Summary:
  80:Generated_Source\PSoC4/ADC.c **** *  Initialize component's parameters to the parameters set by user in the
  81:Generated_Source\PSoC4/ADC.c **** *  customizer of the component placed onto schematic. Usually called in
  82:Generated_Source\PSoC4/ADC.c **** *  ADC_Start().
  83:Generated_Source\PSoC4/ADC.c **** *
  84:Generated_Source\PSoC4/ADC.c **** * Parameters:
  85:Generated_Source\PSoC4/ADC.c **** *  None.
  86:Generated_Source\PSoC4/ADC.c **** *
  87:Generated_Source\PSoC4/ADC.c **** * Return:
ARM GAS  C:\Users\Ray\AppData\Local\Temp\ccS9gWhK.s 			page 3


  88:Generated_Source\PSoC4/ADC.c **** *  None.
  89:Generated_Source\PSoC4/ADC.c **** *
  90:Generated_Source\PSoC4/ADC.c **** * Global variables:
  91:Generated_Source\PSoC4/ADC.c **** *  The ADC_offset variable is initialized.
  92:Generated_Source\PSoC4/ADC.c **** *
  93:Generated_Source\PSoC4/ADC.c **** *******************************************************************************/
  94:Generated_Source\PSoC4/ADC.c **** void ADC_Init(void)
  95:Generated_Source\PSoC4/ADC.c **** {
  28              		.loc 1 95 0
  29              		.cfi_startproc
  30              		@ args = 0, pretend = 0, frame = 0
  31              		@ frame_needed = 0, uses_anonymous_args = 0
  32 0000 10B5     		push	{r4, lr}
  33              		.cfi_def_cfa_offset 8
  34              		.cfi_offset 4, -8
  35              		.cfi_offset 14, -4
  96:Generated_Source\PSoC4/ADC.c ****     uint32 chNum;
  97:Generated_Source\PSoC4/ADC.c ****     uint32 tmpRegVal;
  98:Generated_Source\PSoC4/ADC.c ****     int32 counts;
  99:Generated_Source\PSoC4/ADC.c **** 
 100:Generated_Source\PSoC4/ADC.c ****     #if(ADC_TOTAL_CHANNELS_NUM > 1u)
 101:Generated_Source\PSoC4/ADC.c ****         static const uint8 CYCODE ADC_InputsPlacement[] =
 102:Generated_Source\PSoC4/ADC.c ****         {
 103:Generated_Source\PSoC4/ADC.c ****             (uint8)(ADC_cy_psoc4_sarmux_8__CH_0_PORT << 4u) |
 104:Generated_Source\PSoC4/ADC.c ****             (uint8)ADC_cy_psoc4_sarmux_8__CH_0_PIN
 105:Generated_Source\PSoC4/ADC.c ****             ,(uint8)(ADC_cy_psoc4_sarmux_8__CH_1_PORT << 4u) |
 106:Generated_Source\PSoC4/ADC.c ****              (uint8)ADC_cy_psoc4_sarmux_8__CH_1_PIN
 107:Generated_Source\PSoC4/ADC.c ****             #if(ADC_TOTAL_CHANNELS_NUM > 2u)
 108:Generated_Source\PSoC4/ADC.c ****                 ,(uint8)(ADC_cy_psoc4_sarmux_8__CH_2_PORT << 4u) |
 109:Generated_Source\PSoC4/ADC.c ****                  (uint8)ADC_cy_psoc4_sarmux_8__CH_2_PIN
 110:Generated_Source\PSoC4/ADC.c ****             #endif /* End ADC_TOTAL_CHANNELS_NUM > 2u */
 111:Generated_Source\PSoC4/ADC.c ****             #if(ADC_TOTAL_CHANNELS_NUM > 3u)
 112:Generated_Source\PSoC4/ADC.c ****                 ,(uint8)(ADC_cy_psoc4_sarmux_8__CH_3_PORT << 4u) |
 113:Generated_Source\PSoC4/ADC.c ****                  (uint8)ADC_cy_psoc4_sarmux_8__CH_3_PIN
 114:Generated_Source\PSoC4/ADC.c ****             #endif /* End ADC_TOTAL_CHANNELS_NUM > 3u */
 115:Generated_Source\PSoC4/ADC.c ****             #if(ADC_TOTAL_CHANNELS_NUM > 4u)
 116:Generated_Source\PSoC4/ADC.c ****                 ,(uint8)(ADC_cy_psoc4_sarmux_8__CH_4_PORT << 4u) |
 117:Generated_Source\PSoC4/ADC.c ****                  (uint8)ADC_cy_psoc4_sarmux_8__CH_4_PIN
 118:Generated_Source\PSoC4/ADC.c ****             #endif /* End ADC_TOTAL_CHANNELS_NUM > 4u */
 119:Generated_Source\PSoC4/ADC.c ****             #if(ADC_TOTAL_CHANNELS_NUM > 5u)
 120:Generated_Source\PSoC4/ADC.c ****                 ,(uint8)(ADC_cy_psoc4_sarmux_8__CH_5_PORT << 4u) |
 121:Generated_Source\PSoC4/ADC.c ****                  (uint8)ADC_cy_psoc4_sarmux_8__CH_5_PIN
 122:Generated_Source\PSoC4/ADC.c ****             #endif /* End ADC_TOTAL_CHANNELS_NUM > 5u */
 123:Generated_Source\PSoC4/ADC.c ****             #if(ADC_TOTAL_CHANNELS_NUM > 6u)
 124:Generated_Source\PSoC4/ADC.c ****                 ,(uint8)(ADC_cy_psoc4_sarmux_8__CH_6_PORT << 4u) |
 125:Generated_Source\PSoC4/ADC.c ****                  (uint8)ADC_cy_psoc4_sarmux_8__CH_6_PIN
 126:Generated_Source\PSoC4/ADC.c ****             #endif /* End ADC_TOTAL_CHANNELS_NUM > 6u */
 127:Generated_Source\PSoC4/ADC.c ****             #if(ADC_TOTAL_CHANNELS_NUM > 7u)
 128:Generated_Source\PSoC4/ADC.c ****                 ,(uint8)(ADC_cy_psoc4_sarmux_8__CH_7_PORT << 4u) |
 129:Generated_Source\PSoC4/ADC.c ****                  (uint8)ADC_cy_psoc4_sarmux_8__CH_7_PIN
 130:Generated_Source\PSoC4/ADC.c ****             #endif /* End ADC_TOTAL_CHANNELS_NUM > 7u */
 131:Generated_Source\PSoC4/ADC.c ****             #if(ADC_TOTAL_CHANNELS_NUM > 8u)
 132:Generated_Source\PSoC4/ADC.c ****                 ,(uint8)(ADC_cy_psoc4_sarmux_8__CH_8_PORT << 4u) |
 133:Generated_Source\PSoC4/ADC.c ****                  (uint8)ADC_cy_psoc4_sarmux_8__CH_8_PIN
 134:Generated_Source\PSoC4/ADC.c ****             #endif /* End ADC_TOTAL_CHANNELS_NUM > 8u */
 135:Generated_Source\PSoC4/ADC.c ****             #if(ADC_TOTAL_CHANNELS_NUM > 9u)
 136:Generated_Source\PSoC4/ADC.c ****                 ,(uint8)(ADC_cy_psoc4_sarmux_8__CH_9_PORT << 4u) |
ARM GAS  C:\Users\Ray\AppData\Local\Temp\ccS9gWhK.s 			page 4


 137:Generated_Source\PSoC4/ADC.c ****                  (uint8)ADC_cy_psoc4_sarmux_8__CH_9_PIN
 138:Generated_Source\PSoC4/ADC.c ****             #endif /* End ADC_TOTAL_CHANNELS_NUM > 9u */
 139:Generated_Source\PSoC4/ADC.c ****             #if(ADC_TOTAL_CHANNELS_NUM > 10u)
 140:Generated_Source\PSoC4/ADC.c ****                 ,(uint8)(ADC_cy_psoc4_sarmux_8__CH_10_PORT << 4u) |
 141:Generated_Source\PSoC4/ADC.c ****                  (uint8)ADC_cy_psoc4_sarmux_8__CH_10_PIN
 142:Generated_Source\PSoC4/ADC.c ****             #endif /* End ADC_TOTAL_CHANNELS_NUM > 10u */
 143:Generated_Source\PSoC4/ADC.c ****             #if(ADC_TOTAL_CHANNELS_NUM > 11u)
 144:Generated_Source\PSoC4/ADC.c ****                 ,(uint8)(ADC_cy_psoc4_sarmux_8__CH_11_PORT << 4u) |
 145:Generated_Source\PSoC4/ADC.c ****                  (uint8)ADC_cy_psoc4_sarmux_8__CH_11_PIN
 146:Generated_Source\PSoC4/ADC.c ****             #endif /* End ADC_TOTAL_CHANNELS_NUM > 11u */
 147:Generated_Source\PSoC4/ADC.c ****             #if(ADC_TOTAL_CHANNELS_NUM > 12u)
 148:Generated_Source\PSoC4/ADC.c ****                 ,(uint8)(ADC_cy_psoc4_sarmux_8__CH_12_PORT << 4u) |
 149:Generated_Source\PSoC4/ADC.c ****                  (uint8)ADC_cy_psoc4_sarmux_8__CH_12_PIN
 150:Generated_Source\PSoC4/ADC.c ****             #endif /* End ADC_TOTAL_CHANNELS_NUM > 12u */
 151:Generated_Source\PSoC4/ADC.c ****             #if(ADC_TOTAL_CHANNELS_NUM > 13u)
 152:Generated_Source\PSoC4/ADC.c ****                 ,(uint8)(ADC_cy_psoc4_sarmux_8__CH_13_PORT << 4u) |
 153:Generated_Source\PSoC4/ADC.c ****                  (uint8)ADC_cy_psoc4_sarmux_8__CH_13_PIN
 154:Generated_Source\PSoC4/ADC.c ****             #endif /* End ADC_TOTAL_CHANNELS_NUM > 13u */
 155:Generated_Source\PSoC4/ADC.c ****             #if(ADC_TOTAL_CHANNELS_NUM > 14u)
 156:Generated_Source\PSoC4/ADC.c ****                 ,(uint8)(ADC_cy_psoc4_sarmux_8__CH_14_PORT << 4u) |
 157:Generated_Source\PSoC4/ADC.c ****                  (uint8)ADC_cy_psoc4_sarmux_8__CH_14_PIN
 158:Generated_Source\PSoC4/ADC.c ****             #endif /* End ADC_TOTAL_CHANNELS_NUM > 14u */
 159:Generated_Source\PSoC4/ADC.c ****             #if(ADC_TOTAL_CHANNELS_NUM > 15u)
 160:Generated_Source\PSoC4/ADC.c ****                 ,(uint8)(ADC_cy_psoc4_sarmux_8__CH_15_PORT << 4u) |
 161:Generated_Source\PSoC4/ADC.c ****                  (uint8)ADC_cy_psoc4_sarmux_8__CH_15_PIN
 162:Generated_Source\PSoC4/ADC.c ****             #endif /* End ADC_TOTAL_CHANNELS_NUM > 15u */
 163:Generated_Source\PSoC4/ADC.c ****             #if(ADC_TOTAL_CHANNELS_NUM > 16u)
 164:Generated_Source\PSoC4/ADC.c ****                 ,(uint8)(ADC_cy_psoc4_sarmux_8__CH_16_PORT << 4u) |
 165:Generated_Source\PSoC4/ADC.c ****                  (uint8)ADC_cy_psoc4_sarmux_8__CH_16_PIN
 166:Generated_Source\PSoC4/ADC.c ****             #endif /* End ADC_TOTAL_CHANNELS_NUM > 16u */
 167:Generated_Source\PSoC4/ADC.c ****         };
 168:Generated_Source\PSoC4/ADC.c ****     #endif /* End ADC_TOTAL_CHANNELS_NUM > 1u */
 169:Generated_Source\PSoC4/ADC.c **** 
 170:Generated_Source\PSoC4/ADC.c ****     #if(ADC_IRQ_REMOVE == 0u)
 171:Generated_Source\PSoC4/ADC.c ****         /* Start and set interrupt vector */
 172:Generated_Source\PSoC4/ADC.c ****         CyIntSetPriority(ADC_INTC_NUMBER, ADC_INTC_PRIOR_NUMBER);
  36              		.loc 1 172 0
  37 0002 0321     		movs	r1, #3
  38 0004 0E20     		movs	r0, #14
  39 0006 FFF7FEFF 		bl	CyIntSetPriority
  40              	.LVL0:
 173:Generated_Source\PSoC4/ADC.c ****         (void)CyIntSetVector(ADC_INTC_NUMBER, &ADC_ISR);
  41              		.loc 1 173 0
  42 000a 4E49     		ldr	r1, .L14
  43 000c 0E20     		movs	r0, #14
  44 000e FFF7FEFF 		bl	CyIntSetVector
  45              	.LVL1:
 174:Generated_Source\PSoC4/ADC.c ****     #endif   /* End ADC_IRQ_REMOVE */
 175:Generated_Source\PSoC4/ADC.c **** 
 176:Generated_Source\PSoC4/ADC.c ****     /* Init SAR and MUX registers */
 177:Generated_Source\PSoC4/ADC.c ****     ADC_SAR_CHAN_EN_REG = ADC_DEFAULT_EN_CHANNELS;
  46              		.loc 1 177 0
  47 0012 0F22     		movs	r2, #15
  48 0014 4C4B     		ldr	r3, .L14+4
  49 0016 1A60     		str	r2, [r3]
 178:Generated_Source\PSoC4/ADC.c ****     ADC_SAR_CTRL_REG |= ADC_DEFAULT_CTRL_REG_CFG | 
 179:Generated_Source\PSoC4/ADC.c ****         /* Enable the SAR internal pump when global pump is enabled */
ARM GAS  C:\Users\Ray\AppData\Local\Temp\ccS9gWhK.s 			page 5


 180:Generated_Source\PSoC4/ADC.c ****         (((ADC_PUMP_CTRL_REG & ADC_PUMP_CTRL_ENABLED) != 0u) ? 
  50              		.loc 1 180 0
  51 0018 4C4B     		ldr	r3, .L14+8
  52 001a 1B68     		ldr	r3, [r3]
 178:Generated_Source\PSoC4/ADC.c ****     ADC_SAR_CTRL_REG |= ADC_DEFAULT_CTRL_REG_CFG | 
  53              		.loc 1 178 0
  54 001c 002B     		cmp	r3, #0
  55 001e 01DA     		bge	.L12
  56 0020 4B49     		ldr	r1, .L14+12
  57 0022 00E0     		b	.L2
  58              	.L12:
  59 0024 4B49     		ldr	r1, .L14+16
  60              	.L2:
 178:Generated_Source\PSoC4/ADC.c ****     ADC_SAR_CTRL_REG |= ADC_DEFAULT_CTRL_REG_CFG | 
  61              		.loc 1 178 0 is_stmt 0 discriminator 4
  62 0026 4C4A     		ldr	r2, .L14+20
  63 0028 1368     		ldr	r3, [r2]
  64 002a 0B43     		orrs	r3, r1
  65 002c 1360     		str	r3, [r2]
 181:Generated_Source\PSoC4/ADC.c ****         ADC_BOOSTPUMP_EN : 0u);
 182:Generated_Source\PSoC4/ADC.c ****     ADC_SAR_SAMPLE_CTRL_REG = ADC_DEFAULT_SAMPLE_CTRL_REG_CFG;
  66              		.loc 1 182 0 is_stmt 1 discriminator 4
  67 002e 4B4A     		ldr	r2, .L14+24
  68 0030 4B4B     		ldr	r3, .L14+28
  69 0032 1A60     		str	r2, [r3]
 183:Generated_Source\PSoC4/ADC.c ****     ADC_SAR_RANGE_THRES_REG = ADC_DEFAULT_RANGE_THRES_REG_CFG;
  70              		.loc 1 183 0 discriminator 4
  71 0034 4B4A     		ldr	r2, .L14+32
  72 0036 4C4B     		ldr	r3, .L14+36
  73 0038 1A60     		str	r2, [r3]
 184:Generated_Source\PSoC4/ADC.c ****     ADC_SAR_RANGE_COND_REG  = ADC_COMPARE_MODE;
  74              		.loc 1 184 0 discriminator 4
  75 003a 0023     		movs	r3, #0
  76 003c 4B4A     		ldr	r2, .L14+40
  77 003e 1360     		str	r3, [r2]
 185:Generated_Source\PSoC4/ADC.c ****     ADC_SAR_SAMPLE_TIME01_REG = ADC_DEFAULT_SAMPLE_TIME01_REG_CFG;
  78              		.loc 1 185 0 discriminator 4
  79 0040 4B49     		ldr	r1, .L14+44
  80 0042 4C4A     		ldr	r2, .L14+48
  81 0044 1160     		str	r1, [r2]
 186:Generated_Source\PSoC4/ADC.c ****     ADC_SAR_SAMPLE_TIME23_REG = ADC_DEFAULT_SAMPLE_TIME23_REG_CFG;
  82              		.loc 1 186 0 discriminator 4
  83 0046 4C49     		ldr	r1, .L14+52
  84 0048 4C4A     		ldr	r2, .L14+56
  85 004a 1160     		str	r1, [r2]
 187:Generated_Source\PSoC4/ADC.c ****     
 188:Generated_Source\PSoC4/ADC.c ****     /* Connect Vm to VSSA when even one channel is single-ended or multiple channels configured */
 189:Generated_Source\PSoC4/ADC.c ****     #if(ADC_DEFAULT_MUX_SWITCH0 != 0u)
 190:Generated_Source\PSoC4/ADC.c ****         ADC_MUX_SWITCH0_REG |= ADC_DEFAULT_MUX_SWITCH0;
 191:Generated_Source\PSoC4/ADC.c ****         /* Set MUX_HW_CTRL_VSSA in MUX_SWITCH_HW_CTRL when multiple channels enabled */
 192:Generated_Source\PSoC4/ADC.c ****         #if(ADC_TOTAL_CHANNELS_NUM > 1u)
 193:Generated_Source\PSoC4/ADC.c ****             ADC_MUX_SWITCH_HW_CTRL_REG |= ADC_DEFAULT_MUX_SWITCH0;
 194:Generated_Source\PSoC4/ADC.c ****         #endif /* ADC_TOTAL_CHANNELS_NUM > 1u */
 195:Generated_Source\PSoC4/ADC.c ****     #endif /*ADC_CHANNELS_MODE !=0 */
 196:Generated_Source\PSoC4/ADC.c **** 
 197:Generated_Source\PSoC4/ADC.c ****     ADC_SAR_SATURATE_INTR_MASK_REG = 0u;
  86              		.loc 1 197 0 discriminator 4
ARM GAS  C:\Users\Ray\AppData\Local\Temp\ccS9gWhK.s 			page 6


  87 004c 4C4A     		ldr	r2, .L14+60
  88 004e 1360     		str	r3, [r2]
 198:Generated_Source\PSoC4/ADC.c ****     ADC_SAR_RANGE_INTR_MASK_REG = 0u;
  89              		.loc 1 198 0 discriminator 4
  90 0050 4C4A     		ldr	r2, .L14+64
  91 0052 1360     		str	r3, [r2]
 199:Generated_Source\PSoC4/ADC.c ****     ADC_SAR_INTR_MASK_REG = ADC_SAR_INTR_MASK;
  92              		.loc 1 199 0 discriminator 4
  93 0054 1122     		movs	r2, #17
  94 0056 4C4B     		ldr	r3, .L14+68
  95 0058 1A60     		str	r2, [r3]
 200:Generated_Source\PSoC4/ADC.c **** 
 201:Generated_Source\PSoC4/ADC.c ****     #if(ADC_CY_SAR_IP_VER == ADC_CY_SAR_IP_VER0)
 202:Generated_Source\PSoC4/ADC.c ****         ADC_ANA_TRIM_REG = ADC_TRIM_COEF;
  96              		.loc 1 202 0 discriminator 4
  97 005a 0F3A     		subs	r2, r2, #15
  98 005c 4B4B     		ldr	r3, .L14+72
  99 005e 1A60     		str	r2, [r3]
 203:Generated_Source\PSoC4/ADC.c ****     #endif /* (ADC_CY_SAR_IP_VER == ADC_CY_SAR_IP_VER0) */
 204:Generated_Source\PSoC4/ADC.c **** 
 205:Generated_Source\PSoC4/ADC.c ****     /* Read and modify default configuration based on characterization */
 206:Generated_Source\PSoC4/ADC.c ****     tmpRegVal = ADC_SAR_DFT_CTRL_REG;
 100              		.loc 1 206 0 discriminator 4
 101 0060 4B49     		ldr	r1, .L14+76
 102 0062 0A68     		ldr	r2, [r1]
 103              	.LVL2:
 207:Generated_Source\PSoC4/ADC.c ****     tmpRegVal &= (uint32)~ADC_DCEN;
 104              		.loc 1 207 0 discriminator 4
 105 0064 4B4B     		ldr	r3, .L14+80
 106 0066 1340     		ands	r3, r2
 107              	.LVL3:
 208:Generated_Source\PSoC4/ADC.c ****     
 209:Generated_Source\PSoC4/ADC.c ****     #if(ADC_CY_SAR_IP_VER == ADC_CY_SAR_IP_VER0)
 210:Generated_Source\PSoC4/ADC.c ****         #if(ADC_NOMINAL_CLOCK_FREQ > (ADC_MAX_FREQUENCY / 2))
 211:Generated_Source\PSoC4/ADC.c ****             tmpRegVal |= ADC_SEL_CSEL_DFT_CHAR;
 212:Generated_Source\PSoC4/ADC.c ****         #else  /* clock speed < 9 Mhz */
 213:Generated_Source\PSoC4/ADC.c ****             tmpRegVal |= ADC_DLY_INC;
 108              		.loc 1 213 0 discriminator 4
 109 0068 0122     		movs	r2, #1
 110 006a 1343     		orrs	r3, r2
 111              	.LVL4:
 214:Generated_Source\PSoC4/ADC.c ****         #endif /* clock speed > 9 Mhz */
 215:Generated_Source\PSoC4/ADC.c ****     #else
 216:Generated_Source\PSoC4/ADC.c ****         #if ((ADC_DEFAULT_VREF_SEL == ADC__INTERNAL1024) || \
 217:Generated_Source\PSoC4/ADC.c ****              (ADC_DEFAULT_VREF_SEL == ADC__INTERNALVREF))
 218:Generated_Source\PSoC4/ADC.c ****             tmpRegVal |= ADC_DLY_INC;
 219:Generated_Source\PSoC4/ADC.c ****         #else
 220:Generated_Source\PSoC4/ADC.c ****             tmpRegVal |= ADC_DCEN;
 221:Generated_Source\PSoC4/ADC.c ****             tmpRegVal &= (uint32)~ADC_DLY_INC;
 222:Generated_Source\PSoC4/ADC.c ****         #endif /* ((ADC_DEFAULT_VREF_SEL == ADC__INTERNAL1024) || \
 223:Generated_Source\PSoC4/ADC.c ****                    (ADC_DEFAULT_VREF_SEL == ADC__INTERNALVREF)) */
 224:Generated_Source\PSoC4/ADC.c ****     #endif /* (ADC_CY_SAR_IP_VER == ADC_CY_SAR_IP_VER0) */
 225:Generated_Source\PSoC4/ADC.c ****     
 226:Generated_Source\PSoC4/ADC.c ****     ADC_SAR_DFT_CTRL_REG = tmpRegVal;
 112              		.loc 1 226 0 discriminator 4
 113 006c 0B60     		str	r3, [r1]
 114              	.LVL5:
ARM GAS  C:\Users\Ray\AppData\Local\Temp\ccS9gWhK.s 			page 7


 227:Generated_Source\PSoC4/ADC.c **** 
 228:Generated_Source\PSoC4/ADC.c ****     #if(ADC_MAX_RESOLUTION != ADC_RESOLUTION_12)
 229:Generated_Source\PSoC4/ADC.c ****         ADC_WOUNDING_REG = ADC_ALT_WOUNDING;
 230:Generated_Source\PSoC4/ADC.c ****     #endif /* ADC_MAX_RESOLUTION != ADC_RESOLUTION_12 */
 231:Generated_Source\PSoC4/ADC.c **** 
 232:Generated_Source\PSoC4/ADC.c ****     for(chNum = 0u; chNum < ADC_TOTAL_CHANNELS_NUM; chNum++)
 115              		.loc 1 232 0 discriminator 4
 116 006e 0022     		movs	r2, #0
 117 0070 65E0     		b	.L3
 118              	.LVL6:
 119              	.L11:
 233:Generated_Source\PSoC4/ADC.c ****     {
 234:Generated_Source\PSoC4/ADC.c ****         tmpRegVal = (ADC_channelsConfig[chNum] & ADC_CHANNEL_CONFIG_MASK);
 120              		.loc 1 234 0
 121 0072 4949     		ldr	r1, .L14+84
 122 0074 9300     		lsls	r3, r2, #2
 123 0076 5858     		ldr	r0, [r3, r1]
 124 0078 DC23     		movs	r3, #220
 125 007a 9B01     		lsls	r3, r3, #6
 126 007c 0340     		ands	r3, r0
 127              	.LVL7:
 235:Generated_Source\PSoC4/ADC.c ****         #if(ADC_TOTAL_CHANNELS_NUM > 1u)
 236:Generated_Source\PSoC4/ADC.c ****             tmpRegVal |= ADC_InputsPlacement[chNum];
 128              		.loc 1 236 0
 129 007e 8918     		adds	r1, r1, r2
 130 0080 097D     		ldrb	r1, [r1, #20]
 131 0082 0B43     		orrs	r3, r1
 132              	.LVL8:
 237:Generated_Source\PSoC4/ADC.c ****         #endif /* End ADC_TOTAL_CHANNELS_NUM > 1u */
 238:Generated_Source\PSoC4/ADC.c ****         
 239:Generated_Source\PSoC4/ADC.c ****         
 240:Generated_Source\PSoC4/ADC.c ****         /* When the part is limited to 10-bit then the SUB_RESOLUTION bit
 241:Generated_Source\PSoC4/ADC.c ****         *  will be ignored and the RESOLUTION bit selects between 10-bit
 242:Generated_Source\PSoC4/ADC.c ****         *  (0) and 8-bit (1) resolution.
 243:Generated_Source\PSoC4/ADC.c ****         */
 244:Generated_Source\PSoC4/ADC.c ****         #if((ADC_MAX_RESOLUTION != ADC_RESOLUTION_12) && \
 245:Generated_Source\PSoC4/ADC.c ****             (ADC_ALT_WOUNDING == ADC_WOUNDING_10BIT))
 246:Generated_Source\PSoC4/ADC.c ****             tmpRegVal &= (uint32)(~ADC_ALT_RESOLUTION_ON);
 247:Generated_Source\PSoC4/ADC.c ****         #endif /* ADC_MAX_RESOLUTION != ADC_RESOLUTION_12 */
 248:Generated_Source\PSoC4/ADC.c **** 
 249:Generated_Source\PSoC4/ADC.c ****         #if(ADC_INJ_CHANNEL_ENABLED)
 250:Generated_Source\PSoC4/ADC.c ****         if(chNum < ADC_SEQUENCED_CHANNELS_NUM)
 133              		.loc 1 250 0
 134 0084 032A     		cmp	r2, #3
 135 0086 1CD8     		bhi	.L4
 251:Generated_Source\PSoC4/ADC.c ****         #endif /* ADC_INJ_CHANNEL_ENABLED */
 252:Generated_Source\PSoC4/ADC.c ****         {
 253:Generated_Source\PSoC4/ADC.c ****             CY_SET_REG32((reg32 *)(ADC_SAR_CHAN_CONFIG_IND + (uint32)(chNum << 2)), tmpRegVal);
 136              		.loc 1 253 0
 137 0088 9100     		lsls	r1, r2, #2
 138 008a 444C     		ldr	r4, .L14+88
 139 008c A446     		mov	ip, r4
 140 008e 6144     		add	r1, r1, ip
 141 0090 0B60     		str	r3, [r1]
 254:Generated_Source\PSoC4/ADC.c **** 
 255:Generated_Source\PSoC4/ADC.c ****             if((ADC_channelsConfig[chNum] & ADC_IS_SATURATE_EN_MASK) != 0u)
 142              		.loc 1 255 0
ARM GAS  C:\Users\Ray\AppData\Local\Temp\ccS9gWhK.s 			page 8


 143 0092 C307     		lsls	r3, r0, #31
 144 0094 07D5     		bpl	.L5
 145              	.LVL9:
 256:Generated_Source\PSoC4/ADC.c ****             {
 257:Generated_Source\PSoC4/ADC.c ****                 ADC_SAR_SATURATE_INTR_MASK_REG |= (uint16)((uint16)1 << chNum);
 146              		.loc 1 257 0
 147 0096 3A48     		ldr	r0, .L14+60
 148 0098 0168     		ldr	r1, [r0]
 149              	.LVL10:
 150 009a 0123     		movs	r3, #1
 151 009c 9340     		lsls	r3, r3, r2
 152 009e 1B04     		lsls	r3, r3, #16
 153 00a0 1B0C     		lsrs	r3, r3, #16
 154 00a2 0B43     		orrs	r3, r1
 155 00a4 0360     		str	r3, [r0]
 156              	.LVL11:
 157              	.L5:
 258:Generated_Source\PSoC4/ADC.c ****             }
 259:Generated_Source\PSoC4/ADC.c **** 
 260:Generated_Source\PSoC4/ADC.c ****             if((ADC_channelsConfig[chNum] & ADC_IS_RANGE_CTRL_EN_MASK) != 0u)
 158              		.loc 1 260 0
 159 00a6 9300     		lsls	r3, r2, #2
 160 00a8 3B49     		ldr	r1, .L14+84
 161              	.LVL12:
 162 00aa 5B58     		ldr	r3, [r3, r1]
 163 00ac 9B07     		lsls	r3, r3, #30
 164 00ae 21D5     		bpl	.L6
 261:Generated_Source\PSoC4/ADC.c ****             {
 262:Generated_Source\PSoC4/ADC.c ****                 ADC_SAR_RANGE_INTR_MASK_REG |= (uint16)((uint16)1 << chNum);
 165              		.loc 1 262 0
 166 00b0 3448     		ldr	r0, .L14+64
 167 00b2 0168     		ldr	r1, [r0]
 168              	.LVL13:
 169 00b4 0123     		movs	r3, #1
 170 00b6 9340     		lsls	r3, r3, r2
 171 00b8 1B04     		lsls	r3, r3, #16
 172 00ba 1B0C     		lsrs	r3, r3, #16
 173 00bc 0B43     		orrs	r3, r1
 174 00be 0360     		str	r3, [r0]
 175 00c0 18E0     		b	.L6
 176              	.LVL14:
 177              	.L4:
 263:Generated_Source\PSoC4/ADC.c ****             }
 264:Generated_Source\PSoC4/ADC.c ****         }
 265:Generated_Source\PSoC4/ADC.c ****         #if(ADC_INJ_CHANNEL_ENABLED)
 266:Generated_Source\PSoC4/ADC.c ****             else
 267:Generated_Source\PSoC4/ADC.c ****             {
 268:Generated_Source\PSoC4/ADC.c ****                 CY_SET_REG32(ADC_SAR_INJ_CHAN_CONFIG_PTR, tmpRegVal | ADC_INJ_TAILGATING);
 178              		.loc 1 268 0
 179 00c2 8021     		movs	r1, #128
 180 00c4 C905     		lsls	r1, r1, #23
 181 00c6 0B43     		orrs	r3, r1
 182              	.LVL15:
 183 00c8 3549     		ldr	r1, .L14+92
 184 00ca 0B60     		str	r3, [r1]
 269:Generated_Source\PSoC4/ADC.c **** 
 270:Generated_Source\PSoC4/ADC.c ****                 if((ADC_channelsConfig[chNum] & ADC_IS_SATURATE_EN_MASK) != 0u)
ARM GAS  C:\Users\Ray\AppData\Local\Temp\ccS9gWhK.s 			page 9


 185              		.loc 1 270 0
 186 00cc 9300     		lsls	r3, r2, #2
 187 00ce 3249     		ldr	r1, .L14+84
 188              	.LVL16:
 189 00d0 5B58     		ldr	r3, [r3, r1]
 190 00d2 DB07     		lsls	r3, r3, #31
 191 00d4 04D5     		bpl	.L7
 271:Generated_Source\PSoC4/ADC.c ****                 {
 272:Generated_Source\PSoC4/ADC.c ****                     ADC_SAR_INTR_MASK_REG |= ADC_INJ_SATURATE_MASK;
 192              		.loc 1 272 0
 193 00d6 2C49     		ldr	r1, .L14+68
 194              	.LVL17:
 195 00d8 0868     		ldr	r0, [r1]
 196              	.LVL18:
 197 00da 2023     		movs	r3, #32
 198 00dc 0343     		orrs	r3, r0
 199 00de 0B60     		str	r3, [r1]
 200              	.L7:
 273:Generated_Source\PSoC4/ADC.c ****                 }
 274:Generated_Source\PSoC4/ADC.c **** 
 275:Generated_Source\PSoC4/ADC.c ****                 if((ADC_channelsConfig[chNum] & ADC_IS_RANGE_CTRL_EN_MASK) != 0u)
 201              		.loc 1 275 0
 202 00e0 9300     		lsls	r3, r2, #2
 203 00e2 2D49     		ldr	r1, .L14+84
 204              	.LVL19:
 205 00e4 5B58     		ldr	r3, [r3, r1]
 206 00e6 9B07     		lsls	r3, r3, #30
 207 00e8 04D5     		bpl	.L6
 276:Generated_Source\PSoC4/ADC.c ****                 {
 277:Generated_Source\PSoC4/ADC.c ****                     ADC_SAR_INTR_MASK_REG |= ADC_INJ_RANGE_MASK;
 208              		.loc 1 277 0
 209 00ea 2749     		ldr	r1, .L14+68
 210              	.LVL20:
 211 00ec 0868     		ldr	r0, [r1]
 212 00ee 4023     		movs	r3, #64
 213 00f0 0343     		orrs	r3, r0
 214 00f2 0B60     		str	r3, [r1]
 215              	.L6:
 278:Generated_Source\PSoC4/ADC.c ****                 }
 279:Generated_Source\PSoC4/ADC.c ****             }
 280:Generated_Source\PSoC4/ADC.c ****         #endif /* ADC_INJ_CHANNEL_ENABLED */
 281:Generated_Source\PSoC4/ADC.c **** 
 282:Generated_Source\PSoC4/ADC.c ****         if((ADC_channelsConfig[chNum] & ADC_ALT_RESOLUTION_ON) != 0u)
 216              		.loc 1 282 0
 217 00f4 9300     		lsls	r3, r2, #2
 218 00f6 2849     		ldr	r1, .L14+84
 219              	.LVL21:
 220 00f8 5958     		ldr	r1, [r3, r1]
 221              	.LVL22:
 222 00fa 8B05     		lsls	r3, r1, #22
 223 00fc 02D5     		bpl	.L13
 283:Generated_Source\PSoC4/ADC.c ****         {
 284:Generated_Source\PSoC4/ADC.c ****                counts = (int32)ADC_DEFAULT_MAX_WRK_ALT;
 224              		.loc 1 284 0
 225 00fe 8020     		movs	r0, #128
 226 0100 4000     		lsls	r0, r0, #1
 227 0102 01E0     		b	.L8
ARM GAS  C:\Users\Ray\AppData\Local\Temp\ccS9gWhK.s 			page 10


 228              	.L13:
 285:Generated_Source\PSoC4/ADC.c ****         }
 286:Generated_Source\PSoC4/ADC.c ****         else
 287:Generated_Source\PSoC4/ADC.c ****         {
 288:Generated_Source\PSoC4/ADC.c ****                counts = (int32)ADC_SAR_WRK_MAX_12BIT;
 229              		.loc 1 288 0
 230 0104 8020     		movs	r0, #128
 231 0106 4001     		lsls	r0, r0, #5
 232              	.L8:
 233              	.LVL23:
 289:Generated_Source\PSoC4/ADC.c ****         }
 290:Generated_Source\PSoC4/ADC.c **** 
 291:Generated_Source\PSoC4/ADC.c ****         if((ADC_channelsConfig[chNum] & ADC_DIFFERENTIAL_EN) == 0u)
 234              		.loc 1 291 0
 235 0108 CB05     		lsls	r3, r1, #23
 236 010a 04D4     		bmi	.L9
 292:Generated_Source\PSoC4/ADC.c ****         {
 293:Generated_Source\PSoC4/ADC.c ****             #if((ADC_DEFAULT_SE_RESULT_FORMAT_SEL == ADC__FSIGNED) && \
 294:Generated_Source\PSoC4/ADC.c ****                 (ADC_DEFAULT_NEG_INPUT_SEL == ADC__VREF))
 295:Generated_Source\PSoC4/ADC.c ****                 /* Set offset to the minus half scale to convert results to unsigned format */
 296:Generated_Source\PSoC4/ADC.c ****                 ADC_offset[chNum] = (int16)(counts / -2);
 297:Generated_Source\PSoC4/ADC.c ****             #else
 298:Generated_Source\PSoC4/ADC.c ****                 ADC_offset[chNum] = 0;
 237              		.loc 1 298 0
 238 010c 5300     		lsls	r3, r2, #1
 239 010e 0024     		movs	r4, #0
 240 0110 2449     		ldr	r1, .L14+96
 241 0112 5C52     		strh	r4, [r3, r1]
 242 0114 03E0     		b	.L10
 243              	.L9:
 299:Generated_Source\PSoC4/ADC.c ****             #endif /* end DEFAULT_SE_RESULT_FORMAT_SEL == ADC__FSIGNED */
 300:Generated_Source\PSoC4/ADC.c ****         }
 301:Generated_Source\PSoC4/ADC.c ****         else    /* Differential channel */
 302:Generated_Source\PSoC4/ADC.c ****         {
 303:Generated_Source\PSoC4/ADC.c ****             #if(ADC_DEFAULT_DIFF_RESULT_FORMAT_SEL == ADC__FUNSIGNED)
 304:Generated_Source\PSoC4/ADC.c ****                 /* Set offset to the half scale to convert results to signed format */
 305:Generated_Source\PSoC4/ADC.c ****                 ADC_offset[chNum] = (int16)(counts / 2);
 306:Generated_Source\PSoC4/ADC.c ****             #else
 307:Generated_Source\PSoC4/ADC.c ****                 ADC_offset[chNum] = 0;
 244              		.loc 1 307 0
 245 0116 5300     		lsls	r3, r2, #1
 246 0118 0024     		movs	r4, #0
 247 011a 2249     		ldr	r1, .L14+96
 248 011c 5C52     		strh	r4, [r3, r1]
 249              	.L10:
 308:Generated_Source\PSoC4/ADC.c ****             #endif /* end ADC_DEFAULT_DIFF_RESULT_FORMAT_SEL == ADC__FUNSIGNED */
 309:Generated_Source\PSoC4/ADC.c ****         }
 310:Generated_Source\PSoC4/ADC.c ****         /* Calculate gain in counts per 10 volts with rounding */
 311:Generated_Source\PSoC4/ADC.c ****         ADC_countsPer10Volt[chNum] = (int16)(((counts * ADC_10MV_COUNTS) +
 250              		.loc 1 311 0 discriminator 2
 251 011e 224B     		ldr	r3, .L14+100
 252 0120 4343     		muls	r3, r0
 253 0122 8021     		movs	r1, #128
 254 0124 C900     		lsls	r1, r1, #3
 255 0126 8C46     		mov	ip, r1
 256 0128 6344     		add	r3, r3, ip
 312:Generated_Source\PSoC4/ADC.c ****                             ADC_DEFAULT_VREF_MV_VALUE) / (ADC_DEFAULT_VREF_MV_VALUE * 2));
ARM GAS  C:\Users\Ray\AppData\Local\Temp\ccS9gWhK.s 			page 11


 257              		.loc 1 312 0 discriminator 2
 258 012a D917     		asrs	r1, r3, #31
 259 012c 4905     		lsls	r1, r1, #21
 260 012e 490D     		lsrs	r1, r1, #21
 261 0130 CB18     		adds	r3, r1, r3
 262 0132 DB12     		asrs	r3, r3, #11
 311:Generated_Source\PSoC4/ADC.c ****                             ADC_DEFAULT_VREF_MV_VALUE) / (ADC_DEFAULT_VREF_MV_VALUE * 2));
 263              		.loc 1 311 0 discriminator 2
 264 0134 1BB2     		sxth	r3, r3
 265 0136 9000     		lsls	r0, r2, #2
 266              	.LVL24:
 267 0138 1C49     		ldr	r1, .L14+104
 268 013a 4350     		str	r3, [r0, r1]
 232:Generated_Source\PSoC4/ADC.c ****     {
 269              		.loc 1 232 0 discriminator 2
 270 013c 0132     		adds	r2, r2, #1
 271              	.LVL25:
 272              	.L3:
 232:Generated_Source\PSoC4/ADC.c ****     {
 273              		.loc 1 232 0 is_stmt 0 discriminator 1
 274 013e 042A     		cmp	r2, #4
 275 0140 97D9     		bls	.L11
 313:Generated_Source\PSoC4/ADC.c ****     }
 314:Generated_Source\PSoC4/ADC.c **** }
 276              		.loc 1 314 0 is_stmt 1
 277              		@ sp needed
 278 0142 10BD     		pop	{r4, pc}
 279              	.L15:
 280              		.align	2
 281              	.L14:
 282 0144 00000000 		.word	ADC_ISR
 283 0148 20001A40 		.word	1075445792
 284 014c 80031A40 		.word	1075446656
 285 0150 402E1013 		.word	319827520
 286 0154 402E0013 		.word	318778944
 287 0158 00001A40 		.word	1075445760
 288 015c A8000080 		.word	-2147483480
 289 0160 04001A40 		.word	1075445764
 290 0164 0000FF07 		.word	134152192
 291 0168 18001A40 		.word	1075445784
 292 016c 1C001A40 		.word	1075445788
 293 0170 E9030400 		.word	263145
 294 0174 10001A40 		.word	1075445776
 295 0178 04000400 		.word	262148
 296 017c 14001A40 		.word	1075445780
 297 0180 28021A40 		.word	1075446312
 298 0184 38021A40 		.word	1075446328
 299 0188 18021A40 		.word	1075446296
 300 018c 000F1A40 		.word	1075449600
 301 0190 30001A40 		.word	1075445808
 302 0194 FFFFFFDF 		.word	-536870913
 303 0198 00000000 		.word	.LANCHOR0
 304 019c 80001A40 		.word	1075445888
 305 01a0 80021A40 		.word	1075446400
 306 01a4 00000000 		.word	ADC_offset
 307 01a8 10270000 		.word	10000
 308 01ac 00000000 		.word	ADC_countsPer10Volt
ARM GAS  C:\Users\Ray\AppData\Local\Temp\ccS9gWhK.s 			page 12


 309              		.cfi_endproc
 310              	.LFE1:
 311              		.size	ADC_Init, .-ADC_Init
 312              		.section	.text.ADC_Enable,"ax",%progbits
 313              		.align	2
 314              		.global	ADC_Enable
 315              		.code	16
 316              		.thumb_func
 317              		.type	ADC_Enable, %function
 318              	ADC_Enable:
 319              	.LFB2:
 315:Generated_Source\PSoC4/ADC.c **** 
 316:Generated_Source\PSoC4/ADC.c **** /*******************************************************************************
 317:Generated_Source\PSoC4/ADC.c **** * Function Name: ADC_SAR_1_Enable
 318:Generated_Source\PSoC4/ADC.c **** ********************************************************************************
 319:Generated_Source\PSoC4/ADC.c **** *
 320:Generated_Source\PSoC4/ADC.c **** * Summary:
 321:Generated_Source\PSoC4/ADC.c **** *  Enables the clock and analog power for SAR ADC.
 322:Generated_Source\PSoC4/ADC.c **** *
 323:Generated_Source\PSoC4/ADC.c **** * Parameters:
 324:Generated_Source\PSoC4/ADC.c **** *  None.
 325:Generated_Source\PSoC4/ADC.c **** *
 326:Generated_Source\PSoC4/ADC.c **** * Return:
 327:Generated_Source\PSoC4/ADC.c **** *  None.
 328:Generated_Source\PSoC4/ADC.c **** *
 329:Generated_Source\PSoC4/ADC.c **** *******************************************************************************/
 330:Generated_Source\PSoC4/ADC.c **** void ADC_Enable(void)
 331:Generated_Source\PSoC4/ADC.c **** {
 320              		.loc 1 331 0
 321              		.cfi_startproc
 322              		@ args = 0, pretend = 0, frame = 0
 323              		@ frame_needed = 0, uses_anonymous_args = 0
 324 0000 10B5     		push	{r4, lr}
 325              		.cfi_def_cfa_offset 8
 326              		.cfi_offset 4, -8
 327              		.cfi_offset 14, -4
 332:Generated_Source\PSoC4/ADC.c ****     if (0u == (ADC_SAR_CTRL_REG & ADC_ENABLE))
 328              		.loc 1 332 0
 329 0002 074B     		ldr	r3, .L18
 330 0004 1B68     		ldr	r3, [r3]
 331 0006 002B     		cmp	r3, #0
 332 0008 08DB     		blt	.L16
 333:Generated_Source\PSoC4/ADC.c ****     {
 334:Generated_Source\PSoC4/ADC.c ****         #if(ADC_CY_SAR_IP_VER != ADC_CY_SAR_IP_VER0)
 335:Generated_Source\PSoC4/ADC.c **** 
 336:Generated_Source\PSoC4/ADC.c ****             while (0u != (ADC_SAR_STATUS_REG & ADC_STATUS_BUSY))
 337:Generated_Source\PSoC4/ADC.c ****             {
 338:Generated_Source\PSoC4/ADC.c ****                 /* wait for SAR to go idle to avoid deadlock */
 339:Generated_Source\PSoC4/ADC.c ****             }
 340:Generated_Source\PSoC4/ADC.c ****         #endif /* (ADC_CY_SAR_IP_VER != ADC_CY_SAR_IP_VER0) */
 341:Generated_Source\PSoC4/ADC.c ****         
 342:Generated_Source\PSoC4/ADC.c ****         ADC_SAR_CTRL_REG |= ADC_ENABLE;
 333              		.loc 1 342 0
 334 000a 054A     		ldr	r2, .L18
 335 000c 1368     		ldr	r3, [r2]
 336 000e 8021     		movs	r1, #128
 337 0010 0906     		lsls	r1, r1, #24
ARM GAS  C:\Users\Ray\AppData\Local\Temp\ccS9gWhK.s 			page 13


 338 0012 0B43     		orrs	r3, r1
 339 0014 1360     		str	r3, [r2]
 343:Generated_Source\PSoC4/ADC.c ****         
 344:Generated_Source\PSoC4/ADC.c ****         /* The block is ready to use 10 us after the enable signal is set high. */
 345:Generated_Source\PSoC4/ADC.c ****         CyDelayUs(ADC_10US_DELAY);         
 340              		.loc 1 345 0
 341 0016 0A20     		movs	r0, #10
 342 0018 FFF7FEFF 		bl	CyDelayUs
 343              	.LVL26:
 344              	.L16:
 346:Generated_Source\PSoC4/ADC.c ****     }
 347:Generated_Source\PSoC4/ADC.c **** }
 345              		.loc 1 347 0
 346              		@ sp needed
 347 001c 10BD     		pop	{r4, pc}
 348              	.L19:
 349 001e C046     		.align	2
 350              	.L18:
 351 0020 00001A40 		.word	1075445760
 352              		.cfi_endproc
 353              	.LFE2:
 354              		.size	ADC_Enable, .-ADC_Enable
 355              		.section	.text.ADC_Start,"ax",%progbits
 356              		.align	2
 357              		.global	ADC_Start
 358              		.code	16
 359              		.thumb_func
 360              		.type	ADC_Start, %function
 361              	ADC_Start:
 362              	.LFB0:
  64:Generated_Source\PSoC4/ADC.c ****     /* If not Initialized then initialize all required hardware and software */
 363              		.loc 1 64 0
 364              		.cfi_startproc
 365              		@ args = 0, pretend = 0, frame = 0
 366              		@ frame_needed = 0, uses_anonymous_args = 0
 367 0000 10B5     		push	{r4, lr}
 368              		.cfi_def_cfa_offset 8
 369              		.cfi_offset 4, -8
 370              		.cfi_offset 14, -4
  66:Generated_Source\PSoC4/ADC.c ****     {
 371              		.loc 1 66 0
 372 0002 064B     		ldr	r3, .L22
 373 0004 1B78     		ldrb	r3, [r3]
 374 0006 002B     		cmp	r3, #0
 375 0008 04D1     		bne	.L21
  68:Generated_Source\PSoC4/ADC.c ****         ADC_initVar = 1u;
 376              		.loc 1 68 0
 377 000a FFF7FEFF 		bl	ADC_Init
 378              	.LVL27:
  69:Generated_Source\PSoC4/ADC.c ****     }
 379              		.loc 1 69 0
 380 000e 0122     		movs	r2, #1
 381 0010 024B     		ldr	r3, .L22
 382 0012 1A70     		strb	r2, [r3]
 383              	.L21:
  71:Generated_Source\PSoC4/ADC.c **** }
 384              		.loc 1 71 0
ARM GAS  C:\Users\Ray\AppData\Local\Temp\ccS9gWhK.s 			page 14


 385 0014 FFF7FEFF 		bl	ADC_Enable
 386              	.LVL28:
  72:Generated_Source\PSoC4/ADC.c **** 
 387              		.loc 1 72 0
 388              		@ sp needed
 389 0018 10BD     		pop	{r4, pc}
 390              	.L23:
 391 001a C046     		.align	2
 392              	.L22:
 393 001c 00000000 		.word	.LANCHOR1
 394              		.cfi_endproc
 395              	.LFE0:
 396              		.size	ADC_Start, .-ADC_Start
 397              		.section	.text.ADC_Stop,"ax",%progbits
 398              		.align	2
 399              		.global	ADC_Stop
 400              		.code	16
 401              		.thumb_func
 402              		.type	ADC_Stop, %function
 403              	ADC_Stop:
 404              	.LFB3:
 348:Generated_Source\PSoC4/ADC.c **** 
 349:Generated_Source\PSoC4/ADC.c **** 
 350:Generated_Source\PSoC4/ADC.c **** /*******************************************************************************
 351:Generated_Source\PSoC4/ADC.c **** * Function Name: ADC_Stop
 352:Generated_Source\PSoC4/ADC.c **** ********************************************************************************
 353:Generated_Source\PSoC4/ADC.c **** *
 354:Generated_Source\PSoC4/ADC.c **** * Summary:
 355:Generated_Source\PSoC4/ADC.c **** *  This function stops ADC conversions and puts the ADC into its lowest power
 356:Generated_Source\PSoC4/ADC.c **** *  mode.
 357:Generated_Source\PSoC4/ADC.c **** *
 358:Generated_Source\PSoC4/ADC.c **** * Parameters:
 359:Generated_Source\PSoC4/ADC.c **** *  None.
 360:Generated_Source\PSoC4/ADC.c **** *
 361:Generated_Source\PSoC4/ADC.c **** * Return:
 362:Generated_Source\PSoC4/ADC.c **** *  None.
 363:Generated_Source\PSoC4/ADC.c **** *
 364:Generated_Source\PSoC4/ADC.c **** *******************************************************************************/
 365:Generated_Source\PSoC4/ADC.c **** void ADC_Stop(void)
 366:Generated_Source\PSoC4/ADC.c **** {
 405              		.loc 1 366 0
 406              		.cfi_startproc
 407              		@ args = 0, pretend = 0, frame = 0
 408              		@ frame_needed = 0, uses_anonymous_args = 0
 409              		@ link register save eliminated.
 367:Generated_Source\PSoC4/ADC.c ****     ADC_SAR_CTRL_REG &= (uint32)~ADC_ENABLE;
 410              		.loc 1 367 0
 411 0000 024A     		ldr	r2, .L25
 412 0002 1368     		ldr	r3, [r2]
 413 0004 5B00     		lsls	r3, r3, #1
 414 0006 5B08     		lsrs	r3, r3, #1
 415 0008 1360     		str	r3, [r2]
 368:Generated_Source\PSoC4/ADC.c **** }
 416              		.loc 1 368 0
 417              		@ sp needed
 418 000a 7047     		bx	lr
 419              	.L26:
ARM GAS  C:\Users\Ray\AppData\Local\Temp\ccS9gWhK.s 			page 15


 420              		.align	2
 421              	.L25:
 422 000c 00001A40 		.word	1075445760
 423              		.cfi_endproc
 424              	.LFE3:
 425              		.size	ADC_Stop, .-ADC_Stop
 426              		.section	.text.ADC_StartConvert,"ax",%progbits
 427              		.align	2
 428              		.global	ADC_StartConvert
 429              		.code	16
 430              		.thumb_func
 431              		.type	ADC_StartConvert, %function
 432              	ADC_StartConvert:
 433              	.LFB4:
 369:Generated_Source\PSoC4/ADC.c **** 
 370:Generated_Source\PSoC4/ADC.c **** 
 371:Generated_Source\PSoC4/ADC.c **** /*******************************************************************************
 372:Generated_Source\PSoC4/ADC.c **** * Function Name: ADC_StartConvert
 373:Generated_Source\PSoC4/ADC.c **** ********************************************************************************
 374:Generated_Source\PSoC4/ADC.c **** *
 375:Generated_Source\PSoC4/ADC.c **** * Summary:
 376:Generated_Source\PSoC4/ADC.c **** *  Description:
 377:Generated_Source\PSoC4/ADC.c **** *  For free running mode, this API starts the conversion process and it
 378:Generated_Source\PSoC4/ADC.c **** *  runs continuously.
 379:Generated_Source\PSoC4/ADC.c **** *
 380:Generated_Source\PSoC4/ADC.c **** *  In a triggered mode, this routine triggers every conversion by
 381:Generated_Source\PSoC4/ADC.c **** *  writing into the FW_TRIGGER bit in SAR_START_CTRL reg. In triggered mode,
 382:Generated_Source\PSoC4/ADC.c **** *  every conversion has to start by this API.
 383:Generated_Source\PSoC4/ADC.c **** *
 384:Generated_Source\PSoC4/ADC.c **** * Parameters:
 385:Generated_Source\PSoC4/ADC.c **** *  None.
 386:Generated_Source\PSoC4/ADC.c **** *
 387:Generated_Source\PSoC4/ADC.c **** * Return:
 388:Generated_Source\PSoC4/ADC.c **** *  None.
 389:Generated_Source\PSoC4/ADC.c **** *
 390:Generated_Source\PSoC4/ADC.c **** *******************************************************************************/
 391:Generated_Source\PSoC4/ADC.c **** void ADC_StartConvert(void)
 392:Generated_Source\PSoC4/ADC.c **** {
 434              		.loc 1 392 0
 435              		.cfi_startproc
 436              		@ args = 0, pretend = 0, frame = 0
 437              		@ frame_needed = 0, uses_anonymous_args = 0
 438              		@ link register save eliminated.
 393:Generated_Source\PSoC4/ADC.c ****     #if(ADC_DEFAULT_SAMPLE_MODE_SEL == ADC__FREERUNNING)
 394:Generated_Source\PSoC4/ADC.c ****         ADC_SAR_SAMPLE_CTRL_REG |= ADC_CONTINUOUS_EN;
 439              		.loc 1 394 0
 440 0000 034A     		ldr	r2, .L28
 441 0002 1368     		ldr	r3, [r2]
 442 0004 8021     		movs	r1, #128
 443 0006 4902     		lsls	r1, r1, #9
 444 0008 0B43     		orrs	r3, r1
 445 000a 1360     		str	r3, [r2]
 395:Generated_Source\PSoC4/ADC.c ****     #else /* Firmware trigger */
 396:Generated_Source\PSoC4/ADC.c ****         ADC_SAR_START_CTRL_REG = ADC_FW_TRIGGER;
 397:Generated_Source\PSoC4/ADC.c ****     #endif /* End ADC_DEFAULT_SAMPLE_MODE == ADC__FREERUNNING */
 398:Generated_Source\PSoC4/ADC.c **** 
 399:Generated_Source\PSoC4/ADC.c **** }
ARM GAS  C:\Users\Ray\AppData\Local\Temp\ccS9gWhK.s 			page 16


 446              		.loc 1 399 0
 447              		@ sp needed
 448 000c 7047     		bx	lr
 449              	.L29:
 450 000e C046     		.align	2
 451              	.L28:
 452 0010 04001A40 		.word	1075445764
 453              		.cfi_endproc
 454              	.LFE4:
 455              		.size	ADC_StartConvert, .-ADC_StartConvert
 456              		.section	.text.ADC_StopConvert,"ax",%progbits
 457              		.align	2
 458              		.global	ADC_StopConvert
 459              		.code	16
 460              		.thumb_func
 461              		.type	ADC_StopConvert, %function
 462              	ADC_StopConvert:
 463              	.LFB5:
 400:Generated_Source\PSoC4/ADC.c **** 
 401:Generated_Source\PSoC4/ADC.c **** 
 402:Generated_Source\PSoC4/ADC.c **** /*******************************************************************************
 403:Generated_Source\PSoC4/ADC.c **** * Function Name: ADC_StopConvert
 404:Generated_Source\PSoC4/ADC.c **** ********************************************************************************
 405:Generated_Source\PSoC4/ADC.c **** *
 406:Generated_Source\PSoC4/ADC.c **** * Summary:
 407:Generated_Source\PSoC4/ADC.c **** *  Forces the ADC to stop all conversions.
 408:Generated_Source\PSoC4/ADC.c **** *
 409:Generated_Source\PSoC4/ADC.c **** * Parameters:
 410:Generated_Source\PSoC4/ADC.c **** *  None.
 411:Generated_Source\PSoC4/ADC.c **** *
 412:Generated_Source\PSoC4/ADC.c **** * Return:
 413:Generated_Source\PSoC4/ADC.c **** *  None.
 414:Generated_Source\PSoC4/ADC.c **** *
 415:Generated_Source\PSoC4/ADC.c **** *******************************************************************************/
 416:Generated_Source\PSoC4/ADC.c **** void ADC_StopConvert(void)
 417:Generated_Source\PSoC4/ADC.c **** {
 464              		.loc 1 417 0
 465              		.cfi_startproc
 466              		@ args = 0, pretend = 0, frame = 0
 467              		@ frame_needed = 0, uses_anonymous_args = 0
 468              		@ link register save eliminated.
 418:Generated_Source\PSoC4/ADC.c ****     #if(ADC_DEFAULT_SAMPLE_MODE_SEL == ADC__FREERUNNING)
 419:Generated_Source\PSoC4/ADC.c ****         ADC_SAR_SAMPLE_CTRL_REG &= (uint32)(~ADC_CONTINUOUS_EN);
 469              		.loc 1 419 0
 470 0000 024A     		ldr	r2, .L31
 471 0002 1168     		ldr	r1, [r2]
 472 0004 024B     		ldr	r3, .L31+4
 473 0006 0B40     		ands	r3, r1
 474 0008 1360     		str	r3, [r2]
 420:Generated_Source\PSoC4/ADC.c ****     #endif /* ADC_DEFAULT_SAMPLE_MODE == ADC__FREERUNNING */
 421:Generated_Source\PSoC4/ADC.c **** }
 475              		.loc 1 421 0
 476              		@ sp needed
 477 000a 7047     		bx	lr
 478              	.L32:
 479              		.align	2
 480              	.L31:
ARM GAS  C:\Users\Ray\AppData\Local\Temp\ccS9gWhK.s 			page 17


 481 000c 04001A40 		.word	1075445764
 482 0010 FFFFFEFF 		.word	-65537
 483              		.cfi_endproc
 484              	.LFE5:
 485              		.size	ADC_StopConvert, .-ADC_StopConvert
 486              		.section	.text.ADC_IsEndConversion,"ax",%progbits
 487              		.align	2
 488              		.global	ADC_IsEndConversion
 489              		.code	16
 490              		.thumb_func
 491              		.type	ADC_IsEndConversion, %function
 492              	ADC_IsEndConversion:
 493              	.LFB6:
 422:Generated_Source\PSoC4/ADC.c **** 
 423:Generated_Source\PSoC4/ADC.c **** 
 424:Generated_Source\PSoC4/ADC.c **** /*******************************************************************************
 425:Generated_Source\PSoC4/ADC.c **** * Function Name: ADC_IsEndConversion
 426:Generated_Source\PSoC4/ADC.c **** ********************************************************************************
 427:Generated_Source\PSoC4/ADC.c **** *
 428:Generated_Source\PSoC4/ADC.c **** * Summary:
 429:Generated_Source\PSoC4/ADC.c **** *  Description: Checks for ADC end of conversion for the case one
 430:Generated_Source\PSoC4/ADC.c **** *  channel and end of scan for the case of multiple channels. It acts
 431:Generated_Source\PSoC4/ADC.c **** *  as a software version of the EOC. This function provides the
 432:Generated_Source\PSoC4/ADC.c **** *  programmer with two options. In one mode this function
 433:Generated_Source\PSoC4/ADC.c **** *  immediately returns with the conversion status. In the other mode,
 434:Generated_Source\PSoC4/ADC.c **** *  the function does not return (blocking) until the conversion has
 435:Generated_Source\PSoC4/ADC.c **** *  completed.
 436:Generated_Source\PSoC4/ADC.c **** *
 437:Generated_Source\PSoC4/ADC.c **** * Parameters:
 438:Generated_Source\PSoC4/ADC.c **** *  ADC_RETURN_STATUS        -> Immediately returns conversion result status
 439:Generated_Source\PSoC4/ADC.c **** *  ADC_WAIT_FOR_RESULT      -> Does not return until ADC complete
 440:Generated_Source\PSoC4/ADC.c **** *  ADC_RETURN_STATUS_INJ    -> Immediately returns conversion result status
 441:Generated_Source\PSoC4/ADC.c **** *                              for injection channel
 442:Generated_Source\PSoC4/ADC.c **** *  ADC_WAIT_FOR_RESULT_INJ  -> Does not return until ADC completes injection
 443:Generated_Source\PSoC4/ADC.c **** *                              channel conversion
 444:Generated_Source\PSoC4/ADC.c **** *
 445:Generated_Source\PSoC4/ADC.c **** * Return:
 446:Generated_Source\PSoC4/ADC.c **** *  If a non-zero value is returned, the last conversion or scan has completed.
 447:Generated_Source\PSoC4/ADC.c **** *  If the returned value is zero, the ADC is still in the process of a scan.
 448:Generated_Source\PSoC4/ADC.c **** *
 449:Generated_Source\PSoC4/ADC.c **** *******************************************************************************/
 450:Generated_Source\PSoC4/ADC.c **** uint32 ADC_IsEndConversion(uint32 retMode)
 451:Generated_Source\PSoC4/ADC.c **** {
 494              		.loc 1 451 0
 495              		.cfi_startproc
 496              		@ args = 0, pretend = 0, frame = 0
 497              		@ frame_needed = 0, uses_anonymous_args = 0
 498              		@ link register save eliminated.
 499              	.LVL29:
 500 0000 0100     		movs	r1, r0
 501              	.LVL30:
 452:Generated_Source\PSoC4/ADC.c ****     uint32 status = 0u;
 453:Generated_Source\PSoC4/ADC.c **** 
 454:Generated_Source\PSoC4/ADC.c ****     if((retMode & (ADC_RETURN_STATUS | ADC_WAIT_FOR_RESULT)) != 0u)
 502              		.loc 1 454 0
 503 0002 8307     		lsls	r3, r0, #30
 504 0004 0CD0     		beq	.L40
ARM GAS  C:\Users\Ray\AppData\Local\Temp\ccS9gWhK.s 			page 18


 505              	.LVL31:
 506              	.L36:
 455:Generated_Source\PSoC4/ADC.c ****     {
 456:Generated_Source\PSoC4/ADC.c ****         do
 457:Generated_Source\PSoC4/ADC.c ****         {
 458:Generated_Source\PSoC4/ADC.c ****             status = ADC_SAR_INTR_REG & ADC_EOS_MASK;
 507              		.loc 1 458 0 discriminator 2
 508 0006 104B     		ldr	r3, .L41
 509 0008 1B68     		ldr	r3, [r3]
 510 000a 0120     		movs	r0, #1
 511 000c 1840     		ands	r0, r3
 512              	.LVL32:
 459:Generated_Source\PSoC4/ADC.c ****         }while((status == 0u) && ((retMode & ADC_WAIT_FOR_RESULT) != 0u));
 513              		.loc 1 459 0 discriminator 2
 514 000e 01D1     		bne	.L35
 515              		.loc 1 459 0 is_stmt 0 discriminator 1
 516 0010 8B07     		lsls	r3, r1, #30
 517 0012 F8D4     		bmi	.L36
 518              	.L35:
 460:Generated_Source\PSoC4/ADC.c **** 
 461:Generated_Source\PSoC4/ADC.c ****         if(status != 0u)
 519              		.loc 1 461 0 is_stmt 1
 520 0014 0028     		cmp	r0, #0
 521 0016 04D0     		beq	.L34
 462:Generated_Source\PSoC4/ADC.c ****         {
 463:Generated_Source\PSoC4/ADC.c ****             /* Clear EOS bit */
 464:Generated_Source\PSoC4/ADC.c ****             ADC_SAR_INTR_REG = ADC_EOS_MASK;
 522              		.loc 1 464 0
 523 0018 0122     		movs	r2, #1
 524 001a 0B4B     		ldr	r3, .L41
 525 001c 1A60     		str	r2, [r3]
 526 001e 00E0     		b	.L34
 527              	.LVL33:
 528              	.L40:
 452:Generated_Source\PSoC4/ADC.c **** 
 529              		.loc 1 452 0
 530 0020 0020     		movs	r0, #0
 531              	.LVL34:
 532              	.L34:
 465:Generated_Source\PSoC4/ADC.c ****         }
 466:Generated_Source\PSoC4/ADC.c ****     }
 467:Generated_Source\PSoC4/ADC.c **** 
 468:Generated_Source\PSoC4/ADC.c ****     #if(ADC_INJ_CHANNEL_ENABLED)
 469:Generated_Source\PSoC4/ADC.c ****         if((retMode & (ADC_RETURN_STATUS_INJ | ADC_WAIT_FOR_RESULT_INJ)) != 0u)
 533              		.loc 1 469 0
 534 0022 0C23     		movs	r3, #12
 535 0024 0B42     		tst	r3, r1
 536 0026 0DD0     		beq	.L37
 537              	.L39:
 470:Generated_Source\PSoC4/ADC.c ****         {
 471:Generated_Source\PSoC4/ADC.c ****             do
 472:Generated_Source\PSoC4/ADC.c ****             {
 473:Generated_Source\PSoC4/ADC.c ****                 status |= ADC_SAR_INTR_REG & ADC_INJ_EOC_MASK;
 538              		.loc 1 473 0
 539 0028 074B     		ldr	r3, .L41
 540 002a 1A68     		ldr	r2, [r3]
 541 002c 1023     		movs	r3, #16
ARM GAS  C:\Users\Ray\AppData\Local\Temp\ccS9gWhK.s 			page 19


 542 002e 1A40     		ands	r2, r3
 543 0030 1043     		orrs	r0, r2
 544              	.LVL35:
 474:Generated_Source\PSoC4/ADC.c ****             }while(((status & ADC_INJ_EOC_MASK) == 0u) &&
 545              		.loc 1 474 0
 546 0032 0340     		ands	r3, r0
 475:Generated_Source\PSoC4/ADC.c ****                    ((retMode & ADC_WAIT_FOR_RESULT_INJ) != 0u));
 547              		.loc 1 475 0
 548 0034 01D1     		bne	.L38
 474:Generated_Source\PSoC4/ADC.c ****             }while(((status & ADC_INJ_EOC_MASK) == 0u) &&
 549              		.loc 1 474 0 discriminator 1
 550 0036 0A07     		lsls	r2, r1, #28
 551 0038 F6D4     		bmi	.L39
 552              	.L38:
 476:Generated_Source\PSoC4/ADC.c **** 
 477:Generated_Source\PSoC4/ADC.c ****             if((status & ADC_INJ_EOC_MASK) != 0u)
 553              		.loc 1 477 0
 554 003a 002B     		cmp	r3, #0
 555 003c 02D0     		beq	.L37
 478:Generated_Source\PSoC4/ADC.c ****             {
 479:Generated_Source\PSoC4/ADC.c ****                 /* Clear Injection EOS bit */
 480:Generated_Source\PSoC4/ADC.c ****                 ADC_SAR_INTR_REG = ADC_INJ_EOC_MASK;
 556              		.loc 1 480 0
 557 003e 1022     		movs	r2, #16
 558 0040 014B     		ldr	r3, .L41
 559 0042 1A60     		str	r2, [r3]
 560              	.L37:
 481:Generated_Source\PSoC4/ADC.c ****             }
 482:Generated_Source\PSoC4/ADC.c ****         }
 483:Generated_Source\PSoC4/ADC.c ****     #endif /* ADC_INJ_CHANNEL_ENABLED */
 484:Generated_Source\PSoC4/ADC.c **** 
 485:Generated_Source\PSoC4/ADC.c ****     return (status);
 486:Generated_Source\PSoC4/ADC.c **** }
 561              		.loc 1 486 0
 562              		@ sp needed
 563 0044 7047     		bx	lr
 564              	.L42:
 565 0046 C046     		.align	2
 566              	.L41:
 567 0048 10021A40 		.word	1075446288
 568              		.cfi_endproc
 569              	.LFE6:
 570              		.size	ADC_IsEndConversion, .-ADC_IsEndConversion
 571              		.section	.text.ADC_GetResult16,"ax",%progbits
 572              		.align	2
 573              		.global	ADC_GetResult16
 574              		.code	16
 575              		.thumb_func
 576              		.type	ADC_GetResult16, %function
 577              	ADC_GetResult16:
 578              	.LFB7:
 487:Generated_Source\PSoC4/ADC.c **** 
 488:Generated_Source\PSoC4/ADC.c **** 
 489:Generated_Source\PSoC4/ADC.c **** /*******************************************************************************
 490:Generated_Source\PSoC4/ADC.c **** * Function Name: ADC_GetResult16
 491:Generated_Source\PSoC4/ADC.c **** ********************************************************************************
 492:Generated_Source\PSoC4/ADC.c **** *
ARM GAS  C:\Users\Ray\AppData\Local\Temp\ccS9gWhK.s 			page 20


 493:Generated_Source\PSoC4/ADC.c **** * Summary:
 494:Generated_Source\PSoC4/ADC.c **** *  Gets the data available in the SAR DATA register.
 495:Generated_Source\PSoC4/ADC.c **** *
 496:Generated_Source\PSoC4/ADC.c **** * Parameters:
 497:Generated_Source\PSoC4/ADC.c **** *  chan: The ADC channel in which to return the result. The first channel
 498:Generated_Source\PSoC4/ADC.c **** *  is 0 and the injection channel if enabled is the number of valid channels.
 499:Generated_Source\PSoC4/ADC.c **** *
 500:Generated_Source\PSoC4/ADC.c **** * Return:
 501:Generated_Source\PSoC4/ADC.c **** *  Returns converted data as a signed 16-bit integer
 502:Generated_Source\PSoC4/ADC.c **** *
 503:Generated_Source\PSoC4/ADC.c **** *******************************************************************************/
 504:Generated_Source\PSoC4/ADC.c **** int16 ADC_GetResult16(uint32 chan)
 505:Generated_Source\PSoC4/ADC.c **** {
 579              		.loc 1 505 0
 580              		.cfi_startproc
 581              		@ args = 0, pretend = 0, frame = 0
 582              		@ frame_needed = 0, uses_anonymous_args = 0
 583              	.LVL36:
 584 0000 10B5     		push	{r4, lr}
 585              		.cfi_def_cfa_offset 8
 586              		.cfi_offset 4, -8
 587              		.cfi_offset 14, -4
 588 0002 0400     		movs	r4, r0
 506:Generated_Source\PSoC4/ADC.c ****     uint32 result;
 507:Generated_Source\PSoC4/ADC.c **** 
 508:Generated_Source\PSoC4/ADC.c ****     /* Halt CPU in debug mode if channel is out of valid range */
 509:Generated_Source\PSoC4/ADC.c ****     CYASSERT(chan < ADC_TOTAL_CHANNELS_NUM);
 589              		.loc 1 509 0
 590 0004 0428     		cmp	r0, #4
 591 0006 02D9     		bls	.L44
 592              		.loc 1 509 0 is_stmt 0 discriminator 1
 593 0008 0020     		movs	r0, #0
 594              	.LVL37:
 595 000a FFF7FEFF 		bl	CyHalt
 596              	.LVL38:
 597              	.L44:
 510:Generated_Source\PSoC4/ADC.c **** 
 511:Generated_Source\PSoC4/ADC.c ****     if(chan < ADC_SEQUENCED_CHANNELS_NUM)
 598              		.loc 1 511 0 is_stmt 1
 599 000e 032C     		cmp	r4, #3
 600 0010 07D8     		bhi	.L45
 512:Generated_Source\PSoC4/ADC.c ****     {
 513:Generated_Source\PSoC4/ADC.c ****         result = CY_GET_REG32((reg32 *)(ADC_SAR_CHAN_RESULT_IND + (uint32)(chan << 2u))) &
 601              		.loc 1 513 0
 602 0012 A400     		lsls	r4, r4, #2
 603              	.LVL39:
 604 0014 064B     		ldr	r3, .L47
 605 0016 9C46     		mov	ip, r3
 606 0018 6444     		add	r4, r4, ip
 607 001a 2068     		ldr	r0, [r4]
 608 001c 0004     		lsls	r0, r0, #16
 609 001e 000C     		lsrs	r0, r0, #16
 610              	.LVL40:
 611 0020 03E0     		b	.L46
 612              	.LVL41:
 613              	.L45:
 514:Generated_Source\PSoC4/ADC.c ****                 ADC_RESULT_MASK;
ARM GAS  C:\Users\Ray\AppData\Local\Temp\ccS9gWhK.s 			page 21


 515:Generated_Source\PSoC4/ADC.c ****     }
 516:Generated_Source\PSoC4/ADC.c ****     else
 517:Generated_Source\PSoC4/ADC.c ****     {
 518:Generated_Source\PSoC4/ADC.c ****         #if(ADC_INJ_CHANNEL_ENABLED)
 519:Generated_Source\PSoC4/ADC.c ****             result = ADC_SAR_INJ_RESULT_REG & ADC_RESULT_MASK;
 614              		.loc 1 519 0
 615 0022 044B     		ldr	r3, .L47+4
 616 0024 1868     		ldr	r0, [r3]
 617 0026 0004     		lsls	r0, r0, #16
 618 0028 000C     		lsrs	r0, r0, #16
 619              	.LVL42:
 620              	.L46:
 520:Generated_Source\PSoC4/ADC.c ****         #else
 521:Generated_Source\PSoC4/ADC.c ****             result = 0u;
 522:Generated_Source\PSoC4/ADC.c ****         #endif /* ADC_INJ_CHANNEL_ENABLED */
 523:Generated_Source\PSoC4/ADC.c ****     }
 524:Generated_Source\PSoC4/ADC.c **** 
 525:Generated_Source\PSoC4/ADC.c ****     return ( (int16)result );
 621              		.loc 1 525 0
 622 002a 00B2     		sxth	r0, r0
 623              	.LVL43:
 526:Generated_Source\PSoC4/ADC.c **** }
 624              		.loc 1 526 0
 625              		@ sp needed
 626 002c 10BD     		pop	{r4, pc}
 627              	.L48:
 628 002e C046     		.align	2
 629              	.L47:
 630 0030 80011A40 		.word	1075446144
 631 0034 90021A40 		.word	1075446416
 632              		.cfi_endproc
 633              	.LFE7:
 634              		.size	ADC_GetResult16, .-ADC_GetResult16
 635              		.section	.text.ADC_SetChanMask,"ax",%progbits
 636              		.align	2
 637              		.global	ADC_SetChanMask
 638              		.code	16
 639              		.thumb_func
 640              		.type	ADC_SetChanMask, %function
 641              	ADC_SetChanMask:
 642              	.LFB8:
 527:Generated_Source\PSoC4/ADC.c **** 
 528:Generated_Source\PSoC4/ADC.c **** 
 529:Generated_Source\PSoC4/ADC.c **** /*******************************************************************************
 530:Generated_Source\PSoC4/ADC.c **** * Function Name: ADC_SetChanMask
 531:Generated_Source\PSoC4/ADC.c **** ********************************************************************************
 532:Generated_Source\PSoC4/ADC.c **** *
 533:Generated_Source\PSoC4/ADC.c **** * Summary:
 534:Generated_Source\PSoC4/ADC.c **** *  Sets the channel enable mask.
 535:Generated_Source\PSoC4/ADC.c **** *
 536:Generated_Source\PSoC4/ADC.c **** * Parameters:
 537:Generated_Source\PSoC4/ADC.c **** *  mask: Sets which channels that will be
 538:Generated_Source\PSoC4/ADC.c **** *  scanned. Setting bits for channels that do not exist will have no
 539:Generated_Source\PSoC4/ADC.c **** *  effect. For example, if only 6 channels were enabled, setting a
 540:Generated_Source\PSoC4/ADC.c **** *  mask of 0x0103 would only enable the last two channels (0 and 1).
 541:Generated_Source\PSoC4/ADC.c **** *  This API will not enable the injection channel.
 542:Generated_Source\PSoC4/ADC.c **** *  Examples: If the component is setup to sequence through 8
ARM GAS  C:\Users\Ray\AppData\Local\Temp\ccS9gWhK.s 			page 22


 543:Generated_Source\PSoC4/ADC.c **** *  channels, a mask of 0x000F would enable channels 0, 1, 2, and 3.
 544:Generated_Source\PSoC4/ADC.c **** *
 545:Generated_Source\PSoC4/ADC.c **** * Return:
 546:Generated_Source\PSoC4/ADC.c **** *  None.
 547:Generated_Source\PSoC4/ADC.c **** *
 548:Generated_Source\PSoC4/ADC.c **** *******************************************************************************/
 549:Generated_Source\PSoC4/ADC.c **** void ADC_SetChanMask(uint32 mask)
 550:Generated_Source\PSoC4/ADC.c **** {
 643              		.loc 1 550 0
 644              		.cfi_startproc
 645              		@ args = 0, pretend = 0, frame = 0
 646              		@ frame_needed = 0, uses_anonymous_args = 0
 647              		@ link register save eliminated.
 648              	.LVL44:
 551:Generated_Source\PSoC4/ADC.c ****     ADC_SAR_CHAN_EN_REG = mask & ADC_MAX_CHANNELS_EN_MASK;
 649              		.loc 1 551 0
 650 0000 0F23     		movs	r3, #15
 651 0002 1840     		ands	r0, r3
 652              	.LVL45:
 653 0004 014B     		ldr	r3, .L50
 654 0006 1860     		str	r0, [r3]
 552:Generated_Source\PSoC4/ADC.c **** }
 655              		.loc 1 552 0
 656              		@ sp needed
 657 0008 7047     		bx	lr
 658              	.L51:
 659 000a C046     		.align	2
 660              	.L50:
 661 000c 20001A40 		.word	1075445792
 662              		.cfi_endproc
 663              	.LFE8:
 664              		.size	ADC_SetChanMask, .-ADC_SetChanMask
 665              		.section	.text.ADC_EnableInjection,"ax",%progbits
 666              		.align	2
 667              		.global	ADC_EnableInjection
 668              		.code	16
 669              		.thumb_func
 670              		.type	ADC_EnableInjection, %function
 671              	ADC_EnableInjection:
 672              	.LFB9:
 553:Generated_Source\PSoC4/ADC.c **** 
 554:Generated_Source\PSoC4/ADC.c **** #if(ADC_INJ_CHANNEL_ENABLED)
 555:Generated_Source\PSoC4/ADC.c **** 
 556:Generated_Source\PSoC4/ADC.c **** 
 557:Generated_Source\PSoC4/ADC.c ****     /*******************************************************************************
 558:Generated_Source\PSoC4/ADC.c ****     * Function Name: ADC_EnableInjection
 559:Generated_Source\PSoC4/ADC.c ****     ********************************************************************************
 560:Generated_Source\PSoC4/ADC.c ****     *
 561:Generated_Source\PSoC4/ADC.c ****     * Summary:
 562:Generated_Source\PSoC4/ADC.c ****     *  Enables the injection channel for the next scan only.
 563:Generated_Source\PSoC4/ADC.c ****     *
 564:Generated_Source\PSoC4/ADC.c ****     * Parameters:
 565:Generated_Source\PSoC4/ADC.c ****     *  None.
 566:Generated_Source\PSoC4/ADC.c ****     *
 567:Generated_Source\PSoC4/ADC.c ****     * Return:
 568:Generated_Source\PSoC4/ADC.c ****     *  None.
 569:Generated_Source\PSoC4/ADC.c ****     *
ARM GAS  C:\Users\Ray\AppData\Local\Temp\ccS9gWhK.s 			page 23


 570:Generated_Source\PSoC4/ADC.c ****     *******************************************************************************/
 571:Generated_Source\PSoC4/ADC.c ****     void ADC_EnableInjection(void)
 572:Generated_Source\PSoC4/ADC.c ****     {
 673              		.loc 1 572 0
 674              		.cfi_startproc
 675              		@ args = 0, pretend = 0, frame = 0
 676              		@ frame_needed = 0, uses_anonymous_args = 0
 677              		@ link register save eliminated.
 573:Generated_Source\PSoC4/ADC.c ****         ADC_SAR_INJ_CHAN_CONFIG_REG |= ADC_INJ_CHAN_EN;
 678              		.loc 1 573 0
 679 0000 034A     		ldr	r2, .L53
 680 0002 1368     		ldr	r3, [r2]
 681 0004 8021     		movs	r1, #128
 682 0006 0906     		lsls	r1, r1, #24
 683 0008 0B43     		orrs	r3, r1
 684 000a 1360     		str	r3, [r2]
 574:Generated_Source\PSoC4/ADC.c ****     }
 685              		.loc 1 574 0
 686              		@ sp needed
 687 000c 7047     		bx	lr
 688              	.L54:
 689 000e C046     		.align	2
 690              	.L53:
 691 0010 80021A40 		.word	1075446400
 692              		.cfi_endproc
 693              	.LFE9:
 694              		.size	ADC_EnableInjection, .-ADC_EnableInjection
 695              		.section	.text.ADC_SetLowLimit,"ax",%progbits
 696              		.align	2
 697              		.global	ADC_SetLowLimit
 698              		.code	16
 699              		.thumb_func
 700              		.type	ADC_SetLowLimit, %function
 701              	ADC_SetLowLimit:
 702              	.LFB10:
 575:Generated_Source\PSoC4/ADC.c **** 
 576:Generated_Source\PSoC4/ADC.c **** #endif /* ADC_INJ_CHANNEL_ENABLED */
 577:Generated_Source\PSoC4/ADC.c **** 
 578:Generated_Source\PSoC4/ADC.c **** 
 579:Generated_Source\PSoC4/ADC.c **** /*******************************************************************************
 580:Generated_Source\PSoC4/ADC.c **** * Function Name: ADC_SetLowLimit
 581:Generated_Source\PSoC4/ADC.c **** ********************************************************************************
 582:Generated_Source\PSoC4/ADC.c **** *
 583:Generated_Source\PSoC4/ADC.c **** * Summary:
 584:Generated_Source\PSoC4/ADC.c **** *  Sets the low limit parameter for a limit condition.
 585:Generated_Source\PSoC4/ADC.c **** *
 586:Generated_Source\PSoC4/ADC.c **** * Parameters:
 587:Generated_Source\PSoC4/ADC.c **** *  lowLimit: The low limit for a limit condition.
 588:Generated_Source\PSoC4/ADC.c **** *
 589:Generated_Source\PSoC4/ADC.c **** * Return:
 590:Generated_Source\PSoC4/ADC.c **** *  None.
 591:Generated_Source\PSoC4/ADC.c **** *
 592:Generated_Source\PSoC4/ADC.c **** *******************************************************************************/
 593:Generated_Source\PSoC4/ADC.c **** void ADC_SetLowLimit(uint32 lowLimit)
 594:Generated_Source\PSoC4/ADC.c **** {
 703              		.loc 1 594 0
 704              		.cfi_startproc
ARM GAS  C:\Users\Ray\AppData\Local\Temp\ccS9gWhK.s 			page 24


 705              		@ args = 0, pretend = 0, frame = 0
 706              		@ frame_needed = 0, uses_anonymous_args = 0
 707              		@ link register save eliminated.
 708              	.LVL46:
 595:Generated_Source\PSoC4/ADC.c ****     ADC_SAR_RANGE_THRES_REG &= (uint32)(~ADC_RANGE_LOW_MASK);
 709              		.loc 1 595 0
 710 0000 054A     		ldr	r2, .L56
 711 0002 1368     		ldr	r3, [r2]
 712 0004 1B0C     		lsrs	r3, r3, #16
 713 0006 1B04     		lsls	r3, r3, #16
 714 0008 1360     		str	r3, [r2]
 596:Generated_Source\PSoC4/ADC.c ****     ADC_SAR_RANGE_THRES_REG |= lowLimit & ADC_RANGE_LOW_MASK;
 715              		.loc 1 596 0
 716 000a 1368     		ldr	r3, [r2]
 717 000c 0004     		lsls	r0, r0, #16
 718              	.LVL47:
 719 000e 000C     		lsrs	r0, r0, #16
 720 0010 1843     		orrs	r0, r3
 721 0012 1060     		str	r0, [r2]
 597:Generated_Source\PSoC4/ADC.c **** }
 722              		.loc 1 597 0
 723              		@ sp needed
 724 0014 7047     		bx	lr
 725              	.L57:
 726 0016 C046     		.align	2
 727              	.L56:
 728 0018 18001A40 		.word	1075445784
 729              		.cfi_endproc
 730              	.LFE10:
 731              		.size	ADC_SetLowLimit, .-ADC_SetLowLimit
 732              		.section	.text.ADC_SetHighLimit,"ax",%progbits
 733              		.align	2
 734              		.global	ADC_SetHighLimit
 735              		.code	16
 736              		.thumb_func
 737              		.type	ADC_SetHighLimit, %function
 738              	ADC_SetHighLimit:
 739              	.LFB11:
 598:Generated_Source\PSoC4/ADC.c **** 
 599:Generated_Source\PSoC4/ADC.c **** 
 600:Generated_Source\PSoC4/ADC.c **** /*******************************************************************************
 601:Generated_Source\PSoC4/ADC.c **** * Function Name: ADC_SetHighLimit
 602:Generated_Source\PSoC4/ADC.c **** ********************************************************************************
 603:Generated_Source\PSoC4/ADC.c **** *
 604:Generated_Source\PSoC4/ADC.c **** * Summary:
 605:Generated_Source\PSoC4/ADC.c **** *  Sets the low limit parameter for a limit condition.
 606:Generated_Source\PSoC4/ADC.c **** *
 607:Generated_Source\PSoC4/ADC.c **** * Parameters:
 608:Generated_Source\PSoC4/ADC.c **** *  highLimit: The high limit for a limit condition.
 609:Generated_Source\PSoC4/ADC.c **** *
 610:Generated_Source\PSoC4/ADC.c **** * Return:
 611:Generated_Source\PSoC4/ADC.c **** *  None.
 612:Generated_Source\PSoC4/ADC.c **** *
 613:Generated_Source\PSoC4/ADC.c **** *******************************************************************************/
 614:Generated_Source\PSoC4/ADC.c **** void ADC_SetHighLimit(uint32 highLimit)
 615:Generated_Source\PSoC4/ADC.c **** {
 740              		.loc 1 615 0
ARM GAS  C:\Users\Ray\AppData\Local\Temp\ccS9gWhK.s 			page 25


 741              		.cfi_startproc
 742              		@ args = 0, pretend = 0, frame = 0
 743              		@ frame_needed = 0, uses_anonymous_args = 0
 744              		@ link register save eliminated.
 745              	.LVL48:
 616:Generated_Source\PSoC4/ADC.c ****     ADC_SAR_RANGE_THRES_REG &= (uint32)(~ADC_RANGE_HIGH_MASK);
 746              		.loc 1 616 0
 747 0000 044A     		ldr	r2, .L59
 748 0002 1368     		ldr	r3, [r2]
 749 0004 1B04     		lsls	r3, r3, #16
 750 0006 1B0C     		lsrs	r3, r3, #16
 751 0008 1360     		str	r3, [r2]
 617:Generated_Source\PSoC4/ADC.c ****     ADC_SAR_RANGE_THRES_REG |= (uint32)(highLimit << ADC_RANGE_HIGH_OFFSET);
 752              		.loc 1 617 0
 753 000a 1368     		ldr	r3, [r2]
 754 000c 0004     		lsls	r0, r0, #16
 755              	.LVL49:
 756 000e 1843     		orrs	r0, r3
 757 0010 1060     		str	r0, [r2]
 618:Generated_Source\PSoC4/ADC.c **** }
 758              		.loc 1 618 0
 759              		@ sp needed
 760 0012 7047     		bx	lr
 761              	.L60:
 762              		.align	2
 763              	.L59:
 764 0014 18001A40 		.word	1075445784
 765              		.cfi_endproc
 766              	.LFE11:
 767              		.size	ADC_SetHighLimit, .-ADC_SetHighLimit
 768              		.section	.text.ADC_SetLimitMask,"ax",%progbits
 769              		.align	2
 770              		.global	ADC_SetLimitMask
 771              		.code	16
 772              		.thumb_func
 773              		.type	ADC_SetLimitMask, %function
 774              	ADC_SetLimitMask:
 775              	.LFB12:
 619:Generated_Source\PSoC4/ADC.c **** 
 620:Generated_Source\PSoC4/ADC.c **** 
 621:Generated_Source\PSoC4/ADC.c **** /*******************************************************************************
 622:Generated_Source\PSoC4/ADC.c **** * Function Name: ADC_SetLimitMask
 623:Generated_Source\PSoC4/ADC.c **** ********************************************************************************
 624:Generated_Source\PSoC4/ADC.c **** *
 625:Generated_Source\PSoC4/ADC.c **** * Summary:
 626:Generated_Source\PSoC4/ADC.c **** *  Sets the channel limit condition mask.
 627:Generated_Source\PSoC4/ADC.c **** *
 628:Generated_Source\PSoC4/ADC.c **** * Parameters:
 629:Generated_Source\PSoC4/ADC.c **** *  mask: Sets which channels that may cause a
 630:Generated_Source\PSoC4/ADC.c **** *  limit condition interrupt. Setting bits for channels that do not exist
 631:Generated_Source\PSoC4/ADC.c **** *  will have no effect. For example, if only 6 channels were enabled,
 632:Generated_Source\PSoC4/ADC.c **** *  setting a mask of 0x0103 would only enable the last two channels (0 and 1).
 633:Generated_Source\PSoC4/ADC.c **** *
 634:Generated_Source\PSoC4/ADC.c **** * Return:
 635:Generated_Source\PSoC4/ADC.c **** *  None.
 636:Generated_Source\PSoC4/ADC.c **** *
 637:Generated_Source\PSoC4/ADC.c **** *******************************************************************************/
ARM GAS  C:\Users\Ray\AppData\Local\Temp\ccS9gWhK.s 			page 26


 638:Generated_Source\PSoC4/ADC.c **** void ADC_SetLimitMask(uint32 mask)
 639:Generated_Source\PSoC4/ADC.c **** {
 776              		.loc 1 639 0
 777              		.cfi_startproc
 778              		@ args = 0, pretend = 0, frame = 0
 779              		@ frame_needed = 0, uses_anonymous_args = 0
 780              		@ link register save eliminated.
 781              	.LVL50:
 640:Generated_Source\PSoC4/ADC.c ****     ADC_SAR_RANGE_INTR_MASK_REG = mask & ADC_MAX_CHANNELS_EN_MASK;
 782              		.loc 1 640 0
 783 0000 0F23     		movs	r3, #15
 784 0002 1840     		ands	r0, r3
 785              	.LVL51:
 786 0004 014B     		ldr	r3, .L62
 787 0006 1860     		str	r0, [r3]
 641:Generated_Source\PSoC4/ADC.c **** }
 788              		.loc 1 641 0
 789              		@ sp needed
 790 0008 7047     		bx	lr
 791              	.L63:
 792 000a C046     		.align	2
 793              	.L62:
 794 000c 38021A40 		.word	1075446328
 795              		.cfi_endproc
 796              	.LFE12:
 797              		.size	ADC_SetLimitMask, .-ADC_SetLimitMask
 798              		.section	.text.ADC_SetSatMask,"ax",%progbits
 799              		.align	2
 800              		.global	ADC_SetSatMask
 801              		.code	16
 802              		.thumb_func
 803              		.type	ADC_SetSatMask, %function
 804              	ADC_SetSatMask:
 805              	.LFB13:
 642:Generated_Source\PSoC4/ADC.c **** 
 643:Generated_Source\PSoC4/ADC.c **** 
 644:Generated_Source\PSoC4/ADC.c **** /*******************************************************************************
 645:Generated_Source\PSoC4/ADC.c **** * Function Name: ADC_SetSatMask
 646:Generated_Source\PSoC4/ADC.c **** ********************************************************************************
 647:Generated_Source\PSoC4/ADC.c **** *
 648:Generated_Source\PSoC4/ADC.c **** * Summary:
 649:Generated_Source\PSoC4/ADC.c **** *  Sets the channel saturation event mask.
 650:Generated_Source\PSoC4/ADC.c **** *
 651:Generated_Source\PSoC4/ADC.c **** * Parameters:
 652:Generated_Source\PSoC4/ADC.c **** *  mask: Sets which channels that may cause a
 653:Generated_Source\PSoC4/ADC.c **** *  saturation event interrupt. Setting bits for channels that do not exist
 654:Generated_Source\PSoC4/ADC.c **** *  will have no effect. For example, if only 8 channels were enabled,
 655:Generated_Source\PSoC4/ADC.c **** *  setting a mask of 0x01C0 would only enable two channels (6 and 7).
 656:Generated_Source\PSoC4/ADC.c **** *
 657:Generated_Source\PSoC4/ADC.c **** * Return:
 658:Generated_Source\PSoC4/ADC.c **** *  None.
 659:Generated_Source\PSoC4/ADC.c **** *
 660:Generated_Source\PSoC4/ADC.c **** *******************************************************************************/
 661:Generated_Source\PSoC4/ADC.c **** void ADC_SetSatMask(uint32 mask)
 662:Generated_Source\PSoC4/ADC.c **** {
 806              		.loc 1 662 0
 807              		.cfi_startproc
ARM GAS  C:\Users\Ray\AppData\Local\Temp\ccS9gWhK.s 			page 27


 808              		@ args = 0, pretend = 0, frame = 0
 809              		@ frame_needed = 0, uses_anonymous_args = 0
 810              		@ link register save eliminated.
 811              	.LVL52:
 663:Generated_Source\PSoC4/ADC.c ****     ADC_SAR_SATURATE_INTR_MASK_REG = mask & ADC_MAX_CHANNELS_EN_MASK;
 812              		.loc 1 663 0
 813 0000 0F23     		movs	r3, #15
 814 0002 1840     		ands	r0, r3
 815              	.LVL53:
 816 0004 014B     		ldr	r3, .L65
 817 0006 1860     		str	r0, [r3]
 664:Generated_Source\PSoC4/ADC.c **** }
 818              		.loc 1 664 0
 819              		@ sp needed
 820 0008 7047     		bx	lr
 821              	.L66:
 822 000a C046     		.align	2
 823              	.L65:
 824 000c 28021A40 		.word	1075446312
 825              		.cfi_endproc
 826              	.LFE13:
 827              		.size	ADC_SetSatMask, .-ADC_SetSatMask
 828              		.section	.text.ADC_SetOffset,"ax",%progbits
 829              		.align	2
 830              		.global	ADC_SetOffset
 831              		.code	16
 832              		.thumb_func
 833              		.type	ADC_SetOffset, %function
 834              	ADC_SetOffset:
 835              	.LFB14:
 665:Generated_Source\PSoC4/ADC.c **** 
 666:Generated_Source\PSoC4/ADC.c **** 
 667:Generated_Source\PSoC4/ADC.c **** /*******************************************************************************
 668:Generated_Source\PSoC4/ADC.c **** * Function Name: ADC_SetOffset
 669:Generated_Source\PSoC4/ADC.c **** ********************************************************************************
 670:Generated_Source\PSoC4/ADC.c **** *
 671:Generated_Source\PSoC4/ADC.c **** * Summary:
 672:Generated_Source\PSoC4/ADC.c **** *   Description: Sets the ADC offset which is used by the functions
 673:Generated_Source\PSoC4/ADC.c **** *   ADC_CountsTo_uVolts, ADC_CountsTo_mVolts and ADC_CountsTo_Volts
 674:Generated_Source\PSoC4/ADC.c **** *   to substract the offset from the given reading
 675:Generated_Source\PSoC4/ADC.c **** *   before calculating the voltage conversion.
 676:Generated_Source\PSoC4/ADC.c **** *
 677:Generated_Source\PSoC4/ADC.c **** * Parameters:
 678:Generated_Source\PSoC4/ADC.c **** *  chan: ADC channel number.
 679:Generated_Source\PSoC4/ADC.c **** *  offset: This value is a measured value when the
 680:Generated_Source\PSoC4/ADC.c **** *          inputs are shorted or connected to the same input voltage.
 681:Generated_Source\PSoC4/ADC.c **** *
 682:Generated_Source\PSoC4/ADC.c **** * Return:
 683:Generated_Source\PSoC4/ADC.c **** *  None.
 684:Generated_Source\PSoC4/ADC.c **** *
 685:Generated_Source\PSoC4/ADC.c **** * Global variables:
 686:Generated_Source\PSoC4/ADC.c **** *  ADC_Offset:  Modified to set the user provided offset.
 687:Generated_Source\PSoC4/ADC.c **** *
 688:Generated_Source\PSoC4/ADC.c **** *******************************************************************************/
 689:Generated_Source\PSoC4/ADC.c **** void ADC_SetOffset(uint32 chan, int16 offset)
 690:Generated_Source\PSoC4/ADC.c **** {
 836              		.loc 1 690 0
ARM GAS  C:\Users\Ray\AppData\Local\Temp\ccS9gWhK.s 			page 28


 837              		.cfi_startproc
 838              		@ args = 0, pretend = 0, frame = 0
 839              		@ frame_needed = 0, uses_anonymous_args = 0
 840              	.LVL54:
 841 0000 70B5     		push	{r4, r5, r6, lr}
 842              		.cfi_def_cfa_offset 16
 843              		.cfi_offset 4, -16
 844              		.cfi_offset 5, -12
 845              		.cfi_offset 6, -8
 846              		.cfi_offset 14, -4
 847 0002 0400     		movs	r4, r0
 848 0004 0D00     		movs	r5, r1
 691:Generated_Source\PSoC4/ADC.c ****     /* Halt CPU in debug mode if channel is out of valid range */
 692:Generated_Source\PSoC4/ADC.c ****     CYASSERT(chan < ADC_TOTAL_CHANNELS_NUM);
 849              		.loc 1 692 0
 850 0006 0428     		cmp	r0, #4
 851 0008 02D9     		bls	.L68
 852              		.loc 1 692 0 is_stmt 0 discriminator 1
 853 000a 0020     		movs	r0, #0
 854              	.LVL55:
 855 000c FFF7FEFF 		bl	CyHalt
 856              	.LVL56:
 857              	.L68:
 693:Generated_Source\PSoC4/ADC.c **** 
 694:Generated_Source\PSoC4/ADC.c ****     ADC_offset[chan] = offset;
 858              		.loc 1 694 0 is_stmt 1
 859 0010 6400     		lsls	r4, r4, #1
 860              	.LVL57:
 861 0012 014B     		ldr	r3, .L69
 862 0014 E552     		strh	r5, [r4, r3]
 695:Generated_Source\PSoC4/ADC.c **** }
 863              		.loc 1 695 0
 864              		@ sp needed
 865 0016 70BD     		pop	{r4, r5, r6, pc}
 866              	.L70:
 867              		.align	2
 868              	.L69:
 869 0018 00000000 		.word	ADC_offset
 870              		.cfi_endproc
 871              	.LFE14:
 872              		.size	ADC_SetOffset, .-ADC_SetOffset
 873              		.section	.text.ADC_SetGain,"ax",%progbits
 874              		.align	2
 875              		.global	ADC_SetGain
 876              		.code	16
 877              		.thumb_func
 878              		.type	ADC_SetGain, %function
 879              	ADC_SetGain:
 880              	.LFB15:
 696:Generated_Source\PSoC4/ADC.c **** 
 697:Generated_Source\PSoC4/ADC.c **** 
 698:Generated_Source\PSoC4/ADC.c **** /*******************************************************************************
 699:Generated_Source\PSoC4/ADC.c **** * Function Name: ADC_SetGain
 700:Generated_Source\PSoC4/ADC.c **** ********************************************************************************
 701:Generated_Source\PSoC4/ADC.c **** *
 702:Generated_Source\PSoC4/ADC.c **** * Summary:
 703:Generated_Source\PSoC4/ADC.c **** *  Description: Sets the ADC gain in counts per 10 volt for the voltage
ARM GAS  C:\Users\Ray\AppData\Local\Temp\ccS9gWhK.s 			page 29


 704:Generated_Source\PSoC4/ADC.c **** *  conversion functions below. This value is set by default by the
 705:Generated_Source\PSoC4/ADC.c **** *  reference and input range settings. It should only be used to further
 706:Generated_Source\PSoC4/ADC.c **** *  calibrate the ADC with a known input or if an external reference is
 707:Generated_Source\PSoC4/ADC.c **** *  used. Affects the ADC_CountsTo_uVolts, ADC_CountsTo_mVolts
 708:Generated_Source\PSoC4/ADC.c **** *  and ADC_CountsTo_Volts functions by supplying the correct
 709:Generated_Source\PSoC4/ADC.c **** *  conversion between ADC counts and voltage.
 710:Generated_Source\PSoC4/ADC.c **** *
 711:Generated_Source\PSoC4/ADC.c **** * Parameters:
 712:Generated_Source\PSoC4/ADC.c **** *  chan: ADC channel number.
 713:Generated_Source\PSoC4/ADC.c **** *  adcGain: ADC gain in counts per 10 volts.
 714:Generated_Source\PSoC4/ADC.c **** *
 715:Generated_Source\PSoC4/ADC.c **** * Return:
 716:Generated_Source\PSoC4/ADC.c **** *  None.
 717:Generated_Source\PSoC4/ADC.c **** *
 718:Generated_Source\PSoC4/ADC.c **** * Global variables:
 719:Generated_Source\PSoC4/ADC.c **** *  ADC_CountsPer10Volt:  modified to set the ADC gain in counts
 720:Generated_Source\PSoC4/ADC.c **** *   per 10 volt.
 721:Generated_Source\PSoC4/ADC.c **** *
 722:Generated_Source\PSoC4/ADC.c **** *******************************************************************************/
 723:Generated_Source\PSoC4/ADC.c **** void ADC_SetGain(uint32 chan, int32 adcGain)
 724:Generated_Source\PSoC4/ADC.c **** {
 881              		.loc 1 724 0
 882              		.cfi_startproc
 883              		@ args = 0, pretend = 0, frame = 0
 884              		@ frame_needed = 0, uses_anonymous_args = 0
 885              	.LVL58:
 886 0000 70B5     		push	{r4, r5, r6, lr}
 887              		.cfi_def_cfa_offset 16
 888              		.cfi_offset 4, -16
 889              		.cfi_offset 5, -12
 890              		.cfi_offset 6, -8
 891              		.cfi_offset 14, -4
 892 0002 0400     		movs	r4, r0
 893 0004 0D00     		movs	r5, r1
 725:Generated_Source\PSoC4/ADC.c ****     /* Halt CPU in debug mode if channel is out of valid range */
 726:Generated_Source\PSoC4/ADC.c ****     CYASSERT(chan < ADC_TOTAL_CHANNELS_NUM);
 894              		.loc 1 726 0
 895 0006 0428     		cmp	r0, #4
 896 0008 02D9     		bls	.L72
 897              		.loc 1 726 0 is_stmt 0 discriminator 1
 898 000a 0020     		movs	r0, #0
 899              	.LVL59:
 900 000c FFF7FEFF 		bl	CyHalt
 901              	.LVL60:
 902              	.L72:
 727:Generated_Source\PSoC4/ADC.c **** 
 728:Generated_Source\PSoC4/ADC.c ****     ADC_countsPer10Volt[chan] = adcGain;
 903              		.loc 1 728 0 is_stmt 1
 904 0010 A400     		lsls	r4, r4, #2
 905              	.LVL61:
 906 0012 014B     		ldr	r3, .L73
 907 0014 E550     		str	r5, [r4, r3]
 729:Generated_Source\PSoC4/ADC.c **** }
 908              		.loc 1 729 0
 909              		@ sp needed
 910              	.LVL62:
 911 0016 70BD     		pop	{r4, r5, r6, pc}
ARM GAS  C:\Users\Ray\AppData\Local\Temp\ccS9gWhK.s 			page 30


 912              	.L74:
 913              		.align	2
 914              	.L73:
 915 0018 00000000 		.word	ADC_countsPer10Volt
 916              		.cfi_endproc
 917              	.LFE15:
 918              		.size	ADC_SetGain, .-ADC_SetGain
 919              		.global	__aeabi_idiv
 920              		.section	.text.ADC_CountsTo_mVolts,"ax",%progbits
 921              		.align	2
 922              		.global	ADC_CountsTo_mVolts
 923              		.code	16
 924              		.thumb_func
 925              		.type	ADC_CountsTo_mVolts, %function
 926              	ADC_CountsTo_mVolts:
 927              	.LFB16:
 730:Generated_Source\PSoC4/ADC.c **** 
 731:Generated_Source\PSoC4/ADC.c **** 
 732:Generated_Source\PSoC4/ADC.c **** #if(ADC_DEFAULT_JUSTIFICATION_SEL == ADC__RIGHT)
 733:Generated_Source\PSoC4/ADC.c **** 
 734:Generated_Source\PSoC4/ADC.c **** 
 735:Generated_Source\PSoC4/ADC.c ****     /*******************************************************************************
 736:Generated_Source\PSoC4/ADC.c ****     * Function Name: ADC_CountsTo_mVolts
 737:Generated_Source\PSoC4/ADC.c ****     ********************************************************************************
 738:Generated_Source\PSoC4/ADC.c ****     *
 739:Generated_Source\PSoC4/ADC.c ****     * Summary:
 740:Generated_Source\PSoC4/ADC.c ****     *  This function converts ADC counts to mVolts
 741:Generated_Source\PSoC4/ADC.c ****     *  This function is not available when left data format justification selected.
 742:Generated_Source\PSoC4/ADC.c ****     *
 743:Generated_Source\PSoC4/ADC.c ****     * Parameters:
 744:Generated_Source\PSoC4/ADC.c ****     *  chan: The ADC channel number.
 745:Generated_Source\PSoC4/ADC.c ****     *  adcCounts: Result from the ADC conversion
 746:Generated_Source\PSoC4/ADC.c ****     *
 747:Generated_Source\PSoC4/ADC.c ****     * Return:
 748:Generated_Source\PSoC4/ADC.c ****     *  Results in mVolts
 749:Generated_Source\PSoC4/ADC.c ****     *
 750:Generated_Source\PSoC4/ADC.c ****     * Global variables:
 751:Generated_Source\PSoC4/ADC.c ****     *  ADC_countsPer10Volt:  used to convert ADC counts to mVolts.
 752:Generated_Source\PSoC4/ADC.c ****     *  ADC_Offset:  Used as the offset while converting ADC counts
 753:Generated_Source\PSoC4/ADC.c ****     *   to mVolts.
 754:Generated_Source\PSoC4/ADC.c ****     *
 755:Generated_Source\PSoC4/ADC.c ****     *******************************************************************************/
 756:Generated_Source\PSoC4/ADC.c ****     int16 ADC_CountsTo_mVolts(uint32 chan, int16 adcCounts)
 757:Generated_Source\PSoC4/ADC.c ****     {
 928              		.loc 1 757 0
 929              		.cfi_startproc
 930              		@ args = 0, pretend = 0, frame = 0
 931              		@ frame_needed = 0, uses_anonymous_args = 0
 932              	.LVL63:
 933 0000 70B5     		push	{r4, r5, r6, lr}
 934              		.cfi_def_cfa_offset 16
 935              		.cfi_offset 4, -16
 936              		.cfi_offset 5, -12
 937              		.cfi_offset 6, -8
 938              		.cfi_offset 14, -4
 939 0002 0400     		movs	r4, r0
 940 0004 0D00     		movs	r5, r1
ARM GAS  C:\Users\Ray\AppData\Local\Temp\ccS9gWhK.s 			page 31


 758:Generated_Source\PSoC4/ADC.c ****         int16 mVolts;
 759:Generated_Source\PSoC4/ADC.c **** 
 760:Generated_Source\PSoC4/ADC.c ****         /* Halt CPU in debug mode if channel is out of valid range */
 761:Generated_Source\PSoC4/ADC.c ****         CYASSERT(chan < ADC_TOTAL_CHANNELS_NUM);
 941              		.loc 1 761 0
 942 0006 0428     		cmp	r0, #4
 943 0008 02D9     		bls	.L76
 944              		.loc 1 761 0 is_stmt 0 discriminator 1
 945 000a 0020     		movs	r0, #0
 946              	.LVL64:
 947 000c FFF7FEFF 		bl	CyHalt
 948              	.LVL65:
 949              	.L76:
 762:Generated_Source\PSoC4/ADC.c **** 
 763:Generated_Source\PSoC4/ADC.c ****         /* Divide the adcCount when accumulate averaging mode selected */
 764:Generated_Source\PSoC4/ADC.c ****         #if(ADC_DEFAULT_AVG_MODE == ADC__ACCUMULATE)
 765:Generated_Source\PSoC4/ADC.c ****             if((ADC_channelsConfig[chan] & ADC_AVERAGING_EN) != 0u)
 766:Generated_Source\PSoC4/ADC.c ****             {
 767:Generated_Source\PSoC4/ADC.c ****                 adcCounts /= ADC_DEFAULT_AVG_SAMPLES_DIV;
 768:Generated_Source\PSoC4/ADC.c ****             }
 769:Generated_Source\PSoC4/ADC.c ****         #endif /* ADC_DEFAULT_AVG_MODE == ADC__ACCUMULATE */
 770:Generated_Source\PSoC4/ADC.c **** 
 771:Generated_Source\PSoC4/ADC.c ****         /* Subtract ADC offset */
 772:Generated_Source\PSoC4/ADC.c ****         adcCounts -= ADC_offset[chan];
 950              		.loc 1 772 0 is_stmt 1
 951 0010 6300     		lsls	r3, r4, #1
 952 0012 0F4A     		ldr	r2, .L79
 953 0014 995A     		ldrh	r1, [r3, r2]
 954 0016 09B2     		sxth	r1, r1
 955 0018 691A     		subs	r1, r5, r1
 956 001a 09B2     		sxth	r1, r1
 957              	.LVL66:
 773:Generated_Source\PSoC4/ADC.c **** 
 774:Generated_Source\PSoC4/ADC.c ****         mVolts = (int16)((((int32)adcCounts * ADC_10MV_COUNTS) + ( (adcCounts > 0) ?
 958              		.loc 1 774 0
 959 001c 0D48     		ldr	r0, .L79+4
 960 001e 4843     		muls	r0, r1
 775:Generated_Source\PSoC4/ADC.c ****                  (ADC_countsPer10Volt[chan] / 2) : (-(ADC_countsPer10Volt[chan] / 2)) ))
 961              		.loc 1 775 0
 962 0020 0029     		cmp	r1, #0
 963 0022 06DD     		ble	.L77
 964              		.loc 1 775 0 is_stmt 0 discriminator 1
 965 0024 A300     		lsls	r3, r4, #2
 966 0026 0C4A     		ldr	r2, .L79+8
 967 0028 9A58     		ldr	r2, [r3, r2]
 968 002a D30F     		lsrs	r3, r2, #31
 969 002c 9A18     		adds	r2, r3, r2
 970 002e 5310     		asrs	r3, r2, #1
 971 0030 06E0     		b	.L78
 972              	.L77:
 973              		.loc 1 775 0 discriminator 2
 974 0032 A300     		lsls	r3, r4, #2
 975 0034 084A     		ldr	r2, .L79+8
 976 0036 9A58     		ldr	r2, [r3, r2]
 977 0038 D30F     		lsrs	r3, r2, #31
 978 003a 9A18     		adds	r2, r3, r2
 979 003c 5210     		asrs	r2, r2, #1
ARM GAS  C:\Users\Ray\AppData\Local\Temp\ccS9gWhK.s 			page 32


 980 003e 5342     		rsbs	r3, r2, #0
 981              	.L78:
 774:Generated_Source\PSoC4/ADC.c ****                  (ADC_countsPer10Volt[chan] / 2) : (-(ADC_countsPer10Volt[chan] / 2)) ))
 982              		.loc 1 774 0 is_stmt 1
 983 0040 1818     		adds	r0, r3, r0
 776:Generated_Source\PSoC4/ADC.c ****                  / ADC_countsPer10Volt[chan]);
 984              		.loc 1 776 0
 985 0042 A400     		lsls	r4, r4, #2
 986              	.LVL67:
 987 0044 044B     		ldr	r3, .L79+8
 988 0046 E158     		ldr	r1, [r4, r3]
 989              	.LVL68:
 990 0048 FFF7FEFF 		bl	__aeabi_idiv
 991              	.LVL69:
 774:Generated_Source\PSoC4/ADC.c ****                  (ADC_countsPer10Volt[chan] / 2) : (-(ADC_countsPer10Volt[chan] / 2)) ))
 992              		.loc 1 774 0
 993 004c 00B2     		sxth	r0, r0
 994              	.LVL70:
 777:Generated_Source\PSoC4/ADC.c **** 
 778:Generated_Source\PSoC4/ADC.c ****         return( mVolts );
 779:Generated_Source\PSoC4/ADC.c ****     }
 995              		.loc 1 779 0
 996              		@ sp needed
 997 004e 70BD     		pop	{r4, r5, r6, pc}
 998              	.L80:
 999              		.align	2
 1000              	.L79:
 1001 0050 00000000 		.word	ADC_offset
 1002 0054 10270000 		.word	10000
 1003 0058 00000000 		.word	ADC_countsPer10Volt
 1004              		.cfi_endproc
 1005              	.LFE16:
 1006              		.size	ADC_CountsTo_mVolts, .-ADC_CountsTo_mVolts
 1007              		.global	__aeabi_lmul
 1008              		.global	__aeabi_ldivmod
 1009              		.section	.text.ADC_CountsTo_uVolts,"ax",%progbits
 1010              		.align	2
 1011              		.global	ADC_CountsTo_uVolts
 1012              		.code	16
 1013              		.thumb_func
 1014              		.type	ADC_CountsTo_uVolts, %function
 1015              	ADC_CountsTo_uVolts:
 1016              	.LFB17:
 780:Generated_Source\PSoC4/ADC.c **** 
 781:Generated_Source\PSoC4/ADC.c **** 
 782:Generated_Source\PSoC4/ADC.c ****     /*******************************************************************************
 783:Generated_Source\PSoC4/ADC.c ****     * Function Name: ADC_CountsTo_uVolts
 784:Generated_Source\PSoC4/ADC.c ****     ********************************************************************************
 785:Generated_Source\PSoC4/ADC.c ****     *
 786:Generated_Source\PSoC4/ADC.c ****     * Summary:
 787:Generated_Source\PSoC4/ADC.c ****     *  This function converts ADC counts to micro Volts
 788:Generated_Source\PSoC4/ADC.c ****     *  This function is not available when left data format justification selected.
 789:Generated_Source\PSoC4/ADC.c ****     *
 790:Generated_Source\PSoC4/ADC.c ****     * Parameters:
 791:Generated_Source\PSoC4/ADC.c ****     *  chan: The ADC channel number.
 792:Generated_Source\PSoC4/ADC.c ****     *  adcCounts: Result from the ADC conversion
 793:Generated_Source\PSoC4/ADC.c ****     *
ARM GAS  C:\Users\Ray\AppData\Local\Temp\ccS9gWhK.s 			page 33


 794:Generated_Source\PSoC4/ADC.c ****     * Return:
 795:Generated_Source\PSoC4/ADC.c ****     *  Results in uVolts
 796:Generated_Source\PSoC4/ADC.c ****     *
 797:Generated_Source\PSoC4/ADC.c ****     * Global variables:
 798:Generated_Source\PSoC4/ADC.c ****     *  ADC_countsPer10Volt:  used to convert ADC counts to uVolts.
 799:Generated_Source\PSoC4/ADC.c ****     *  ADC_Offset:  Used as the offset while converting ADC counts
 800:Generated_Source\PSoC4/ADC.c ****     *   to mVolts.
 801:Generated_Source\PSoC4/ADC.c ****     *
 802:Generated_Source\PSoC4/ADC.c ****     * Theory:
 803:Generated_Source\PSoC4/ADC.c ****     *  Care must be taken to not exceed the maximum value for a 31 bit signed
 804:Generated_Source\PSoC4/ADC.c ****     *  number in the conversion to uVolts and at the same time not loose
 805:Generated_Source\PSoC4/ADC.c ****     *  resolution.
 806:Generated_Source\PSoC4/ADC.c ****     *  To convert adcCounts to microVolts it is required to be multiplied
 807:Generated_Source\PSoC4/ADC.c ****     *  on 10 million and later divide on gain in counts per 10V.
 808:Generated_Source\PSoC4/ADC.c ****     *
 809:Generated_Source\PSoC4/ADC.c ****     *******************************************************************************/
 810:Generated_Source\PSoC4/ADC.c ****     int32 ADC_CountsTo_uVolts(uint32 chan, int16 adcCounts)
 811:Generated_Source\PSoC4/ADC.c ****     {
 1017              		.loc 1 811 0
 1018              		.cfi_startproc
 1019              		@ args = 0, pretend = 0, frame = 0
 1020              		@ frame_needed = 0, uses_anonymous_args = 0
 1021              	.LVL71:
 1022 0000 70B5     		push	{r4, r5, r6, lr}
 1023              		.cfi_def_cfa_offset 16
 1024              		.cfi_offset 4, -16
 1025              		.cfi_offset 5, -12
 1026              		.cfi_offset 6, -8
 1027              		.cfi_offset 14, -4
 1028 0002 0500     		movs	r5, r0
 1029 0004 0C00     		movs	r4, r1
 812:Generated_Source\PSoC4/ADC.c ****         int64 uVolts;
 813:Generated_Source\PSoC4/ADC.c **** 
 814:Generated_Source\PSoC4/ADC.c ****         /* Halt CPU in debug mode if channel is out of valid range */
 815:Generated_Source\PSoC4/ADC.c ****         CYASSERT(chan < ADC_TOTAL_CHANNELS_NUM);
 1030              		.loc 1 815 0
 1031 0006 0428     		cmp	r0, #4
 1032 0008 02D9     		bls	.L82
 1033              		.loc 1 815 0 is_stmt 0 discriminator 1
 1034 000a 0020     		movs	r0, #0
 1035              	.LVL72:
 1036 000c FFF7FEFF 		bl	CyHalt
 1037              	.LVL73:
 1038              	.L82:
 816:Generated_Source\PSoC4/ADC.c **** 
 817:Generated_Source\PSoC4/ADC.c ****         /* Divide the adcCount when accumulate averaging mode selected */
 818:Generated_Source\PSoC4/ADC.c ****         #if(ADC_DEFAULT_AVG_MODE == ADC__ACCUMULATE)
 819:Generated_Source\PSoC4/ADC.c ****             if((ADC_channelsConfig[chan] & ADC_AVERAGING_EN) != 0u)
 820:Generated_Source\PSoC4/ADC.c ****             {
 821:Generated_Source\PSoC4/ADC.c ****                 adcCounts /= ADC_DEFAULT_AVG_SAMPLES_DIV;
 822:Generated_Source\PSoC4/ADC.c ****             }
 823:Generated_Source\PSoC4/ADC.c ****         #endif /* ADC_DEFAULT_AVG_MODE == ADC__ACCUMULATE */
 824:Generated_Source\PSoC4/ADC.c **** 
 825:Generated_Source\PSoC4/ADC.c ****         /* Subtract ADC offset */
 826:Generated_Source\PSoC4/ADC.c ****         adcCounts -= ADC_offset[chan];
 1039              		.loc 1 826 0 is_stmt 1
 1040 0010 6A00     		lsls	r2, r5, #1
ARM GAS  C:\Users\Ray\AppData\Local\Temp\ccS9gWhK.s 			page 34


 1041 0012 084B     		ldr	r3, .L83
 1042 0014 D05A     		ldrh	r0, [r2, r3]
 1043 0016 00B2     		sxth	r0, r0
 1044 0018 201A     		subs	r0, r4, r0
 1045 001a 00B2     		sxth	r0, r0
 1046              	.LVL74:
 827:Generated_Source\PSoC4/ADC.c **** 
 828:Generated_Source\PSoC4/ADC.c ****         uVolts = ((int64)adcCounts * ADC_10UV_COUNTS) / ADC_countsPer10Volt[chan];
 1047              		.loc 1 828 0
 1048 001c C117     		asrs	r1, r0, #31
 1049 001e 064A     		ldr	r2, .L83+4
 1050 0020 0023     		movs	r3, #0
 1051 0022 FFF7FEFF 		bl	__aeabi_lmul
 1052              	.LVL75:
 1053 0026 AD00     		lsls	r5, r5, #2
 1054              	.LVL76:
 1055 0028 044B     		ldr	r3, .L83+8
 1056 002a EA58     		ldr	r2, [r5, r3]
 1057 002c D317     		asrs	r3, r2, #31
 1058 002e FFF7FEFF 		bl	__aeabi_ldivmod
 1059              	.LVL77:
 829:Generated_Source\PSoC4/ADC.c **** 
 830:Generated_Source\PSoC4/ADC.c ****         return( (int32)uVolts );
 831:Generated_Source\PSoC4/ADC.c ****     }
 1060              		.loc 1 831 0
 1061              		@ sp needed
 1062 0032 70BD     		pop	{r4, r5, r6, pc}
 1063              	.L84:
 1064              		.align	2
 1065              	.L83:
 1066 0034 00000000 		.word	ADC_offset
 1067 0038 80969800 		.word	10000000
 1068 003c 00000000 		.word	ADC_countsPer10Volt
 1069              		.cfi_endproc
 1070              	.LFE17:
 1071              		.size	ADC_CountsTo_uVolts, .-ADC_CountsTo_uVolts
 1072              		.global	__aeabi_i2f
 1073              		.global	__aeabi_fmul
 1074              		.global	__aeabi_fdiv
 1075              		.section	.text.ADC_CountsTo_Volts,"ax",%progbits
 1076              		.align	2
 1077              		.global	ADC_CountsTo_Volts
 1078              		.code	16
 1079              		.thumb_func
 1080              		.type	ADC_CountsTo_Volts, %function
 1081              	ADC_CountsTo_Volts:
 1082              	.LFB18:
 832:Generated_Source\PSoC4/ADC.c **** 
 833:Generated_Source\PSoC4/ADC.c **** 
 834:Generated_Source\PSoC4/ADC.c ****     /*******************************************************************************
 835:Generated_Source\PSoC4/ADC.c ****     * Function Name: ADC_CountsTo_Volts
 836:Generated_Source\PSoC4/ADC.c ****     ********************************************************************************
 837:Generated_Source\PSoC4/ADC.c ****     *
 838:Generated_Source\PSoC4/ADC.c ****     * Summary:
 839:Generated_Source\PSoC4/ADC.c ****     *  Converts the ADC output to Volts as a floating point number.
 840:Generated_Source\PSoC4/ADC.c ****     *  This function is not available when left data format justification selected.
 841:Generated_Source\PSoC4/ADC.c ****     *
ARM GAS  C:\Users\Ray\AppData\Local\Temp\ccS9gWhK.s 			page 35


 842:Generated_Source\PSoC4/ADC.c ****     * Parameters:
 843:Generated_Source\PSoC4/ADC.c ****     *  chan: The ADC channel number.
 844:Generated_Source\PSoC4/ADC.c ****     *  Result from the ADC conversion
 845:Generated_Source\PSoC4/ADC.c ****     *
 846:Generated_Source\PSoC4/ADC.c ****     * Return:
 847:Generated_Source\PSoC4/ADC.c ****     *  Results in Volts
 848:Generated_Source\PSoC4/ADC.c ****     *
 849:Generated_Source\PSoC4/ADC.c ****     * Global variables:
 850:Generated_Source\PSoC4/ADC.c ****     *  ADC_countsPer10Volt:  used to convert ADC counts to Volts.
 851:Generated_Source\PSoC4/ADC.c ****     *  ADC_Offset:  Used as the offset while converting ADC counts
 852:Generated_Source\PSoC4/ADC.c ****     *   to mVolts.
 853:Generated_Source\PSoC4/ADC.c ****     *
 854:Generated_Source\PSoC4/ADC.c ****     *******************************************************************************/
 855:Generated_Source\PSoC4/ADC.c ****     float32 ADC_CountsTo_Volts(uint32 chan, int16 adcCounts)
 856:Generated_Source\PSoC4/ADC.c ****     {
 1083              		.loc 1 856 0
 1084              		.cfi_startproc
 1085              		@ args = 0, pretend = 0, frame = 0
 1086              		@ frame_needed = 0, uses_anonymous_args = 0
 1087              	.LVL78:
 1088 0000 70B5     		push	{r4, r5, r6, lr}
 1089              		.cfi_def_cfa_offset 16
 1090              		.cfi_offset 4, -16
 1091              		.cfi_offset 5, -12
 1092              		.cfi_offset 6, -8
 1093              		.cfi_offset 14, -4
 1094 0002 0400     		movs	r4, r0
 1095 0004 0D00     		movs	r5, r1
 857:Generated_Source\PSoC4/ADC.c ****         float32 volts;
 858:Generated_Source\PSoC4/ADC.c **** 
 859:Generated_Source\PSoC4/ADC.c ****         /* Halt CPU in debug mode if channel is out of valid range */
 860:Generated_Source\PSoC4/ADC.c ****         CYASSERT(chan < ADC_TOTAL_CHANNELS_NUM);
 1096              		.loc 1 860 0
 1097 0006 0428     		cmp	r0, #4
 1098 0008 02D9     		bls	.L86
 1099              		.loc 1 860 0 is_stmt 0 discriminator 1
 1100 000a 0020     		movs	r0, #0
 1101              	.LVL79:
 1102 000c FFF7FEFF 		bl	CyHalt
 1103              	.LVL80:
 1104              	.L86:
 861:Generated_Source\PSoC4/ADC.c **** 
 862:Generated_Source\PSoC4/ADC.c ****         /* Divide the adcCount when accumulate averaging mode selected */
 863:Generated_Source\PSoC4/ADC.c ****         #if(ADC_DEFAULT_AVG_MODE == ADC__ACCUMULATE)
 864:Generated_Source\PSoC4/ADC.c ****             if((ADC_channelsConfig[chan] & ADC_AVERAGING_EN) != 0u)
 865:Generated_Source\PSoC4/ADC.c ****             {
 866:Generated_Source\PSoC4/ADC.c ****                 adcCounts /= ADC_DEFAULT_AVG_SAMPLES_DIV;
 867:Generated_Source\PSoC4/ADC.c ****             }
 868:Generated_Source\PSoC4/ADC.c ****         #endif /* ADC_DEFAULT_AVG_MODE == ADC__ACCUMULATE */
 869:Generated_Source\PSoC4/ADC.c **** 
 870:Generated_Source\PSoC4/ADC.c ****         /* Subtract ADC offset */
 871:Generated_Source\PSoC4/ADC.c ****         adcCounts -= ADC_offset[chan];
 1105              		.loc 1 871 0 is_stmt 1
 1106 0010 6200     		lsls	r2, r4, #1
 1107 0012 0A4B     		ldr	r3, .L87
 1108 0014 D05A     		ldrh	r0, [r2, r3]
 1109 0016 00B2     		sxth	r0, r0
ARM GAS  C:\Users\Ray\AppData\Local\Temp\ccS9gWhK.s 			page 36


 1110 0018 281A     		subs	r0, r5, r0
 1111 001a 00B2     		sxth	r0, r0
 1112              	.LVL81:
 872:Generated_Source\PSoC4/ADC.c **** 
 873:Generated_Source\PSoC4/ADC.c ****         volts = ((float32)adcCounts * ADC_10V_COUNTS) / (float32)ADC_countsPer10Volt[chan];
 1113              		.loc 1 873 0
 1114 001c FFF7FEFF 		bl	__aeabi_i2f
 1115              	.LVL82:
 1116 0020 0749     		ldr	r1, .L87+4
 1117 0022 FFF7FEFF 		bl	__aeabi_fmul
 1118              	.LVL83:
 1119 0026 051C     		adds	r5, r0, #0
 1120 0028 A400     		lsls	r4, r4, #2
 1121              	.LVL84:
 1122 002a 064B     		ldr	r3, .L87+8
 1123 002c E058     		ldr	r0, [r4, r3]
 1124 002e FFF7FEFF 		bl	__aeabi_i2f
 1125              	.LVL85:
 1126 0032 011C     		adds	r1, r0, #0
 1127 0034 281C     		adds	r0, r5, #0
 1128 0036 FFF7FEFF 		bl	__aeabi_fdiv
 1129              	.LVL86:
 874:Generated_Source\PSoC4/ADC.c **** 
 875:Generated_Source\PSoC4/ADC.c ****         return( volts );
 876:Generated_Source\PSoC4/ADC.c ****     }
 1130              		.loc 1 876 0
 1131              		@ sp needed
 1132 003a 70BD     		pop	{r4, r5, r6, pc}
 1133              	.L88:
 1134              		.align	2
 1135              	.L87:
 1136 003c 00000000 		.word	ADC_offset
 1137 0040 00002041 		.word	1092616192
 1138 0044 00000000 		.word	ADC_countsPer10Volt
 1139              		.cfi_endproc
 1140              	.LFE18:
 1141              		.size	ADC_CountsTo_Volts, .-ADC_CountsTo_Volts
 1142              		.comm	ADC_countsPer10Volt,20,4
 1143              		.comm	ADC_offset,10,4
 1144              		.global	ADC_initVar
 1145              		.section	.rodata
 1146              		.align	2
 1147              		.set	.LANCHOR0,. + 0
 1148              		.type	ADC_channelsConfig, %object
 1149              		.size	ADC_channelsConfig, 20
 1150              	ADC_channelsConfig:
 1151 0000 00040000 		.word	1024
 1152 0004 00050000 		.word	1280
 1153 0008 00140000 		.word	5120
 1154 000c 00140000 		.word	5120
 1155 0010 00000000 		.word	0
 1156              		.type	ADC_InputsPlacement.4876, %object
 1157              		.size	ADC_InputsPlacement.4876, 5
 1158              	ADC_InputsPlacement.4876:
 1159 0014 00       		.byte	0
 1160 0015 06       		.byte	6
 1161 0016 12       		.byte	18
ARM GAS  C:\Users\Ray\AppData\Local\Temp\ccS9gWhK.s 			page 37


 1162 0017 13       		.byte	19
 1163 0018 70       		.byte	112
 1164              		.bss
 1165              		.set	.LANCHOR1,. + 0
 1166              		.type	ADC_initVar, %object
 1167              		.size	ADC_initVar, 1
 1168              	ADC_initVar:
 1169 0000 00       		.space	1
 1170              		.text
 1171              	.Letext0:
 1172              		.file 2 "Generated_Source\\PSoC4\\cytypes.h"
 1173              		.file 3 "Generated_Source\\PSoC4\\CyLib.h"