ARM GAS  C:\Users\Ray\AppData\Local\Temp\ccn7U9Aq.s 			page 1


   1              		.syntax unified
   2              		.cpu cortex-m0
   3              		.fpu softvfp
   4              		.eabi_attribute 20, 1
   5              		.eabi_attribute 21, 1
   6              		.eabi_attribute 23, 3
   7              		.eabi_attribute 24, 1
   8              		.eabi_attribute 25, 1
   9              		.eabi_attribute 26, 1
  10              		.eabi_attribute 30, 1
  11              		.eabi_attribute 34, 0
  12              		.eabi_attribute 18, 4
  13              		.thumb
  14              		.syntax unified
  15              		.file	"CapSense.c"
  16              		.text
  17              	.Ltext0:
  18              		.cfi_sections	.debug_frame
  19              		.section	.text.CapSense_CsdHwBlockInit,"ax",%progbits
  20              		.align	2
  21              		.global	CapSense_CsdHwBlockInit
  22              		.code	16
  23              		.thumb_func
  24              		.type	CapSense_CsdHwBlockInit, %function
  25              	CapSense_CsdHwBlockInit:
  26              	.LFB33:
  27              		.file 1 "Generated_Source\\PSoC4\\CapSense.c"
   1:Generated_Source\PSoC4/CapSense.c **** /*******************************************************************************
   2:Generated_Source\PSoC4/CapSense.c **** * File Name: CapSense.c
   3:Generated_Source\PSoC4/CapSense.c **** * Version 2.60
   4:Generated_Source\PSoC4/CapSense.c **** *
   5:Generated_Source\PSoC4/CapSense.c **** * Description:
   6:Generated_Source\PSoC4/CapSense.c **** *  This file provides the source code for scanning APIs for the CapSense CSD
   7:Generated_Source\PSoC4/CapSense.c **** *  component.
   8:Generated_Source\PSoC4/CapSense.c **** *
   9:Generated_Source\PSoC4/CapSense.c **** * Note:
  10:Generated_Source\PSoC4/CapSense.c **** *
  11:Generated_Source\PSoC4/CapSense.c **** ********************************************************************************
  12:Generated_Source\PSoC4/CapSense.c **** * Copyright 2013-2016, Cypress Semiconductor Corporation.  All rights reserved.
  13:Generated_Source\PSoC4/CapSense.c **** * You may use this file only in accordance with the license, terms, conditions,
  14:Generated_Source\PSoC4/CapSense.c **** * disclaimers, and limitations in the end user license agreement accompanying
  15:Generated_Source\PSoC4/CapSense.c **** * the software package with which this file was provided.
  16:Generated_Source\PSoC4/CapSense.c **** *******************************************************************************/
  17:Generated_Source\PSoC4/CapSense.c **** 
  18:Generated_Source\PSoC4/CapSense.c **** #include "CapSense.h"
  19:Generated_Source\PSoC4/CapSense.c **** #include "CapSense_PVT.h"
  20:Generated_Source\PSoC4/CapSense.c **** #include "cypins.h"
  21:Generated_Source\PSoC4/CapSense.c **** #include "cyapicallbacks.h"
  22:Generated_Source\PSoC4/CapSense.c **** 
  23:Generated_Source\PSoC4/CapSense.c **** #if(0u != CapSense_CSHL_API_GENERATE)
  24:Generated_Source\PSoC4/CapSense.c ****     #include "CapSense_CSHL.h"
  25:Generated_Source\PSoC4/CapSense.c **** #endif /* (0u != CapSense_CSHL_API_GENERATE) */
  26:Generated_Source\PSoC4/CapSense.c **** 
  27:Generated_Source\PSoC4/CapSense.c **** /* This definition is intended to prevent unexpected linker error.
  28:Generated_Source\PSoC4/CapSense.c ****    For more details please see the IAR Technical Note 49981 */
  29:Generated_Source\PSoC4/CapSense.c **** #if defined(__ICCARM__)
  30:Generated_Source\PSoC4/CapSense.c ****     extern void CapSense_EnableSensor(uint32 sensor);
ARM GAS  C:\Users\Ray\AppData\Local\Temp\ccn7U9Aq.s 			page 2


  31:Generated_Source\PSoC4/CapSense.c ****     extern void CapSense_DisableSensor(uint32 sensor);
  32:Generated_Source\PSoC4/CapSense.c **** #endif /* (__ICCARM__) */
  33:Generated_Source\PSoC4/CapSense.c **** 
  34:Generated_Source\PSoC4/CapSense.c **** /* SmartSense functions */
  35:Generated_Source\PSoC4/CapSense.c **** #if (CapSense_TUNING_METHOD == CapSense__TUNING_AUTO)
  36:Generated_Source\PSoC4/CapSense.c ****     uint8 CapSense_lowLevelTuningDone = 0u;
  37:Generated_Source\PSoC4/CapSense.c ****     uint8 CapSense_scanSpeedTbl[((CapSense_TOTAL_SENSOR_COUNT - 1u) / 8u) + 1u];
  38:Generated_Source\PSoC4/CapSense.c **** #endif /* (CapSense_TUNING_METHOD == CapSense__TUNING_AUTO) */
  39:Generated_Source\PSoC4/CapSense.c **** 
  40:Generated_Source\PSoC4/CapSense.c **** #if(CapSense_PRS_OPTIONS != CapSense__PRS_NONE)
  41:Generated_Source\PSoC4/CapSense.c ****     uint8 CapSense_prescalersTuningDone = 0u;
  42:Generated_Source\PSoC4/CapSense.c **** #endif /* (CapSense_PRS_OPTIONS == CapSense__PRS_NONE) */
  43:Generated_Source\PSoC4/CapSense.c **** 
  44:Generated_Source\PSoC4/CapSense.c **** /* Global software variables */
  45:Generated_Source\PSoC4/CapSense.c **** volatile uint8 CapSense_csdStatusVar = 0u;   /* CapSense CSD status, variable */
  46:Generated_Source\PSoC4/CapSense.c **** volatile uint8 CapSense_sensorIndex = 0u;    /* Index of scannig sensor */
  47:Generated_Source\PSoC4/CapSense.c **** 
  48:Generated_Source\PSoC4/CapSense.c **** /* Global array of Raw Counts */
  49:Generated_Source\PSoC4/CapSense.c **** uint16 CapSense_sensorRaw[CapSense_TOTAL_SENSOR_COUNT] = {0u};
  50:Generated_Source\PSoC4/CapSense.c **** 
  51:Generated_Source\PSoC4/CapSense.c **** /* Backup variables for trim registers*/
  52:Generated_Source\PSoC4/CapSense.c **** #if (CapSense_IDAC1_POLARITY == CapSense__IDAC_SINK)
  53:Generated_Source\PSoC4/CapSense.c ****     uint8 CapSense_csdTrim2;
  54:Generated_Source\PSoC4/CapSense.c **** #else
  55:Generated_Source\PSoC4/CapSense.c ****     uint8 CapSense_csdTrim1;
  56:Generated_Source\PSoC4/CapSense.c **** #endif /* (CapSense_IDAC1_POLARITY == CapSense__IDAC_SINK) */
  57:Generated_Source\PSoC4/CapSense.c **** 
  58:Generated_Source\PSoC4/CapSense.c **** /* Global array of un-scanned sensors state */
  59:Generated_Source\PSoC4/CapSense.c **** uint8 CapSense_unscannedSnsDriveMode[CapSense_PORT_PIN_CONFIG_TBL_ZISE];
  60:Generated_Source\PSoC4/CapSense.c **** 
  61:Generated_Source\PSoC4/CapSense.c **** /* Backup array for CapSense_sensorEnableMask */
  62:Generated_Source\PSoC4/CapSense.c **** uint8 CapSense_sensorEnableMaskBackup[(((CapSense_TOTAL_SENSOR_COUNT - 1u) / 8u) + 1u)];
  63:Generated_Source\PSoC4/CapSense.c **** 
  64:Generated_Source\PSoC4/CapSense.c **** /* Configured constants and arrays by Customizer */
  65:Generated_Source\PSoC4/CapSense.c **** uint8 CapSense_sensorEnableMask[(((CapSense_TOTAL_SENSOR_COUNT - 1u) / 8u) + 1u)] = {
  66:Generated_Source\PSoC4/CapSense.c **** 0x3u, };
  67:Generated_Source\PSoC4/CapSense.c **** 
  68:Generated_Source\PSoC4/CapSense.c **** reg32 * CapSense_pcTable[] = {
  69:Generated_Source\PSoC4/CapSense.c ****     (reg32 *)CapSense_Sns__Button0__BTN__PC, 
  70:Generated_Source\PSoC4/CapSense.c ****     (reg32 *)CapSense_Sns__Button1__BTN__PC, 
  71:Generated_Source\PSoC4/CapSense.c **** };
  72:Generated_Source\PSoC4/CapSense.c **** 
  73:Generated_Source\PSoC4/CapSense.c **** const uint8 CapSense_portTable[] = {
  74:Generated_Source\PSoC4/CapSense.c ****     CapSense_Sns__Button0__BTN__PORT, 
  75:Generated_Source\PSoC4/CapSense.c ****     CapSense_Sns__Button1__BTN__PORT, 
  76:Generated_Source\PSoC4/CapSense.c **** };
  77:Generated_Source\PSoC4/CapSense.c **** 
  78:Generated_Source\PSoC4/CapSense.c **** const uint32 CapSense_maskTable[] = {
  79:Generated_Source\PSoC4/CapSense.c ****     CapSense_Sns__Button0__BTN__MASK, 
  80:Generated_Source\PSoC4/CapSense.c ****     CapSense_Sns__Button1__BTN__MASK, 
  81:Generated_Source\PSoC4/CapSense.c **** };
  82:Generated_Source\PSoC4/CapSense.c **** 
  83:Generated_Source\PSoC4/CapSense.c **** const uint8 CapSense_pinShiftTbl[] = {
  84:Generated_Source\PSoC4/CapSense.c ****     (uint8) CapSense_Sns__Button0__BTN__SHIFT, 
  85:Generated_Source\PSoC4/CapSense.c ****     (uint8) CapSense_Sns__Button1__BTN__SHIFT, 
  86:Generated_Source\PSoC4/CapSense.c **** };
  87:Generated_Source\PSoC4/CapSense.c **** 
ARM GAS  C:\Users\Ray\AppData\Local\Temp\ccn7U9Aq.s 			page 3


  88:Generated_Source\PSoC4/CapSense.c **** uint8 CapSense_modulationIDAC[CapSense_TOTAL_SENSOR_COUNT];
  89:Generated_Source\PSoC4/CapSense.c **** uint8 CapSense_compensationIDAC[CapSense_TOTAL_SENSOR_COUNT];
  90:Generated_Source\PSoC4/CapSense.c **** 
  91:Generated_Source\PSoC4/CapSense.c **** uint32 CapSense_widgetResolution[CapSense_RESOLUTIONS_TBL_SIZE] = {
  92:Generated_Source\PSoC4/CapSense.c ****     CapSense_RESOLUTION_12_BITS,
  93:Generated_Source\PSoC4/CapSense.c ****     CapSense_RESOLUTION_12_BITS,
  94:Generated_Source\PSoC4/CapSense.c **** };
  95:Generated_Source\PSoC4/CapSense.c **** 
  96:Generated_Source\PSoC4/CapSense.c **** uint8 CapSense_senseClkDividerVal[CapSense_TOTAL_SCANSLOT_COUNT];
  97:Generated_Source\PSoC4/CapSense.c **** uint8 CapSense_sampleClkDividerVal[CapSense_TOTAL_SCANSLOT_COUNT];
  98:Generated_Source\PSoC4/CapSense.c **** 
  99:Generated_Source\PSoC4/CapSense.c **** const uint8 CapSense_widgetNumber[CapSense_TOTAL_SENSOR_COUNT] = {
 100:Generated_Source\PSoC4/CapSense.c ****     0u, /* Button0__BTN */
 101:Generated_Source\PSoC4/CapSense.c ****     1u, /* Button1__BTN */
 102:Generated_Source\PSoC4/CapSense.c **** };
 103:Generated_Source\PSoC4/CapSense.c **** 
 104:Generated_Source\PSoC4/CapSense.c **** reg32* const CapSense_prtSelTbl[CapSense_CFG_REG_TBL_SIZE] = {
 105:Generated_Source\PSoC4/CapSense.c ****     ((reg32 *) CYREG_HSIOM_PORT_SEL0),
 106:Generated_Source\PSoC4/CapSense.c ****     ((reg32 *) CYREG_HSIOM_PORT_SEL1),
 107:Generated_Source\PSoC4/CapSense.c ****     ((reg32 *) CYREG_HSIOM_PORT_SEL2),
 108:Generated_Source\PSoC4/CapSense.c ****     ((reg32 *) CYREG_HSIOM_PORT_SEL3),
 109:Generated_Source\PSoC4/CapSense.c ****     ((reg32 *) CYREG_HSIOM_PORT_SEL4),
 110:Generated_Source\PSoC4/CapSense.c **** };
 111:Generated_Source\PSoC4/CapSense.c **** 
 112:Generated_Source\PSoC4/CapSense.c **** reg32* const CapSense_prtCfgTbl[CapSense_CFG_REG_TBL_SIZE] = {
 113:Generated_Source\PSoC4/CapSense.c ****     ((reg32 *) CYREG_PRT0_PC),
 114:Generated_Source\PSoC4/CapSense.c ****     ((reg32 *) CYREG_PRT1_PC),
 115:Generated_Source\PSoC4/CapSense.c ****     ((reg32 *) CYREG_PRT2_PC),
 116:Generated_Source\PSoC4/CapSense.c ****     ((reg32 *) CYREG_PRT3_PC),
 117:Generated_Source\PSoC4/CapSense.c ****     ((reg32 *) CYREG_PRT4_PC),
 118:Generated_Source\PSoC4/CapSense.c **** };
 119:Generated_Source\PSoC4/CapSense.c **** 
 120:Generated_Source\PSoC4/CapSense.c **** reg32* const CapSense_prtDRTbl[CapSense_CFG_REG_TBL_SIZE] = {
 121:Generated_Source\PSoC4/CapSense.c ****     ((reg32 *) CYREG_PRT0_DR),
 122:Generated_Source\PSoC4/CapSense.c ****     ((reg32 *) CYREG_PRT1_DR),
 123:Generated_Source\PSoC4/CapSense.c ****     ((reg32 *) CYREG_PRT2_DR),
 124:Generated_Source\PSoC4/CapSense.c ****     ((reg32 *) CYREG_PRT3_DR),
 125:Generated_Source\PSoC4/CapSense.c ****     ((reg32 *) CYREG_PRT4_DR),
 126:Generated_Source\PSoC4/CapSense.c **** };
 127:Generated_Source\PSoC4/CapSense.c **** 
 128:Generated_Source\PSoC4/CapSense.c **** 
 129:Generated_Source\PSoC4/CapSense.c **** 
 130:Generated_Source\PSoC4/CapSense.c **** /*******************************************************************************
 131:Generated_Source\PSoC4/CapSense.c **** * Function Name: CapSense_Init
 132:Generated_Source\PSoC4/CapSense.c **** ********************************************************************************
 133:Generated_Source\PSoC4/CapSense.c **** *
 134:Generated_Source\PSoC4/CapSense.c **** * Summary:
 135:Generated_Source\PSoC4/CapSense.c **** *  API initializes default CapSense configuration provided by the customizer that defines
 136:Generated_Source\PSoC4/CapSense.c **** *  the mode of component operations and resets all the sensors to an inactive state.
 137:Generated_Source\PSoC4/CapSense.c **** *
 138:Generated_Source\PSoC4/CapSense.c **** * Parameters:
 139:Generated_Source\PSoC4/CapSense.c **** *  None
 140:Generated_Source\PSoC4/CapSense.c **** *
 141:Generated_Source\PSoC4/CapSense.c **** * Return:
 142:Generated_Source\PSoC4/CapSense.c **** *  None
 143:Generated_Source\PSoC4/CapSense.c **** *
 144:Generated_Source\PSoC4/CapSense.c **** * Global Variables:
ARM GAS  C:\Users\Ray\AppData\Local\Temp\ccn7U9Aq.s 			page 4


 145:Generated_Source\PSoC4/CapSense.c **** *  CapSense_immunityIndex - defines immunity level.
 146:Generated_Source\PSoC4/CapSense.c **** *
 147:Generated_Source\PSoC4/CapSense.c **** * Side Effects:
 148:Generated_Source\PSoC4/CapSense.c **** *  None
 149:Generated_Source\PSoC4/CapSense.c **** *
 150:Generated_Source\PSoC4/CapSense.c **** *******************************************************************************/
 151:Generated_Source\PSoC4/CapSense.c **** void CapSense_Init(void)
 152:Generated_Source\PSoC4/CapSense.c **** {
 153:Generated_Source\PSoC4/CapSense.c ****     uint32 curSensor;
 154:Generated_Source\PSoC4/CapSense.c **** 
 155:Generated_Source\PSoC4/CapSense.c ****     #if(CapSense_IS_SHIELD_ENABLE)
 156:Generated_Source\PSoC4/CapSense.c **** 
 157:Generated_Source\PSoC4/CapSense.c ****         #if((CapSense_CSH_TANK_PREGARGE_OPTION == CapSense__CAPPRIOBUF) || (0u != CapSense_CSH_TANK
 158:Generated_Source\PSoC4/CapSense.c ****             uint32 newRegValue;
 159:Generated_Source\PSoC4/CapSense.c **** 
 160:Generated_Source\PSoC4/CapSense.c ****             newRegValue = CapSense_CTANK_CONNECTION_REG;
 161:Generated_Source\PSoC4/CapSense.c ****             newRegValue &= ~(CapSense_CSD_CTANK_CONNECTION_MASK);
 162:Generated_Source\PSoC4/CapSense.c ****             newRegValue |= CapSense_CSD_CTANK_TO_AMUXBUS_B;
 163:Generated_Source\PSoC4/CapSense.c ****             CapSense_CTANK_CONNECTION_REG = newRegValue;
 164:Generated_Source\PSoC4/CapSense.c **** 
 165:Generated_Source\PSoC4/CapSense.c ****             #if(CapSense_CSH_TANK_PREGARGE_OPTION == CapSense__CAPPRIOBUF)
 166:Generated_Source\PSoC4/CapSense.c ****                 newRegValue = CapSense_CTANK_PORT_PC_REG;
 167:Generated_Source\PSoC4/CapSense.c ****                 newRegValue &= ~(CapSense_CSD_CTANK_PC_MASK);
 168:Generated_Source\PSoC4/CapSense.c ****                 newRegValue |= CapSense_CTANK_PC_STRONG_MODE;
 169:Generated_Source\PSoC4/CapSense.c ****                 CapSense_CTANK_PORT_PC_REG = newRegValue;
 170:Generated_Source\PSoC4/CapSense.c **** 
 171:Generated_Source\PSoC4/CapSense.c ****                 newRegValue = CapSense_CTANK_PORT_DR_REG;
 172:Generated_Source\PSoC4/CapSense.c ****                 newRegValue &= ~(CapSense_CTANK_DR_MASK);
 173:Generated_Source\PSoC4/CapSense.c ****                 newRegValue |= CapSense_CTANK_DR_CONFIG;
 174:Generated_Source\PSoC4/CapSense.c ****                 CapSense_CTANK_PORT_DR_REG = newRegValue;
 175:Generated_Source\PSoC4/CapSense.c ****             #endif /* (CapSense_CSH_TANK_PREGARGE_OPTION == CapSense__CAPPRIOBUF) */
 176:Generated_Source\PSoC4/CapSense.c **** 
 177:Generated_Source\PSoC4/CapSense.c ****         #endif /* ((CapSense_CSH_TANK_PREGARGE_OPTION == CapSense__CAPPRIOBUF) || (CapSense_CSH_TAN
 178:Generated_Source\PSoC4/CapSense.c **** 
 179:Generated_Source\PSoC4/CapSense.c ****         CapSense_EnableShieldElectrode((uint32)CapSense_SHIELD_PIN_NUMBER, (uint32)CapSense_SHIELD_
 180:Generated_Source\PSoC4/CapSense.c **** 
 181:Generated_Source\PSoC4/CapSense.c ****     #endif /* (CapSense_IS_SHIELD_ENABLE) */
 182:Generated_Source\PSoC4/CapSense.c **** 
 183:Generated_Source\PSoC4/CapSense.c ****     for(curSensor = 0u; curSensor < CapSense_TOTAL_SENSOR_COUNT; curSensor++)
 184:Generated_Source\PSoC4/CapSense.c ****     {
 185:Generated_Source\PSoC4/CapSense.c ****         CapSense_SetUnscannedSensorState(curSensor, CapSense_CONNECT_INACTIVE_SNS);
 186:Generated_Source\PSoC4/CapSense.c ****     }
 187:Generated_Source\PSoC4/CapSense.c **** 
 188:Generated_Source\PSoC4/CapSense.c ****     CapSense_CsdHwBlockInit();
 189:Generated_Source\PSoC4/CapSense.c ****     CapSense_SetShieldDelay(CapSense_SHIELD_DELAY );
 190:Generated_Source\PSoC4/CapSense.c **** 
 191:Generated_Source\PSoC4/CapSense.c ****     /* Clear all sensors */
 192:Generated_Source\PSoC4/CapSense.c ****     CapSense_ClearSensors();
 193:Generated_Source\PSoC4/CapSense.c **** }
 194:Generated_Source\PSoC4/CapSense.c **** 
 195:Generated_Source\PSoC4/CapSense.c **** /*******************************************************************************
 196:Generated_Source\PSoC4/CapSense.c **** * Function Name: CapSense_CsdHwBlockInit
 197:Generated_Source\PSoC4/CapSense.c **** ********************************************************************************
 198:Generated_Source\PSoC4/CapSense.c **** *
 199:Generated_Source\PSoC4/CapSense.c **** * Summary:
 200:Generated_Source\PSoC4/CapSense.c **** *  Initialises the hardware parameters of the CSD block
 201:Generated_Source\PSoC4/CapSense.c **** *
ARM GAS  C:\Users\Ray\AppData\Local\Temp\ccn7U9Aq.s 			page 5


 202:Generated_Source\PSoC4/CapSense.c **** * Parameters:
 203:Generated_Source\PSoC4/CapSense.c **** *  None
 204:Generated_Source\PSoC4/CapSense.c **** *
 205:Generated_Source\PSoC4/CapSense.c **** * Return:
 206:Generated_Source\PSoC4/CapSense.c **** *  None
 207:Generated_Source\PSoC4/CapSense.c **** *
 208:Generated_Source\PSoC4/CapSense.c **** * Global Variables:
 209:Generated_Source\PSoC4/CapSense.c **** *  CapSense_csdTrim1 - Contains IDAC trim register value for Sourcing Mode.
 210:Generated_Source\PSoC4/CapSense.c **** *  CapSense_csdTrim2 - Contains IDAC trim register value for Sinking Mode.
 211:Generated_Source\PSoC4/CapSense.c **** *
 212:Generated_Source\PSoC4/CapSense.c **** * Side Effects:
 213:Generated_Source\PSoC4/CapSense.c **** *  None
 214:Generated_Source\PSoC4/CapSense.c **** *
 215:Generated_Source\PSoC4/CapSense.c **** *******************************************************************************/
 216:Generated_Source\PSoC4/CapSense.c **** void CapSense_CsdHwBlockInit(void)
 217:Generated_Source\PSoC4/CapSense.c **** {
  28              		.loc 1 217 0
  29              		.cfi_startproc
  30              		@ args = 0, pretend = 0, frame = 0
  31              		@ frame_needed = 0, uses_anonymous_args = 0
  32 0000 70B5     		push	{r4, r5, r6, lr}
  33              		.cfi_def_cfa_offset 16
  34              		.cfi_offset 4, -16
  35              		.cfi_offset 5, -12
  36              		.cfi_offset 6, -8
  37              		.cfi_offset 14, -4
 218:Generated_Source\PSoC4/CapSense.c ****     uint32 newRegValue;
 219:Generated_Source\PSoC4/CapSense.c **** 
 220:Generated_Source\PSoC4/CapSense.c ****         /* Set trim registers for CSD Mode */
 221:Generated_Source\PSoC4/CapSense.c ****     #if (CapSense_IDAC1_POLARITY == CapSense__IDAC_SINK)
 222:Generated_Source\PSoC4/CapSense.c ****         /* iDAC1 Sinking Mode */
 223:Generated_Source\PSoC4/CapSense.c ****         CapSense_csdTrim2 = (uint8)CapSense_CSD_TRIM2_REG;
 224:Generated_Source\PSoC4/CapSense.c ****         newRegValue = CapSense_csdTrim2;
 225:Generated_Source\PSoC4/CapSense.c ****         newRegValue &= CapSense_CSD_IDAC1_TRIM_MASK;
 226:Generated_Source\PSoC4/CapSense.c ****         newRegValue |= (uint32)((uint32)CapSense_SFLASH_CSD_TRIM2_REG & (uint32)CapSense_CSFLASH_TR
 227:Generated_Source\PSoC4/CapSense.c **** 
 228:Generated_Source\PSoC4/CapSense.c ****         #if (CapSense_IDAC_CNT == 2u)
 229:Generated_Source\PSoC4/CapSense.c ****             /* iDAC2 Sinking Mode */
 230:Generated_Source\PSoC4/CapSense.c ****             newRegValue &= CapSense_CSD_IDAC2_TRIM_MASK;
 231:Generated_Source\PSoC4/CapSense.c ****             newRegValue |= (uint32)((uint32)CapSense_SFLASH_CSD_TRIM2_REG & (uint32)CapSense_CSFLAS
 232:Generated_Source\PSoC4/CapSense.c ****         #endif /* (CapSense_IDAC_CNT == 2u) */
 233:Generated_Source\PSoC4/CapSense.c ****         CapSense_CSD_TRIM2_REG = newRegValue;
 234:Generated_Source\PSoC4/CapSense.c ****     #else
 235:Generated_Source\PSoC4/CapSense.c ****         /* iDAC1 Sourcing Mode */
 236:Generated_Source\PSoC4/CapSense.c ****         CapSense_csdTrim1 = (uint8)CapSense_CSD_TRIM1_REG;
  38              		.loc 1 236 0
  39 0002 1648     		ldr	r0, .L2
  40 0004 0368     		ldr	r3, [r0]
  41 0006 DBB2     		uxtb	r3, r3
  42 0008 154A     		ldr	r2, .L2+4
  43 000a 1370     		strb	r3, [r2]
  44              	.LVL0:
 237:Generated_Source\PSoC4/CapSense.c ****         newRegValue = CapSense_csdTrim1;
 238:Generated_Source\PSoC4/CapSense.c ****         newRegValue &= CapSense_CSD_IDAC1_TRIM_MASK;
  45              		.loc 1 238 0
  46 000c 0F24     		movs	r4, #15
  47 000e A343     		bics	r3, r4
ARM GAS  C:\Users\Ray\AppData\Local\Temp\ccn7U9Aq.s 			page 6


  48              	.LVL1:
  49 0010 1900     		movs	r1, r3
  50              	.LVL2:
 239:Generated_Source\PSoC4/CapSense.c ****         newRegValue |= (uint32)((uint32)CapSense_SFLASH_CSD_TRIM1_REG & (uint32)CapSense_CSFLASH_TR
  51              		.loc 1 239 0
  52 0012 144D     		ldr	r5, .L2+8
  53 0014 2B78     		ldrb	r3, [r5]
  54 0016 0F22     		movs	r2, #15
  55 0018 1340     		ands	r3, r2
  56 001a 0B43     		orrs	r3, r1
  57              	.LVL3:
 240:Generated_Source\PSoC4/CapSense.c ****         #if (CapSense_IDAC_CNT == 2u)
 241:Generated_Source\PSoC4/CapSense.c ****              /* iDAC2 Sourcing Mode */
 242:Generated_Source\PSoC4/CapSense.c ****             newRegValue &= CapSense_CSD_IDAC2_TRIM_MASK;
  58              		.loc 1 242 0
  59 001c E132     		adds	r2, r2, #225
  60 001e 9343     		bics	r3, r2
  61              	.LVL4:
 243:Generated_Source\PSoC4/CapSense.c ****             newRegValue |= (uint32)((uint32)CapSense_SFLASH_CSD_TRIM1_REG & (uint32)CapSense_CSFLAS
  62              		.loc 1 243 0
  63 0020 2A78     		ldrb	r2, [r5]
  64 0022 A243     		bics	r2, r4
  65 0024 1343     		orrs	r3, r2
  66              	.LVL5:
 244:Generated_Source\PSoC4/CapSense.c ****         #endif
 245:Generated_Source\PSoC4/CapSense.c ****         CapSense_CSD_TRIM1_REG = newRegValue;
  67              		.loc 1 245 0
  68 0026 0360     		str	r3, [r0]
 246:Generated_Source\PSoC4/CapSense.c ****     #endif /* (CapSense_IDAC1_POLARITY == CapSense__IDAC_SINK) */
 247:Generated_Source\PSoC4/CapSense.c **** 
 248:Generated_Source\PSoC4/CapSense.c ****     /* Configure CSD and IDAC */
 249:Generated_Source\PSoC4/CapSense.c ****     #if (CapSense_IDAC_CNT > 1u)
 250:Generated_Source\PSoC4/CapSense.c ****         CapSense_CSD_IDAC_REG = CapSense_DEFAULT_CSD_IDAC_CONFIG;
  69              		.loc 1 250 0
  70 0028 0F4A     		ldr	r2, .L2+12
  71 002a 104B     		ldr	r3, .L2+16
  72              	.LVL6:
  73 002c 1A60     		str	r2, [r3]
  74              	.LVL7:
 251:Generated_Source\PSoC4/CapSense.c ****         CapSense_CSD_CFG_REG = CapSense_DEFAULT_CSD_CONFIG;
  75              		.loc 1 251 0
  76 002e 104A     		ldr	r2, .L2+20
  77 0030 104B     		ldr	r3, .L2+24
  78 0032 1A60     		str	r2, [r3]
 252:Generated_Source\PSoC4/CapSense.c ****     #else
 253:Generated_Source\PSoC4/CapSense.c ****         CapSense_CSD_IDAC_REG &= ~(CapSense_CSD_IDAC1_MODE_MASK  | CapSense_CSD_IDAC1_DATA_MASK);
 254:Generated_Source\PSoC4/CapSense.c ****         CapSense_CSD_IDAC_REG |= CapSense_DEFAULT_CSD_IDAC_CONFIG;
 255:Generated_Source\PSoC4/CapSense.c **** 
 256:Generated_Source\PSoC4/CapSense.c ****         CapSense_CSD_CFG_REG &= ~(CapSense_CSD_CONFIG_MASK);
 257:Generated_Source\PSoC4/CapSense.c ****         CapSense_CSD_CFG_REG |= (CapSense_DEFAULT_CSD_CONFIG);
 258:Generated_Source\PSoC4/CapSense.c ****     #endif /* (CapSense_IDAC_CNT > 1u) */
 259:Generated_Source\PSoC4/CapSense.c **** 
 260:Generated_Source\PSoC4/CapSense.c **** 
 261:Generated_Source\PSoC4/CapSense.c ****     /* Connect Cmod to AMUX bus */
 262:Generated_Source\PSoC4/CapSense.c ****     newRegValue = CapSense_CMOD_CONNECTION_REG;
  79              		.loc 1 262 0
  80 0034 104A     		ldr	r2, .L2+28
ARM GAS  C:\Users\Ray\AppData\Local\Temp\ccn7U9Aq.s 			page 7


  81 0036 1168     		ldr	r1, [r2]
  82              	.LVL8:
 263:Generated_Source\PSoC4/CapSense.c ****     newRegValue &= ~(CapSense_CSD_CMOD_CONNECTION_MASK);
  83              		.loc 1 263 0
  84 0038 104B     		ldr	r3, .L2+32
  85 003a 0B40     		ands	r3, r1
  86              	.LVL9:
 264:Generated_Source\PSoC4/CapSense.c ****     newRegValue |= CapSense_CSD_CMOD_TO_AMUXBUS_A;
  87              		.loc 1 264 0
  88 003c C021     		movs	r1, #192
  89 003e C900     		lsls	r1, r1, #3
  90 0040 0B43     		orrs	r3, r1
  91              	.LVL10:
 265:Generated_Source\PSoC4/CapSense.c ****     CapSense_CMOD_CONNECTION_REG = newRegValue;
  92              		.loc 1 265 0
  93 0042 1360     		str	r3, [r2]
 266:Generated_Source\PSoC4/CapSense.c **** 
 267:Generated_Source\PSoC4/CapSense.c ****     /* Configure Dead Band PWM if it is enabled */
 268:Generated_Source\PSoC4/CapSense.c ****     #if(CapSense_CSD_4B_PWM_MODE != CapSense__PWM_OFF)
 269:Generated_Source\PSoC4/CapSense.c ****         CapSense_CSD_4B_PWM_REG = CapSense_DEFAULT_CSD_4B_PWM_CONFIG;
 270:Generated_Source\PSoC4/CapSense.c ****     #endif /* (CapSense_CSD_4B_PWM_MODE != CapSense__PWM_OFF) */
 271:Generated_Source\PSoC4/CapSense.c **** 
 272:Generated_Source\PSoC4/CapSense.c ****     /* Setup ISR */
 273:Generated_Source\PSoC4/CapSense.c ****     CyIntDisable(CapSense_ISR_NUMBER);
  94              		.loc 1 273 0
  95 0044 0F20     		movs	r0, #15
  96 0046 FFF7FEFF 		bl	CyIntDisable
  97              	.LVL11:
 274:Generated_Source\PSoC4/CapSense.c ****     #if !defined(CY_EXTERNAL_INTERRUPT_CONFIG)
 275:Generated_Source\PSoC4/CapSense.c ****         (void)CyIntSetVector(CapSense_ISR_NUMBER, &CapSense_ISR);
  98              		.loc 1 275 0
  99 004a 0D49     		ldr	r1, .L2+36
 100 004c 0F20     		movs	r0, #15
 101 004e FFF7FEFF 		bl	CyIntSetVector
 102              	.LVL12:
 276:Generated_Source\PSoC4/CapSense.c ****         CyIntSetPriority(CapSense_ISR_NUMBER, CapSense_ISR_PRIORITY);
 103              		.loc 1 276 0
 104 0052 0321     		movs	r1, #3
 105 0054 0F20     		movs	r0, #15
 106 0056 FFF7FEFF 		bl	CyIntSetPriority
 107              	.LVL13:
 277:Generated_Source\PSoC4/CapSense.c ****     #endif /* (CY_EXTERNAL_INTERRUPT_CONFIG) */
 278:Generated_Source\PSoC4/CapSense.c **** }
 108              		.loc 1 278 0
 109              		@ sp needed
 110 005a 70BD     		pop	{r4, r5, r6, pc}
 111              	.L3:
 112              		.align	2
 113              	.L2:
 114 005c 00FF0840 		.word	1074331392
 115 0060 00000000 		.word	CapSense_csdTrim1
 116 0064 62F1FF0F 		.word	268431714
 117 0068 00020001 		.word	16777728
 118 006c 08000840 		.word	1074266120
 119 0070 0008A001 		.word	27265024
 120 0074 04000840 		.word	1074266116
 121 0078 10000140 		.word	1073807376
ARM GAS  C:\Users\Ray\AppData\Local\Temp\ccn7U9Aq.s 			page 8


 122 007c FFF0FFFF 		.word	-3841
 123 0080 00000000 		.word	CapSense_ISR
 124              		.cfi_endproc
 125              	.LFE33:
 126              		.size	CapSense_CsdHwBlockInit, .-CapSense_CsdHwBlockInit
 127              		.section	.text.CapSense_Enable,"ax",%progbits
 128              		.align	2
 129              		.global	CapSense_Enable
 130              		.code	16
 131              		.thumb_func
 132              		.type	CapSense_Enable, %function
 133              	CapSense_Enable:
 134              	.LFB34:
 279:Generated_Source\PSoC4/CapSense.c **** 
 280:Generated_Source\PSoC4/CapSense.c **** 
 281:Generated_Source\PSoC4/CapSense.c **** /*******************************************************************************
 282:Generated_Source\PSoC4/CapSense.c **** * Function Name: CapSense_Enable
 283:Generated_Source\PSoC4/CapSense.c **** ********************************************************************************
 284:Generated_Source\PSoC4/CapSense.c **** *
 285:Generated_Source\PSoC4/CapSense.c **** * Summary:
 286:Generated_Source\PSoC4/CapSense.c **** *  Enables the CSD block and related resources to an active mode.
 287:Generated_Source\PSoC4/CapSense.c **** *
 288:Generated_Source\PSoC4/CapSense.c **** * Parameters:
 289:Generated_Source\PSoC4/CapSense.c **** *  None
 290:Generated_Source\PSoC4/CapSense.c **** *
 291:Generated_Source\PSoC4/CapSense.c **** * Return:
 292:Generated_Source\PSoC4/CapSense.c **** *  None
 293:Generated_Source\PSoC4/CapSense.c **** *
 294:Generated_Source\PSoC4/CapSense.c **** * Global Variables:
 295:Generated_Source\PSoC4/CapSense.c **** *  None.
 296:Generated_Source\PSoC4/CapSense.c **** *
 297:Generated_Source\PSoC4/CapSense.c **** * Side Effects:
 298:Generated_Source\PSoC4/CapSense.c **** *  None
 299:Generated_Source\PSoC4/CapSense.c **** *
 300:Generated_Source\PSoC4/CapSense.c **** *******************************************************************************/
 301:Generated_Source\PSoC4/CapSense.c **** void CapSense_Enable(void)
 302:Generated_Source\PSoC4/CapSense.c **** {
 135              		.loc 1 302 0
 136              		.cfi_startproc
 137              		@ args = 0, pretend = 0, frame = 0
 138              		@ frame_needed = 0, uses_anonymous_args = 0
 139 0000 10B5     		push	{r4, lr}
 140              		.cfi_def_cfa_offset 8
 141              		.cfi_offset 4, -8
 142              		.cfi_offset 14, -4
 303:Generated_Source\PSoC4/CapSense.c ****     uint32 newRegValue;
 304:Generated_Source\PSoC4/CapSense.c **** 
 305:Generated_Source\PSoC4/CapSense.c ****     /* Enable Clocks */
 306:Generated_Source\PSoC4/CapSense.c ****     CapSense_SenseClk_Stop();
 143              		.loc 1 306 0
 144 0002 FFF7FEFF 		bl	CapSense_SenseClk_Stop
 145              	.LVL14:
 307:Generated_Source\PSoC4/CapSense.c ****     CapSense_SampleClk_Stop();
 146              		.loc 1 307 0
 147 0006 FFF7FEFF 		bl	CapSense_SampleClk_Stop
 148              	.LVL15:
 308:Generated_Source\PSoC4/CapSense.c **** 
ARM GAS  C:\Users\Ray\AppData\Local\Temp\ccn7U9Aq.s 			page 9


 309:Generated_Source\PSoC4/CapSense.c ****     CapSense_SampleClk_SetDividerValue((uint16)CapSense_INITIAL_CLK_DIVIDER);
 149              		.loc 1 309 0
 150 000a 0021     		movs	r1, #0
 151 000c 0020     		movs	r0, #0
 152 000e FFF7FEFF 		bl	CapSense_SampleClk_SetFractionalDividerRegister
 153              	.LVL16:
 310:Generated_Source\PSoC4/CapSense.c ****     CapSense_SenseClk_SetDividerValue((uint16)CapSense_INITIAL_CLK_DIVIDER);
 154              		.loc 1 310 0
 155 0012 0021     		movs	r1, #0
 156 0014 0020     		movs	r0, #0
 157 0016 FFF7FEFF 		bl	CapSense_SenseClk_SetFractionalDividerRegister
 158              	.LVL17:
 311:Generated_Source\PSoC4/CapSense.c **** 
 312:Generated_Source\PSoC4/CapSense.c ****     #if (0u == CapSense_IS_M0S8PERI_BLOCK)
 313:Generated_Source\PSoC4/CapSense.c ****         CapSense_SenseClk_Start();
 159              		.loc 1 313 0
 160 001a FFF7FEFF 		bl	CapSense_SenseClk_Start
 161              	.LVL18:
 314:Generated_Source\PSoC4/CapSense.c ****         CapSense_SampleClk_Start();
 162              		.loc 1 314 0
 163 001e FFF7FEFF 		bl	CapSense_SampleClk_Start
 164              	.LVL19:
 315:Generated_Source\PSoC4/CapSense.c ****     #else
 316:Generated_Source\PSoC4/CapSense.c ****         CapSense_SampleClk_Start();
 317:Generated_Source\PSoC4/CapSense.c ****         CapSense_SenseClk_StartEx(CapSense_SampleClk__DIV_ID);
 318:Generated_Source\PSoC4/CapSense.c ****     #endif /* (0u == CapSense_IS_M0S8PERI_BLOCK) */
 319:Generated_Source\PSoC4/CapSense.c **** 
 320:Generated_Source\PSoC4/CapSense.c ****     /* Enable the CSD block */
 321:Generated_Source\PSoC4/CapSense.c ****     newRegValue = CapSense_CSD_CFG_REG;
 165              		.loc 1 321 0
 166 0022 044A     		ldr	r2, .L5
 167 0024 1368     		ldr	r3, [r2]
 168              	.LVL20:
 322:Generated_Source\PSoC4/CapSense.c ****     newRegValue |= (CapSense_CSD_CFG_ENABLE | CapSense_CSD_CFG_SENSE_COMP_EN
 169              		.loc 1 322 0
 170 0026 0449     		ldr	r1, .L5+4
 171 0028 0B43     		orrs	r3, r1
 172              	.LVL21:
 323:Generated_Source\PSoC4/CapSense.c ****                                                    | CapSense_CSD_CFG_SENSE_EN);
 324:Generated_Source\PSoC4/CapSense.c ****     CapSense_CSD_CFG_REG = newRegValue;
 173              		.loc 1 324 0
 174 002a 1360     		str	r3, [r2]
 325:Generated_Source\PSoC4/CapSense.c **** 
 326:Generated_Source\PSoC4/CapSense.c ****     /* Enable interrupt */
 327:Generated_Source\PSoC4/CapSense.c ****     CyIntEnable(CapSense_ISR_NUMBER);
 175              		.loc 1 327 0
 176 002c 0F20     		movs	r0, #15
 177 002e FFF7FEFF 		bl	CyIntEnable
 178              	.LVL22:
 328:Generated_Source\PSoC4/CapSense.c **** }
 179              		.loc 1 328 0
 180              		@ sp needed
 181 0032 10BD     		pop	{r4, pc}
 182              	.L6:
 183              		.align	2
 184              	.L5:
 185 0034 04000840 		.word	1074266116
ARM GAS  C:\Users\Ray\AppData\Local\Temp\ccn7U9Aq.s 			page 10


 186 0038 00100880 		.word	-2146955264
 187              		.cfi_endproc
 188              	.LFE34:
 189              		.size	CapSense_Enable, .-CapSense_Enable
 190              		.section	.text.CapSense_Stop,"ax",%progbits
 191              		.align	2
 192              		.global	CapSense_Stop
 193              		.code	16
 194              		.thumb_func
 195              		.type	CapSense_Stop, %function
 196              	CapSense_Stop:
 197              	.LFB36:
 329:Generated_Source\PSoC4/CapSense.c **** 
 330:Generated_Source\PSoC4/CapSense.c **** 
 331:Generated_Source\PSoC4/CapSense.c **** /*******************************************************************************
 332:Generated_Source\PSoC4/CapSense.c **** * Function Name: CapSense_Start
 333:Generated_Source\PSoC4/CapSense.c **** ********************************************************************************
 334:Generated_Source\PSoC4/CapSense.c **** *
 335:Generated_Source\PSoC4/CapSense.c **** * Summary:
 336:Generated_Source\PSoC4/CapSense.c **** *  This is the preferred method to begin the component operation. CapSense_Start()
 337:Generated_Source\PSoC4/CapSense.c **** *  calls the CapSense_Init() function, and then calls the CapSense_Enable()
 338:Generated_Source\PSoC4/CapSense.c **** *  function. Initializes the registers and starts the CSD method of the CapSense
 339:Generated_Source\PSoC4/CapSense.c **** *  component. Resets all the sensors to an inactive state. Enables interrupts for
 340:Generated_Source\PSoC4/CapSense.c **** *  sensors scanning. When the SmartSense tuning mode is selected, the tuning procedure
 341:Generated_Source\PSoC4/CapSense.c **** *  is applied for all the sensors. The CapSense_Start() routine must be called before
 342:Generated_Source\PSoC4/CapSense.c **** *  any other API routines.
 343:Generated_Source\PSoC4/CapSense.c **** *
 344:Generated_Source\PSoC4/CapSense.c **** * Parameters:
 345:Generated_Source\PSoC4/CapSense.c **** *  None
 346:Generated_Source\PSoC4/CapSense.c **** *
 347:Generated_Source\PSoC4/CapSense.c **** * Return:
 348:Generated_Source\PSoC4/CapSense.c **** *  None
 349:Generated_Source\PSoC4/CapSense.c **** *
 350:Generated_Source\PSoC4/CapSense.c **** * Global Variables:
 351:Generated_Source\PSoC4/CapSense.c **** *   CapSense_initVar - used to check the initial configuration,
 352:Generated_Source\PSoC4/CapSense.c **** *   modified on the first function call.
 353:Generated_Source\PSoC4/CapSense.c **** *  CapSense_lowLevelTuningDone - Used to notify the Tuner GUI that
 354:Generated_Source\PSoC4/CapSense.c **** *   tuning of the scanning parameters is done.
 355:Generated_Source\PSoC4/CapSense.c **** *
 356:Generated_Source\PSoC4/CapSense.c **** * Side Effects:
 357:Generated_Source\PSoC4/CapSense.c **** *  None
 358:Generated_Source\PSoC4/CapSense.c **** *
 359:Generated_Source\PSoC4/CapSense.c **** *******************************************************************************/
 360:Generated_Source\PSoC4/CapSense.c **** void CapSense_Start(void)
 361:Generated_Source\PSoC4/CapSense.c **** {
 362:Generated_Source\PSoC4/CapSense.c **** 
 363:Generated_Source\PSoC4/CapSense.c ****     static uint8 CapSense_initVar = 0u;
 364:Generated_Source\PSoC4/CapSense.c **** 
 365:Generated_Source\PSoC4/CapSense.c ****     #if((0u != CapSense_AUTOCALIBRATION_ENABLE) && (CapSense_TUNING_METHOD != CapSense__TUNING_AUTO
 366:Generated_Source\PSoC4/CapSense.c ****         uint32 curSensor;
 367:Generated_Source\PSoC4/CapSense.c ****         uint32 rawLevel;
 368:Generated_Source\PSoC4/CapSense.c ****         uint32 widget;
 369:Generated_Source\PSoC4/CapSense.c ****     #endif /* ((0u != CapSense_AUTOCALIBRATION_ENABLE) && (CapSense_TUNING_METHOD != CapSense__TUNI
 370:Generated_Source\PSoC4/CapSense.c **** 
 371:Generated_Source\PSoC4/CapSense.c ****     if (CapSense_initVar == 0u)
 372:Generated_Source\PSoC4/CapSense.c ****     {
 373:Generated_Source\PSoC4/CapSense.c ****         CapSense_Init();
ARM GAS  C:\Users\Ray\AppData\Local\Temp\ccn7U9Aq.s 			page 11


 374:Generated_Source\PSoC4/CapSense.c ****         CapSense_initVar = 1u;
 375:Generated_Source\PSoC4/CapSense.c ****     }
 376:Generated_Source\PSoC4/CapSense.c ****     CapSense_Enable();
 377:Generated_Source\PSoC4/CapSense.c **** 
 378:Generated_Source\PSoC4/CapSense.c ****     /* AutoTunning start */
 379:Generated_Source\PSoC4/CapSense.c ****     #if(CapSense_TUNING_METHOD == CapSense__TUNING_AUTO)
 380:Generated_Source\PSoC4/CapSense.c ****         #if(0u != CapSense_CSHL_API_GENERATE)
 381:Generated_Source\PSoC4/CapSense.c ****             CapSense_AutoTune();
 382:Generated_Source\PSoC4/CapSense.c ****             CapSense_lowLevelTuningDone = 1u;
 383:Generated_Source\PSoC4/CapSense.c ****         #endif /* (0u != CapSense_CSHL_API_GENERATE) */
 384:Generated_Source\PSoC4/CapSense.c ****     #else
 385:Generated_Source\PSoC4/CapSense.c ****         #if(0u != CapSense_AUTOCALIBRATION_ENABLE)
 386:Generated_Source\PSoC4/CapSense.c **** 
 387:Generated_Source\PSoC4/CapSense.c ****             #if(CapSense_IDAC_CNT > 1u)
 388:Generated_Source\PSoC4/CapSense.c ****                 CapSense_CSD_IDAC_REG &= ~(CapSense_CSD_IDAC2_MODE_MASK);
 389:Generated_Source\PSoC4/CapSense.c ****             #endif /* (CapSense_IDAC_CNT > 1u) */
 390:Generated_Source\PSoC4/CapSense.c **** 
 391:Generated_Source\PSoC4/CapSense.c ****             for(curSensor = 0u; curSensor < CapSense_TOTAL_SCANSLOT_COUNT; curSensor++)
 392:Generated_Source\PSoC4/CapSense.c ****             {
 393:Generated_Source\PSoC4/CapSense.c ****                 widget = CapSense_widgetNumber[curSensor];
 394:Generated_Source\PSoC4/CapSense.c ****                 rawLevel = CapSense_widgetResolution[widget] >> CapSense_RESOLUTION_OFFSET;
 395:Generated_Source\PSoC4/CapSense.c **** 
 396:Generated_Source\PSoC4/CapSense.c ****                 /* Calibration level should be equal to 85% from scanning resolution */
 397:Generated_Source\PSoC4/CapSense.c ****                 rawLevel = (rawLevel * 85u) / 100u;
 398:Generated_Source\PSoC4/CapSense.c **** 
 399:Generated_Source\PSoC4/CapSense.c ****                 CapSense_CalibrateSensor(curSensor, rawLevel, CapSense_modulationIDAC);
 400:Generated_Source\PSoC4/CapSense.c ****             }
 401:Generated_Source\PSoC4/CapSense.c **** 
 402:Generated_Source\PSoC4/CapSense.c ****             #if(0u != CapSense_TOTAL_CENTROIDS_COUNT)
 403:Generated_Source\PSoC4/CapSense.c ****                 CapSense_NormalizeWidgets(CapSense_END_OF_WIDGETS_INDEX, CapSense_modulationIDAC);
 404:Generated_Source\PSoC4/CapSense.c ****             #endif /* (0u != CapSense_TOTAL_CENTROIDS_COUNT)  */
 405:Generated_Source\PSoC4/CapSense.c **** 
 406:Generated_Source\PSoC4/CapSense.c ****             #if(CapSense_IDAC_CNT > 1u)
 407:Generated_Source\PSoC4/CapSense.c ****                 for(curSensor = 0u; curSensor < CapSense_TOTAL_SCANSLOT_COUNT; curSensor++)
 408:Generated_Source\PSoC4/CapSense.c ****                 {
 409:Generated_Source\PSoC4/CapSense.c ****                     CapSense_compensationIDAC[curSensor] = CapSense_modulationIDAC[curSensor] / 2u;
 410:Generated_Source\PSoC4/CapSense.c ****                     CapSense_modulationIDAC[curSensor] = (CapSense_modulationIDAC[curSensor] + 1u) 
 411:Generated_Source\PSoC4/CapSense.c ****                 }
 412:Generated_Source\PSoC4/CapSense.c ****                 CapSense_CSD_IDAC_REG |= CapSense_CSD_IDAC2_MODE_FIXED;
 413:Generated_Source\PSoC4/CapSense.c ****             #endif /* (CapSense_IDAC_CNT > 1u) */
 414:Generated_Source\PSoC4/CapSense.c **** 
 415:Generated_Source\PSoC4/CapSense.c ****         #endif /* (0u != CapSense_AUTOCALIBRATION_ENABLE) */
 416:Generated_Source\PSoC4/CapSense.c **** 
 417:Generated_Source\PSoC4/CapSense.c ****     #endif /* ((CapSense_TUNING_METHOD == CapSense__TUNING_AUTO) */
 418:Generated_Source\PSoC4/CapSense.c **** 
 419:Generated_Source\PSoC4/CapSense.c ****     /* Initialize Advanced Centroid */
 420:Generated_Source\PSoC4/CapSense.c ****     #if(CapSense_TOTAL_TRACKPAD_GESTURES_COUNT > 0u)
 421:Generated_Source\PSoC4/CapSense.c ****         CapSense_AdvancedCentroidInit();
 422:Generated_Source\PSoC4/CapSense.c ****     #endif /* (CapSense_TOTAL_TRACKPAD_GESTURES_COUNT > 0u) */
 423:Generated_Source\PSoC4/CapSense.c **** 
 424:Generated_Source\PSoC4/CapSense.c ****     /* Connect sense comparator input to AMUXA */
 425:Generated_Source\PSoC4/CapSense.c ****     CapSense_CSD_CFG_REG |= CapSense_CSD_CFG_SENSE_INSEL;
 426:Generated_Source\PSoC4/CapSense.c **** }
 427:Generated_Source\PSoC4/CapSense.c **** 
 428:Generated_Source\PSoC4/CapSense.c **** 
 429:Generated_Source\PSoC4/CapSense.c **** /*******************************************************************************
 430:Generated_Source\PSoC4/CapSense.c **** * Function Name: CapSense_Stop
ARM GAS  C:\Users\Ray\AppData\Local\Temp\ccn7U9Aq.s 			page 12


 431:Generated_Source\PSoC4/CapSense.c **** ********************************************************************************
 432:Generated_Source\PSoC4/CapSense.c **** *
 433:Generated_Source\PSoC4/CapSense.c **** * Summary:
 434:Generated_Source\PSoC4/CapSense.c **** *  Stops the sensor scanning, disables component interrupts, and resets all the
 435:Generated_Source\PSoC4/CapSense.c **** *  sensors to an inactive state. Disables the Active mode power template bits for
 436:Generated_Source\PSoC4/CapSense.c **** *  the subcomponents used within CapSense.
 437:Generated_Source\PSoC4/CapSense.c **** *
 438:Generated_Source\PSoC4/CapSense.c **** * Parameters:
 439:Generated_Source\PSoC4/CapSense.c **** *  None
 440:Generated_Source\PSoC4/CapSense.c **** *
 441:Generated_Source\PSoC4/CapSense.c **** * Return:
 442:Generated_Source\PSoC4/CapSense.c **** *  None
 443:Generated_Source\PSoC4/CapSense.c **** *
 444:Generated_Source\PSoC4/CapSense.c **** * Global Variables:
 445:Generated_Source\PSoC4/CapSense.c **** *  CapSense_csdTrim1 - Contains the IDAC trim register value for the Sourcing Mode.
 446:Generated_Source\PSoC4/CapSense.c **** *  CapSense_csdTrim2 - Contains the IDAC trim register value for vSinking Mode.
 447:Generated_Source\PSoC4/CapSense.c **** *
 448:Generated_Source\PSoC4/CapSense.c **** * Side Effects:
 449:Generated_Source\PSoC4/CapSense.c **** *  This function should be called after scans are completed.
 450:Generated_Source\PSoC4/CapSense.c **** *
 451:Generated_Source\PSoC4/CapSense.c **** *******************************************************************************/
 452:Generated_Source\PSoC4/CapSense.c **** void CapSense_Stop(void)
 453:Generated_Source\PSoC4/CapSense.c **** {
 198              		.loc 1 453 0
 199              		.cfi_startproc
 200              		@ args = 0, pretend = 0, frame = 0
 201              		@ frame_needed = 0, uses_anonymous_args = 0
 202 0000 10B5     		push	{r4, lr}
 203              		.cfi_def_cfa_offset 8
 204              		.cfi_offset 4, -8
 205              		.cfi_offset 14, -4
 454:Generated_Source\PSoC4/CapSense.c ****     /* Disable interrupt */
 455:Generated_Source\PSoC4/CapSense.c ****     CyIntDisable(CapSense_ISR_NUMBER);
 206              		.loc 1 455 0
 207 0002 0F20     		movs	r0, #15
 208 0004 FFF7FEFF 		bl	CyIntDisable
 209              	.LVL23:
 456:Generated_Source\PSoC4/CapSense.c **** 
 457:Generated_Source\PSoC4/CapSense.c ****     CapSense_CSD_CFG_REG &= ~(CapSense_CSD_CFG_SENSE_COMP_EN | CapSense_CSD_CFG_SENSE_EN);
 210              		.loc 1 457 0
 211 0008 064A     		ldr	r2, .L8
 212 000a 1168     		ldr	r1, [r2]
 213 000c 064B     		ldr	r3, .L8+4
 214 000e 0B40     		ands	r3, r1
 215 0010 1360     		str	r3, [r2]
 458:Generated_Source\PSoC4/CapSense.c **** 
 459:Generated_Source\PSoC4/CapSense.c ****     #if(CapSense_IDAC_CNT == 2u)
 460:Generated_Source\PSoC4/CapSense.c ****         CapSense_CSD_CFG_REG &= ~(CapSense_CSD_CFG_ENABLE);
 216              		.loc 1 460 0
 217 0012 1368     		ldr	r3, [r2]
 218 0014 5B00     		lsls	r3, r3, #1
 219 0016 5B08     		lsrs	r3, r3, #1
 220 0018 1360     		str	r3, [r2]
 461:Generated_Source\PSoC4/CapSense.c ****     #endif /* (CapSense_IDAC_CNT == 2u) */
 462:Generated_Source\PSoC4/CapSense.c **** 
 463:Generated_Source\PSoC4/CapSense.c ****     /* Disable the Clocks */
 464:Generated_Source\PSoC4/CapSense.c ****     CapSense_SenseClk_Stop();
ARM GAS  C:\Users\Ray\AppData\Local\Temp\ccn7U9Aq.s 			page 13


 221              		.loc 1 464 0
 222 001a FFF7FEFF 		bl	CapSense_SenseClk_Stop
 223              	.LVL24:
 465:Generated_Source\PSoC4/CapSense.c ****     CapSense_SampleClk_Stop();
 224              		.loc 1 465 0
 225 001e FFF7FEFF 		bl	CapSense_SampleClk_Stop
 226              	.LVL25:
 466:Generated_Source\PSoC4/CapSense.c **** }
 227              		.loc 1 466 0
 228              		@ sp needed
 229 0022 10BD     		pop	{r4, pc}
 230              	.L9:
 231              		.align	2
 232              	.L8:
 233 0024 04000840 		.word	1074266116
 234 0028 FFEFF7FF 		.word	-528385
 235              		.cfi_endproc
 236              	.LFE36:
 237              		.size	CapSense_Stop, .-CapSense_Stop
 238              		.section	.text.CapSense_IsBusy,"ax",%progbits
 239              		.align	2
 240              		.global	CapSense_IsBusy
 241              		.code	16
 242              		.thumb_func
 243              		.type	CapSense_IsBusy, %function
 244              	CapSense_IsBusy:
 245              	.LFB41:
 467:Generated_Source\PSoC4/CapSense.c **** 
 468:Generated_Source\PSoC4/CapSense.c **** 
 469:Generated_Source\PSoC4/CapSense.c **** /*******************************************************************************
 470:Generated_Source\PSoC4/CapSense.c **** * Function Name: CapSense_FindNextSensor
 471:Generated_Source\PSoC4/CapSense.c **** ********************************************************************************
 472:Generated_Source\PSoC4/CapSense.c **** *
 473:Generated_Source\PSoC4/CapSense.c **** * Summary:
 474:Generated_Source\PSoC4/CapSense.c **** *  Finds the next sensor to scan.
 475:Generated_Source\PSoC4/CapSense.c **** *
 476:Generated_Source\PSoC4/CapSense.c **** * Parameters:
 477:Generated_Source\PSoC4/CapSense.c **** *  snsIndex:  Current index of sensor.
 478:Generated_Source\PSoC4/CapSense.c **** *
 479:Generated_Source\PSoC4/CapSense.c **** * Return:
 480:Generated_Source\PSoC4/CapSense.c **** *  Returns the next sensor index to scan.
 481:Generated_Source\PSoC4/CapSense.c **** *
 482:Generated_Source\PSoC4/CapSense.c **** * Global Variables:
 483:Generated_Source\PSoC4/CapSense.c **** *  CapSense_sensorEnableMask[] - used to store bit masks of the enabled sensors.
 484:Generated_Source\PSoC4/CapSense.c **** *
 485:Generated_Source\PSoC4/CapSense.c **** * Side Effects:
 486:Generated_Source\PSoC4/CapSense.c **** *  This function affects the  current scanning and should not
 487:Generated_Source\PSoC4/CapSense.c **** *  be used outside the component.
 488:Generated_Source\PSoC4/CapSense.c **** *
 489:Generated_Source\PSoC4/CapSense.c **** *******************************************************************************/
 490:Generated_Source\PSoC4/CapSense.c **** uint8 CapSense_FindNextSensor(uint8 snsIndex)
 491:Generated_Source\PSoC4/CapSense.c **** {
 492:Generated_Source\PSoC4/CapSense.c ****     uint32 enableFlag;
 493:Generated_Source\PSoC4/CapSense.c **** 
 494:Generated_Source\PSoC4/CapSense.c ****     /* Check if sensor enabled */
 495:Generated_Source\PSoC4/CapSense.c ****     do
 496:Generated_Source\PSoC4/CapSense.c ****     {
ARM GAS  C:\Users\Ray\AppData\Local\Temp\ccn7U9Aq.s 			page 14


 497:Generated_Source\PSoC4/CapSense.c ****         /* Proceed with next sensor */
 498:Generated_Source\PSoC4/CapSense.c ****         snsIndex++;
 499:Generated_Source\PSoC4/CapSense.c ****         if(snsIndex == CapSense_TOTAL_SENSOR_COUNT)
 500:Generated_Source\PSoC4/CapSense.c ****         {
 501:Generated_Source\PSoC4/CapSense.c ****             break;
 502:Generated_Source\PSoC4/CapSense.c ****         }
 503:Generated_Source\PSoC4/CapSense.c ****         enableFlag = CapSense_GetBitValue(CapSense_sensorEnableMask, (uint32)snsIndex);
 504:Generated_Source\PSoC4/CapSense.c ****     }
 505:Generated_Source\PSoC4/CapSense.c ****     while(enableFlag == 0u);
 506:Generated_Source\PSoC4/CapSense.c **** 
 507:Generated_Source\PSoC4/CapSense.c ****     return ((uint8)snsIndex);
 508:Generated_Source\PSoC4/CapSense.c **** }
 509:Generated_Source\PSoC4/CapSense.c **** 
 510:Generated_Source\PSoC4/CapSense.c **** 
 511:Generated_Source\PSoC4/CapSense.c **** /*******************************************************************************
 512:Generated_Source\PSoC4/CapSense.c **** * Function Name: CapSense_ScanSensor
 513:Generated_Source\PSoC4/CapSense.c **** ********************************************************************************
 514:Generated_Source\PSoC4/CapSense.c **** *
 515:Generated_Source\PSoC4/CapSense.c **** * Summary:
 516:Generated_Source\PSoC4/CapSense.c **** *  Sets the scan settings and starts scanning a sensor. After scanning is complete,
 517:Generated_Source\PSoC4/CapSense.c **** *  the ISR copies the measured sensor raw data to the global raw sensor array.
 518:Generated_Source\PSoC4/CapSense.c **** *  Use of the ISR ensures this function is non-blocking.
 519:Generated_Source\PSoC4/CapSense.c **** *  Each sensor has a unique number within the sensor array.
 520:Generated_Source\PSoC4/CapSense.c **** *  This number is assigned by the CapSense customizer in sequence.
 521:Generated_Source\PSoC4/CapSense.c **** *
 522:Generated_Source\PSoC4/CapSense.c **** * Parameters:
 523:Generated_Source\PSoC4/CapSense.c **** *  sensor:  Sensor number.
 524:Generated_Source\PSoC4/CapSense.c **** *
 525:Generated_Source\PSoC4/CapSense.c **** * Return:
 526:Generated_Source\PSoC4/CapSense.c **** *  None
 527:Generated_Source\PSoC4/CapSense.c **** *
 528:Generated_Source\PSoC4/CapSense.c **** * Global Variables:
 529:Generated_Source\PSoC4/CapSense.c **** *  CapSense_csdStatusVar - used to provide the status and mode of the scanning process.
 530:Generated_Source\PSoC4/CapSense.c **** *  Sets the busy status(scan in progress) and mode of scan as single scan.
 531:Generated_Source\PSoC4/CapSense.c **** *  CapSense_sensorIndex - used to store a sensor scanning sensor number.
 532:Generated_Source\PSoC4/CapSense.c **** *  Sets to the provided sensor argument.
 533:Generated_Source\PSoC4/CapSense.c **** *
 534:Generated_Source\PSoC4/CapSense.c **** * Side Effects:
 535:Generated_Source\PSoC4/CapSense.c **** *  None
 536:Generated_Source\PSoC4/CapSense.c **** *
 537:Generated_Source\PSoC4/CapSense.c **** *******************************************************************************/
 538:Generated_Source\PSoC4/CapSense.c **** void CapSense_ScanSensor(uint32 sensor)
 539:Generated_Source\PSoC4/CapSense.c **** {
 540:Generated_Source\PSoC4/CapSense.c ****     /* Clears status/control variable and set sensorIndex */
 541:Generated_Source\PSoC4/CapSense.c ****     CapSense_csdStatusVar = 0u;
 542:Generated_Source\PSoC4/CapSense.c ****     CapSense_sensorIndex = (uint8)sensor;
 543:Generated_Source\PSoC4/CapSense.c **** 
 544:Generated_Source\PSoC4/CapSense.c ****     /* Start of sensor scan */
 545:Generated_Source\PSoC4/CapSense.c ****     CapSense_csdStatusVar = (CapSense_SW_STS_BUSY | CapSense_SW_CTRL_SINGLE_SCAN);
 546:Generated_Source\PSoC4/CapSense.c ****     CapSense_PreScan(sensor);
 547:Generated_Source\PSoC4/CapSense.c **** }
 548:Generated_Source\PSoC4/CapSense.c **** 
 549:Generated_Source\PSoC4/CapSense.c **** 
 550:Generated_Source\PSoC4/CapSense.c **** #if(0u != CapSense_CSHL_API_GENERATE)
 551:Generated_Source\PSoC4/CapSense.c **** /*******************************************************************************
 552:Generated_Source\PSoC4/CapSense.c **** * Function Name: CapSense_ScanWidget
 553:Generated_Source\PSoC4/CapSense.c **** ********************************************************************************
ARM GAS  C:\Users\Ray\AppData\Local\Temp\ccn7U9Aq.s 			page 15


 554:Generated_Source\PSoC4/CapSense.c **** *
 555:Generated_Source\PSoC4/CapSense.c **** * Summary:
 556:Generated_Source\PSoC4/CapSense.c **** *  Sets the scan settings and starts scanning a widget.
 557:Generated_Source\PSoC4/CapSense.c **** *
 558:Generated_Source\PSoC4/CapSense.c **** * Parameters:
 559:Generated_Source\PSoC4/CapSense.c **** *  uint32 widget: Widget number.
 560:Generated_Source\PSoC4/CapSense.c **** *
 561:Generated_Source\PSoC4/CapSense.c **** * Return:
 562:Generated_Source\PSoC4/CapSense.c **** *  None
 563:Generated_Source\PSoC4/CapSense.c **** *
 564:Generated_Source\PSoC4/CapSense.c **** * Global Variables:
 565:Generated_Source\PSoC4/CapSense.c **** *  CapSense_csdStatusVar - used to provide the status and mode of the scanning process.
 566:Generated_Source\PSoC4/CapSense.c **** *  Sets the busy status(scan in progress) and clears the single scan mode.
 567:Generated_Source\PSoC4/CapSense.c **** *  CapSense_sensorIndex - used to store a sensor scanning sensor number.
 568:Generated_Source\PSoC4/CapSense.c **** *  Sets to 0xFF and provided to function CapSense_FindNextSensor or
 569:Generated_Source\PSoC4/CapSense.c **** *  CapSense_sensorEnableMask[] - used to store bit masks of the enabled sensors.
 570:Generated_Source\PSoC4/CapSense.c **** *  CapSense_sensorEnableMaskBackup[] - used to backup bit masks of the enabled
 571:Generated_Source\PSoC4/CapSense.c **** *   sensors.
 572:Generated_Source\PSoC4/CapSense.c **** *
 573:Generated_Source\PSoC4/CapSense.c **** * Side Effects:
 574:Generated_Source\PSoC4/CapSense.c **** *  None
 575:Generated_Source\PSoC4/CapSense.c **** *
 576:Generated_Source\PSoC4/CapSense.c **** *******************************************************************************/
 577:Generated_Source\PSoC4/CapSense.c **** void CapSense_ScanWidget(uint32 widget)
 578:Generated_Source\PSoC4/CapSense.c **** {
 579:Generated_Source\PSoC4/CapSense.c ****     uint32 sensorsPerWidget;
 580:Generated_Source\PSoC4/CapSense.c ****     uint32 lastSensor;
 581:Generated_Source\PSoC4/CapSense.c ****     uint32 snsIndex;
 582:Generated_Source\PSoC4/CapSense.c **** 
 583:Generated_Source\PSoC4/CapSense.c ****     /* Get first sensor in widget */
 584:Generated_Source\PSoC4/CapSense.c ****     CapSense_sensorIndex = CapSense_rawDataIndex[widget];
 585:Generated_Source\PSoC4/CapSense.c **** 
 586:Generated_Source\PSoC4/CapSense.c ****     /* Get number of sensors in widget */
 587:Generated_Source\PSoC4/CapSense.c ****     sensorsPerWidget = CapSense_numberOfSensors[widget];
 588:Generated_Source\PSoC4/CapSense.c **** 
 589:Generated_Source\PSoC4/CapSense.c ****     /* Check if generic Sensor */
 590:Generated_Source\PSoC4/CapSense.c ****     if(sensorsPerWidget == 0u)
 591:Generated_Source\PSoC4/CapSense.c ****     {
 592:Generated_Source\PSoC4/CapSense.c ****         sensorsPerWidget = 1u;
 593:Generated_Source\PSoC4/CapSense.c ****     }
 594:Generated_Source\PSoC4/CapSense.c **** 
 595:Generated_Source\PSoC4/CapSense.c ****     /* Get last sensor in widget */
 596:Generated_Source\PSoC4/CapSense.c ****     lastSensor = (CapSense_rawDataIndex[widget] + sensorsPerWidget) - 1u;
 597:Generated_Source\PSoC4/CapSense.c **** 
 598:Generated_Source\PSoC4/CapSense.c ****     /* Backup sensorEnableMask array */
 599:Generated_Source\PSoC4/CapSense.c ****     for(snsIndex = 0u; snsIndex < CapSense_TOTAL_SENSOR_MASK; snsIndex++)
 600:Generated_Source\PSoC4/CapSense.c ****     {
 601:Generated_Source\PSoC4/CapSense.c ****         /* Backup sensorEnableMask array */
 602:Generated_Source\PSoC4/CapSense.c ****         CapSense_sensorEnableMaskBackup[snsIndex] = CapSense_sensorEnableMask[snsIndex];
 603:Generated_Source\PSoC4/CapSense.c ****     }
 604:Generated_Source\PSoC4/CapSense.c **** 
 605:Generated_Source\PSoC4/CapSense.c ****     /* Update sensorEnableMask to scan the sensors that belong to widget */
 606:Generated_Source\PSoC4/CapSense.c ****     for(snsIndex = 0u; snsIndex < CapSense_TOTAL_SENSOR_COUNT; snsIndex++)
 607:Generated_Source\PSoC4/CapSense.c ****     {
 608:Generated_Source\PSoC4/CapSense.c ****         /* Update sensorEnableMask array bits to scan the widget only */
 609:Generated_Source\PSoC4/CapSense.c ****         if((snsIndex >= CapSense_sensorIndex) && (snsIndex <= lastSensor))
 610:Generated_Source\PSoC4/CapSense.c ****         {
ARM GAS  C:\Users\Ray\AppData\Local\Temp\ccn7U9Aq.s 			page 16


 611:Generated_Source\PSoC4/CapSense.c ****             /* Set sensor bit to scan */
 612:Generated_Source\PSoC4/CapSense.c ****             CapSense_SetBitValue(CapSense_sensorEnableMask, snsIndex, 1u);
 613:Generated_Source\PSoC4/CapSense.c ****         }
 614:Generated_Source\PSoC4/CapSense.c ****         else
 615:Generated_Source\PSoC4/CapSense.c ****         {
 616:Generated_Source\PSoC4/CapSense.c ****             /* Reset sensor bit to do not scan */
 617:Generated_Source\PSoC4/CapSense.c ****             CapSense_SetBitValue(CapSense_sensorEnableMask, snsIndex, 0u);
 618:Generated_Source\PSoC4/CapSense.c ****         }
 619:Generated_Source\PSoC4/CapSense.c ****     }
 620:Generated_Source\PSoC4/CapSense.c **** 
 621:Generated_Source\PSoC4/CapSense.c ****     /* Check end of scan condition */
 622:Generated_Source\PSoC4/CapSense.c ****     if(CapSense_sensorIndex < CapSense_TOTAL_SENSOR_COUNT)
 623:Generated_Source\PSoC4/CapSense.c ****     {
 624:Generated_Source\PSoC4/CapSense.c ****         /* Set widget busy bit in status/control variable*/
 625:Generated_Source\PSoC4/CapSense.c ****         CapSense_csdStatusVar = (CapSense_SW_STS_BUSY | CapSense_SW_CTRL_WIDGET_SCAN);
 626:Generated_Source\PSoC4/CapSense.c ****         /* Scan first sensor of widget*/
 627:Generated_Source\PSoC4/CapSense.c ****         CapSense_PreScan((uint32)CapSense_sensorIndex);
 628:Generated_Source\PSoC4/CapSense.c ****     }
 629:Generated_Source\PSoC4/CapSense.c **** }
 630:Generated_Source\PSoC4/CapSense.c **** #endif /* (0u != CapSense_CSHL_API_GENERATE) */
 631:Generated_Source\PSoC4/CapSense.c **** 
 632:Generated_Source\PSoC4/CapSense.c **** 
 633:Generated_Source\PSoC4/CapSense.c **** /*******************************************************************************
 634:Generated_Source\PSoC4/CapSense.c **** * Function Name: CapSense_ScanEnableWidgets
 635:Generated_Source\PSoC4/CapSense.c **** ********************************************************************************
 636:Generated_Source\PSoC4/CapSense.c **** *
 637:Generated_Source\PSoC4/CapSense.c **** * Summary:
 638:Generated_Source\PSoC4/CapSense.c **** *  This is the preferred method to scan all of the enabled widgets.
 639:Generated_Source\PSoC4/CapSense.c **** *  The API starts scanning a sensor within the enabled widgets.
 640:Generated_Source\PSoC4/CapSense.c **** *  The ISR continues scanning the sensors until all the enabled widgets are scanned.
 641:Generated_Source\PSoC4/CapSense.c **** *  Use of the ISR ensures this function is non-blocking.
 642:Generated_Source\PSoC4/CapSense.c **** *  All the widgets are enabled by default except proximity widgets.
 643:Generated_Source\PSoC4/CapSense.c **** *  The proximity widgets must be manually enabled as their long scan time
 644:Generated_Source\PSoC4/CapSense.c **** *  is incompatible with a fast response required of other widget types.
 645:Generated_Source\PSoC4/CapSense.c **** *
 646:Generated_Source\PSoC4/CapSense.c **** * Parameters:
 647:Generated_Source\PSoC4/CapSense.c **** *  None
 648:Generated_Source\PSoC4/CapSense.c **** *
 649:Generated_Source\PSoC4/CapSense.c **** * Return:
 650:Generated_Source\PSoC4/CapSense.c **** *  None
 651:Generated_Source\PSoC4/CapSense.c **** *
 652:Generated_Source\PSoC4/CapSense.c **** * Global Variables:
 653:Generated_Source\PSoC4/CapSense.c **** *  CapSense_csdStatusVar - used to provide the status and mode of the scanning process.
 654:Generated_Source\PSoC4/CapSense.c **** *  Sets the busy status(scan in progress) and clears the single scan mode.
 655:Generated_Source\PSoC4/CapSense.c **** *  CapSense_sensorIndex - used to store a sensor scanning sensor number.
 656:Generated_Source\PSoC4/CapSense.c **** *  Sets to 0xFF and provided to function CapSense_FindNextSensor or
 657:Generated_Source\PSoC4/CapSense.c **** *
 658:Generated_Source\PSoC4/CapSense.c **** * Side Effects:
 659:Generated_Source\PSoC4/CapSense.c **** *  None
 660:Generated_Source\PSoC4/CapSense.c **** *
 661:Generated_Source\PSoC4/CapSense.c **** *******************************************************************************/
 662:Generated_Source\PSoC4/CapSense.c **** void CapSense_ScanEnabledWidgets(void)
 663:Generated_Source\PSoC4/CapSense.c **** {
 664:Generated_Source\PSoC4/CapSense.c ****     /* Clears status/control variable and set sensorIndex */
 665:Generated_Source\PSoC4/CapSense.c ****     CapSense_csdStatusVar = 0u;
 666:Generated_Source\PSoC4/CapSense.c ****     CapSense_sensorIndex = 0xFFu;
 667:Generated_Source\PSoC4/CapSense.c **** 
ARM GAS  C:\Users\Ray\AppData\Local\Temp\ccn7U9Aq.s 			page 17


 668:Generated_Source\PSoC4/CapSense.c ****     /* Find next sensor */
 669:Generated_Source\PSoC4/CapSense.c ****     CapSense_sensorIndex = (uint8)CapSense_FindNextSensor(CapSense_sensorIndex);
 670:Generated_Source\PSoC4/CapSense.c **** 
 671:Generated_Source\PSoC4/CapSense.c ****     /* Check end of scan condition */
 672:Generated_Source\PSoC4/CapSense.c ****     if(CapSense_sensorIndex < CapSense_TOTAL_SENSOR_COUNT)
 673:Generated_Source\PSoC4/CapSense.c ****     {
 674:Generated_Source\PSoC4/CapSense.c ****         CapSense_csdStatusVar |= CapSense_SW_STS_BUSY;
 675:Generated_Source\PSoC4/CapSense.c ****         CapSense_PreScan((uint32)CapSense_sensorIndex);
 676:Generated_Source\PSoC4/CapSense.c ****     }
 677:Generated_Source\PSoC4/CapSense.c **** }
 678:Generated_Source\PSoC4/CapSense.c **** 
 679:Generated_Source\PSoC4/CapSense.c **** 
 680:Generated_Source\PSoC4/CapSense.c **** /*******************************************************************************
 681:Generated_Source\PSoC4/CapSense.c **** * Function Name: CapSense_IsBusy
 682:Generated_Source\PSoC4/CapSense.c **** ********************************************************************************
 683:Generated_Source\PSoC4/CapSense.c **** *
 684:Generated_Source\PSoC4/CapSense.c **** * Summary:
 685:Generated_Source\PSoC4/CapSense.c **** *  Returns the state of the CapSense component. 1 means that scanning in
 686:Generated_Source\PSoC4/CapSense.c **** *  progress and 0 means that scanning is complete.
 687:Generated_Source\PSoC4/CapSense.c **** *
 688:Generated_Source\PSoC4/CapSense.c **** * Parameters:
 689:Generated_Source\PSoC4/CapSense.c **** *  None
 690:Generated_Source\PSoC4/CapSense.c **** *
 691:Generated_Source\PSoC4/CapSense.c **** * Return:
 692:Generated_Source\PSoC4/CapSense.c **** *  Returns the state of scanning. 1 - scanning in progress, 0 - scanning
 693:Generated_Source\PSoC4/CapSense.c **** *  completed.
 694:Generated_Source\PSoC4/CapSense.c **** *
 695:Generated_Source\PSoC4/CapSense.c **** * Global Variables:
 696:Generated_Source\PSoC4/CapSense.c **** *  CapSense_csdStatusVar - used to provide the status and mode of the scanning process.
 697:Generated_Source\PSoC4/CapSense.c **** *  Checks the busy status.
 698:Generated_Source\PSoC4/CapSense.c **** *
 699:Generated_Source\PSoC4/CapSense.c **** * Side Effects:
 700:Generated_Source\PSoC4/CapSense.c **** *  None
 701:Generated_Source\PSoC4/CapSense.c **** *
 702:Generated_Source\PSoC4/CapSense.c **** *******************************************************************************/
 703:Generated_Source\PSoC4/CapSense.c **** uint32 CapSense_IsBusy(void)
 704:Generated_Source\PSoC4/CapSense.c **** {
 246              		.loc 1 704 0
 247              		.cfi_startproc
 248              		@ args = 0, pretend = 0, frame = 0
 249              		@ frame_needed = 0, uses_anonymous_args = 0
 250              		@ link register save eliminated.
 705:Generated_Source\PSoC4/CapSense.c ****     return ((uint32)((0u != (CapSense_csdStatusVar & CapSense_SW_STS_BUSY)) ? 1u : 0u));
 251              		.loc 1 705 0
 252 0000 024B     		ldr	r3, .L11
 253 0002 1878     		ldrb	r0, [r3]
 254 0004 0123     		movs	r3, #1
 255 0006 1840     		ands	r0, r3
 706:Generated_Source\PSoC4/CapSense.c **** }
 256              		.loc 1 706 0
 257              		@ sp needed
 258 0008 7047     		bx	lr
 259              	.L12:
 260 000a C046     		.align	2
 261              	.L11:
 262 000c 00000000 		.word	.LANCHOR0
 263              		.cfi_endproc
ARM GAS  C:\Users\Ray\AppData\Local\Temp\ccn7U9Aq.s 			page 18


 264              	.LFE41:
 265              		.size	CapSense_IsBusy, .-CapSense_IsBusy
 266              		.section	.text.CapSense_ReadSensorRaw,"ax",%progbits
 267              		.align	2
 268              		.global	CapSense_ReadSensorRaw
 269              		.code	16
 270              		.thumb_func
 271              		.type	CapSense_ReadSensorRaw, %function
 272              	CapSense_ReadSensorRaw:
 273              	.LFB42:
 707:Generated_Source\PSoC4/CapSense.c **** 
 708:Generated_Source\PSoC4/CapSense.c **** 
 709:Generated_Source\PSoC4/CapSense.c **** /*******************************************************************************
 710:Generated_Source\PSoC4/CapSense.c **** * Function Name: CapSense_ReadSensorRaw
 711:Generated_Source\PSoC4/CapSense.c **** ********************************************************************************
 712:Generated_Source\PSoC4/CapSense.c **** *
 713:Generated_Source\PSoC4/CapSense.c **** * Summary:
 714:Generated_Source\PSoC4/CapSense.c **** *  Returns sensor raw data from the global CapSense_sensorRaw[ ] array.
 715:Generated_Source\PSoC4/CapSense.c **** *  Each scan sensor has a unique number within the sensor array.
 716:Generated_Source\PSoC4/CapSense.c **** *  This number is assigned by the CapSense customizer in sequence.
 717:Generated_Source\PSoC4/CapSense.c **** *  Raw data can be used to perform calculations outside of the CapSense
 718:Generated_Source\PSoC4/CapSense.c **** *  provided framework.
 719:Generated_Source\PSoC4/CapSense.c **** *
 720:Generated_Source\PSoC4/CapSense.c **** * Parameters:
 721:Generated_Source\PSoC4/CapSense.c **** *  sensor:  Sensor number.
 722:Generated_Source\PSoC4/CapSense.c **** *
 723:Generated_Source\PSoC4/CapSense.c **** * Return:
 724:Generated_Source\PSoC4/CapSense.c **** *  Returns the current raw data value for a defined sensor number.
 725:Generated_Source\PSoC4/CapSense.c **** *
 726:Generated_Source\PSoC4/CapSense.c **** * Global Variables:
 727:Generated_Source\PSoC4/CapSense.c **** *  CapSense_sensorRaw[] - used to store sensors raw data.
 728:Generated_Source\PSoC4/CapSense.c **** *
 729:Generated_Source\PSoC4/CapSense.c **** * Side Effects:
 730:Generated_Source\PSoC4/CapSense.c **** *  None
 731:Generated_Source\PSoC4/CapSense.c **** *
 732:Generated_Source\PSoC4/CapSense.c **** *******************************************************************************/
 733:Generated_Source\PSoC4/CapSense.c **** uint16 CapSense_ReadSensorRaw(uint32 sensor)
 734:Generated_Source\PSoC4/CapSense.c **** {
 274              		.loc 1 734 0
 275              		.cfi_startproc
 276              		@ args = 0, pretend = 0, frame = 0
 277              		@ frame_needed = 0, uses_anonymous_args = 0
 278              		@ link register save eliminated.
 279              	.LVL26:
 735:Generated_Source\PSoC4/CapSense.c ****     return CapSense_sensorRaw[sensor];
 280              		.loc 1 735 0
 281 0000 4000     		lsls	r0, r0, #1
 282              	.LVL27:
 283 0002 024B     		ldr	r3, .L14
 284 0004 1818     		adds	r0, r3, r0
 285 0006 8088     		ldrh	r0, [r0, #4]
 736:Generated_Source\PSoC4/CapSense.c **** }
 286              		.loc 1 736 0
 287              		@ sp needed
 288 0008 7047     		bx	lr
 289              	.L15:
 290 000a C046     		.align	2
ARM GAS  C:\Users\Ray\AppData\Local\Temp\ccn7U9Aq.s 			page 19


 291              	.L14:
 292 000c 00000000 		.word	.LANCHOR0
 293              		.cfi_endproc
 294              	.LFE42:
 295              		.size	CapSense_ReadSensorRaw, .-CapSense_ReadSensorRaw
 296              		.section	.text.CapSense_WriteSensorRaw,"ax",%progbits
 297              		.align	2
 298              		.global	CapSense_WriteSensorRaw
 299              		.code	16
 300              		.thumb_func
 301              		.type	CapSense_WriteSensorRaw, %function
 302              	CapSense_WriteSensorRaw:
 303              	.LFB43:
 737:Generated_Source\PSoC4/CapSense.c **** 
 738:Generated_Source\PSoC4/CapSense.c **** 
 739:Generated_Source\PSoC4/CapSense.c **** /*******************************************************************************
 740:Generated_Source\PSoC4/CapSense.c **** * Function Name: CapSense_WriteSensorRaw
 741:Generated_Source\PSoC4/CapSense.c **** ********************************************************************************
 742:Generated_Source\PSoC4/CapSense.c **** *
 743:Generated_Source\PSoC4/CapSense.c **** * Summary:
 744:Generated_Source\PSoC4/CapSense.c **** *  This API writes the raw count value passed as an argument to the sensor Raw count array.
 745:Generated_Source\PSoC4/CapSense.c **** *
 746:Generated_Source\PSoC4/CapSense.c **** * Parameters:
 747:Generated_Source\PSoC4/CapSense.c **** *  sensor:  Sensor number.
 748:Generated_Source\PSoC4/CapSense.c **** *  value: Raw count value.
 749:Generated_Source\PSoC4/CapSense.c **** *
 750:Generated_Source\PSoC4/CapSense.c **** * Global Variables:
 751:Generated_Source\PSoC4/CapSense.c **** *  CapSense_sensorRaw[] - used to store sensors raw data.
 752:Generated_Source\PSoC4/CapSense.c **** *
 753:Generated_Source\PSoC4/CapSense.c **** * Return:
 754:Generated_Source\PSoC4/CapSense.c **** *  None
 755:Generated_Source\PSoC4/CapSense.c **** *
 756:Generated_Source\PSoC4/CapSense.c **** * Side Effects:
 757:Generated_Source\PSoC4/CapSense.c **** *  None
 758:Generated_Source\PSoC4/CapSense.c **** *
 759:Generated_Source\PSoC4/CapSense.c **** *******************************************************************************/
 760:Generated_Source\PSoC4/CapSense.c **** void CapSense_WriteSensorRaw(uint32 sensor, uint16 value)
 761:Generated_Source\PSoC4/CapSense.c **** {
 304              		.loc 1 761 0
 305              		.cfi_startproc
 306              		@ args = 0, pretend = 0, frame = 0
 307              		@ frame_needed = 0, uses_anonymous_args = 0
 308              		@ link register save eliminated.
 309              	.LVL28:
 762:Generated_Source\PSoC4/CapSense.c ****     CapSense_sensorRaw[sensor] = value;
 310              		.loc 1 762 0
 311 0000 4000     		lsls	r0, r0, #1
 312              	.LVL29:
 313 0002 024B     		ldr	r3, .L17
 314 0004 1818     		adds	r0, r3, r0
 315 0006 8180     		strh	r1, [r0, #4]
 763:Generated_Source\PSoC4/CapSense.c **** }
 316              		.loc 1 763 0
 317              		@ sp needed
 318 0008 7047     		bx	lr
 319              	.L18:
 320 000a C046     		.align	2
ARM GAS  C:\Users\Ray\AppData\Local\Temp\ccn7U9Aq.s 			page 20


 321              	.L17:
 322 000c 00000000 		.word	.LANCHOR0
 323              		.cfi_endproc
 324              	.LFE43:
 325              		.size	CapSense_WriteSensorRaw, .-CapSense_WriteSensorRaw
 326              		.section	.text.CapSense_SetScanResolution,"ax",%progbits
 327              		.align	2
 328              		.global	CapSense_SetScanResolution
 329              		.code	16
 330              		.thumb_func
 331              		.type	CapSense_SetScanResolution, %function
 332              	CapSense_SetScanResolution:
 333              	.LFB44:
 764:Generated_Source\PSoC4/CapSense.c **** 
 765:Generated_Source\PSoC4/CapSense.c **** 
 766:Generated_Source\PSoC4/CapSense.c **** #if (CapSense_TUNING_METHOD != CapSense__TUNING_NONE)
 767:Generated_Source\PSoC4/CapSense.c ****     /*******************************************************************************
 768:Generated_Source\PSoC4/CapSense.c ****     * Function Name: CapSense_SetScanResolution
 769:Generated_Source\PSoC4/CapSense.c ****     ********************************************************************************
 770:Generated_Source\PSoC4/CapSense.c ****     *
 771:Generated_Source\PSoC4/CapSense.c ****     * Summary:
 772:Generated_Source\PSoC4/CapSense.c ****     *  Sets a value of the sensor scan resolution for a widget.
 773:Generated_Source\PSoC4/CapSense.c ****     *  The MIN resolution can be set 8-bit. The MAX Resolution can be set 16 bit.
 774:Generated_Source\PSoC4/CapSense.c ****     *  This function is not available for the tuning mode "None".
 775:Generated_Source\PSoC4/CapSense.c ****     *
 776:Generated_Source\PSoC4/CapSense.c ****     * Parameters:
 777:Generated_Source\PSoC4/CapSense.c ****     *  widget:     Widget index.
 778:Generated_Source\PSoC4/CapSense.c ****     *  resolution: Represents the resolution value. The following defines which are available in th
 779:Generated_Source\PSoC4/CapSense.c ****     *              CapSense.h file should be used:
 780:Generated_Source\PSoC4/CapSense.c ****     *              CapSense_RESOLUTION_6_BITS
 781:Generated_Source\PSoC4/CapSense.c ****     *              CapSense_RESOLUTION_7_BITS
 782:Generated_Source\PSoC4/CapSense.c ****     *              CapSense_RESOLUTION_8_BITS
 783:Generated_Source\PSoC4/CapSense.c ****     *              CapSense_RESOLUTION_9_BITS
 784:Generated_Source\PSoC4/CapSense.c ****     *              CapSense_RESOLUTION_10_BITS
 785:Generated_Source\PSoC4/CapSense.c ****     *              CapSense_RESOLUTION_11_BITS
 786:Generated_Source\PSoC4/CapSense.c ****     *              CapSense_RESOLUTION_12_BITS
 787:Generated_Source\PSoC4/CapSense.c ****     *              CapSense_RESOLUTION_13_BITS
 788:Generated_Source\PSoC4/CapSense.c ****     *              CapSense_RESOLUTION_14_BITS
 789:Generated_Source\PSoC4/CapSense.c ****     *              CapSense_RESOLUTION_15_BITS
 790:Generated_Source\PSoC4/CapSense.c ****     *              CapSense_RESOLUTION_16_BITS
 791:Generated_Source\PSoC4/CapSense.c ****     *
 792:Generated_Source\PSoC4/CapSense.c ****     * Return:
 793:Generated_Source\PSoC4/CapSense.c ****     *  None
 794:Generated_Source\PSoC4/CapSense.c ****     *
 795:Generated_Source\PSoC4/CapSense.c ****     * Global Variables:
 796:Generated_Source\PSoC4/CapSense.c ****     *  CapSense_widgetResolution[] - used to store scan resolution of each widget.
 797:Generated_Source\PSoC4/CapSense.c ****     *
 798:Generated_Source\PSoC4/CapSense.c ****     * Side Effects:
 799:Generated_Source\PSoC4/CapSense.c ****     *  None
 800:Generated_Source\PSoC4/CapSense.c ****     *
 801:Generated_Source\PSoC4/CapSense.c ****     *******************************************************************************/
 802:Generated_Source\PSoC4/CapSense.c ****     void CapSense_SetScanResolution(uint32 widget, uint32 resolution)
 803:Generated_Source\PSoC4/CapSense.c ****     {
 334              		.loc 1 803 0
 335              		.cfi_startproc
 336              		@ args = 0, pretend = 0, frame = 0
 337              		@ frame_needed = 0, uses_anonymous_args = 0
ARM GAS  C:\Users\Ray\AppData\Local\Temp\ccn7U9Aq.s 			page 21


 338              		@ link register save eliminated.
 339              	.LVL30:
 804:Generated_Source\PSoC4/CapSense.c ****         CapSense_widgetResolution[widget] = resolution;
 340              		.loc 1 804 0
 341 0000 8000     		lsls	r0, r0, #2
 342              	.LVL31:
 343 0002 014B     		ldr	r3, .L20
 344 0004 C150     		str	r1, [r0, r3]
 805:Generated_Source\PSoC4/CapSense.c ****     }
 345              		.loc 1 805 0
 346              		@ sp needed
 347 0006 7047     		bx	lr
 348              	.L21:
 349              		.align	2
 350              	.L20:
 351 0008 00000000 		.word	.LANCHOR1
 352              		.cfi_endproc
 353              	.LFE44:
 354              		.size	CapSense_SetScanResolution, .-CapSense_SetScanResolution
 355              		.section	.text.CapSense_GetScanResolution,"ax",%progbits
 356              		.align	2
 357              		.global	CapSense_GetScanResolution
 358              		.code	16
 359              		.thumb_func
 360              		.type	CapSense_GetScanResolution, %function
 361              	CapSense_GetScanResolution:
 362              	.LFB45:
 806:Generated_Source\PSoC4/CapSense.c **** #endif /* (CapSense_TUNING_METHOD != CapSense__TUNING_NONE) */
 807:Generated_Source\PSoC4/CapSense.c **** 
 808:Generated_Source\PSoC4/CapSense.c **** 
 809:Generated_Source\PSoC4/CapSense.c **** /*******************************************************************************
 810:Generated_Source\PSoC4/CapSense.c **** * Function Name: CapSense_GetScanResolution
 811:Generated_Source\PSoC4/CapSense.c **** ********************************************************************************
 812:Generated_Source\PSoC4/CapSense.c **** *
 813:Generated_Source\PSoC4/CapSense.c **** * Summary:
 814:Generated_Source\PSoC4/CapSense.c **** *  Returns the resolution value for the appropriate sensor.
 815:Generated_Source\PSoC4/CapSense.c **** *  This function is not available for tuning mode "None".
 816:Generated_Source\PSoC4/CapSense.c **** *
 817:Generated_Source\PSoC4/CapSense.c **** * Parameters:
 818:Generated_Source\PSoC4/CapSense.c **** *  widget:     Widget index.
 819:Generated_Source\PSoC4/CapSense.c **** *
 820:Generated_Source\PSoC4/CapSense.c **** * Return:
 821:Generated_Source\PSoC4/CapSense.c **** *  resolution: Returns the resolution value for the appropriate sensor.
 822:Generated_Source\PSoC4/CapSense.c **** *              The resolution values are defined in the CapSense.h file
 823:Generated_Source\PSoC4/CapSense.c **** *              The defines are encountered below:
 824:Generated_Source\PSoC4/CapSense.c **** *              CapSense_RESOLUTION_6_BITS
 825:Generated_Source\PSoC4/CapSense.c **** *              CapSense_RESOLUTION_7_BITS
 826:Generated_Source\PSoC4/CapSense.c **** *              CapSense_RESOLUTION_8_BITS
 827:Generated_Source\PSoC4/CapSense.c **** *              CapSense_RESOLUTION_9_BITS
 828:Generated_Source\PSoC4/CapSense.c **** *              CapSense_RESOLUTION_10_BITS
 829:Generated_Source\PSoC4/CapSense.c **** *              CapSense_RESOLUTION_11_BITS
 830:Generated_Source\PSoC4/CapSense.c **** *              CapSense_RESOLUTION_12_BITS
 831:Generated_Source\PSoC4/CapSense.c **** *              CapSense_RESOLUTION_13_BITS
 832:Generated_Source\PSoC4/CapSense.c **** *              CapSense_RESOLUTION_14_BITS
 833:Generated_Source\PSoC4/CapSense.c **** *              CapSense_RESOLUTION_15_BITS
 834:Generated_Source\PSoC4/CapSense.c **** *              CapSense_RESOLUTION_16_BITS
 835:Generated_Source\PSoC4/CapSense.c **** *
ARM GAS  C:\Users\Ray\AppData\Local\Temp\ccn7U9Aq.s 			page 22


 836:Generated_Source\PSoC4/CapSense.c **** * Global Variables:
 837:Generated_Source\PSoC4/CapSense.c **** *  CapSense_widgetResolution[] - used to store scan resolution of every widget.
 838:Generated_Source\PSoC4/CapSense.c **** *
 839:Generated_Source\PSoC4/CapSense.c **** * Side Effects:
 840:Generated_Source\PSoC4/CapSense.c **** *  None
 841:Generated_Source\PSoC4/CapSense.c **** *
 842:Generated_Source\PSoC4/CapSense.c **** *******************************************************************************/
 843:Generated_Source\PSoC4/CapSense.c **** uint32 CapSense_GetScanResolution(uint32 widget)
 844:Generated_Source\PSoC4/CapSense.c **** {
 363              		.loc 1 844 0
 364              		.cfi_startproc
 365              		@ args = 0, pretend = 0, frame = 0
 366              		@ frame_needed = 0, uses_anonymous_args = 0
 367              		@ link register save eliminated.
 368              	.LVL32:
 845:Generated_Source\PSoC4/CapSense.c ****     return(CapSense_widgetResolution[widget]);
 369              		.loc 1 845 0
 370 0000 8000     		lsls	r0, r0, #2
 371              	.LVL33:
 372 0002 014B     		ldr	r3, .L23
 373 0004 C058     		ldr	r0, [r0, r3]
 846:Generated_Source\PSoC4/CapSense.c **** }
 374              		.loc 1 846 0
 375              		@ sp needed
 376 0006 7047     		bx	lr
 377              	.L24:
 378              		.align	2
 379              	.L23:
 380 0008 00000000 		.word	.LANCHOR1
 381              		.cfi_endproc
 382              	.LFE45:
 383              		.size	CapSense_GetScanResolution, .-CapSense_GetScanResolution
 384              		.section	.text.CapSense_EnableSensor,"ax",%progbits
 385              		.align	2
 386              		.global	CapSense_EnableSensor
 387              		.code	16
 388              		.thumb_func
 389              		.type	CapSense_EnableSensor, %function
 390              	CapSense_EnableSensor:
 391              	.LFB47:
 847:Generated_Source\PSoC4/CapSense.c **** 
 848:Generated_Source\PSoC4/CapSense.c **** 
 849:Generated_Source\PSoC4/CapSense.c **** /*******************************************************************************
 850:Generated_Source\PSoC4/CapSense.c **** * Function Name: CapSense_ClearSensors
 851:Generated_Source\PSoC4/CapSense.c **** ********************************************************************************
 852:Generated_Source\PSoC4/CapSense.c **** *
 853:Generated_Source\PSoC4/CapSense.c **** * Summary:
 854:Generated_Source\PSoC4/CapSense.c **** *  Resets all the sensors to the non-sampling state by sequentially disconnecting
 855:Generated_Source\PSoC4/CapSense.c **** *  all the sensors from Analog MUX Bus and putting them to an inactive state.
 856:Generated_Source\PSoC4/CapSense.c **** *
 857:Generated_Source\PSoC4/CapSense.c **** * Parameters:
 858:Generated_Source\PSoC4/CapSense.c **** *  None
 859:Generated_Source\PSoC4/CapSense.c **** *
 860:Generated_Source\PSoC4/CapSense.c **** * Return:
 861:Generated_Source\PSoC4/CapSense.c **** *  None
 862:Generated_Source\PSoC4/CapSense.c **** *
 863:Generated_Source\PSoC4/CapSense.c **** * Global Variables:
ARM GAS  C:\Users\Ray\AppData\Local\Temp\ccn7U9Aq.s 			page 23


 864:Generated_Source\PSoC4/CapSense.c **** *  None
 865:Generated_Source\PSoC4/CapSense.c **** *
 866:Generated_Source\PSoC4/CapSense.c **** * Side Effects:
 867:Generated_Source\PSoC4/CapSense.c **** *  None
 868:Generated_Source\PSoC4/CapSense.c **** *
 869:Generated_Source\PSoC4/CapSense.c **** *******************************************************************************/
 870:Generated_Source\PSoC4/CapSense.c **** void CapSense_ClearSensors(void)
 871:Generated_Source\PSoC4/CapSense.c **** {
 872:Generated_Source\PSoC4/CapSense.c ****     uint32 snsIndex;
 873:Generated_Source\PSoC4/CapSense.c **** 
 874:Generated_Source\PSoC4/CapSense.c ****     for (snsIndex = 0u; snsIndex < CapSense_TOTAL_SENSOR_COUNT; snsIndex++)
 875:Generated_Source\PSoC4/CapSense.c ****     {
 876:Generated_Source\PSoC4/CapSense.c ****         CapSense_DisableScanSlot(snsIndex);
 877:Generated_Source\PSoC4/CapSense.c ****     }
 878:Generated_Source\PSoC4/CapSense.c **** }
 879:Generated_Source\PSoC4/CapSense.c **** 
 880:Generated_Source\PSoC4/CapSense.c **** 
 881:Generated_Source\PSoC4/CapSense.c **** #if (CapSense_IS_COMPLEX_SCANSLOTS)
 882:Generated_Source\PSoC4/CapSense.c ****     /*******************************************************************************
 883:Generated_Source\PSoC4/CapSense.c ****     * Function Name: CapSense_EnableScanSlot
 884:Generated_Source\PSoC4/CapSense.c ****     ********************************************************************************
 885:Generated_Source\PSoC4/CapSense.c ****     *
 886:Generated_Source\PSoC4/CapSense.c ****     * Summary:
 887:Generated_Source\PSoC4/CapSense.c ****     *  Configures the selected slot to measure during the next measurement
 888:Generated_Source\PSoC4/CapSense.c ****     *  cycle. The corresponding pin/pins are set to Analog High-Z mode and
 889:Generated_Source\PSoC4/CapSense.c ****     *  connected to the Analog Mux Bus. This also enables the comparator function.
 890:Generated_Source\PSoC4/CapSense.c ****     *
 891:Generated_Source\PSoC4/CapSense.c ****     * Parameters:
 892:Generated_Source\PSoC4/CapSense.c ****     *  slot:  Slot number.
 893:Generated_Source\PSoC4/CapSense.c ****     *
 894:Generated_Source\PSoC4/CapSense.c ****     * Return:
 895:Generated_Source\PSoC4/CapSense.c ****     *  None
 896:Generated_Source\PSoC4/CapSense.c ****     *
 897:Generated_Source\PSoC4/CapSense.c ****     * Global Constants:
 898:Generated_Source\PSoC4/CapSense.c ****     *  CapSense_portTable[]  - used to store the port number that pin
 899:Generated_Source\PSoC4/CapSense.c ****     *  belongs to for each sensor.
 900:Generated_Source\PSoC4/CapSense.c ****     *  CapSense_maskTable[]  - used to store the pin within the port for
 901:Generated_Source\PSoC4/CapSense.c ****     *  each sensor.
 902:Generated_Source\PSoC4/CapSense.c ****     *  CapSense_indexTable[] - used to store indexes of complex sensors.
 903:Generated_Source\PSoC4/CapSense.c ****     *  The offset and position in this array are stored in a port and mask table for
 904:Generated_Source\PSoC4/CapSense.c ****     *  complex sensors.
 905:Generated_Source\PSoC4/CapSense.c ****     *  Bit 7 (msb) is used to define the sensor type: single or complex.
 906:Generated_Source\PSoC4/CapSense.c ****     *
 907:Generated_Source\PSoC4/CapSense.c ****     * Side Effects:
 908:Generated_Source\PSoC4/CapSense.c ****     *  None
 909:Generated_Source\PSoC4/CapSense.c ****     *
 910:Generated_Source\PSoC4/CapSense.c ****     *******************************************************************************/
 911:Generated_Source\PSoC4/CapSense.c ****     void CapSense_EnableScanSlot(uint32 slot)
 912:Generated_Source\PSoC4/CapSense.c ****     {
 913:Generated_Source\PSoC4/CapSense.c ****         uint8 j;
 914:Generated_Source\PSoC4/CapSense.c ****         uint8 snsNumber;
 915:Generated_Source\PSoC4/CapSense.c ****         const uint8 *index;
 916:Generated_Source\PSoC4/CapSense.c ****         /* Read sensor type: single or complex */
 917:Generated_Source\PSoC4/CapSense.c ****         uint8 snsType = CapSense_portTable[slot];
 918:Generated_Source\PSoC4/CapSense.c **** 
 919:Generated_Source\PSoC4/CapSense.c ****         /* Check if sensor is complex */
 920:Generated_Source\PSoC4/CapSense.c ****         if ((snsType & CapSense_COMPLEX_SS_FLAG) == 0u)
ARM GAS  C:\Users\Ray\AppData\Local\Temp\ccn7U9Aq.s 			page 24


 921:Generated_Source\PSoC4/CapSense.c ****         {
 922:Generated_Source\PSoC4/CapSense.c ****             /* Enable sensor (single) */
 923:Generated_Source\PSoC4/CapSense.c ****             CapSense_EnableSensor(slot);
 924:Generated_Source\PSoC4/CapSense.c ****         }
 925:Generated_Source\PSoC4/CapSense.c ****         else
 926:Generated_Source\PSoC4/CapSense.c ****         {
 927:Generated_Source\PSoC4/CapSense.c ****             /* Enable complex sensor */
 928:Generated_Source\PSoC4/CapSense.c ****             snsType &= ~CapSense_COMPLEX_SS_FLAG;
 929:Generated_Source\PSoC4/CapSense.c ****             index = &CapSense_indexTable[snsType];
 930:Generated_Source\PSoC4/CapSense.c ****             snsNumber = CapSense_maskTable[slot];
 931:Generated_Source\PSoC4/CapSense.c **** 
 932:Generated_Source\PSoC4/CapSense.c ****             for (j = 0u; j < snsNumber; j++)
 933:Generated_Source\PSoC4/CapSense.c ****             {
 934:Generated_Source\PSoC4/CapSense.c ****                 CapSense_EnableSensor(index[j]);
 935:Generated_Source\PSoC4/CapSense.c ****             }
 936:Generated_Source\PSoC4/CapSense.c ****         }
 937:Generated_Source\PSoC4/CapSense.c ****     }
 938:Generated_Source\PSoC4/CapSense.c **** 
 939:Generated_Source\PSoC4/CapSense.c **** 
 940:Generated_Source\PSoC4/CapSense.c ****     /*******************************************************************************
 941:Generated_Source\PSoC4/CapSense.c ****     * Function Name: CapSense_DisableScanSlot
 942:Generated_Source\PSoC4/CapSense.c ****     ********************************************************************************
 943:Generated_Source\PSoC4/CapSense.c ****     *
 944:Generated_Source\PSoC4/CapSense.c ****     * Summary:
 945:Generated_Source\PSoC4/CapSense.c ****     *  Disables the selected slot. The corresponding pin/pins is/are disconnected
 946:Generated_Source\PSoC4/CapSense.c ****     *  from the Analog Mux Bus and connected to GND, High_Z or Shield electrode.
 947:Generated_Source\PSoC4/CapSense.c ****     *
 948:Generated_Source\PSoC4/CapSense.c ****     * Parameters:
 949:Generated_Source\PSoC4/CapSense.c ****     *  slot:  Slot number.
 950:Generated_Source\PSoC4/CapSense.c ****     *
 951:Generated_Source\PSoC4/CapSense.c ****     * Return:
 952:Generated_Source\PSoC4/CapSense.c ****     *  None
 953:Generated_Source\PSoC4/CapSense.c ****     *
 954:Generated_Source\PSoC4/CapSense.c ****     * Global Variables:
 955:Generated_Source\PSoC4/CapSense.c ****     *  CapSense_portTable[]  - used to store the port number that pin
 956:Generated_Source\PSoC4/CapSense.c ****     *  belongs to for each sensor.
 957:Generated_Source\PSoC4/CapSense.c ****     *  CapSense_maskTable[]  - used to store the pin within the port for
 958:Generated_Source\PSoC4/CapSense.c ****     *  each sensor.
 959:Generated_Source\PSoC4/CapSense.c ****     *  CapSense_indexTable[] - used to store indexes of complex sensors.
 960:Generated_Source\PSoC4/CapSense.c ****     *  The offset and position in this array are stored in a port and mask table for
 961:Generated_Source\PSoC4/CapSense.c ****     *  complex sensors.
 962:Generated_Source\PSoC4/CapSense.c ****     *  7bit(msb) is used to define the sensor type: single or complex.
 963:Generated_Source\PSoC4/CapSense.c ****     *
 964:Generated_Source\PSoC4/CapSense.c ****     * Side Effects:
 965:Generated_Source\PSoC4/CapSense.c ****     *  None
 966:Generated_Source\PSoC4/CapSense.c ****     *
 967:Generated_Source\PSoC4/CapSense.c ****     *******************************************************************************/
 968:Generated_Source\PSoC4/CapSense.c ****     void CapSense_DisableScanSlot(uint32 slot)
 969:Generated_Source\PSoC4/CapSense.c ****     {
 970:Generated_Source\PSoC4/CapSense.c ****         uint8 j;
 971:Generated_Source\PSoC4/CapSense.c ****         uint8 snsNumber;
 972:Generated_Source\PSoC4/CapSense.c ****         const uint8 *index;
 973:Generated_Source\PSoC4/CapSense.c **** 
 974:Generated_Source\PSoC4/CapSense.c ****         /* Read sensor type: single or complex */
 975:Generated_Source\PSoC4/CapSense.c ****         uint8 snsType = CapSense_portTable[slot];
 976:Generated_Source\PSoC4/CapSense.c **** 
 977:Generated_Source\PSoC4/CapSense.c ****         /* Check if sensor is complex */
ARM GAS  C:\Users\Ray\AppData\Local\Temp\ccn7U9Aq.s 			page 25


 978:Generated_Source\PSoC4/CapSense.c ****         if ((snsType & CapSense_COMPLEX_SS_FLAG) == 0u)
 979:Generated_Source\PSoC4/CapSense.c ****         {
 980:Generated_Source\PSoC4/CapSense.c ****             /* Disable sensor (single) */
 981:Generated_Source\PSoC4/CapSense.c ****             CapSense_DisableSensor(slot);
 982:Generated_Source\PSoC4/CapSense.c ****         }
 983:Generated_Source\PSoC4/CapSense.c ****         else
 984:Generated_Source\PSoC4/CapSense.c ****         {
 985:Generated_Source\PSoC4/CapSense.c ****             /* Disable complex sensor */
 986:Generated_Source\PSoC4/CapSense.c ****             snsType &= ~CapSense_COMPLEX_SS_FLAG;
 987:Generated_Source\PSoC4/CapSense.c ****             index = &CapSense_indexTable[snsType];
 988:Generated_Source\PSoC4/CapSense.c ****             snsNumber = CapSense_maskTable[slot];
 989:Generated_Source\PSoC4/CapSense.c **** 
 990:Generated_Source\PSoC4/CapSense.c ****             for (j=0; j < snsNumber; j++)
 991:Generated_Source\PSoC4/CapSense.c ****             {
 992:Generated_Source\PSoC4/CapSense.c ****                 CapSense_DisableSensor(index[j]);
 993:Generated_Source\PSoC4/CapSense.c ****             }
 994:Generated_Source\PSoC4/CapSense.c ****         }
 995:Generated_Source\PSoC4/CapSense.c ****     }
 996:Generated_Source\PSoC4/CapSense.c **** #endif  /* CapSense_IS_COMPLEX_SCANSLOTS */
 997:Generated_Source\PSoC4/CapSense.c **** 
 998:Generated_Source\PSoC4/CapSense.c **** 
 999:Generated_Source\PSoC4/CapSense.c **** /*******************************************************************************
1000:Generated_Source\PSoC4/CapSense.c **** * Function Name: CapSense_EnableSensor
1001:Generated_Source\PSoC4/CapSense.c **** ********************************************************************************
1002:Generated_Source\PSoC4/CapSense.c **** *
1003:Generated_Source\PSoC4/CapSense.c **** * Summary:
1004:Generated_Source\PSoC4/CapSense.c **** *  Configures the selected sensor to measure during the next measurement cycle.
1005:Generated_Source\PSoC4/CapSense.c **** *  The corresponding pins are set to Analog High-Z mode and connected to the
1006:Generated_Source\PSoC4/CapSense.c **** *  Analog Mux Bus. This also enables the comparator function.
1007:Generated_Source\PSoC4/CapSense.c **** *
1008:Generated_Source\PSoC4/CapSense.c **** * Parameters:
1009:Generated_Source\PSoC4/CapSense.c **** *  sensor:  Sensor number.
1010:Generated_Source\PSoC4/CapSense.c **** *
1011:Generated_Source\PSoC4/CapSense.c **** * Return:
1012:Generated_Source\PSoC4/CapSense.c **** *  None
1013:Generated_Source\PSoC4/CapSense.c **** *
1014:Generated_Source\PSoC4/CapSense.c **** * Global Variables:
1015:Generated_Source\PSoC4/CapSense.c **** *  CapSense_portTable[] - used to store the port number that pin
1016:Generated_Source\PSoC4/CapSense.c **** *  belongs to for each sensor.
1017:Generated_Source\PSoC4/CapSense.c **** *  CapSense_pinShiftTbl[] - used to store position of pin that
1018:Generated_Source\PSoC4/CapSense.c **** *  configured as sensor in port.
1019:Generated_Source\PSoC4/CapSense.c **** *  CapSense_prtSelTbl[] - Contains pointers to the HSIOM
1020:Generated_Source\PSoC4/CapSense.c **** *  registers for each port.
1021:Generated_Source\PSoC4/CapSense.c **** *  CapSense_PrtCfgTb[] - Contains pointers to the port config
1022:Generated_Source\PSoC4/CapSense.c **** *  registers for each port.
1023:Generated_Source\PSoC4/CapSense.c **** *
1024:Generated_Source\PSoC4/CapSense.c **** * Side Effects:
1025:Generated_Source\PSoC4/CapSense.c **** *  None
1026:Generated_Source\PSoC4/CapSense.c **** *
1027:Generated_Source\PSoC4/CapSense.c **** *******************************************************************************/
1028:Generated_Source\PSoC4/CapSense.c **** void CapSense_EnableSensor(uint32 sensor)
1029:Generated_Source\PSoC4/CapSense.c **** {
 392              		.loc 1 1029 0
 393              		.cfi_startproc
 394              		@ args = 0, pretend = 0, frame = 0
 395              		@ frame_needed = 0, uses_anonymous_args = 0
 396              	.LVL34:
ARM GAS  C:\Users\Ray\AppData\Local\Temp\ccn7U9Aq.s 			page 26


 397 0000 F8B5     		push	{r3, r4, r5, r6, r7, lr}
 398              		.cfi_def_cfa_offset 24
 399              		.cfi_offset 3, -24
 400              		.cfi_offset 4, -20
 401              		.cfi_offset 5, -16
 402              		.cfi_offset 6, -12
 403              		.cfi_offset 7, -8
 404              		.cfi_offset 14, -4
1030:Generated_Source\PSoC4/CapSense.c ****     uint8  pinModeShift;
1031:Generated_Source\PSoC4/CapSense.c ****     uint8  pinHSIOMShift;
1032:Generated_Source\PSoC4/CapSense.c ****     uint8 interruptState;
1033:Generated_Source\PSoC4/CapSense.c ****     uint32 newRegisterValue;
1034:Generated_Source\PSoC4/CapSense.c ****     uint32 port;
1035:Generated_Source\PSoC4/CapSense.c **** 
1036:Generated_Source\PSoC4/CapSense.c ****     port = (uint32) CapSense_portTable[sensor];
 405              		.loc 1 1036 0
 406 0002 104F     		ldr	r7, .L26
 407 0004 3E5C     		ldrb	r6, [r7, r0]
 408              	.LVL35:
1037:Generated_Source\PSoC4/CapSense.c ****     pinModeShift = CapSense_pinShiftTbl[sensor]  * CapSense_PC_PIN_CFG_SIZE;
 409              		.loc 1 1037 0
 410 0006 3818     		adds	r0, r7, r0
 411              	.LVL36:
 412 0008 0379     		ldrb	r3, [r0, #4]
 413 000a 5D00     		lsls	r5, r3, #1
 414 000c 5D19     		adds	r5, r3, r5
 415 000e EDB2     		uxtb	r5, r5
 416              	.LVL37:
1038:Generated_Source\PSoC4/CapSense.c ****     pinHSIOMShift = CapSense_pinShiftTbl[sensor] * CapSense_HSIOM_PIN_CFG_SIZE;
 417              		.loc 1 1038 0
 418 0010 9B00     		lsls	r3, r3, #2
 419 0012 DCB2     		uxtb	r4, r3
 420              	.LVL38:
1039:Generated_Source\PSoC4/CapSense.c **** 
1040:Generated_Source\PSoC4/CapSense.c ****     interruptState = CyEnterCriticalSection();
 421              		.loc 1 1040 0
 422 0014 FFF7FEFF 		bl	CyEnterCriticalSection
 423              	.LVL39:
1041:Generated_Source\PSoC4/CapSense.c **** 
1042:Generated_Source\PSoC4/CapSense.c ****     newRegisterValue = *CapSense_prtSelTbl[port];
 424              		.loc 1 1042 0
 425 0018 B300     		lsls	r3, r6, #2
 426 001a FB18     		adds	r3, r7, r3
 427 001c 9E68     		ldr	r6, [r3, #8]
 428              	.LVL40:
 429 001e 3268     		ldr	r2, [r6]
 430              	.LVL41:
1043:Generated_Source\PSoC4/CapSense.c ****     newRegisterValue &= ~(CapSense_CSD_HSIOM_MASK << pinHSIOMShift);
 431              		.loc 1 1043 0
 432 0020 0F21     		movs	r1, #15
 433 0022 A140     		lsls	r1, r1, r4
 434 0024 8A43     		bics	r2, r1
 435              	.LVL42:
 436 0026 1100     		movs	r1, r2
 437              	.LVL43:
1044:Generated_Source\PSoC4/CapSense.c ****     newRegisterValue |= (uint32)((uint32)CapSense_CSD_SENSE_PORT_MODE << pinHSIOMShift);
 438              		.loc 1 1044 0
ARM GAS  C:\Users\Ray\AppData\Local\Temp\ccn7U9Aq.s 			page 27


 439 0028 0422     		movs	r2, #4
 440 002a A240     		lsls	r2, r2, r4
 441 002c 0A43     		orrs	r2, r1
 442              	.LVL44:
1045:Generated_Source\PSoC4/CapSense.c **** 
1046:Generated_Source\PSoC4/CapSense.c ****     *CapSense_prtCfgTbl[port] &= (uint32)~((uint32)CapSense_CSD_PIN_MODE_MASK << pinModeShift);
 443              		.loc 1 1046 0
 444 002e DC69     		ldr	r4, [r3, #28]
 445              	.LVL45:
 446 0030 2368     		ldr	r3, [r4]
 447 0032 0721     		movs	r1, #7
 448 0034 A940     		lsls	r1, r1, r5
 449 0036 8B43     		bics	r3, r1
 450 0038 2360     		str	r3, [r4]
1047:Generated_Source\PSoC4/CapSense.c ****     *CapSense_prtSelTbl[port] = newRegisterValue;
 451              		.loc 1 1047 0
 452 003a 3260     		str	r2, [r6]
1048:Generated_Source\PSoC4/CapSense.c **** 
1049:Generated_Source\PSoC4/CapSense.c ****     CyExitCriticalSection(interruptState);
 453              		.loc 1 1049 0
 454 003c FFF7FEFF 		bl	CyExitCriticalSection
 455              	.LVL46:
1050:Generated_Source\PSoC4/CapSense.c **** }
 456              		.loc 1 1050 0
 457              		@ sp needed
 458              	.LVL47:
 459              	.LVL48:
 460 0040 F8BD     		pop	{r3, r4, r5, r6, r7, pc}
 461              	.L27:
 462 0042 C046     		.align	2
 463              	.L26:
 464 0044 00000000 		.word	.LANCHOR2
 465              		.cfi_endproc
 466              	.LFE47:
 467              		.size	CapSense_EnableSensor, .-CapSense_EnableSensor
 468              		.section	.text.CapSense_DisableSensor,"ax",%progbits
 469              		.align	2
 470              		.global	CapSense_DisableSensor
 471              		.code	16
 472              		.thumb_func
 473              		.type	CapSense_DisableSensor, %function
 474              	CapSense_DisableSensor:
 475              	.LFB48:
1051:Generated_Source\PSoC4/CapSense.c **** 
1052:Generated_Source\PSoC4/CapSense.c **** 
1053:Generated_Source\PSoC4/CapSense.c **** /*******************************************************************************
1054:Generated_Source\PSoC4/CapSense.c **** * Function Name: CapSense_DisableSensor
1055:Generated_Source\PSoC4/CapSense.c **** ********************************************************************************
1056:Generated_Source\PSoC4/CapSense.c **** *
1057:Generated_Source\PSoC4/CapSense.c **** * Summary:
1058:Generated_Source\PSoC4/CapSense.c **** *  Disables the selected sensor. The corresponding pin is disconnected from the
1059:Generated_Source\PSoC4/CapSense.c **** *  Analog Mux Bus and connected to GND, High_Z or Shield electrode.
1060:Generated_Source\PSoC4/CapSense.c **** *
1061:Generated_Source\PSoC4/CapSense.c **** * Parameters:
1062:Generated_Source\PSoC4/CapSense.c **** *  sensor:  Sensor number
1063:Generated_Source\PSoC4/CapSense.c **** *
1064:Generated_Source\PSoC4/CapSense.c **** * Return:
ARM GAS  C:\Users\Ray\AppData\Local\Temp\ccn7U9Aq.s 			page 28


1065:Generated_Source\PSoC4/CapSense.c **** *  None
1066:Generated_Source\PSoC4/CapSense.c **** *
1067:Generated_Source\PSoC4/CapSense.c **** * Global Variables:
1068:Generated_Source\PSoC4/CapSense.c **** *  CapSense_portTable[] - used to store the port number that pin
1069:Generated_Source\PSoC4/CapSense.c **** *  belongs to for each sensor.
1070:Generated_Source\PSoC4/CapSense.c **** *  CapSense_pinShiftTbl[] - used to store position of pin that
1071:Generated_Source\PSoC4/CapSense.c **** *  configured as a sensor in the port.
1072:Generated_Source\PSoC4/CapSense.c **** *  CapSense_prtSelTbl[] - Contains pointers to the HSIOM
1073:Generated_Source\PSoC4/CapSense.c **** *  registers for each port.
1074:Generated_Source\PSoC4/CapSense.c **** *  CapSense_PrtCfgTb[] - Contains pointers to the port config
1075:Generated_Source\PSoC4/CapSense.c **** *  registers for each port.
1076:Generated_Source\PSoC4/CapSense.c **** *
1077:Generated_Source\PSoC4/CapSense.c **** * Side Effects:
1078:Generated_Source\PSoC4/CapSense.c **** *  None
1079:Generated_Source\PSoC4/CapSense.c **** *
1080:Generated_Source\PSoC4/CapSense.c **** *******************************************************************************/
1081:Generated_Source\PSoC4/CapSense.c **** void CapSense_DisableSensor(uint32 sensor)
1082:Generated_Source\PSoC4/CapSense.c **** {
 476              		.loc 1 1082 0
 477              		.cfi_startproc
 478              		@ args = 0, pretend = 0, frame = 0
 479              		@ frame_needed = 0, uses_anonymous_args = 0
 480              	.LVL49:
 481 0000 F8B5     		push	{r3, r4, r5, r6, r7, lr}
 482              		.cfi_def_cfa_offset 24
 483              		.cfi_offset 3, -24
 484              		.cfi_offset 4, -20
 485              		.cfi_offset 5, -16
 486              		.cfi_offset 6, -12
 487              		.cfi_offset 7, -8
 488              		.cfi_offset 14, -4
1083:Generated_Source\PSoC4/CapSense.c ****     uint8 interruptState;
1084:Generated_Source\PSoC4/CapSense.c ****     uint32 newRegisterValue;
1085:Generated_Source\PSoC4/CapSense.c **** 
1086:Generated_Source\PSoC4/CapSense.c ****     uint32 port = (uint32) CapSense_portTable[sensor];
 489              		.loc 1 1086 0
 490 0002 194A     		ldr	r2, .L33
 491 0004 145C     		ldrb	r4, [r2, r0]
 492              	.LVL50:
1087:Generated_Source\PSoC4/CapSense.c ****     uint8  pinHSIOMShift = CapSense_pinShiftTbl[sensor] * CapSense_HSIOM_PIN_CFG_SIZE;
 493              		.loc 1 1087 0
 494 0006 1318     		adds	r3, r2, r0
 495 0008 1F79     		ldrb	r7, [r3, #4]
 496 000a B900     		lsls	r1, r7, #2
 497 000c C9B2     		uxtb	r1, r1
 498              	.LVL51:
1088:Generated_Source\PSoC4/CapSense.c ****     uint8  pinModeShift = CapSense_pinShiftTbl[sensor]  * CapSense_PC_PIN_CFG_SIZE;
 499              		.loc 1 1088 0
 500 000e 7D00     		lsls	r5, r7, #1
 501 0010 7D19     		adds	r5, r7, r5
 502 0012 EDB2     		uxtb	r5, r5
 503              	.LVL52:
1089:Generated_Source\PSoC4/CapSense.c **** 
1090:Generated_Source\PSoC4/CapSense.c ****     uint32 inactiveConnect = CapSense_SNS_HIZANALOG_CONNECT;
1091:Generated_Source\PSoC4/CapSense.c ****     uint32 sensorState = CapSense_unscannedSnsDriveMode[sensor];
 504              		.loc 1 1091 0
 505 0014 154B     		ldr	r3, .L33+4
ARM GAS  C:\Users\Ray\AppData\Local\Temp\ccn7U9Aq.s 			page 29


 506 0016 185C     		ldrb	r0, [r3, r0]
 507              	.LVL53:
1092:Generated_Source\PSoC4/CapSense.c **** 
1093:Generated_Source\PSoC4/CapSense.c ****     *CapSense_prtSelTbl[port] &= ~(CapSense_CSD_HSIOM_MASK << pinHSIOMShift);
 508              		.loc 1 1093 0
 509 0018 A300     		lsls	r3, r4, #2
 510 001a D318     		adds	r3, r2, r3
 511 001c 9E68     		ldr	r6, [r3, #8]
 512 001e 3368     		ldr	r3, [r6]
 513 0020 0F22     		movs	r2, #15
 514 0022 8A40     		lsls	r2, r2, r1
 515 0024 9343     		bics	r3, r2
 516 0026 3360     		str	r3, [r6]
1094:Generated_Source\PSoC4/CapSense.c **** 
1095:Generated_Source\PSoC4/CapSense.c ****     #if(CapSense_IS_SHIELD_ENABLE != 0)
1096:Generated_Source\PSoC4/CapSense.c ****     if(sensorState != (uint32)CapSense__SHIELD)
1097:Generated_Source\PSoC4/CapSense.c ****     {
1098:Generated_Source\PSoC4/CapSense.c ****     #else
1099:Generated_Source\PSoC4/CapSense.c ****         /* Connected to Ground if shield is disabled */
1100:Generated_Source\PSoC4/CapSense.c ****         if(sensorState == (uint32)CapSense__SHIELD)
 517              		.loc 1 1100 0
 518 0028 0228     		cmp	r0, #2
 519 002a 00D1     		bne	.L29
1101:Generated_Source\PSoC4/CapSense.c ****         {
1102:Generated_Source\PSoC4/CapSense.c ****             sensorState = (uint32)CapSense__GROUND;
 520              		.loc 1 1102 0
 521 002c 0020     		movs	r0, #0
 522              	.LVL54:
 523              	.L29:
1103:Generated_Source\PSoC4/CapSense.c ****         }
1104:Generated_Source\PSoC4/CapSense.c ****     #endif /* (CapSense_IS_SHIELD_ENABLE) */
1105:Generated_Source\PSoC4/CapSense.c ****         if(sensorState != (uint32)CapSense__HIZ_ANALOG)
 524              		.loc 1 1105 0
 525 002e 0128     		cmp	r0, #1
 526 0030 01D1     		bne	.L32
1090:Generated_Source\PSoC4/CapSense.c ****     uint32 sensorState = CapSense_unscannedSnsDriveMode[sensor];
 527              		.loc 1 1090 0
 528 0032 0026     		movs	r6, #0
 529 0034 00E0     		b	.L30
 530              	.L32:
1106:Generated_Source\PSoC4/CapSense.c ****         {
1107:Generated_Source\PSoC4/CapSense.c ****             /* Connected to Ground */
1108:Generated_Source\PSoC4/CapSense.c ****             inactiveConnect = (uint32)CapSense_SNS_GROUND_CONNECT;
 531              		.loc 1 1108 0
 532 0036 0626     		movs	r6, #6
 533              	.L30:
 534              	.LVL55:
1109:Generated_Source\PSoC4/CapSense.c ****         }
1110:Generated_Source\PSoC4/CapSense.c **** 
1111:Generated_Source\PSoC4/CapSense.c ****         interruptState = CyEnterCriticalSection();
 535              		.loc 1 1111 0
 536 0038 FFF7FEFF 		bl	CyEnterCriticalSection
 537              	.LVL56:
1112:Generated_Source\PSoC4/CapSense.c **** 
1113:Generated_Source\PSoC4/CapSense.c ****         /* Set drive mode */
1114:Generated_Source\PSoC4/CapSense.c ****         newRegisterValue = *CapSense_prtCfgTbl[port];
 538              		.loc 1 1114 0
ARM GAS  C:\Users\Ray\AppData\Local\Temp\ccn7U9Aq.s 			page 30


 539 003c A400     		lsls	r4, r4, #2
 540              	.LVL57:
 541 003e 0A4B     		ldr	r3, .L33
 542              	.LVL58:
 543 0040 1C19     		adds	r4, r3, r4
 544 0042 E169     		ldr	r1, [r4, #28]
 545 0044 0B68     		ldr	r3, [r1]
 546              	.LVL59:
1115:Generated_Source\PSoC4/CapSense.c ****         newRegisterValue &= ~(CapSense_CSD_PIN_MODE_MASK << pinModeShift);
 547              		.loc 1 1115 0
 548 0046 0722     		movs	r2, #7
 549 0048 AA40     		lsls	r2, r2, r5
 550 004a 9343     		bics	r3, r2
 551              	.LVL60:
 552 004c 1A00     		movs	r2, r3
 553              	.LVL61:
1116:Generated_Source\PSoC4/CapSense.c ****         newRegisterValue |=  (uint32)(inactiveConnect << pinModeShift);
 554              		.loc 1 1116 0
 555 004e 3300     		movs	r3, r6
 556 0050 AB40     		lsls	r3, r3, r5
 557 0052 1343     		orrs	r3, r2
 558              	.LVL62:
1117:Generated_Source\PSoC4/CapSense.c ****         *CapSense_prtCfgTbl[port] =  newRegisterValue;
 559              		.loc 1 1117 0
 560 0054 0B60     		str	r3, [r1]
1118:Generated_Source\PSoC4/CapSense.c **** 
1119:Generated_Source\PSoC4/CapSense.c ****         CyExitCriticalSection(interruptState);
 561              		.loc 1 1119 0
 562 0056 FFF7FEFF 		bl	CyExitCriticalSection
 563              	.LVL63:
1120:Generated_Source\PSoC4/CapSense.c **** 
1121:Generated_Source\PSoC4/CapSense.c ****         *CapSense_prtDRTbl[port]  &=  (uint32)~(uint32)((uint32)1u << CapSense_pinShiftTbl[sensor])
 564              		.loc 1 1121 0
 565 005a 216B     		ldr	r1, [r4, #48]
 566 005c 0B68     		ldr	r3, [r1]
 567 005e 0122     		movs	r2, #1
 568 0060 BA40     		lsls	r2, r2, r7
 569 0062 9343     		bics	r3, r2
 570 0064 0B60     		str	r3, [r1]
1122:Generated_Source\PSoC4/CapSense.c ****     #if(CapSense_IS_SHIELD_ENABLE != 0)
1123:Generated_Source\PSoC4/CapSense.c ****     }
1124:Generated_Source\PSoC4/CapSense.c ****     else
1125:Generated_Source\PSoC4/CapSense.c ****     {
1126:Generated_Source\PSoC4/CapSense.c ****         /* Connect to Shield */
1127:Generated_Source\PSoC4/CapSense.c ****         *CapSense_prtSelTbl[port] |= (CapSense_CSD_SHIELD_PORT_MODE << pinHSIOMShift);
1128:Generated_Source\PSoC4/CapSense.c ****     }
1129:Generated_Source\PSoC4/CapSense.c ****     #endif /* (CapSense_IS_SHIELD_ENABLE) */
1130:Generated_Source\PSoC4/CapSense.c **** }
 571              		.loc 1 1130 0
 572              		@ sp needed
 573              	.LVL64:
 574              	.LVL65:
 575              	.LVL66:
 576 0066 F8BD     		pop	{r3, r4, r5, r6, r7, pc}
 577              	.L34:
 578              		.align	2
 579              	.L33:
ARM GAS  C:\Users\Ray\AppData\Local\Temp\ccn7U9Aq.s 			page 31


 580 0068 00000000 		.word	.LANCHOR2
 581 006c 00000000 		.word	CapSense_unscannedSnsDriveMode
 582              		.cfi_endproc
 583              	.LFE48:
 584              		.size	CapSense_DisableSensor, .-CapSense_DisableSensor
 585              		.section	.text.CapSense_ClearSensors,"ax",%progbits
 586              		.align	2
 587              		.global	CapSense_ClearSensors
 588              		.code	16
 589              		.thumb_func
 590              		.type	CapSense_ClearSensors, %function
 591              	CapSense_ClearSensors:
 592              	.LFB46:
 871:Generated_Source\PSoC4/CapSense.c ****     uint32 snsIndex;
 593              		.loc 1 871 0
 594              		.cfi_startproc
 595              		@ args = 0, pretend = 0, frame = 0
 596              		@ frame_needed = 0, uses_anonymous_args = 0
 597 0000 10B5     		push	{r4, lr}
 598              		.cfi_def_cfa_offset 8
 599              		.cfi_offset 4, -8
 600              		.cfi_offset 14, -4
 601              	.LVL67:
 874:Generated_Source\PSoC4/CapSense.c ****     {
 602              		.loc 1 874 0
 603 0002 0024     		movs	r4, #0
 604 0004 03E0     		b	.L36
 605              	.LVL68:
 606              	.L37:
 876:Generated_Source\PSoC4/CapSense.c ****     }
 607              		.loc 1 876 0 discriminator 3
 608 0006 2000     		movs	r0, r4
 609 0008 FFF7FEFF 		bl	CapSense_DisableSensor
 610              	.LVL69:
 874:Generated_Source\PSoC4/CapSense.c ****     {
 611              		.loc 1 874 0 discriminator 3
 612 000c 0134     		adds	r4, r4, #1
 613              	.LVL70:
 614              	.L36:
 874:Generated_Source\PSoC4/CapSense.c ****     {
 615              		.loc 1 874 0 is_stmt 0 discriminator 1
 616 000e 012C     		cmp	r4, #1
 617 0010 F9D9     		bls	.L37
 878:Generated_Source\PSoC4/CapSense.c **** 
 618              		.loc 1 878 0 is_stmt 1
 619              		@ sp needed
 620              	.LVL71:
 621 0012 10BD     		pop	{r4, pc}
 622              		.cfi_endproc
 623              	.LFE46:
 624              		.size	CapSense_ClearSensors, .-CapSense_ClearSensors
 625              		.section	.text.CapSense_SetPinDriveMode,"ax",%progbits
 626              		.align	2
 627              		.global	CapSense_SetPinDriveMode
 628              		.code	16
 629              		.thumb_func
 630              		.type	CapSense_SetPinDriveMode, %function
ARM GAS  C:\Users\Ray\AppData\Local\Temp\ccn7U9Aq.s 			page 32


 631              	CapSense_SetPinDriveMode:
 632              	.LFB51:
1131:Generated_Source\PSoC4/CapSense.c **** 
1132:Generated_Source\PSoC4/CapSense.c **** 
1133:Generated_Source\PSoC4/CapSense.c **** /*******************************************************************************
1134:Generated_Source\PSoC4/CapSense.c **** * Function Name: CapSense_SetDriveModeAllPins
1135:Generated_Source\PSoC4/CapSense.c **** ********************************************************************************
1136:Generated_Source\PSoC4/CapSense.c **** *
1137:Generated_Source\PSoC4/CapSense.c **** * Summary:
1138:Generated_Source\PSoC4/CapSense.c **** * This API sets the drive mode of port pins used by the CapSense
1139:Generated_Source\PSoC4/CapSense.c **** * component (sensors, guard, shield, shield tank and Cmod) to drive the
1140:Generated_Source\PSoC4/CapSense.c **** * mode specified by the argument.
1141:Generated_Source\PSoC4/CapSense.c **** *
1142:Generated_Source\PSoC4/CapSense.c **** * Parameters:
1143:Generated_Source\PSoC4/CapSense.c **** *  driveMode:  Drive mode definition.
1144:Generated_Source\PSoC4/CapSense.c **** *
1145:Generated_Source\PSoC4/CapSense.c **** * Return:
1146:Generated_Source\PSoC4/CapSense.c **** *  None
1147:Generated_Source\PSoC4/CapSense.c **** *
1148:Generated_Source\PSoC4/CapSense.c **** * Global Variables:
1149:Generated_Source\PSoC4/CapSense.c **** *  CapSense_portTable[] - used to store the port number that pin
1150:Generated_Source\PSoC4/CapSense.c **** *  belongs to for each sensor.
1151:Generated_Source\PSoC4/CapSense.c **** *  CapSense_pinShiftTbl[] - used to store position of pin that
1152:Generated_Source\PSoC4/CapSense.c **** *  configured as a sensor in the port.
1153:Generated_Source\PSoC4/CapSense.c **** *
1154:Generated_Source\PSoC4/CapSense.c **** * Side Effects:
1155:Generated_Source\PSoC4/CapSense.c **** *  This API shall be called only after CapSense component is stopped.
1156:Generated_Source\PSoC4/CapSense.c **** *
1157:Generated_Source\PSoC4/CapSense.c **** *******************************************************************************/
1158:Generated_Source\PSoC4/CapSense.c **** void CapSense_SetDriveModeAllPins(uint32 driveMode)
1159:Generated_Source\PSoC4/CapSense.c **** {
1160:Generated_Source\PSoC4/CapSense.c ****     uint8 curSensor;
1161:Generated_Source\PSoC4/CapSense.c ****     #if (CapSense_IS_COMPLEX_SCANSLOTS)
1162:Generated_Source\PSoC4/CapSense.c ****         uint8 snsNumber;
1163:Generated_Source\PSoC4/CapSense.c ****         uint8 snsType;
1164:Generated_Source\PSoC4/CapSense.c ****     #endif  /* CapSense_IS_COMPLEX_SCANSLOTS */
1165:Generated_Source\PSoC4/CapSense.c ****     uint32 prtNumberTmp;
1166:Generated_Source\PSoC4/CapSense.c ****     uint32 pinNumberTmp;
1167:Generated_Source\PSoC4/CapSense.c **** 
1168:Generated_Source\PSoC4/CapSense.c ****     for(curSensor = 0u; curSensor < CapSense_TOTAL_SENSOR_COUNT; curSensor++)
1169:Generated_Source\PSoC4/CapSense.c ****     {
1170:Generated_Source\PSoC4/CapSense.c ****         #if (CapSense_IS_COMPLEX_SCANSLOTS)
1171:Generated_Source\PSoC4/CapSense.c ****             /* Read sensor type: single or complex */
1172:Generated_Source\PSoC4/CapSense.c ****             snsType = CapSense_portTable[curSensor];
1173:Generated_Source\PSoC4/CapSense.c **** 
1174:Generated_Source\PSoC4/CapSense.c ****             /* Check if sensor is complex */
1175:Generated_Source\PSoC4/CapSense.c ****             if ((snsType & CapSense_COMPLEX_SS_FLAG) == 0u)
1176:Generated_Source\PSoC4/CapSense.c ****             {
1177:Generated_Source\PSoC4/CapSense.c ****                 /* The sensor is not complex */
1178:Generated_Source\PSoC4/CapSense.c ****                 snsNumber = curSensor;
1179:Generated_Source\PSoC4/CapSense.c ****             }
1180:Generated_Source\PSoC4/CapSense.c ****             else
1181:Generated_Source\PSoC4/CapSense.c ****             {
1182:Generated_Source\PSoC4/CapSense.c ****                 /* Get dedicated sensor ID of the complex sensor */
1183:Generated_Source\PSoC4/CapSense.c ****                 snsType &= ~CapSense_COMPLEX_SS_FLAG;
1184:Generated_Source\PSoC4/CapSense.c ****                 snsNumber = CapSense_indexTable[snsType];
1185:Generated_Source\PSoC4/CapSense.c ****             }
ARM GAS  C:\Users\Ray\AppData\Local\Temp\ccn7U9Aq.s 			page 33


1186:Generated_Source\PSoC4/CapSense.c **** 
1187:Generated_Source\PSoC4/CapSense.c ****             prtNumberTmp = CapSense_portTable[snsNumber];
1188:Generated_Source\PSoC4/CapSense.c ****             pinNumberTmp = CapSense_pinShiftTbl[snsNumber];
1189:Generated_Source\PSoC4/CapSense.c ****         #else
1190:Generated_Source\PSoC4/CapSense.c ****             prtNumberTmp = CapSense_portTable[curSensor];
1191:Generated_Source\PSoC4/CapSense.c ****             pinNumberTmp = CapSense_pinShiftTbl[curSensor];
1192:Generated_Source\PSoC4/CapSense.c ****         #endif  /* CapSense_IS_COMPLEX_SCANSLOTS */
1193:Generated_Source\PSoC4/CapSense.c **** 
1194:Generated_Source\PSoC4/CapSense.c ****         CapSense_SetPinDriveMode(driveMode, pinNumberTmp, prtNumberTmp);
1195:Generated_Source\PSoC4/CapSense.c ****     }
1196:Generated_Source\PSoC4/CapSense.c **** 
1197:Generated_Source\PSoC4/CapSense.c ****     CapSense_SetPinDriveMode(driveMode, (uint32)CapSense_CMOD_PIN_NUMBER, (uint32)CapSense_CMOD_PRT
1198:Generated_Source\PSoC4/CapSense.c **** 
1199:Generated_Source\PSoC4/CapSense.c ****     #if(0u != CapSense_CSH_TANK_ENABLE)
1200:Generated_Source\PSoC4/CapSense.c ****         CapSense_SetPinDriveMode(driveMode, (uint32)CapSense_CTANK_PIN_NUMBER, (uint32)CapSense_CTA
1201:Generated_Source\PSoC4/CapSense.c ****     #endif /* (0u != CapSense_CSH_TANK_ENABLE) */
1202:Generated_Source\PSoC4/CapSense.c **** 
1203:Generated_Source\PSoC4/CapSense.c ****     #if(0u != CapSense_IS_SHIELD_ENABLE)
1204:Generated_Source\PSoC4/CapSense.c ****         CapSense_SetPinDriveMode(driveMode, (uint32)CapSense_SHIELD_PIN_NUMBER, (uint32)CapSense_SH
1205:Generated_Source\PSoC4/CapSense.c ****     #endif /* (0u != CapSense_IS_SHIELD_ENABLE) */
1206:Generated_Source\PSoC4/CapSense.c **** }
1207:Generated_Source\PSoC4/CapSense.c **** 
1208:Generated_Source\PSoC4/CapSense.c **** 
1209:Generated_Source\PSoC4/CapSense.c **** /*******************************************************************************
1210:Generated_Source\PSoC4/CapSense.c **** * Function Name: CapSense_RestoreDriveModeAllPins
1211:Generated_Source\PSoC4/CapSense.c **** ********************************************************************************
1212:Generated_Source\PSoC4/CapSense.c **** *
1213:Generated_Source\PSoC4/CapSense.c **** * Summary:
1214:Generated_Source\PSoC4/CapSense.c **** *  This API restores the drive for all the CapSense port pins to the original
1215:Generated_Source\PSoC4/CapSense.c **** *  state.
1216:Generated_Source\PSoC4/CapSense.c **** *
1217:Generated_Source\PSoC4/CapSense.c **** * Parameters:
1218:Generated_Source\PSoC4/CapSense.c **** *  None
1219:Generated_Source\PSoC4/CapSense.c **** *
1220:Generated_Source\PSoC4/CapSense.c **** * Return:
1221:Generated_Source\PSoC4/CapSense.c **** *  None
1222:Generated_Source\PSoC4/CapSense.c **** *
1223:Generated_Source\PSoC4/CapSense.c **** * Global Variables:
1224:Generated_Source\PSoC4/CapSense.c **** *  CapSense_prtSelTbl[] - Contains pointers to the HSIOM
1225:Generated_Source\PSoC4/CapSense.c **** *  registers for each port.
1226:Generated_Source\PSoC4/CapSense.c **** *
1227:Generated_Source\PSoC4/CapSense.c **** * Side Effects:
1228:Generated_Source\PSoC4/CapSense.c **** *  This API is called only after the CapSense component is stopped.
1229:Generated_Source\PSoC4/CapSense.c **** *
1230:Generated_Source\PSoC4/CapSense.c **** *******************************************************************************/
1231:Generated_Source\PSoC4/CapSense.c **** void CapSense_RestoreDriveModeAllPins(void)
1232:Generated_Source\PSoC4/CapSense.c **** {
1233:Generated_Source\PSoC4/CapSense.c ****     uint32 newRegisterValue;
1234:Generated_Source\PSoC4/CapSense.c **** 
1235:Generated_Source\PSoC4/CapSense.c ****     CapSense_SetDriveModeAllPins(CY_SYS_PINS_DM_ALG_HIZ);
1236:Generated_Source\PSoC4/CapSense.c **** 
1237:Generated_Source\PSoC4/CapSense.c ****     newRegisterValue = CapSense_CMOD_CONNECTION_REG;
1238:Generated_Source\PSoC4/CapSense.c ****     newRegisterValue &= ~(CapSense_CSD_CMOD_CONNECTION_MASK);
1239:Generated_Source\PSoC4/CapSense.c ****     newRegisterValue |= CapSense_CSD_CMOD_TO_AMUXBUS_A;
1240:Generated_Source\PSoC4/CapSense.c ****     CapSense_CMOD_CONNECTION_REG = newRegisterValue;
1241:Generated_Source\PSoC4/CapSense.c **** 
1242:Generated_Source\PSoC4/CapSense.c ****     #if(0u != CapSense_CSH_TANK_ENABLE)
ARM GAS  C:\Users\Ray\AppData\Local\Temp\ccn7U9Aq.s 			page 34


1243:Generated_Source\PSoC4/CapSense.c ****         newRegisterValue = CapSense_CTANK_CONNECTION_REG;
1244:Generated_Source\PSoC4/CapSense.c ****         newRegisterValue &= ~(CapSense_CSD_CTANK_CONNECTION_MASK);
1245:Generated_Source\PSoC4/CapSense.c ****         newRegisterValue |= CapSense_CSD_CTANK_TO_AMUXBUS_B;
1246:Generated_Source\PSoC4/CapSense.c ****         CapSense_CTANK_CONNECTION_REG = newRegisterValue;
1247:Generated_Source\PSoC4/CapSense.c ****     #endif/* (0u != CapSense_CSH_TANK_ENABLE) */
1248:Generated_Source\PSoC4/CapSense.c **** 
1249:Generated_Source\PSoC4/CapSense.c ****     #if(0u != CapSense_IS_SHIELD_ENABLE)
1250:Generated_Source\PSoC4/CapSense.c ****         newRegisterValue = *CapSense_prtSelTbl[CapSense_SHIELD_PORT_NUMBER];
1251:Generated_Source\PSoC4/CapSense.c ****         newRegisterValue &= ~(CapSense_CSD_HSIOM_MASK << ((uint32)CapSense_SHIELD_PIN_NUMBER * CapS
1252:Generated_Source\PSoC4/CapSense.c ****         newRegisterValue |= (CapSense_CSD_SHIELD_PORT_MODE << ((uint32)CapSense_SHIELD_PIN_NUMBER *
1253:Generated_Source\PSoC4/CapSense.c ****         *CapSense_prtSelTbl[CapSense_SHIELD_PORT_NUMBER] = newRegisterValue;
1254:Generated_Source\PSoC4/CapSense.c ****     #endif /* (0u != CapSense_IS_SHIELD_ENABLE) */
1255:Generated_Source\PSoC4/CapSense.c **** }
1256:Generated_Source\PSoC4/CapSense.c **** 
1257:Generated_Source\PSoC4/CapSense.c **** 
1258:Generated_Source\PSoC4/CapSense.c **** /*******************************************************************************
1259:Generated_Source\PSoC4/CapSense.c **** * Function Name: CapSense_SetPinDriveMode
1260:Generated_Source\PSoC4/CapSense.c **** ********************************************************************************
1261:Generated_Source\PSoC4/CapSense.c **** *
1262:Generated_Source\PSoC4/CapSense.c **** * Summary:
1263:Generated_Source\PSoC4/CapSense.c **** * This API sets the drive mode for the appropriate port/pin.
1264:Generated_Source\PSoC4/CapSense.c **** *
1265:Generated_Source\PSoC4/CapSense.c **** * Parameters:
1266:Generated_Source\PSoC4/CapSense.c **** *  driveMode:  Drive mode definition.
1267:Generated_Source\PSoC4/CapSense.c **** *  portNumber: contains port number (0, 1, 2).
1268:Generated_Source\PSoC4/CapSense.c **** *  pinNumber: contains pin number (0, 1, 2, ... , 7).
1269:Generated_Source\PSoC4/CapSense.c **** *
1270:Generated_Source\PSoC4/CapSense.c **** * Return:
1271:Generated_Source\PSoC4/CapSense.c **** *  None
1272:Generated_Source\PSoC4/CapSense.c **** *
1273:Generated_Source\PSoC4/CapSense.c **** * Global Variables:
1274:Generated_Source\PSoC4/CapSense.c **** *  CapSense_prtSelTbl[] - Contains pointers to the HSIOM
1275:Generated_Source\PSoC4/CapSense.c **** *  registers for each port.
1276:Generated_Source\PSoC4/CapSense.c **** *  CapSense_prtCfgTb[] - Contains pointers to the port config
1277:Generated_Source\PSoC4/CapSense.c **** *  registers for each port.
1278:Generated_Source\PSoC4/CapSense.c **** *
1279:Generated_Source\PSoC4/CapSense.c **** * Side Effects:
1280:Generated_Source\PSoC4/CapSense.c **** *  This API is called only after CapSense component is stopped.
1281:Generated_Source\PSoC4/CapSense.c **** *
1282:Generated_Source\PSoC4/CapSense.c **** *******************************************************************************/
1283:Generated_Source\PSoC4/CapSense.c **** void CapSense_SetPinDriveMode(uint32 driveMode, uint32 pinNumber, uint32 portNumber)
1284:Generated_Source\PSoC4/CapSense.c **** {
 633              		.loc 1 1284 0
 634              		.cfi_startproc
 635              		@ args = 0, pretend = 0, frame = 0
 636              		@ frame_needed = 0, uses_anonymous_args = 0
 637              	.LVL72:
 638 0000 10B5     		push	{r4, lr}
 639              		.cfi_def_cfa_offset 8
 640              		.cfi_offset 4, -8
 641              		.cfi_offset 14, -4
1285:Generated_Source\PSoC4/CapSense.c ****     uint32  pinModeShift;
1286:Generated_Source\PSoC4/CapSense.c ****     uint32 newRegisterValue;
1287:Generated_Source\PSoC4/CapSense.c **** 
1288:Generated_Source\PSoC4/CapSense.c ****     pinModeShift  = pinNumber * CapSense_PC_PIN_CFG_SIZE;
 642              		.loc 1 1288 0
 643 0002 4B00     		lsls	r3, r1, #1
ARM GAS  C:\Users\Ray\AppData\Local\Temp\ccn7U9Aq.s 			page 35


 644 0004 5918     		adds	r1, r3, r1
 645              	.LVL73:
1289:Generated_Source\PSoC4/CapSense.c **** 
1290:Generated_Source\PSoC4/CapSense.c ****     newRegisterValue = *CapSense_prtCfgTbl[portNumber];
 646              		.loc 1 1290 0
 647 0006 9200     		lsls	r2, r2, #2
 648              	.LVL74:
 649 0008 054B     		ldr	r3, .L39
 650 000a 9A18     		adds	r2, r3, r2
 651 000c D469     		ldr	r4, [r2, #28]
 652 000e 2368     		ldr	r3, [r4]
 653              	.LVL75:
1291:Generated_Source\PSoC4/CapSense.c ****     newRegisterValue &= ~(CapSense_CSD_PIN_MODE_MASK << pinModeShift);
 654              		.loc 1 1291 0
 655 0010 0722     		movs	r2, #7
 656 0012 8A40     		lsls	r2, r2, r1
 657 0014 9343     		bics	r3, r2
 658              	.LVL76:
1292:Generated_Source\PSoC4/CapSense.c ****     newRegisterValue |=  (uint32)((uint32)driveMode << pinModeShift);
 659              		.loc 1 1292 0
 660 0016 8840     		lsls	r0, r0, r1
 661              	.LVL77:
 662 0018 1843     		orrs	r0, r3
 663              	.LVL78:
1293:Generated_Source\PSoC4/CapSense.c ****     *CapSense_prtCfgTbl[portNumber] =  newRegisterValue;
 664              		.loc 1 1293 0
 665 001a 2060     		str	r0, [r4]
1294:Generated_Source\PSoC4/CapSense.c **** }
 666              		.loc 1 1294 0
 667              		@ sp needed
 668 001c 10BD     		pop	{r4, pc}
 669              	.L40:
 670 001e C046     		.align	2
 671              	.L39:
 672 0020 00000000 		.word	.LANCHOR2
 673              		.cfi_endproc
 674              	.LFE51:
 675              		.size	CapSense_SetPinDriveMode, .-CapSense_SetPinDriveMode
 676              		.section	.text.CapSense_SetDriveModeAllPins,"ax",%progbits
 677              		.align	2
 678              		.global	CapSense_SetDriveModeAllPins
 679              		.code	16
 680              		.thumb_func
 681              		.type	CapSense_SetDriveModeAllPins, %function
 682              	CapSense_SetDriveModeAllPins:
 683              	.LFB49:
1159:Generated_Source\PSoC4/CapSense.c ****     uint8 curSensor;
 684              		.loc 1 1159 0
 685              		.cfi_startproc
 686              		@ args = 0, pretend = 0, frame = 0
 687              		@ frame_needed = 0, uses_anonymous_args = 0
 688              	.LVL79:
 689 0000 70B5     		push	{r4, r5, r6, lr}
 690              		.cfi_def_cfa_offset 16
 691              		.cfi_offset 4, -16
 692              		.cfi_offset 5, -12
 693              		.cfi_offset 6, -8
ARM GAS  C:\Users\Ray\AppData\Local\Temp\ccn7U9Aq.s 			page 36


 694              		.cfi_offset 14, -4
 695 0002 0500     		movs	r5, r0
 696              	.LVL80:
1168:Generated_Source\PSoC4/CapSense.c ****     {
 697              		.loc 1 1168 0
 698 0004 0024     		movs	r4, #0
 699 0006 08E0     		b	.L42
 700              	.LVL81:
 701              	.L43:
1190:Generated_Source\PSoC4/CapSense.c ****             pinNumberTmp = CapSense_pinShiftTbl[curSensor];
 702              		.loc 1 1190 0 discriminator 3
 703 0008 084B     		ldr	r3, .L44
 704 000a 1A5D     		ldrb	r2, [r3, r4]
 705              	.LVL82:
1191:Generated_Source\PSoC4/CapSense.c ****         #endif  /* CapSense_IS_COMPLEX_SCANSLOTS */
 706              		.loc 1 1191 0 discriminator 3
 707 000c 1B19     		adds	r3, r3, r4
 708 000e 1979     		ldrb	r1, [r3, #4]
 709              	.LVL83:
1194:Generated_Source\PSoC4/CapSense.c ****     }
 710              		.loc 1 1194 0 discriminator 3
 711 0010 2800     		movs	r0, r5
 712 0012 FFF7FEFF 		bl	CapSense_SetPinDriveMode
 713              	.LVL84:
1168:Generated_Source\PSoC4/CapSense.c ****     {
 714              		.loc 1 1168 0 discriminator 3
 715 0016 0134     		adds	r4, r4, #1
 716              	.LVL85:
 717 0018 E4B2     		uxtb	r4, r4
 718              	.LVL86:
 719              	.L42:
1168:Generated_Source\PSoC4/CapSense.c ****     {
 720              		.loc 1 1168 0 is_stmt 0 discriminator 1
 721 001a 012C     		cmp	r4, #1
 722 001c F4D9     		bls	.L43
1197:Generated_Source\PSoC4/CapSense.c **** 
 723              		.loc 1 1197 0 is_stmt 1
 724 001e 0422     		movs	r2, #4
 725 0020 0221     		movs	r1, #2
 726 0022 2800     		movs	r0, r5
 727 0024 FFF7FEFF 		bl	CapSense_SetPinDriveMode
 728              	.LVL87:
1206:Generated_Source\PSoC4/CapSense.c **** 
 729              		.loc 1 1206 0
 730              		@ sp needed
 731              	.LVL88:
 732              	.LVL89:
 733 0028 70BD     		pop	{r4, r5, r6, pc}
 734              	.L45:
 735 002a C046     		.align	2
 736              	.L44:
 737 002c 00000000 		.word	.LANCHOR2
 738              		.cfi_endproc
 739              	.LFE49:
 740              		.size	CapSense_SetDriveModeAllPins, .-CapSense_SetDriveModeAllPins
 741              		.section	.text.CapSense_RestoreDriveModeAllPins,"ax",%progbits
 742              		.align	2
ARM GAS  C:\Users\Ray\AppData\Local\Temp\ccn7U9Aq.s 			page 37


 743              		.global	CapSense_RestoreDriveModeAllPins
 744              		.code	16
 745              		.thumb_func
 746              		.type	CapSense_RestoreDriveModeAllPins, %function
 747              	CapSense_RestoreDriveModeAllPins:
 748              	.LFB50:
1232:Generated_Source\PSoC4/CapSense.c ****     uint32 newRegisterValue;
 749              		.loc 1 1232 0
 750              		.cfi_startproc
 751              		@ args = 0, pretend = 0, frame = 0
 752              		@ frame_needed = 0, uses_anonymous_args = 0
 753 0000 10B5     		push	{r4, lr}
 754              		.cfi_def_cfa_offset 8
 755              		.cfi_offset 4, -8
 756              		.cfi_offset 14, -4
1235:Generated_Source\PSoC4/CapSense.c **** 
 757              		.loc 1 1235 0
 758 0002 0020     		movs	r0, #0
 759 0004 FFF7FEFF 		bl	CapSense_SetDriveModeAllPins
 760              	.LVL90:
1237:Generated_Source\PSoC4/CapSense.c ****     newRegisterValue &= ~(CapSense_CSD_CMOD_CONNECTION_MASK);
 761              		.loc 1 1237 0
 762 0008 044A     		ldr	r2, .L47
 763 000a 1168     		ldr	r1, [r2]
 764              	.LVL91:
1238:Generated_Source\PSoC4/CapSense.c ****     newRegisterValue |= CapSense_CSD_CMOD_TO_AMUXBUS_A;
 765              		.loc 1 1238 0
 766 000c 044B     		ldr	r3, .L47+4
 767 000e 0B40     		ands	r3, r1
 768              	.LVL92:
1239:Generated_Source\PSoC4/CapSense.c ****     CapSense_CMOD_CONNECTION_REG = newRegisterValue;
 769              		.loc 1 1239 0
 770 0010 C021     		movs	r1, #192
 771 0012 C900     		lsls	r1, r1, #3
 772 0014 0B43     		orrs	r3, r1
 773              	.LVL93:
1240:Generated_Source\PSoC4/CapSense.c **** 
 774              		.loc 1 1240 0
 775 0016 1360     		str	r3, [r2]
1255:Generated_Source\PSoC4/CapSense.c **** 
 776              		.loc 1 1255 0
 777              		@ sp needed
 778 0018 10BD     		pop	{r4, pc}
 779              	.L48:
 780 001a C046     		.align	2
 781              	.L47:
 782 001c 10000140 		.word	1073807376
 783 0020 FFF0FFFF 		.word	-3841
 784              		.cfi_endproc
 785              	.LFE50:
 786              		.size	CapSense_RestoreDriveModeAllPins, .-CapSense_RestoreDriveModeAllPins
 787              		.section	.text.CapSense_EnableShieldElectrode,"ax",%progbits
 788              		.align	2
 789              		.global	CapSense_EnableShieldElectrode
 790              		.code	16
 791              		.thumb_func
 792              		.type	CapSense_EnableShieldElectrode, %function
ARM GAS  C:\Users\Ray\AppData\Local\Temp\ccn7U9Aq.s 			page 38


 793              	CapSense_EnableShieldElectrode:
 794              	.LFB54:
1295:Generated_Source\PSoC4/CapSense.c **** 
1296:Generated_Source\PSoC4/CapSense.c **** 
1297:Generated_Source\PSoC4/CapSense.c **** /*******************************************************************************
1298:Generated_Source\PSoC4/CapSense.c **** * Function Name: CapSense_PreScan
1299:Generated_Source\PSoC4/CapSense.c **** ********************************************************************************
1300:Generated_Source\PSoC4/CapSense.c **** *
1301:Generated_Source\PSoC4/CapSense.c **** * Summary:
1302:Generated_Source\PSoC4/CapSense.c **** *  Sets required settings, enables a sensor, removes Vref from AMUX and starts the
1303:Generated_Source\PSoC4/CapSense.c **** *  scanning process of the sensor.
1304:Generated_Source\PSoC4/CapSense.c **** *
1305:Generated_Source\PSoC4/CapSense.c **** * Parameters:
1306:Generated_Source\PSoC4/CapSense.c **** *  sensor:  Sensor number.
1307:Generated_Source\PSoC4/CapSense.c **** *
1308:Generated_Source\PSoC4/CapSense.c **** * Return:
1309:Generated_Source\PSoC4/CapSense.c **** *  None
1310:Generated_Source\PSoC4/CapSense.c **** *
1311:Generated_Source\PSoC4/CapSense.c **** * Global Variables:
1312:Generated_Source\PSoC4/CapSense.c **** * CapSense_widgetNumber[] - This array contains numbers of widgets for each sensor.
1313:Generated_Source\PSoC4/CapSense.c **** * CapSense_widgetResolution[] - Contains the widget resolution.
1314:Generated_Source\PSoC4/CapSense.c **** *
1315:Generated_Source\PSoC4/CapSense.c **** * Side Effects:
1316:Generated_Source\PSoC4/CapSense.c **** *  None
1317:Generated_Source\PSoC4/CapSense.c **** *
1318:Generated_Source\PSoC4/CapSense.c **** *******************************************************************************/
1319:Generated_Source\PSoC4/CapSense.c **** void CapSense_PreScan(uint32 sensor)
1320:Generated_Source\PSoC4/CapSense.c **** {
1321:Generated_Source\PSoC4/CapSense.c ****     uint8 widget;
1322:Generated_Source\PSoC4/CapSense.c ****     uint8 interruptState;
1323:Generated_Source\PSoC4/CapSense.c ****     uint32 newRegValue;
1324:Generated_Source\PSoC4/CapSense.c ****     uint32 counterResolution;
1325:Generated_Source\PSoC4/CapSense.c **** 
1326:Generated_Source\PSoC4/CapSense.c ****     #if(CapSense_PRS_OPTIONS == CapSense__PRS_AUTO)
1327:Generated_Source\PSoC4/CapSense.c ****         uint8 senseClkDivMath;
1328:Generated_Source\PSoC4/CapSense.c ****         uint8 sampleClkDivMath;
1329:Generated_Source\PSoC4/CapSense.c ****     #endif /* (CapSense_PRS_OPTIONS == CapSense__PRS_AUTO) */
1330:Generated_Source\PSoC4/CapSense.c **** 
1331:Generated_Source\PSoC4/CapSense.c ****     #if ((CapSense_TUNING_METHOD == CapSense__TUNING_AUTO) &&\
1332:Generated_Source\PSoC4/CapSense.c ****          (0 != CapSense_IS_OVERSAMPLING_EN))
1333:Generated_Source\PSoC4/CapSense.c ****         uint32 oversamplingFactor;
1334:Generated_Source\PSoC4/CapSense.c ****     #endif /* ((CapSense_TUNING_METHOD == CapSense__TUNING_AUTO) &&\
1335:Generated_Source\PSoC4/CapSense.c ****                (0 != CapSense_IS_OVERSAMPLING_EN)) */
1336:Generated_Source\PSoC4/CapSense.c **** 
1337:Generated_Source\PSoC4/CapSense.c ****     /* Define widget sensor belongs to */
1338:Generated_Source\PSoC4/CapSense.c ****     widget = CapSense_widgetNumber[sensor];
1339:Generated_Source\PSoC4/CapSense.c **** 
1340:Generated_Source\PSoC4/CapSense.c ****     /* Recalculate Counter Resolution to MSB 16 bits */
1341:Generated_Source\PSoC4/CapSense.c ****     counterResolution = CapSense_widgetResolution[widget];
1342:Generated_Source\PSoC4/CapSense.c **** 
1343:Generated_Source\PSoC4/CapSense.c ****     #if ((CapSense_TUNING_METHOD == CapSense__TUNING_AUTO) &&\
1344:Generated_Source\PSoC4/CapSense.c ****          (0 != CapSense_IS_OVERSAMPLING_EN))
1345:Generated_Source\PSoC4/CapSense.c ****         oversamplingFactor = CapSense_GetBitValue(CapSense_scanSpeedTbl, sensor);
1346:Generated_Source\PSoC4/CapSense.c **** 
1347:Generated_Source\PSoC4/CapSense.c ****         if(counterResolution < CapSense_RESOLUTION_16_BITS)
1348:Generated_Source\PSoC4/CapSense.c ****         {
1349:Generated_Source\PSoC4/CapSense.c ****             counterResolution <<= oversamplingFactor;
ARM GAS  C:\Users\Ray\AppData\Local\Temp\ccn7U9Aq.s 			page 39


1350:Generated_Source\PSoC4/CapSense.c ****             counterResolution |= (uint32)(CapSense_RESOLUTION_8_BITS);
1351:Generated_Source\PSoC4/CapSense.c ****         }
1352:Generated_Source\PSoC4/CapSense.c ****     #endif /* ((CapSense_TUNING_METHOD == CapSense__TUNING_AUTO) &&\
1353:Generated_Source\PSoC4/CapSense.c ****                (0 != CapSense_IS_OVERSAMPLING_EN)) */
1354:Generated_Source\PSoC4/CapSense.c **** 
1355:Generated_Source\PSoC4/CapSense.c ****     #if (0u != CapSense_IS_M0S8PERI_BLOCK)
1356:Generated_Source\PSoC4/CapSense.c ****         CapSense_SenseClk_Stop();
1357:Generated_Source\PSoC4/CapSense.c ****         CapSense_SampleClk_Stop();
1358:Generated_Source\PSoC4/CapSense.c ****     #endif /* (0u != CapSense_IS_M0S8PERI_BLOCK) */
1359:Generated_Source\PSoC4/CapSense.c **** 
1360:Generated_Source\PSoC4/CapSense.c ****     #if (0u != CapSense_MULTIPLE_FREQUENCY_SET)
1361:Generated_Source\PSoC4/CapSense.c ****         CapSense_SampleClk_SetDividerValue((uint16)CapSense_sampleClkDividerVal[sensor]);
1362:Generated_Source\PSoC4/CapSense.c ****         CapSense_SenseClk_SetDividerValue((uint16)CapSense_senseClkDividerVal[sensor]);
1363:Generated_Source\PSoC4/CapSense.c ****     #else
1364:Generated_Source\PSoC4/CapSense.c ****         CapSense_SampleClk_SetDividerValue((uint16)CapSense_sampleClkDividerVal);
1365:Generated_Source\PSoC4/CapSense.c ****         CapSense_SenseClk_SetDividerValue((uint16)CapSense_senseClkDividerVal);
1366:Generated_Source\PSoC4/CapSense.c ****     #endif /* (0u != CapSense_MULTIPLE_FREQUENCY_SET) */
1367:Generated_Source\PSoC4/CapSense.c **** 
1368:Generated_Source\PSoC4/CapSense.c ****     #if (0u != CapSense_IS_M0S8PERI_BLOCK)
1369:Generated_Source\PSoC4/CapSense.c ****         CapSense_SampleClk_Start();
1370:Generated_Source\PSoC4/CapSense.c ****         CapSense_SenseClk_StartEx(CapSense_SampleClk__DIV_ID);
1371:Generated_Source\PSoC4/CapSense.c **** 
1372:Generated_Source\PSoC4/CapSense.c ****         #if(CapSense_PRS_OPTIONS == CapSense__PRS_NONE)
1373:Generated_Source\PSoC4/CapSense.c ****             CyIntDisable(CapSense_ISR_NUMBER);
1374:Generated_Source\PSoC4/CapSense.c ****             CapSense_CSD_CNT_REG = CapSense_ONE_CYCLE;
1375:Generated_Source\PSoC4/CapSense.c ****             while(0u != (CapSense_CSD_CNT_REG & CapSense_RESOLUTION_16_BITS))
1376:Generated_Source\PSoC4/CapSense.c ****             {
1377:Generated_Source\PSoC4/CapSense.c ****             /* Wait until scanning is complete */
1378:Generated_Source\PSoC4/CapSense.c ****             }
1379:Generated_Source\PSoC4/CapSense.c ****             CapSense_CSD_INTR_REG = 1u;
1380:Generated_Source\PSoC4/CapSense.c ****             CyIntClearPending(CapSense_ISR_NUMBER);
1381:Generated_Source\PSoC4/CapSense.c ****             CyIntEnable(CapSense_ISR_NUMBER);
1382:Generated_Source\PSoC4/CapSense.c ****         #endif /* CapSense_PRS_OPTIONS == CapSense__PRS_NONE */
1383:Generated_Source\PSoC4/CapSense.c ****     #endif /* (0u != CapSense_IS_M0S8PERI_BLOCK) */
1384:Generated_Source\PSoC4/CapSense.c **** 
1385:Generated_Source\PSoC4/CapSense.c **** #if(CapSense_PRS_OPTIONS != CapSense__PRS_NONE)
1386:Generated_Source\PSoC4/CapSense.c **** 
1387:Generated_Source\PSoC4/CapSense.c ****     #if(CapSense_TUNING_METHOD == CapSense__TUNING_AUTO)
1388:Generated_Source\PSoC4/CapSense.c ****         if(CapSense_prescalersTuningDone != 0u)
1389:Generated_Source\PSoC4/CapSense.c ****         {
1390:Generated_Source\PSoC4/CapSense.c ****     #endif /* (CapSense_TUNING_METHOD == CapSense__TUNING_AUTO) */
1391:Generated_Source\PSoC4/CapSense.c **** 
1392:Generated_Source\PSoC4/CapSense.c ****             CyIntDisable(CapSense_ISR_NUMBER);
1393:Generated_Source\PSoC4/CapSense.c **** 
1394:Generated_Source\PSoC4/CapSense.c ****             newRegValue = CapSense_CSD_CFG_REG;
1395:Generated_Source\PSoC4/CapSense.c ****             newRegValue |= CapSense_CSD_CFG_PRS_SELECT;
1396:Generated_Source\PSoC4/CapSense.c **** 
1397:Generated_Source\PSoC4/CapSense.c ****             #if(CapSense_PRS_OPTIONS == CapSense__PRS_AUTO)
1398:Generated_Source\PSoC4/CapSense.c **** 
1399:Generated_Source\PSoC4/CapSense.c ****                 newRegValue &= ~(CapSense_PRS_MODE_MASK);
1400:Generated_Source\PSoC4/CapSense.c **** 
1401:Generated_Source\PSoC4/CapSense.c ****                 #if (0u != CapSense_MULTIPLE_FREQUENCY_SET)
1402:Generated_Source\PSoC4/CapSense.c ****                     senseClkDivMath = CapSense_senseClkDividerVal[sensor];
1403:Generated_Source\PSoC4/CapSense.c ****                     sampleClkDivMath = CapSense_sampleClkDividerVal[sensor];
1404:Generated_Source\PSoC4/CapSense.c ****                 #else
1405:Generated_Source\PSoC4/CapSense.c ****                     senseClkDivMath = CapSense_senseClkDividerVal;
1406:Generated_Source\PSoC4/CapSense.c ****                     sampleClkDivMath = CapSense_sampleClkDividerVal;
ARM GAS  C:\Users\Ray\AppData\Local\Temp\ccn7U9Aq.s 			page 40


1407:Generated_Source\PSoC4/CapSense.c ****                 #endif /* ( CapSense_MULTIPLE_FREQUENCY_SET) */
1408:Generated_Source\PSoC4/CapSense.c **** 
1409:Generated_Source\PSoC4/CapSense.c ****                 #if(0u == CapSense_IS_M0S8PERI_BLOCK)
1410:Generated_Source\PSoC4/CapSense.c ****                     senseClkDivMath *= sampleClkDivMath;
1411:Generated_Source\PSoC4/CapSense.c ****                 #endif /* (0u == CapSense_IS_M0S8PERI_BLOCK) */
1412:Generated_Source\PSoC4/CapSense.c **** 
1413:Generated_Source\PSoC4/CapSense.c ****                 if((senseClkDivMath * CapSense_RESOLUTION_12_BITS) <
1414:Generated_Source\PSoC4/CapSense.c ****                    (sampleClkDivMath * CapSense_widgetResolution[widget]))
1415:Generated_Source\PSoC4/CapSense.c ****                 {
1416:Generated_Source\PSoC4/CapSense.c ****                     newRegValue |= CapSense_CSD_PRS_12_BIT;
1417:Generated_Source\PSoC4/CapSense.c ****                 }
1418:Generated_Source\PSoC4/CapSense.c ****             #endif /* (CapSense_PRS_OPTIONS == CapSense__PRS_AUTO) */
1419:Generated_Source\PSoC4/CapSense.c **** 
1420:Generated_Source\PSoC4/CapSense.c ****             CapSense_CSD_CFG_REG = newRegValue;
1421:Generated_Source\PSoC4/CapSense.c **** 
1422:Generated_Source\PSoC4/CapSense.c ****             CyIntEnable(CapSense_ISR_NUMBER);
1423:Generated_Source\PSoC4/CapSense.c **** 
1424:Generated_Source\PSoC4/CapSense.c ****     #if(CapSense_TUNING_METHOD == CapSense__TUNING_AUTO)
1425:Generated_Source\PSoC4/CapSense.c ****         }
1426:Generated_Source\PSoC4/CapSense.c ****     #endif /* (CapSense_PRS_OPTIONS != CapSense__PRS_NONE) */
1427:Generated_Source\PSoC4/CapSense.c **** 
1428:Generated_Source\PSoC4/CapSense.c **** #endif /* (CapSense_PRS_OPTIONS == CapSense__PRS_NONE) */
1429:Generated_Source\PSoC4/CapSense.c **** 
1430:Generated_Source\PSoC4/CapSense.c ****     /* Set Idac Value */
1431:Generated_Source\PSoC4/CapSense.c ****     CyIntDisable(CapSense_ISR_NUMBER);
1432:Generated_Source\PSoC4/CapSense.c ****     newRegValue = CapSense_CSD_IDAC_REG;
1433:Generated_Source\PSoC4/CapSense.c **** 
1434:Generated_Source\PSoC4/CapSense.c **** #if (CapSense_IDAC_CNT == 1u)
1435:Generated_Source\PSoC4/CapSense.c ****     newRegValue &= ~(CapSense_CSD_IDAC1_DATA_MASK);
1436:Generated_Source\PSoC4/CapSense.c ****     newRegValue |= CapSense_modulationIDAC[sensor];
1437:Generated_Source\PSoC4/CapSense.c **** #else
1438:Generated_Source\PSoC4/CapSense.c ****     newRegValue &= ~(CapSense_CSD_IDAC1_DATA_MASK | CapSense_CSD_IDAC2_DATA_MASK);
1439:Generated_Source\PSoC4/CapSense.c ****     newRegValue |= (CapSense_modulationIDAC[sensor] |
1440:Generated_Source\PSoC4/CapSense.c ****                             (uint32)((uint32)CapSense_compensationIDAC[sensor] <<
1441:Generated_Source\PSoC4/CapSense.c ****                             CapSense_CSD_IDAC2_DATA_OFFSET));
1442:Generated_Source\PSoC4/CapSense.c **** #endif /* (CapSense_IDAC_CNT == 1u) */
1443:Generated_Source\PSoC4/CapSense.c **** 
1444:Generated_Source\PSoC4/CapSense.c ****     CapSense_CSD_IDAC_REG = newRegValue;
1445:Generated_Source\PSoC4/CapSense.c **** 
1446:Generated_Source\PSoC4/CapSense.c **** #if(CapSense_CMOD_PREGARGE_OPTION == CapSense__CAPPRIOBUF)
1447:Generated_Source\PSoC4/CapSense.c ****     newRegValue = CapSense_CMOD_CONNECTION_REG;
1448:Generated_Source\PSoC4/CapSense.c ****     newRegValue &= ~(CapSense_CSD_CMOD_CONNECTION_MASK);
1449:Generated_Source\PSoC4/CapSense.c ****     newRegValue |= CapSense_CSD_CMOD_TO_AMUXBUS_A;
1450:Generated_Source\PSoC4/CapSense.c ****     CapSense_CMOD_CONNECTION_REG = newRegValue;
1451:Generated_Source\PSoC4/CapSense.c **** 
1452:Generated_Source\PSoC4/CapSense.c ****     newRegValue = CapSense_CMOD_PORT_PC_REG;
1453:Generated_Source\PSoC4/CapSense.c ****     newRegValue &= ~(CapSense_CSD_CMOD_PC_MASK);
1454:Generated_Source\PSoC4/CapSense.c ****     newRegValue |= CapSense_CMOD_PC_HIGH_Z_MODE;
1455:Generated_Source\PSoC4/CapSense.c ****     CapSense_CMOD_PORT_PC_REG = newRegValue;
1456:Generated_Source\PSoC4/CapSense.c **** #endif /* (CapSense_CMOD_PREGARGE_OPTION == CapSense__CAPPRIOBUF) */
1457:Generated_Source\PSoC4/CapSense.c **** 
1458:Generated_Source\PSoC4/CapSense.c ****     /* Disconnect Vref Buffer from AMUX */
1459:Generated_Source\PSoC4/CapSense.c ****     newRegValue = CapSense_CSD_CFG_REG;
1460:Generated_Source\PSoC4/CapSense.c ****     newRegValue &= ~(CapSense_PRECHARGE_CONFIG_MASK);
1461:Generated_Source\PSoC4/CapSense.c ****     newRegValue |= CapSense_CTANK_PRECHARGE_CONFIG;
1462:Generated_Source\PSoC4/CapSense.c **** 
1463:Generated_Source\PSoC4/CapSense.c ****     CyIntEnable(CapSense_ISR_NUMBER);
ARM GAS  C:\Users\Ray\AppData\Local\Temp\ccn7U9Aq.s 			page 41


1464:Generated_Source\PSoC4/CapSense.c **** 
1465:Generated_Source\PSoC4/CapSense.c ****     /* Enable Sensor */
1466:Generated_Source\PSoC4/CapSense.c ****     CapSense_EnableScanSlot(sensor);
1467:Generated_Source\PSoC4/CapSense.c **** 
1468:Generated_Source\PSoC4/CapSense.c ****     interruptState = CyEnterCriticalSection();
1469:Generated_Source\PSoC4/CapSense.c ****     CapSense_CSD_CFG_REG = newRegValue;
1470:Generated_Source\PSoC4/CapSense.c **** 
1471:Generated_Source\PSoC4/CapSense.c ****     /* `#START CapSense_PreSettlingDelay_Debug` */
1472:Generated_Source\PSoC4/CapSense.c **** 
1473:Generated_Source\PSoC4/CapSense.c ****     /* `#END` */
1474:Generated_Source\PSoC4/CapSense.c **** 
1475:Generated_Source\PSoC4/CapSense.c **** #ifdef CapSense_PRE_SCAN_PRE_SETTLING_DELAY_DEBUG_CALLBACK
1476:Generated_Source\PSoC4/CapSense.c ****     CapSense_PreScan_Pre_SettlingDelay_Debug_Callback();
1477:Generated_Source\PSoC4/CapSense.c **** #endif /* CapSense_PRE_SCAN_PRE_SETTLING_DELAY_DEBUG_CALLBACK */
1478:Generated_Source\PSoC4/CapSense.c **** 
1479:Generated_Source\PSoC4/CapSense.c ****     CyDelayCycles(CapSense_GLITCH_ELIMINATION_CYCLES);
1480:Generated_Source\PSoC4/CapSense.c **** 
1481:Generated_Source\PSoC4/CapSense.c ****     /* `#START CapSense_PreScan_Debug` */
1482:Generated_Source\PSoC4/CapSense.c **** 
1483:Generated_Source\PSoC4/CapSense.c ****     /* `#END` */
1484:Generated_Source\PSoC4/CapSense.c **** 
1485:Generated_Source\PSoC4/CapSense.c **** #ifdef CapSense_PRE_SCAN_DEBUG_CALLBACK
1486:Generated_Source\PSoC4/CapSense.c ****     CapSense_PreScan_Debug_Callback();
1487:Generated_Source\PSoC4/CapSense.c **** #endif /* CapSense_PRE_SCAN_DEBUG_CALLBACK */
1488:Generated_Source\PSoC4/CapSense.c **** 
1489:Generated_Source\PSoC4/CapSense.c ****     CapSense_CSD_CNT_REG = counterResolution;
1490:Generated_Source\PSoC4/CapSense.c ****     CyExitCriticalSection(interruptState);
1491:Generated_Source\PSoC4/CapSense.c **** }
1492:Generated_Source\PSoC4/CapSense.c **** 
1493:Generated_Source\PSoC4/CapSense.c **** 
1494:Generated_Source\PSoC4/CapSense.c **** /*******************************************************************************
1495:Generated_Source\PSoC4/CapSense.c **** * Function Name: CapSense_PostScan
1496:Generated_Source\PSoC4/CapSense.c **** ********************************************************************************
1497:Generated_Source\PSoC4/CapSense.c **** *
1498:Generated_Source\PSoC4/CapSense.c **** * Summary:
1499:Generated_Source\PSoC4/CapSense.c **** *  Stores the results of measurement in the CapSense_sensorRaw[] array,
1500:Generated_Source\PSoC4/CapSense.c **** *  sets the scanning sensor in the non-sampling state, turns off Idac(Current Source IDAC),
1501:Generated_Source\PSoC4/CapSense.c **** *  disconnects the IDAC(Sink mode), and applies Vref on AMUX.
1502:Generated_Source\PSoC4/CapSense.c **** *
1503:Generated_Source\PSoC4/CapSense.c **** * Parameters:
1504:Generated_Source\PSoC4/CapSense.c **** *  sensor:  Sensor number.
1505:Generated_Source\PSoC4/CapSense.c **** *
1506:Generated_Source\PSoC4/CapSense.c **** * Return:
1507:Generated_Source\PSoC4/CapSense.c **** *  None
1508:Generated_Source\PSoC4/CapSense.c **** *
1509:Generated_Source\PSoC4/CapSense.c **** * Global Variables:
1510:Generated_Source\PSoC4/CapSense.c **** *  CapSense_sensorRaw[] - used to store sensors raw data.
1511:Generated_Source\PSoC4/CapSense.c **** *
1512:Generated_Source\PSoC4/CapSense.c **** * Side Effects:
1513:Generated_Source\PSoC4/CapSense.c **** *  None
1514:Generated_Source\PSoC4/CapSense.c **** *
1515:Generated_Source\PSoC4/CapSense.c **** *******************************************************************************/
1516:Generated_Source\PSoC4/CapSense.c **** void CapSense_PostScan(uint32 sensor)
1517:Generated_Source\PSoC4/CapSense.c **** {
1518:Generated_Source\PSoC4/CapSense.c ****     uint32 newRegValue;
1519:Generated_Source\PSoC4/CapSense.c **** #if ((CapSense_TUNING_METHOD == CapSense__TUNING_AUTO) &&\
1520:Generated_Source\PSoC4/CapSense.c ****      (0 != CapSense_IS_OVERSAMPLING_EN))
ARM GAS  C:\Users\Ray\AppData\Local\Temp\ccn7U9Aq.s 			page 42


1521:Generated_Source\PSoC4/CapSense.c ****     uint32 oversamplingFactor;
1522:Generated_Source\PSoC4/CapSense.c ****     uint32 widget;
1523:Generated_Source\PSoC4/CapSense.c **** #endif /* ((CapSense_TUNING_METHOD == CapSense__TUNING_AUTO) &&\
1524:Generated_Source\PSoC4/CapSense.c ****            (0 != CapSense_IS_OVERSAMPLING_EN)) */
1525:Generated_Source\PSoC4/CapSense.c **** 
1526:Generated_Source\PSoC4/CapSense.c ****     /* `#START CapSense_PostScan_Debug` */
1527:Generated_Source\PSoC4/CapSense.c **** 
1528:Generated_Source\PSoC4/CapSense.c ****     /* `#END` */
1529:Generated_Source\PSoC4/CapSense.c **** 
1530:Generated_Source\PSoC4/CapSense.c **** #ifdef CapSense_POST_SCAN_DEBUG_CALLBACK
1531:Generated_Source\PSoC4/CapSense.c ****     CapSense_PostScan_Debug_Callback();
1532:Generated_Source\PSoC4/CapSense.c **** #endif /* CapSense_POST_SCAN_DEBUG_Callback */
1533:Generated_Source\PSoC4/CapSense.c **** 
1534:Generated_Source\PSoC4/CapSense.c ****     /* Read SlotResult from Raw Counter */
1535:Generated_Source\PSoC4/CapSense.c ****     CapSense_sensorRaw[sensor]  = (uint16)CapSense_CSD_CNT_REG;
1536:Generated_Source\PSoC4/CapSense.c **** 
1537:Generated_Source\PSoC4/CapSense.c **** #if ((CapSense_TUNING_METHOD == CapSense__TUNING_AUTO) &&\
1538:Generated_Source\PSoC4/CapSense.c ****      (0 != CapSense_IS_OVERSAMPLING_EN))
1539:Generated_Source\PSoC4/CapSense.c ****     widget = CapSense_widgetNumber[sensor];
1540:Generated_Source\PSoC4/CapSense.c ****     if(CapSense_widgetResolution[widget] < CapSense_RESOLUTION_16_BITS)
1541:Generated_Source\PSoC4/CapSense.c ****     {
1542:Generated_Source\PSoC4/CapSense.c ****         oversamplingFactor = CapSense_GetBitValue(CapSense_scanSpeedTbl, sensor);
1543:Generated_Source\PSoC4/CapSense.c ****         CapSense_sensorRaw[sensor] >>= oversamplingFactor;
1544:Generated_Source\PSoC4/CapSense.c ****     }
1545:Generated_Source\PSoC4/CapSense.c **** #endif /* ((CapSense_TUNING_METHOD == CapSense__TUNING_AUTO) &&\
1546:Generated_Source\PSoC4/CapSense.c ****            (0 != CapSense_IS_OVERSAMPLING_EN)) */
1547:Generated_Source\PSoC4/CapSense.c **** 
1548:Generated_Source\PSoC4/CapSense.c ****     /* Disable Sensor */
1549:Generated_Source\PSoC4/CapSense.c ****     CapSense_DisableScanSlot(sensor);
1550:Generated_Source\PSoC4/CapSense.c **** 
1551:Generated_Source\PSoC4/CapSense.c ****     CyIntDisable(CapSense_ISR_NUMBER);
1552:Generated_Source\PSoC4/CapSense.c **** 
1553:Generated_Source\PSoC4/CapSense.c **** #if(CapSense_CMOD_PREGARGE_OPTION == CapSense__CAPPRIOBUF)
1554:Generated_Source\PSoC4/CapSense.c ****     newRegValue = CapSense_CMOD_CONNECTION_REG;
1555:Generated_Source\PSoC4/CapSense.c ****     newRegValue &= ~(CapSense_CSD_CMOD_CONNECTION_MASK);
1556:Generated_Source\PSoC4/CapSense.c ****     newRegValue |= CapSense_CSD_CMOD_TO_AMUXBUS_B;
1557:Generated_Source\PSoC4/CapSense.c ****     CapSense_CMOD_CONNECTION_REG = newRegValue;
1558:Generated_Source\PSoC4/CapSense.c **** 
1559:Generated_Source\PSoC4/CapSense.c ****     newRegValue = CapSense_CMOD_PORT_PC_REG;
1560:Generated_Source\PSoC4/CapSense.c ****     newRegValue &= ~(CapSense_CSD_CMOD_PC_MASK);
1561:Generated_Source\PSoC4/CapSense.c ****     newRegValue |= CapSense_CMOD_PC_STRONG_MODE;
1562:Generated_Source\PSoC4/CapSense.c ****     CapSense_CMOD_PORT_PC_REG = newRegValue;
1563:Generated_Source\PSoC4/CapSense.c **** 
1564:Generated_Source\PSoC4/CapSense.c ****     newRegValue = CapSense_CMOD_PORT_DR_REG;
1565:Generated_Source\PSoC4/CapSense.c ****     newRegValue &= ~(CapSense_CMOD_DR_MASK);
1566:Generated_Source\PSoC4/CapSense.c ****     newRegValue |= CapSense_CMOD_DR_CONFIG;
1567:Generated_Source\PSoC4/CapSense.c ****     CapSense_CMOD_PORT_DR_REG = newRegValue;
1568:Generated_Source\PSoC4/CapSense.c **** #endif /* (CapSense_CMOD_PREGARGE_OPTION == CapSense__CAPPRIOBUF) */
1569:Generated_Source\PSoC4/CapSense.c **** 
1570:Generated_Source\PSoC4/CapSense.c ****     /* Connect Vref Buffer to AMUX bus  */
1571:Generated_Source\PSoC4/CapSense.c ****     newRegValue = CapSense_CSD_CFG_REG;
1572:Generated_Source\PSoC4/CapSense.c ****     newRegValue &= ~(CapSense_PRECHARGE_CONFIG_MASK);
1573:Generated_Source\PSoC4/CapSense.c ****     newRegValue |= CapSense_CMOD_PRECHARGE_CONFIG;
1574:Generated_Source\PSoC4/CapSense.c ****     CapSense_CSD_CFG_REG = newRegValue;
1575:Generated_Source\PSoC4/CapSense.c **** 
1576:Generated_Source\PSoC4/CapSense.c ****     /* Set Idac Value = 0 */
1577:Generated_Source\PSoC4/CapSense.c **** #if (CapSense_IDAC_CNT == 1u)
ARM GAS  C:\Users\Ray\AppData\Local\Temp\ccn7U9Aq.s 			page 43


1578:Generated_Source\PSoC4/CapSense.c ****     CapSense_CSD_IDAC_REG &= ~(CapSense_CSD_IDAC1_DATA_MASK);
1579:Generated_Source\PSoC4/CapSense.c **** #else
1580:Generated_Source\PSoC4/CapSense.c ****     CapSense_CSD_IDAC_REG &= ~(CapSense_CSD_IDAC1_DATA_MASK | CapSense_CSD_IDAC2_DATA_MASK);
1581:Generated_Source\PSoC4/CapSense.c **** #endif /* (CapSense_IDAC_CNT == 1u) */
1582:Generated_Source\PSoC4/CapSense.c **** 
1583:Generated_Source\PSoC4/CapSense.c ****     CyIntEnable(CapSense_ISR_NUMBER);
1584:Generated_Source\PSoC4/CapSense.c **** }
1585:Generated_Source\PSoC4/CapSense.c **** 
1586:Generated_Source\PSoC4/CapSense.c **** 
1587:Generated_Source\PSoC4/CapSense.c **** /*******************************************************************************
1588:Generated_Source\PSoC4/CapSense.c **** * Function Name: CapSense_EnableShieldElectrode
1589:Generated_Source\PSoC4/CapSense.c **** ********************************************************************************
1590:Generated_Source\PSoC4/CapSense.c **** *
1591:Generated_Source\PSoC4/CapSense.c **** * Summary:
1592:Generated_Source\PSoC4/CapSense.c **** *  This API enables or disables the shield electrode on a specified port pin.
1593:Generated_Source\PSoC4/CapSense.c **** *
1594:Generated_Source\PSoC4/CapSense.c **** * Parameters:
1595:Generated_Source\PSoC4/CapSense.c **** *  portNumber: contains the shield electrode port number (0, 1, 2).
1596:Generated_Source\PSoC4/CapSense.c **** *  pinNumber: contains the shield electrode pin number (0, 1, 2, ... , 7).
1597:Generated_Source\PSoC4/CapSense.c **** *
1598:Generated_Source\PSoC4/CapSense.c **** * Return:
1599:Generated_Source\PSoC4/CapSense.c **** *  None
1600:Generated_Source\PSoC4/CapSense.c **** *
1601:Generated_Source\PSoC4/CapSense.c **** * Global Variables:
1602:Generated_Source\PSoC4/CapSense.c **** *  CapSense_prtCfgTbl[] - Contains pointers to the port config registers for each port.
1603:Generated_Source\PSoC4/CapSense.c **** *  CapSense_prtSelTbl[] - Contains pointers to the HSIOM registers for each port.
1604:Generated_Source\PSoC4/CapSense.c **** *
1605:Generated_Source\PSoC4/CapSense.c **** * Side Effects:
1606:Generated_Source\PSoC4/CapSense.c **** *  None
1607:Generated_Source\PSoC4/CapSense.c **** *
1608:Generated_Source\PSoC4/CapSense.c **** *******************************************************************************/
1609:Generated_Source\PSoC4/CapSense.c **** void CapSense_EnableShieldElectrode(uint32 pinNumber, uint32 portNumber)
1610:Generated_Source\PSoC4/CapSense.c **** {
 795              		.loc 1 1610 0
 796              		.cfi_startproc
 797              		@ args = 0, pretend = 0, frame = 0
 798              		@ frame_needed = 0, uses_anonymous_args = 0
 799              	.LVL94:
 800 0000 30B5     		push	{r4, r5, lr}
 801              		.cfi_def_cfa_offset 12
 802              		.cfi_offset 4, -12
 803              		.cfi_offset 5, -8
 804              		.cfi_offset 14, -4
1611:Generated_Source\PSoC4/CapSense.c ****     uint32 newRegValue;
1612:Generated_Source\PSoC4/CapSense.c **** 
1613:Generated_Source\PSoC4/CapSense.c ****     *CapSense_prtCfgTbl[portNumber] &= ~(CapSense_CSD_PIN_MODE_MASK << (pinNumber * CapSense_PC_PIN
 805              		.loc 1 1613 0
 806 0002 8900     		lsls	r1, r1, #2
 807              	.LVL95:
 808 0004 0A4B     		ldr	r3, .L50
 809 0006 5918     		adds	r1, r3, r1
 810 0008 CD69     		ldr	r5, [r1, #28]
 811 000a 2B68     		ldr	r3, [r5]
 812 000c 4400     		lsls	r4, r0, #1
 813 000e 2418     		adds	r4, r4, r0
 814 0010 0722     		movs	r2, #7
 815 0012 A240     		lsls	r2, r2, r4
ARM GAS  C:\Users\Ray\AppData\Local\Temp\ccn7U9Aq.s 			page 44


 816 0014 9343     		bics	r3, r2
 817 0016 2B60     		str	r3, [r5]
1614:Generated_Source\PSoC4/CapSense.c ****     newRegValue = *CapSense_prtSelTbl[portNumber];
 818              		.loc 1 1614 0
 819 0018 8968     		ldr	r1, [r1, #8]
 820 001a 0B68     		ldr	r3, [r1]
 821              	.LVL96:
1615:Generated_Source\PSoC4/CapSense.c ****     newRegValue &= ~(CapSense_CSD_HSIOM_MASK << (pinNumber * CapSense_HSIOM_PIN_CFG_SIZE));
 822              		.loc 1 1615 0
 823 001c 8000     		lsls	r0, r0, #2
 824              	.LVL97:
 825 001e 0F22     		movs	r2, #15
 826 0020 8240     		lsls	r2, r2, r0
 827 0022 9343     		bics	r3, r2
 828              	.LVL98:
 829 0024 1A00     		movs	r2, r3
 830              	.LVL99:
1616:Generated_Source\PSoC4/CapSense.c ****     newRegValue |= (CapSense_CSD_SHIELD_PORT_MODE << (pinNumber * CapSense_HSIOM_PIN_CFG_SIZE));
 831              		.loc 1 1616 0
 832 0026 0523     		movs	r3, #5
 833 0028 8340     		lsls	r3, r3, r0
 834 002a 1343     		orrs	r3, r2
 835              	.LVL100:
1617:Generated_Source\PSoC4/CapSense.c ****     *CapSense_prtSelTbl[portNumber] = newRegValue;
 836              		.loc 1 1617 0
 837 002c 0B60     		str	r3, [r1]
1618:Generated_Source\PSoC4/CapSense.c **** }
 838              		.loc 1 1618 0
 839              		@ sp needed
 840 002e 30BD     		pop	{r4, r5, pc}
 841              	.L51:
 842              		.align	2
 843              	.L50:
 844 0030 00000000 		.word	.LANCHOR2
 845              		.cfi_endproc
 846              	.LFE54:
 847              		.size	CapSense_EnableShieldElectrode, .-CapSense_EnableShieldElectrode
 848              		.section	.text.CapSense_SetShieldDelay,"ax",%progbits
 849              		.align	2
 850              		.global	CapSense_SetShieldDelay
 851              		.code	16
 852              		.thumb_func
 853              		.type	CapSense_SetShieldDelay, %function
 854              	CapSense_SetShieldDelay:
 855              	.LFB55:
1619:Generated_Source\PSoC4/CapSense.c **** 
1620:Generated_Source\PSoC4/CapSense.c **** 
1621:Generated_Source\PSoC4/CapSense.c **** /*******************************************************************************
1622:Generated_Source\PSoC4/CapSense.c **** * Function Name: CapSense_SetShieldDelay
1623:Generated_Source\PSoC4/CapSense.c **** ********************************************************************************
1624:Generated_Source\PSoC4/CapSense.c **** *
1625:Generated_Source\PSoC4/CapSense.c **** * Summary:
1626:Generated_Source\PSoC4/CapSense.c **** *  This API sets a shield delay.
1627:Generated_Source\PSoC4/CapSense.c **** *
1628:Generated_Source\PSoC4/CapSense.c **** * Parameters:
1629:Generated_Source\PSoC4/CapSense.c **** *  delay:  shield delay value:
1630:Generated_Source\PSoC4/CapSense.c **** *                               0 - no delay
ARM GAS  C:\Users\Ray\AppData\Local\Temp\ccn7U9Aq.s 			page 45


1631:Generated_Source\PSoC4/CapSense.c **** *                               1 - 1 cycle delay
1632:Generated_Source\PSoC4/CapSense.c **** *                               2 - 2 cycles delay
1633:Generated_Source\PSoC4/CapSense.c **** *
1634:Generated_Source\PSoC4/CapSense.c **** * Return:
1635:Generated_Source\PSoC4/CapSense.c **** *  None
1636:Generated_Source\PSoC4/CapSense.c **** *
1637:Generated_Source\PSoC4/CapSense.c **** * Global Variables:
1638:Generated_Source\PSoC4/CapSense.c **** *  None
1639:Generated_Source\PSoC4/CapSense.c **** *
1640:Generated_Source\PSoC4/CapSense.c **** * Side Effects:
1641:Generated_Source\PSoC4/CapSense.c **** *  None
1642:Generated_Source\PSoC4/CapSense.c **** *
1643:Generated_Source\PSoC4/CapSense.c **** *******************************************************************************/
1644:Generated_Source\PSoC4/CapSense.c **** void CapSense_SetShieldDelay(uint32 delay)
1645:Generated_Source\PSoC4/CapSense.c **** {
 856              		.loc 1 1645 0
 857              		.cfi_startproc
 858              		@ args = 0, pretend = 0, frame = 0
 859              		@ frame_needed = 0, uses_anonymous_args = 0
 860              		@ link register save eliminated.
 861              	.LVL101:
1646:Generated_Source\PSoC4/CapSense.c ****     uint32 newRegValue;
1647:Generated_Source\PSoC4/CapSense.c **** 
1648:Generated_Source\PSoC4/CapSense.c ****     delay &= 0x03u;
1649:Generated_Source\PSoC4/CapSense.c **** 
1650:Generated_Source\PSoC4/CapSense.c ****     newRegValue = CapSense_CSD_CFG_REG;
 862              		.loc 1 1650 0
 863 0000 044A     		ldr	r2, .L53
 864 0002 1168     		ldr	r1, [r2]
 865              	.LVL102:
1651:Generated_Source\PSoC4/CapSense.c ****     newRegValue &= (uint32)(~(uint32)CapSense_SHIELD_DELAY);
1652:Generated_Source\PSoC4/CapSense.c ****     newRegValue |= (delay << CapSense_CSD_CFG_SHIELD_DELAY_POS);
 866              		.loc 1 1652 0
 867 0004 4002     		lsls	r0, r0, #9
 868              	.LVL103:
 869 0006 C023     		movs	r3, #192
 870 0008 DB00     		lsls	r3, r3, #3
 871 000a 1840     		ands	r0, r3
 872 000c 0843     		orrs	r0, r1
 873              	.LVL104:
1653:Generated_Source\PSoC4/CapSense.c ****     CapSense_CSD_CFG_REG = newRegValue;
 874              		.loc 1 1653 0
 875 000e 1060     		str	r0, [r2]
1654:Generated_Source\PSoC4/CapSense.c **** }
 876              		.loc 1 1654 0
 877              		@ sp needed
 878 0010 7047     		bx	lr
 879              	.L54:
 880 0012 C046     		.align	2
 881              	.L53:
 882 0014 04000840 		.word	1074266116
 883              		.cfi_endproc
 884              	.LFE55:
 885              		.size	CapSense_SetShieldDelay, .-CapSense_SetShieldDelay
 886              		.section	.text.CapSense_ReadCurrentScanningSensor,"ax",%progbits
 887              		.align	2
 888              		.global	CapSense_ReadCurrentScanningSensor
ARM GAS  C:\Users\Ray\AppData\Local\Temp\ccn7U9Aq.s 			page 46


 889              		.code	16
 890              		.thumb_func
 891              		.type	CapSense_ReadCurrentScanningSensor, %function
 892              	CapSense_ReadCurrentScanningSensor:
 893              	.LFB56:
1655:Generated_Source\PSoC4/CapSense.c **** 
1656:Generated_Source\PSoC4/CapSense.c **** 
1657:Generated_Source\PSoC4/CapSense.c **** /*******************************************************************************
1658:Generated_Source\PSoC4/CapSense.c **** * Function Name: CapSense_ReadCurrentScanningSensor
1659:Generated_Source\PSoC4/CapSense.c **** ********************************************************************************
1660:Generated_Source\PSoC4/CapSense.c **** *
1661:Generated_Source\PSoC4/CapSense.c **** * Summary:
1662:Generated_Source\PSoC4/CapSense.c **** *  This API returns scanning sensor number when sensor scan is in progress.
1663:Generated_Source\PSoC4/CapSense.c **** *  When sensor scan is completed the API returns
1664:Generated_Source\PSoC4/CapSense.c **** *  $INSTANCE_NAME`_NOT_SENSOR (0xFFFFFFFF) (when no sensor is scanned).
1665:Generated_Source\PSoC4/CapSense.c **** *
1666:Generated_Source\PSoC4/CapSense.c **** * Parameters:
1667:Generated_Source\PSoC4/CapSense.c **** *   None.
1668:Generated_Source\PSoC4/CapSense.c **** *
1669:Generated_Source\PSoC4/CapSense.c **** * Return:
1670:Generated_Source\PSoC4/CapSense.c **** *  Returns Sensor number if sensor is being scanned and
1671:Generated_Source\PSoC4/CapSense.c **** *  $INSTANCE_NAME`_NOT_SENSOR (0xFFFFFFFF) if scanning is complete.
1672:Generated_Source\PSoC4/CapSense.c **** *
1673:Generated_Source\PSoC4/CapSense.c **** * Global Variables:
1674:Generated_Source\PSoC4/CapSense.c **** *  CapSense_sensorIndex - the sensor number is being scanned.
1675:Generated_Source\PSoC4/CapSense.c **** *
1676:Generated_Source\PSoC4/CapSense.c **** * Side Effects:
1677:Generated_Source\PSoC4/CapSense.c **** *  None
1678:Generated_Source\PSoC4/CapSense.c **** *
1679:Generated_Source\PSoC4/CapSense.c **** *******************************************************************************/
1680:Generated_Source\PSoC4/CapSense.c **** uint32 CapSense_ReadCurrentScanningSensor(void)
1681:Generated_Source\PSoC4/CapSense.c **** {
 894              		.loc 1 1681 0
 895              		.cfi_startproc
 896              		@ args = 0, pretend = 0, frame = 0
 897              		@ frame_needed = 0, uses_anonymous_args = 0
 898              		@ link register save eliminated.
1682:Generated_Source\PSoC4/CapSense.c ****     return ((uint32)(( 0u != (CapSense_csdStatusVar & CapSense_SW_STS_BUSY)) ?
 899              		.loc 1 1682 0
 900 0000 054B     		ldr	r3, .L58
 901 0002 1B78     		ldrb	r3, [r3]
 902 0004 DB07     		lsls	r3, r3, #31
 903 0006 03D5     		bpl	.L57
 904              		.loc 1 1682 0 is_stmt 0 discriminator 1
 905 0008 034B     		ldr	r3, .L58
 906 000a 187A     		ldrb	r0, [r3, #8]
 907 000c C0B2     		uxtb	r0, r0
 908 000e 01E0     		b	.L56
 909              	.L57:
 910              		.loc 1 1682 0
 911 0010 0120     		movs	r0, #1
 912 0012 4042     		rsbs	r0, r0, #0
 913              	.L56:
1683:Generated_Source\PSoC4/CapSense.c ****                      CapSense_sensorIndex : CapSense_NOT_SENSOR));
1684:Generated_Source\PSoC4/CapSense.c **** }
 914              		.loc 1 1684 0 is_stmt 1 discriminator 4
 915              		@ sp needed
ARM GAS  C:\Users\Ray\AppData\Local\Temp\ccn7U9Aq.s 			page 47


 916 0014 7047     		bx	lr
 917              	.L59:
 918 0016 C046     		.align	2
 919              	.L58:
 920 0018 00000000 		.word	.LANCHOR0
 921              		.cfi_endproc
 922              	.LFE56:
 923              		.size	CapSense_ReadCurrentScanningSensor, .-CapSense_ReadCurrentScanningSensor
 924              		.section	.text.CapSense_GetBitValue,"ax",%progbits
 925              		.align	2
 926              		.global	CapSense_GetBitValue
 927              		.code	16
 928              		.thumb_func
 929              		.type	CapSense_GetBitValue, %function
 930              	CapSense_GetBitValue:
 931              	.LFB57:
1685:Generated_Source\PSoC4/CapSense.c **** 
1686:Generated_Source\PSoC4/CapSense.c **** 
1687:Generated_Source\PSoC4/CapSense.c **** /*******************************************************************************
1688:Generated_Source\PSoC4/CapSense.c **** * Function Name: CapSense_GetBitValue
1689:Generated_Source\PSoC4/CapSense.c **** ********************************************************************************
1690:Generated_Source\PSoC4/CapSense.c **** *
1691:Generated_Source\PSoC4/CapSense.c **** * Summary:
1692:Generated_Source\PSoC4/CapSense.c **** *  The API returns a bit status of the bit in the table array which contains the masks.
1693:Generated_Source\PSoC4/CapSense.c **** *
1694:Generated_Source\PSoC4/CapSense.c **** * Parameters:
1695:Generated_Source\PSoC4/CapSense.c **** *  table[] - array with bit masks.
1696:Generated_Source\PSoC4/CapSense.c **** *  position - position of bit in the table[] array.
1697:Generated_Source\PSoC4/CapSense.c **** *
1698:Generated_Source\PSoC4/CapSense.c **** * Return:
1699:Generated_Source\PSoC4/CapSense.c **** *  0 - bit is not set; 1 - bit is set.
1700:Generated_Source\PSoC4/CapSense.c **** *
1701:Generated_Source\PSoC4/CapSense.c **** * Global Variables:
1702:Generated_Source\PSoC4/CapSense.c **** *  None
1703:Generated_Source\PSoC4/CapSense.c **** *
1704:Generated_Source\PSoC4/CapSense.c **** * Side Effects:
1705:Generated_Source\PSoC4/CapSense.c **** *  None
1706:Generated_Source\PSoC4/CapSense.c **** *
1707:Generated_Source\PSoC4/CapSense.c **** *******************************************************************************/
1708:Generated_Source\PSoC4/CapSense.c **** uint32 CapSense_GetBitValue(const uint8 table[], uint32 position)
1709:Generated_Source\PSoC4/CapSense.c **** {
 932              		.loc 1 1709 0
 933              		.cfi_startproc
 934              		@ args = 0, pretend = 0, frame = 0
 935              		@ frame_needed = 0, uses_anonymous_args = 0
 936              		@ link register save eliminated.
 937              	.LVL105:
1710:Generated_Source\PSoC4/CapSense.c ****     uint32 offset;
1711:Generated_Source\PSoC4/CapSense.c ****     uint8 enMask;
1712:Generated_Source\PSoC4/CapSense.c **** 
1713:Generated_Source\PSoC4/CapSense.c ****     /* position is divided by 8 to calculate the element of the
1714:Generated_Source\PSoC4/CapSense.c ****        table[] array that contains the enable bit
1715:Generated_Source\PSoC4/CapSense.c ****        for an appropriate sensor.
1716:Generated_Source\PSoC4/CapSense.c ****     */
1717:Generated_Source\PSoC4/CapSense.c ****     offset = (position >> 3u);
 938              		.loc 1 1717 0
 939 0000 CA08     		lsrs	r2, r1, #3
ARM GAS  C:\Users\Ray\AppData\Local\Temp\ccn7U9Aq.s 			page 48


 940              	.LVL106:
1718:Generated_Source\PSoC4/CapSense.c **** 
1719:Generated_Source\PSoC4/CapSense.c ****     /* The enMask calculation for the appropriate sensor. Operation (position & 0x07u)
1720:Generated_Source\PSoC4/CapSense.c ****        intends to calculate the enable bit offset for the 8-bit element of the
1721:Generated_Source\PSoC4/CapSense.c ****        table[] array.
1722:Generated_Source\PSoC4/CapSense.c ****     */
1723:Generated_Source\PSoC4/CapSense.c ****     enMask = 0x01u << (position & 0x07u);
 941              		.loc 1 1723 0
 942 0002 0723     		movs	r3, #7
 943 0004 1940     		ands	r1, r3
 944              	.LVL107:
 945 0006 063B     		subs	r3, r3, #6
 946 0008 8B40     		lsls	r3, r3, r1
 947              	.LVL108:
1724:Generated_Source\PSoC4/CapSense.c **** 
1725:Generated_Source\PSoC4/CapSense.c ****     return ((0u !=(table[offset] & enMask)) ? 1Lu : 0Lu);
 948              		.loc 1 1725 0
 949 000a 825C     		ldrb	r2, [r0, r2]
 950              	.LVL109:
 951 000c 1342     		tst	r3, r2
 952 000e 01D0     		beq	.L62
 953 0010 0120     		movs	r0, #1
 954              	.LVL110:
 955 0012 00E0     		b	.L61
 956              	.LVL111:
 957              	.L62:
 958 0014 0020     		movs	r0, #0
 959              	.LVL112:
 960              	.L61:
1726:Generated_Source\PSoC4/CapSense.c **** }
 961              		.loc 1 1726 0 discriminator 4
 962              		@ sp needed
 963 0016 7047     		bx	lr
 964              		.cfi_endproc
 965              	.LFE57:
 966              		.size	CapSense_GetBitValue, .-CapSense_GetBitValue
 967              		.section	.text.CapSense_FindNextSensor,"ax",%progbits
 968              		.align	2
 969              		.global	CapSense_FindNextSensor
 970              		.code	16
 971              		.thumb_func
 972              		.type	CapSense_FindNextSensor, %function
 973              	CapSense_FindNextSensor:
 974              	.LFB37:
 491:Generated_Source\PSoC4/CapSense.c ****     uint32 enableFlag;
 975              		.loc 1 491 0
 976              		.cfi_startproc
 977              		@ args = 0, pretend = 0, frame = 0
 978              		@ frame_needed = 0, uses_anonymous_args = 0
 979              	.LVL113:
 980 0000 10B5     		push	{r4, lr}
 981              		.cfi_def_cfa_offset 8
 982              		.cfi_offset 4, -8
 983              		.cfi_offset 14, -4
 984 0002 0400     		movs	r4, r0
 985              	.LVL114:
 986              	.L65:
ARM GAS  C:\Users\Ray\AppData\Local\Temp\ccn7U9Aq.s 			page 49


 498:Generated_Source\PSoC4/CapSense.c ****         if(snsIndex == CapSense_TOTAL_SENSOR_COUNT)
 987              		.loc 1 498 0
 988 0004 0134     		adds	r4, r4, #1
 989              	.LVL115:
 990 0006 E4B2     		uxtb	r4, r4
 991              	.LVL116:
 499:Generated_Source\PSoC4/CapSense.c ****         {
 992              		.loc 1 499 0
 993 0008 022C     		cmp	r4, #2
 994 000a 06D0     		beq	.L64
 503:Generated_Source\PSoC4/CapSense.c ****     }
 995              		.loc 1 503 0
 996 000c 2100     		movs	r1, r4
 997 000e 0448     		ldr	r0, .L66
 998 0010 0830     		adds	r0, r0, #8
 999 0012 FFF7FEFF 		bl	CapSense_GetBitValue
 1000              	.LVL117:
 505:Generated_Source\PSoC4/CapSense.c **** 
 1001              		.loc 1 505 0
 1002 0016 0028     		cmp	r0, #0
 1003 0018 F4D0     		beq	.L65
 1004              	.LVL118:
 1005              	.L64:
 508:Generated_Source\PSoC4/CapSense.c **** 
 1006              		.loc 1 508 0
 1007 001a 2000     		movs	r0, r4
 1008              		@ sp needed
 1009              	.LVL119:
 1010 001c 10BD     		pop	{r4, pc}
 1011              	.L67:
 1012 001e C046     		.align	2
 1013              	.L66:
 1014 0020 00000000 		.word	.LANCHOR1
 1015              		.cfi_endproc
 1016              	.LFE37:
 1017              		.size	CapSense_FindNextSensor, .-CapSense_FindNextSensor
 1018              		.section	.text.CapSense_PreScan,"ax",%progbits
 1019              		.align	2
 1020              		.global	CapSense_PreScan
 1021              		.code	16
 1022              		.thumb_func
 1023              		.type	CapSense_PreScan, %function
 1024              	CapSense_PreScan:
 1025              	.LFB52:
1320:Generated_Source\PSoC4/CapSense.c ****     uint8 widget;
 1026              		.loc 1 1320 0
 1027              		.cfi_startproc
 1028              		@ args = 0, pretend = 0, frame = 0
 1029              		@ frame_needed = 0, uses_anonymous_args = 0
 1030              	.LVL120:
 1031 0000 F8B5     		push	{r3, r4, r5, r6, r7, lr}
 1032              		.cfi_def_cfa_offset 24
 1033              		.cfi_offset 3, -24
 1034              		.cfi_offset 4, -20
 1035              		.cfi_offset 5, -16
 1036              		.cfi_offset 6, -12
 1037              		.cfi_offset 7, -8
ARM GAS  C:\Users\Ray\AppData\Local\Temp\ccn7U9Aq.s 			page 50


 1038              		.cfi_offset 14, -4
 1039 0002 0400     		movs	r4, r0
1338:Generated_Source\PSoC4/CapSense.c **** 
 1040              		.loc 1 1338 0
 1041 0004 234B     		ldr	r3, .L70
 1042 0006 1B18     		adds	r3, r3, r0
 1043 0008 4422     		movs	r2, #68
 1044 000a 9B5C     		ldrb	r3, [r3, r2]
 1045              	.LVL121:
1341:Generated_Source\PSoC4/CapSense.c **** 
 1046              		.loc 1 1341 0
 1047 000c 9B00     		lsls	r3, r3, #2
 1048              	.LVL122:
 1049 000e 224A     		ldr	r2, .L70+4
 1050              	.LVL123:
 1051 0010 9E58     		ldr	r6, [r3, r2]
 1052              	.LVL124:
1345:Generated_Source\PSoC4/CapSense.c **** 
 1053              		.loc 1 1345 0
 1054 0012 0100     		movs	r1, r0
 1055 0014 2148     		ldr	r0, .L70+8
 1056              	.LVL125:
 1057 0016 FFF7FEFF 		bl	CapSense_GetBitValue
 1058              	.LVL126:
1347:Generated_Source\PSoC4/CapSense.c ****         {
 1059              		.loc 1 1347 0
 1060 001a 214B     		ldr	r3, .L70+12
 1061 001c 9E42     		cmp	r6, r3
 1062 001e 03D8     		bhi	.L69
1349:Generated_Source\PSoC4/CapSense.c ****             counterResolution |= (uint32)(CapSense_RESOLUTION_8_BITS);
 1063              		.loc 1 1349 0
 1064 0020 8640     		lsls	r6, r6, r0
 1065              	.LVL127:
1350:Generated_Source\PSoC4/CapSense.c ****         }
 1066              		.loc 1 1350 0
 1067 0022 FF23     		movs	r3, #255
 1068 0024 1B04     		lsls	r3, r3, #16
 1069 0026 1E43     		orrs	r6, r3
 1070              	.LVL128:
 1071              	.L69:
1361:Generated_Source\PSoC4/CapSense.c ****         CapSense_SenseClk_SetDividerValue((uint16)CapSense_senseClkDividerVal[sensor]);
 1072              		.loc 1 1361 0
 1073 0028 1E4B     		ldr	r3, .L70+16
 1074 002a 185D     		ldrb	r0, [r3, r4]
 1075              	.LVL129:
 1076 002c 0138     		subs	r0, r0, #1
 1077 002e 80B2     		uxth	r0, r0
 1078 0030 0021     		movs	r1, #0
 1079 0032 FFF7FEFF 		bl	CapSense_SampleClk_SetFractionalDividerRegister
 1080              	.LVL130:
1362:Generated_Source\PSoC4/CapSense.c ****     #else
 1081              		.loc 1 1362 0
 1082 0036 1C4B     		ldr	r3, .L70+20
 1083 0038 185D     		ldrb	r0, [r3, r4]
 1084 003a 0138     		subs	r0, r0, #1
 1085 003c 80B2     		uxth	r0, r0
 1086 003e 0021     		movs	r1, #0
ARM GAS  C:\Users\Ray\AppData\Local\Temp\ccn7U9Aq.s 			page 51


 1087 0040 FFF7FEFF 		bl	CapSense_SenseClk_SetFractionalDividerRegister
 1088              	.LVL131:
1431:Generated_Source\PSoC4/CapSense.c ****     newRegValue = CapSense_CSD_IDAC_REG;
 1089              		.loc 1 1431 0
 1090 0044 0F20     		movs	r0, #15
 1091 0046 FFF7FEFF 		bl	CyIntDisable
 1092              	.LVL132:
1432:Generated_Source\PSoC4/CapSense.c **** 
 1093              		.loc 1 1432 0
 1094 004a 1848     		ldr	r0, .L70+24
 1095 004c 0168     		ldr	r1, [r0]
 1096              	.LVL133:
1438:Generated_Source\PSoC4/CapSense.c ****     newRegValue |= (CapSense_modulationIDAC[sensor] |
 1097              		.loc 1 1438 0
 1098 004e 184B     		ldr	r3, .L70+28
 1099 0050 1940     		ands	r1, r3
 1100              	.LVL134:
1439:Generated_Source\PSoC4/CapSense.c ****                             (uint32)((uint32)CapSense_compensationIDAC[sensor] <<
 1101              		.loc 1 1439 0
 1102 0052 184B     		ldr	r3, .L70+32
 1103 0054 1B5D     		ldrb	r3, [r3, r4]
1440:Generated_Source\PSoC4/CapSense.c ****                             CapSense_CSD_IDAC2_DATA_OFFSET));
 1104              		.loc 1 1440 0
 1105 0056 184A     		ldr	r2, .L70+36
 1106 0058 125D     		ldrb	r2, [r2, r4]
 1107 005a 1204     		lsls	r2, r2, #16
1439:Generated_Source\PSoC4/CapSense.c ****                             (uint32)((uint32)CapSense_compensationIDAC[sensor] <<
 1108              		.loc 1 1439 0
 1109 005c 1343     		orrs	r3, r2
 1110 005e 0B43     		orrs	r3, r1
 1111              	.LVL135:
1444:Generated_Source\PSoC4/CapSense.c **** 
 1112              		.loc 1 1444 0
 1113 0060 0360     		str	r3, [r0]
1459:Generated_Source\PSoC4/CapSense.c ****     newRegValue &= ~(CapSense_PRECHARGE_CONFIG_MASK);
 1114              		.loc 1 1459 0
 1115 0062 164F     		ldr	r7, .L70+40
 1116 0064 3D68     		ldr	r5, [r7]
 1117              	.LVL136:
1460:Generated_Source\PSoC4/CapSense.c ****     newRegValue |= CapSense_CTANK_PRECHARGE_CONFIG;
 1118              		.loc 1 1460 0
 1119 0066 164B     		ldr	r3, .L70+44
 1120 0068 1D40     		ands	r5, r3
 1121              	.LVL137:
1461:Generated_Source\PSoC4/CapSense.c **** 
 1122              		.loc 1 1461 0
 1123 006a 164B     		ldr	r3, .L70+48
 1124 006c 1D43     		orrs	r5, r3
 1125              	.LVL138:
1463:Generated_Source\PSoC4/CapSense.c **** 
 1126              		.loc 1 1463 0
 1127 006e 0F20     		movs	r0, #15
 1128 0070 FFF7FEFF 		bl	CyIntEnable
 1129              	.LVL139:
1466:Generated_Source\PSoC4/CapSense.c **** 
 1130              		.loc 1 1466 0
 1131 0074 2000     		movs	r0, r4
ARM GAS  C:\Users\Ray\AppData\Local\Temp\ccn7U9Aq.s 			page 52


 1132 0076 FFF7FEFF 		bl	CapSense_EnableSensor
 1133              	.LVL140:
1468:Generated_Source\PSoC4/CapSense.c ****     CapSense_CSD_CFG_REG = newRegValue;
 1134              		.loc 1 1468 0
 1135 007a FFF7FEFF 		bl	CyEnterCriticalSection
 1136              	.LVL141:
 1137 007e 0400     		movs	r4, r0
 1138              	.LVL142:
1469:Generated_Source\PSoC4/CapSense.c **** 
 1139              		.loc 1 1469 0
 1140 0080 3D60     		str	r5, [r7]
1479:Generated_Source\PSoC4/CapSense.c **** 
 1141              		.loc 1 1479 0
 1142 0082 0020     		movs	r0, #0
 1143 0084 FFF7FEFF 		bl	CyDelayCycles
 1144              	.LVL143:
1489:Generated_Source\PSoC4/CapSense.c ****     CyExitCriticalSection(interruptState);
 1145              		.loc 1 1489 0
 1146 0088 0F4B     		ldr	r3, .L70+52
 1147 008a 1E60     		str	r6, [r3]
1490:Generated_Source\PSoC4/CapSense.c **** }
 1148              		.loc 1 1490 0
 1149 008c 2000     		movs	r0, r4
 1150 008e FFF7FEFF 		bl	CyExitCriticalSection
 1151              	.LVL144:
1491:Generated_Source\PSoC4/CapSense.c **** 
 1152              		.loc 1 1491 0
 1153              		@ sp needed
 1154              	.LVL145:
 1155              	.LVL146:
 1156              	.LVL147:
 1157 0092 F8BD     		pop	{r3, r4, r5, r6, r7, pc}
 1158              	.L71:
 1159              		.align	2
 1160              	.L70:
 1161 0094 00000000 		.word	.LANCHOR2
 1162 0098 00000000 		.word	.LANCHOR1
 1163 009c 00000000 		.word	CapSense_scanSpeedTbl
 1164 00a0 FFFFFEFF 		.word	-65537
 1165 00a4 00000000 		.word	CapSense_sampleClkDividerVal
 1166 00a8 00000000 		.word	CapSense_senseClkDividerVal
 1167 00ac 08000840 		.word	1074266120
 1168 00b0 00FF80FF 		.word	-8323328
 1169 00b4 00000000 		.word	CapSense_modulationIDAC
 1170 00b8 00000000 		.word	CapSense_compensationIDAC
 1171 00bc 04000840 		.word	1074266116
 1172 00c0 FF1FDFFF 		.word	-2154497
 1173 00c4 20E02000 		.word	2154528
 1174 00c8 0C000840 		.word	1074266124
 1175              		.cfi_endproc
 1176              	.LFE52:
 1177              		.size	CapSense_PreScan, .-CapSense_PreScan
 1178              		.section	.text.CapSense_ScanSensor,"ax",%progbits
 1179              		.align	2
 1180              		.global	CapSense_ScanSensor
 1181              		.code	16
 1182              		.thumb_func
ARM GAS  C:\Users\Ray\AppData\Local\Temp\ccn7U9Aq.s 			page 53


 1183              		.type	CapSense_ScanSensor, %function
 1184              	CapSense_ScanSensor:
 1185              	.LFB38:
 539:Generated_Source\PSoC4/CapSense.c ****     /* Clears status/control variable and set sensorIndex */
 1186              		.loc 1 539 0
 1187              		.cfi_startproc
 1188              		@ args = 0, pretend = 0, frame = 0
 1189              		@ frame_needed = 0, uses_anonymous_args = 0
 1190              	.LVL148:
 1191 0000 10B5     		push	{r4, lr}
 1192              		.cfi_def_cfa_offset 8
 1193              		.cfi_offset 4, -8
 1194              		.cfi_offset 14, -4
 541:Generated_Source\PSoC4/CapSense.c ****     CapSense_sensorIndex = (uint8)sensor;
 1195              		.loc 1 541 0
 1196 0002 054B     		ldr	r3, .L73
 1197 0004 0022     		movs	r2, #0
 1198 0006 1A70     		strb	r2, [r3]
 542:Generated_Source\PSoC4/CapSense.c **** 
 1199              		.loc 1 542 0
 1200 0008 C2B2     		uxtb	r2, r0
 1201 000a 1A72     		strb	r2, [r3, #8]
 545:Generated_Source\PSoC4/CapSense.c ****     CapSense_PreScan(sensor);
 1202              		.loc 1 545 0
 1203 000c 8122     		movs	r2, #129
 1204 000e 1A70     		strb	r2, [r3]
 546:Generated_Source\PSoC4/CapSense.c **** }
 1205              		.loc 1 546 0
 1206 0010 FFF7FEFF 		bl	CapSense_PreScan
 1207              	.LVL149:
 547:Generated_Source\PSoC4/CapSense.c **** 
 1208              		.loc 1 547 0
 1209              		@ sp needed
 1210 0014 10BD     		pop	{r4, pc}
 1211              	.L74:
 1212 0016 C046     		.align	2
 1213              	.L73:
 1214 0018 00000000 		.word	.LANCHOR0
 1215              		.cfi_endproc
 1216              	.LFE38:
 1217              		.size	CapSense_ScanSensor, .-CapSense_ScanSensor
 1218              		.section	.text.CapSense_ScanEnabledWidgets,"ax",%progbits
 1219              		.align	2
 1220              		.global	CapSense_ScanEnabledWidgets
 1221              		.code	16
 1222              		.thumb_func
 1223              		.type	CapSense_ScanEnabledWidgets, %function
 1224              	CapSense_ScanEnabledWidgets:
 1225              	.LFB40:
 663:Generated_Source\PSoC4/CapSense.c ****     /* Clears status/control variable and set sensorIndex */
 1226              		.loc 1 663 0
 1227              		.cfi_startproc
 1228              		@ args = 0, pretend = 0, frame = 0
 1229              		@ frame_needed = 0, uses_anonymous_args = 0
 1230 0000 10B5     		push	{r4, lr}
 1231              		.cfi_def_cfa_offset 8
 1232              		.cfi_offset 4, -8
ARM GAS  C:\Users\Ray\AppData\Local\Temp\ccn7U9Aq.s 			page 54


 1233              		.cfi_offset 14, -4
 665:Generated_Source\PSoC4/CapSense.c ****     CapSense_sensorIndex = 0xFFu;
 1234              		.loc 1 665 0
 1235 0002 0C4C     		ldr	r4, .L77
 1236 0004 0023     		movs	r3, #0
 1237 0006 2370     		strb	r3, [r4]
 666:Generated_Source\PSoC4/CapSense.c **** 
 1238              		.loc 1 666 0
 1239 0008 FF33     		adds	r3, r3, #255
 1240 000a 2372     		strb	r3, [r4, #8]
 669:Generated_Source\PSoC4/CapSense.c **** 
 1241              		.loc 1 669 0
 1242 000c 207A     		ldrb	r0, [r4, #8]
 1243 000e C0B2     		uxtb	r0, r0
 1244 0010 FFF7FEFF 		bl	CapSense_FindNextSensor
 1245              	.LVL150:
 1246 0014 2072     		strb	r0, [r4, #8]
 672:Generated_Source\PSoC4/CapSense.c ****     {
 1247              		.loc 1 672 0
 1248 0016 237A     		ldrb	r3, [r4, #8]
 1249 0018 DBB2     		uxtb	r3, r3
 1250 001a 012B     		cmp	r3, #1
 1251 001c 08D8     		bhi	.L75
 674:Generated_Source\PSoC4/CapSense.c ****         CapSense_PreScan((uint32)CapSense_sensorIndex);
 1252              		.loc 1 674 0
 1253 001e 2178     		ldrb	r1, [r4]
 1254 0020 0123     		movs	r3, #1
 1255 0022 0B43     		orrs	r3, r1
 1256 0024 DBB2     		uxtb	r3, r3
 1257 0026 2370     		strb	r3, [r4]
 675:Generated_Source\PSoC4/CapSense.c ****     }
 1258              		.loc 1 675 0
 1259 0028 207A     		ldrb	r0, [r4, #8]
 1260 002a C0B2     		uxtb	r0, r0
 1261 002c FFF7FEFF 		bl	CapSense_PreScan
 1262              	.LVL151:
 1263              	.L75:
 677:Generated_Source\PSoC4/CapSense.c **** 
 1264              		.loc 1 677 0
 1265              		@ sp needed
 1266 0030 10BD     		pop	{r4, pc}
 1267              	.L78:
 1268 0032 C046     		.align	2
 1269              	.L77:
 1270 0034 00000000 		.word	.LANCHOR0
 1271              		.cfi_endproc
 1272              	.LFE40:
 1273              		.size	CapSense_ScanEnabledWidgets, .-CapSense_ScanEnabledWidgets
 1274              		.section	.text.CapSense_PostScan,"ax",%progbits
 1275              		.align	2
 1276              		.global	CapSense_PostScan
 1277              		.code	16
 1278              		.thumb_func
 1279              		.type	CapSense_PostScan, %function
 1280              	CapSense_PostScan:
 1281              	.LFB53:
1517:Generated_Source\PSoC4/CapSense.c ****     uint32 newRegValue;
ARM GAS  C:\Users\Ray\AppData\Local\Temp\ccn7U9Aq.s 			page 55


 1282              		.loc 1 1517 0
 1283              		.cfi_startproc
 1284              		@ args = 0, pretend = 0, frame = 0
 1285              		@ frame_needed = 0, uses_anonymous_args = 0
 1286              	.LVL152:
 1287 0000 70B5     		push	{r4, r5, r6, lr}
 1288              		.cfi_def_cfa_offset 16
 1289              		.cfi_offset 4, -16
 1290              		.cfi_offset 5, -12
 1291              		.cfi_offset 6, -8
 1292              		.cfi_offset 14, -4
 1293 0002 0500     		movs	r5, r0
1535:Generated_Source\PSoC4/CapSense.c **** 
 1294              		.loc 1 1535 0
 1295 0004 184B     		ldr	r3, .L81
 1296 0006 1C68     		ldr	r4, [r3]
 1297 0008 A4B2     		uxth	r4, r4
 1298 000a 4300     		lsls	r3, r0, #1
 1299 000c 174A     		ldr	r2, .L81+4
 1300 000e D318     		adds	r3, r2, r3
 1301 0010 9C80     		strh	r4, [r3, #4]
1539:Generated_Source\PSoC4/CapSense.c ****     if(CapSense_widgetResolution[widget] < CapSense_RESOLUTION_16_BITS)
 1302              		.loc 1 1539 0
 1303 0012 174B     		ldr	r3, .L81+8
 1304 0014 1B18     		adds	r3, r3, r0
 1305 0016 4422     		movs	r2, #68
 1306 0018 9B5C     		ldrb	r3, [r3, r2]
 1307              	.LVL153:
1540:Generated_Source\PSoC4/CapSense.c ****     {
 1308              		.loc 1 1540 0
 1309 001a 9B00     		lsls	r3, r3, #2
 1310              	.LVL154:
 1311 001c 154A     		ldr	r2, .L81+12
 1312              	.LVL155:
 1313 001e 9A58     		ldr	r2, [r3, r2]
 1314 0020 154B     		ldr	r3, .L81+16
 1315 0022 9A42     		cmp	r2, r3
 1316 0024 08D8     		bhi	.L80
1542:Generated_Source\PSoC4/CapSense.c ****         CapSense_sensorRaw[sensor] >>= oversamplingFactor;
 1317              		.loc 1 1542 0
 1318 0026 0100     		movs	r1, r0
 1319 0028 1448     		ldr	r0, .L81+20
 1320              	.LVL156:
 1321 002a FFF7FEFF 		bl	CapSense_GetBitValue
 1322              	.LVL157:
1543:Generated_Source\PSoC4/CapSense.c ****     }
 1323              		.loc 1 1543 0
 1324 002e 6B00     		lsls	r3, r5, #1
 1325 0030 0E4A     		ldr	r2, .L81+4
 1326 0032 D318     		adds	r3, r2, r3
 1327 0034 0441     		asrs	r4, r4, r0
 1328 0036 9C80     		strh	r4, [r3, #4]
 1329              	.LVL158:
 1330              	.L80:
1549:Generated_Source\PSoC4/CapSense.c **** 
 1331              		.loc 1 1549 0
 1332 0038 2800     		movs	r0, r5
ARM GAS  C:\Users\Ray\AppData\Local\Temp\ccn7U9Aq.s 			page 56


 1333 003a FFF7FEFF 		bl	CapSense_DisableSensor
 1334              	.LVL159:
1551:Generated_Source\PSoC4/CapSense.c **** 
 1335              		.loc 1 1551 0
 1336 003e 0F20     		movs	r0, #15
 1337 0040 FFF7FEFF 		bl	CyIntDisable
 1338              	.LVL160:
1571:Generated_Source\PSoC4/CapSense.c ****     newRegValue &= ~(CapSense_PRECHARGE_CONFIG_MASK);
 1339              		.loc 1 1571 0
 1340 0044 0E4A     		ldr	r2, .L81+24
 1341 0046 1168     		ldr	r1, [r2]
 1342              	.LVL161:
1572:Generated_Source\PSoC4/CapSense.c ****     newRegValue |= CapSense_CMOD_PRECHARGE_CONFIG;
 1343              		.loc 1 1572 0
 1344 0048 0E4B     		ldr	r3, .L81+28
 1345 004a 0B40     		ands	r3, r1
 1346              	.LVL162:
1573:Generated_Source\PSoC4/CapSense.c ****     CapSense_CSD_CFG_REG = newRegValue;
 1347              		.loc 1 1573 0
 1348 004c A021     		movs	r1, #160
 1349 004e 0902     		lsls	r1, r1, #8
 1350 0050 0B43     		orrs	r3, r1
 1351              	.LVL163:
1574:Generated_Source\PSoC4/CapSense.c **** 
 1352              		.loc 1 1574 0
 1353 0052 1360     		str	r3, [r2]
1580:Generated_Source\PSoC4/CapSense.c **** #endif /* (CapSense_IDAC_CNT == 1u) */
 1354              		.loc 1 1580 0
 1355 0054 0C4A     		ldr	r2, .L81+32
 1356 0056 1168     		ldr	r1, [r2]
 1357 0058 0C4B     		ldr	r3, .L81+36
 1358              	.LVL164:
 1359 005a 0B40     		ands	r3, r1
 1360 005c 1360     		str	r3, [r2]
 1361              	.LVL165:
1583:Generated_Source\PSoC4/CapSense.c **** }
 1362              		.loc 1 1583 0
 1363 005e 0F20     		movs	r0, #15
 1364 0060 FFF7FEFF 		bl	CyIntEnable
 1365              	.LVL166:
1584:Generated_Source\PSoC4/CapSense.c **** 
 1366              		.loc 1 1584 0
 1367              		@ sp needed
 1368              	.LVL167:
 1369 0064 70BD     		pop	{r4, r5, r6, pc}
 1370              	.L82:
 1371 0066 C046     		.align	2
 1372              	.L81:
 1373 0068 0C000840 		.word	1074266124
 1374 006c 00000000 		.word	.LANCHOR0
 1375 0070 00000000 		.word	.LANCHOR2
 1376 0074 00000000 		.word	.LANCHOR1
 1377 0078 FFFFFEFF 		.word	-65537
 1378 007c 00000000 		.word	CapSense_scanSpeedTbl
 1379 0080 04000840 		.word	1074266116
 1380 0084 FF1FDFFF 		.word	-2154497
 1381 0088 08000840 		.word	1074266120
ARM GAS  C:\Users\Ray\AppData\Local\Temp\ccn7U9Aq.s 			page 57


 1382 008c 00FF80FF 		.word	-8323328
 1383              		.cfi_endproc
 1384              	.LFE53:
 1385              		.size	CapSense_PostScan, .-CapSense_PostScan
 1386              		.section	.text.CapSense_SetBitValue,"ax",%progbits
 1387              		.align	2
 1388              		.global	CapSense_SetBitValue
 1389              		.code	16
 1390              		.thumb_func
 1391              		.type	CapSense_SetBitValue, %function
 1392              	CapSense_SetBitValue:
 1393              	.LFB58:
1727:Generated_Source\PSoC4/CapSense.c **** 
1728:Generated_Source\PSoC4/CapSense.c **** 
1729:Generated_Source\PSoC4/CapSense.c **** /*******************************************************************************
1730:Generated_Source\PSoC4/CapSense.c **** * Function Name: CapSense_SetBitValue
1731:Generated_Source\PSoC4/CapSense.c **** ********************************************************************************
1732:Generated_Source\PSoC4/CapSense.c **** *
1733:Generated_Source\PSoC4/CapSense.c **** * Summary:
1734:Generated_Source\PSoC4/CapSense.c **** *  The API sets a bit status of the bit in the table array which contains masks.
1735:Generated_Source\PSoC4/CapSense.c **** *
1736:Generated_Source\PSoC4/CapSense.c **** * Parameters:
1737:Generated_Source\PSoC4/CapSense.c **** *  table[] - array with bit masks.
1738:Generated_Source\PSoC4/CapSense.c **** *  position - position of bit in the table[] array.
1739:Generated_Source\PSoC4/CapSense.c **** *  value: 0 - bit is not set; 1 - bit is set.
1740:Generated_Source\PSoC4/CapSense.c **** *
1741:Generated_Source\PSoC4/CapSense.c **** * Return:
1742:Generated_Source\PSoC4/CapSense.c **** *  None
1743:Generated_Source\PSoC4/CapSense.c **** *
1744:Generated_Source\PSoC4/CapSense.c **** * Global Variables:
1745:Generated_Source\PSoC4/CapSense.c **** *  None
1746:Generated_Source\PSoC4/CapSense.c **** *
1747:Generated_Source\PSoC4/CapSense.c **** * Side Effects:
1748:Generated_Source\PSoC4/CapSense.c **** *  None
1749:Generated_Source\PSoC4/CapSense.c **** *
1750:Generated_Source\PSoC4/CapSense.c **** *******************************************************************************/
1751:Generated_Source\PSoC4/CapSense.c **** void CapSense_SetBitValue(uint8 table[], uint32 position, uint32 value)
1752:Generated_Source\PSoC4/CapSense.c **** {
 1394              		.loc 1 1752 0
 1395              		.cfi_startproc
 1396              		@ args = 0, pretend = 0, frame = 0
 1397              		@ frame_needed = 0, uses_anonymous_args = 0
 1398              	.LVL168:
 1399 0000 10B5     		push	{r4, lr}
 1400              		.cfi_def_cfa_offset 8
 1401              		.cfi_offset 4, -8
 1402              		.cfi_offset 14, -4
1753:Generated_Source\PSoC4/CapSense.c ****     uint32 offset;
1754:Generated_Source\PSoC4/CapSense.c ****     uint8 enMask;
1755:Generated_Source\PSoC4/CapSense.c **** 
1756:Generated_Source\PSoC4/CapSense.c ****     /* position is divided by 8 to calculate the element of the
1757:Generated_Source\PSoC4/CapSense.c ****        table[] array that contains the enable bit
1758:Generated_Source\PSoC4/CapSense.c ****        for an appropriate sensor.
1759:Generated_Source\PSoC4/CapSense.c ****     */
1760:Generated_Source\PSoC4/CapSense.c ****     offset = (position >> 3u);
 1403              		.loc 1 1760 0
 1404 0002 CC08     		lsrs	r4, r1, #3
ARM GAS  C:\Users\Ray\AppData\Local\Temp\ccn7U9Aq.s 			page 58


 1405              	.LVL169:
1761:Generated_Source\PSoC4/CapSense.c **** 
1762:Generated_Source\PSoC4/CapSense.c ****     /* The enMask calculation for the appropriate sensor. Operation (position & 0x07u)
1763:Generated_Source\PSoC4/CapSense.c ****        intends to calculate the enable bit offset for the 8-bit element of the
1764:Generated_Source\PSoC4/CapSense.c ****        table[] array.
1765:Generated_Source\PSoC4/CapSense.c ****     */
1766:Generated_Source\PSoC4/CapSense.c ****     enMask = 0x01u << (position & 0x07u);
 1406              		.loc 1 1766 0
 1407 0004 0723     		movs	r3, #7
 1408 0006 1940     		ands	r1, r3
 1409              	.LVL170:
 1410 0008 063B     		subs	r3, r3, #6
 1411 000a 8B40     		lsls	r3, r3, r1
 1412 000c DBB2     		uxtb	r3, r3
 1413              	.LVL171:
1767:Generated_Source\PSoC4/CapSense.c **** 
1768:Generated_Source\PSoC4/CapSense.c ****     if(0u != value)
 1414              		.loc 1 1768 0
 1415 000e 002A     		cmp	r2, #0
 1416 0010 04D0     		beq	.L84
1769:Generated_Source\PSoC4/CapSense.c ****     {
1770:Generated_Source\PSoC4/CapSense.c ****         table[offset] |= enMask;
 1417              		.loc 1 1770 0
 1418 0012 0419     		adds	r4, r0, r4
 1419              	.LVL172:
 1420 0014 2278     		ldrb	r2, [r4]
 1421              	.LVL173:
 1422 0016 1343     		orrs	r3, r2
 1423              	.LVL174:
 1424 0018 2370     		strb	r3, [r4]
 1425 001a 03E0     		b	.L83
 1426              	.LVL175:
 1427              	.L84:
1771:Generated_Source\PSoC4/CapSense.c ****     }
1772:Generated_Source\PSoC4/CapSense.c ****     else
1773:Generated_Source\PSoC4/CapSense.c ****     {
1774:Generated_Source\PSoC4/CapSense.c ****         table[offset] &= (uint8)~(enMask);
 1428              		.loc 1 1774 0
 1429 001c 0419     		adds	r4, r0, r4
 1430              	.LVL176:
 1431 001e 2278     		ldrb	r2, [r4]
 1432              	.LVL177:
 1433 0020 9A43     		bics	r2, r3
 1434 0022 2270     		strb	r2, [r4]
 1435              	.LVL178:
 1436              	.L83:
1775:Generated_Source\PSoC4/CapSense.c ****     }
1776:Generated_Source\PSoC4/CapSense.c **** }
 1437              		.loc 1 1776 0
 1438              		@ sp needed
 1439 0024 10BD     		pop	{r4, pc}
 1440              		.cfi_endproc
 1441              	.LFE58:
 1442              		.size	CapSense_SetBitValue, .-CapSense_SetBitValue
 1443 0026 C046     		.section	.text.CapSense_ScanWidget,"ax",%progbits
 1444              		.align	2
 1445              		.global	CapSense_ScanWidget
ARM GAS  C:\Users\Ray\AppData\Local\Temp\ccn7U9Aq.s 			page 59


 1446              		.code	16
 1447              		.thumb_func
 1448              		.type	CapSense_ScanWidget, %function
 1449              	CapSense_ScanWidget:
 1450              	.LFB39:
 578:Generated_Source\PSoC4/CapSense.c ****     uint32 sensorsPerWidget;
 1451              		.loc 1 578 0
 1452              		.cfi_startproc
 1453              		@ args = 0, pretend = 0, frame = 0
 1454              		@ frame_needed = 0, uses_anonymous_args = 0
 1455              	.LVL179:
 1456 0000 70B5     		push	{r4, r5, r6, lr}
 1457              		.cfi_def_cfa_offset 16
 1458              		.cfi_offset 4, -16
 1459              		.cfi_offset 5, -12
 1460              		.cfi_offset 6, -8
 1461              		.cfi_offset 14, -4
 584:Generated_Source\PSoC4/CapSense.c **** 
 1462              		.loc 1 584 0
 1463 0002 1D4B     		ldr	r3, .L96
 1464 0004 1D5C     		ldrb	r5, [r3, r0]
 1465 0006 1D4B     		ldr	r3, .L96+4
 1466 0008 1D72     		strb	r5, [r3, #8]
 587:Generated_Source\PSoC4/CapSense.c **** 
 1467              		.loc 1 587 0
 1468 000a 1D4B     		ldr	r3, .L96+8
 1469 000c 1B5C     		ldrb	r3, [r3, r0]
 1470              	.LVL180:
 590:Generated_Source\PSoC4/CapSense.c ****     {
 1471              		.loc 1 590 0
 1472 000e 002B     		cmp	r3, #0
 1473 0010 00D1     		bne	.L87
 592:Generated_Source\PSoC4/CapSense.c ****     }
 1474              		.loc 1 592 0
 1475 0012 0133     		adds	r3, r3, #1
 1476              	.LVL181:
 1477              	.L87:
 596:Generated_Source\PSoC4/CapSense.c **** 
 1478              		.loc 1 596 0
 1479 0014 EB18     		adds	r3, r5, r3
 1480              	.LVL182:
 1481 0016 5D1E     		subs	r5, r3, #1
 1482              	.LVL183:
 599:Generated_Source\PSoC4/CapSense.c ****     {
 1483              		.loc 1 599 0
 1484 0018 0023     		movs	r3, #0
 1485 001a 05E0     		b	.L88
 1486              	.LVL184:
 1487              	.L89:
 602:Generated_Source\PSoC4/CapSense.c ****     }
 1488              		.loc 1 602 0 discriminator 3
 1489 001c 194A     		ldr	r2, .L96+12
 1490 001e D218     		adds	r2, r2, r3
 1491 0020 117A     		ldrb	r1, [r2, #8]
 1492 0022 194A     		ldr	r2, .L96+16
 1493 0024 D154     		strb	r1, [r2, r3]
 599:Generated_Source\PSoC4/CapSense.c ****     {
ARM GAS  C:\Users\Ray\AppData\Local\Temp\ccn7U9Aq.s 			page 60


 1494              		.loc 1 599 0 discriminator 3
 1495 0026 0133     		adds	r3, r3, #1
 1496              	.LVL185:
 1497              	.L88:
 599:Generated_Source\PSoC4/CapSense.c ****     {
 1498              		.loc 1 599 0 is_stmt 0 discriminator 1
 1499 0028 002B     		cmp	r3, #0
 1500 002a F7D0     		beq	.L89
 1501 002c 0024     		movs	r4, #0
 1502 002e 14E0     		b	.L90
 1503              	.LVL186:
 1504              	.L93:
 609:Generated_Source\PSoC4/CapSense.c ****         {
 1505              		.loc 1 609 0 is_stmt 1
 1506 0030 124B     		ldr	r3, .L96+4
 1507 0032 1B7A     		ldrb	r3, [r3, #8]
 1508 0034 DBB2     		uxtb	r3, r3
 1509 0036 9C42     		cmp	r4, r3
 1510 0038 08D3     		bcc	.L91
 609:Generated_Source\PSoC4/CapSense.c ****         {
 1511              		.loc 1 609 0 is_stmt 0 discriminator 1
 1512 003a AC42     		cmp	r4, r5
 1513 003c 06D8     		bhi	.L91
 612:Generated_Source\PSoC4/CapSense.c ****         }
 1514              		.loc 1 612 0 is_stmt 1
 1515 003e 0122     		movs	r2, #1
 1516 0040 2100     		movs	r1, r4
 1517 0042 1048     		ldr	r0, .L96+12
 1518 0044 0830     		adds	r0, r0, #8
 1519 0046 FFF7FEFF 		bl	CapSense_SetBitValue
 1520              	.LVL187:
 1521 004a 05E0     		b	.L92
 1522              	.L91:
 617:Generated_Source\PSoC4/CapSense.c ****         }
 1523              		.loc 1 617 0
 1524 004c 0022     		movs	r2, #0
 1525 004e 2100     		movs	r1, r4
 1526 0050 0C48     		ldr	r0, .L96+12
 1527 0052 0830     		adds	r0, r0, #8
 1528 0054 FFF7FEFF 		bl	CapSense_SetBitValue
 1529              	.LVL188:
 1530              	.L92:
 606:Generated_Source\PSoC4/CapSense.c ****     {
 1531              		.loc 1 606 0 discriminator 2
 1532 0058 0134     		adds	r4, r4, #1
 1533              	.LVL189:
 1534              	.L90:
 606:Generated_Source\PSoC4/CapSense.c ****     {
 1535              		.loc 1 606 0 is_stmt 0 discriminator 1
 1536 005a 012C     		cmp	r4, #1
 1537 005c E8D9     		bls	.L93
 622:Generated_Source\PSoC4/CapSense.c ****     {
 1538              		.loc 1 622 0 is_stmt 1
 1539 005e 074B     		ldr	r3, .L96+4
 1540 0060 1B7A     		ldrb	r3, [r3, #8]
 1541 0062 DBB2     		uxtb	r3, r3
 1542 0064 012B     		cmp	r3, #1
ARM GAS  C:\Users\Ray\AppData\Local\Temp\ccn7U9Aq.s 			page 61


 1543 0066 06D8     		bhi	.L86
 625:Generated_Source\PSoC4/CapSense.c ****         /* Scan first sensor of widget*/
 1544              		.loc 1 625 0
 1545 0068 044B     		ldr	r3, .L96+4
 1546 006a 4122     		movs	r2, #65
 1547 006c 1A70     		strb	r2, [r3]
 627:Generated_Source\PSoC4/CapSense.c ****     }
 1548              		.loc 1 627 0
 1549 006e 187A     		ldrb	r0, [r3, #8]
 1550 0070 C0B2     		uxtb	r0, r0
 1551 0072 FFF7FEFF 		bl	CapSense_PreScan
 1552              	.LVL190:
 1553              	.L86:
 629:Generated_Source\PSoC4/CapSense.c **** #endif /* (0u != CapSense_CSHL_API_GENERATE) */
 1554              		.loc 1 629 0
 1555              		@ sp needed
 1556              	.LVL191:
 1557              	.LVL192:
 1558 0076 70BD     		pop	{r4, r5, r6, pc}
 1559              	.L97:
 1560              		.align	2
 1561              	.L96:
 1562 0078 00000000 		.word	CapSense_rawDataIndex
 1563 007c 00000000 		.word	.LANCHOR0
 1564 0080 00000000 		.word	CapSense_numberOfSensors
 1565 0084 00000000 		.word	.LANCHOR1
 1566 0088 00000000 		.word	CapSense_sensorEnableMaskBackup
 1567              		.cfi_endproc
 1568              	.LFE39:
 1569              		.size	CapSense_ScanWidget, .-CapSense_ScanWidget
 1570              		.section	.text.CapSense_GetSenseClkDivider,"ax",%progbits
 1571              		.align	2
 1572              		.global	CapSense_GetSenseClkDivider
 1573              		.code	16
 1574              		.thumb_func
 1575              		.type	CapSense_GetSenseClkDivider, %function
 1576              	CapSense_GetSenseClkDivider:
 1577              	.LFB59:
1777:Generated_Source\PSoC4/CapSense.c **** 
1778:Generated_Source\PSoC4/CapSense.c **** 
1779:Generated_Source\PSoC4/CapSense.c **** 
1780:Generated_Source\PSoC4/CapSense.c **** /*******************************************************************************
1781:Generated_Source\PSoC4/CapSense.c **** * Function Name: CapSense_GetSenseClkDivider
1782:Generated_Source\PSoC4/CapSense.c **** ********************************************************************************
1783:Generated_Source\PSoC4/CapSense.c **** *
1784:Generated_Source\PSoC4/CapSense.c **** * Summary:
1785:Generated_Source\PSoC4/CapSense.c **** *  This API returns a value of the sense clock divider for the  sensor.
1786:Generated_Source\PSoC4/CapSense.c **** *
1787:Generated_Source\PSoC4/CapSense.c **** * Parameters:
1788:Generated_Source\PSoC4/CapSense.c **** *  sensor: sensor index. The index value can be
1789:Generated_Source\PSoC4/CapSense.c **** *  from 0 to (CapSense_TOTAL_SENSOR_COUNT-1).
1790:Generated_Source\PSoC4/CapSense.c **** *
1791:Generated_Source\PSoC4/CapSense.c **** * Return:
1792:Generated_Source\PSoC4/CapSense.c **** *  This API returns the sense clock divider of the sensor.
1793:Generated_Source\PSoC4/CapSense.c **** *
1794:Generated_Source\PSoC4/CapSense.c **** * Global Variables:
1795:Generated_Source\PSoC4/CapSense.c **** *  CapSense_senseClkDividerVal[] - stores the sense clock divider values.
ARM GAS  C:\Users\Ray\AppData\Local\Temp\ccn7U9Aq.s 			page 62


1796:Generated_Source\PSoC4/CapSense.c **** *
1797:Generated_Source\PSoC4/CapSense.c **** * Side Effects:
1798:Generated_Source\PSoC4/CapSense.c **** *  None
1799:Generated_Source\PSoC4/CapSense.c **** *
1800:Generated_Source\PSoC4/CapSense.c **** *******************************************************************************/
1801:Generated_Source\PSoC4/CapSense.c **** uint32 CapSense_GetSenseClkDivider(uint32 sensor)
1802:Generated_Source\PSoC4/CapSense.c **** {
 1578              		.loc 1 1802 0
 1579              		.cfi_startproc
 1580              		@ args = 0, pretend = 0, frame = 0
 1581              		@ frame_needed = 0, uses_anonymous_args = 0
 1582              		@ link register save eliminated.
 1583              	.LVL193:
1803:Generated_Source\PSoC4/CapSense.c ****     #if(0u != CapSense_MULTIPLE_FREQUENCY_SET)
1804:Generated_Source\PSoC4/CapSense.c ****         return((uint32)CapSense_senseClkDividerVal[sensor]);
 1584              		.loc 1 1804 0
 1585 0000 014B     		ldr	r3, .L99
 1586 0002 185C     		ldrb	r0, [r3, r0]
 1587              	.LVL194:
1805:Generated_Source\PSoC4/CapSense.c ****     #else
1806:Generated_Source\PSoC4/CapSense.c ****         return((uint32)CapSense_senseClkDividerVal);
1807:Generated_Source\PSoC4/CapSense.c ****     #endif /* (0u != CapSense_MULTIPLE_FREQUENCY_SET) */
1808:Generated_Source\PSoC4/CapSense.c **** }
 1588              		.loc 1 1808 0
 1589              		@ sp needed
 1590 0004 7047     		bx	lr
 1591              	.L100:
 1592 0006 C046     		.align	2
 1593              	.L99:
 1594 0008 00000000 		.word	CapSense_senseClkDividerVal
 1595              		.cfi_endproc
 1596              	.LFE59:
 1597              		.size	CapSense_GetSenseClkDivider, .-CapSense_GetSenseClkDivider
 1598              		.section	.text.CapSense_SetSenseClkDivider,"ax",%progbits
 1599              		.align	2
 1600              		.global	CapSense_SetSenseClkDivider
 1601              		.code	16
 1602              		.thumb_func
 1603              		.type	CapSense_SetSenseClkDivider, %function
 1604              	CapSense_SetSenseClkDivider:
 1605              	.LFB60:
1809:Generated_Source\PSoC4/CapSense.c **** 
1810:Generated_Source\PSoC4/CapSense.c **** #if (CapSense_TUNING_METHOD != CapSense__TUNING_NONE)
1811:Generated_Source\PSoC4/CapSense.c ****     /*******************************************************************************
1812:Generated_Source\PSoC4/CapSense.c ****     * Function Name: CapSense_SetSenseClkDivider
1813:Generated_Source\PSoC4/CapSense.c ****     ********************************************************************************
1814:Generated_Source\PSoC4/CapSense.c ****     *
1815:Generated_Source\PSoC4/CapSense.c ****     * Summary:
1816:Generated_Source\PSoC4/CapSense.c ****     *  This API sets a value of the sense clock divider for the  sensor.
1817:Generated_Source\PSoC4/CapSense.c ****     *
1818:Generated_Source\PSoC4/CapSense.c ****     * Parameters:
1819:Generated_Source\PSoC4/CapSense.c ****     *  sensor:  Sensor index.
1820:Generated_Source\PSoC4/CapSense.c ****     *  senseClk: represents the sense clock value.
1821:Generated_Source\PSoC4/CapSense.c ****     *
1822:Generated_Source\PSoC4/CapSense.c ****     * Return:
1823:Generated_Source\PSoC4/CapSense.c ****     *  None.
1824:Generated_Source\PSoC4/CapSense.c ****     *
ARM GAS  C:\Users\Ray\AppData\Local\Temp\ccn7U9Aq.s 			page 63


1825:Generated_Source\PSoC4/CapSense.c ****     * Global Variables:
1826:Generated_Source\PSoC4/CapSense.c ****     *  CapSense_senseClkDividerVal[] - stores the sense clock divider values.
1827:Generated_Source\PSoC4/CapSense.c ****     *
1828:Generated_Source\PSoC4/CapSense.c ****     * Side Effects:
1829:Generated_Source\PSoC4/CapSense.c ****     *  None
1830:Generated_Source\PSoC4/CapSense.c ****     *
1831:Generated_Source\PSoC4/CapSense.c ****     *******************************************************************************/
1832:Generated_Source\PSoC4/CapSense.c ****     void CapSense_SetSenseClkDivider(uint32 sensor, uint32 senseClk)
1833:Generated_Source\PSoC4/CapSense.c ****     {
 1606              		.loc 1 1833 0
 1607              		.cfi_startproc
 1608              		@ args = 0, pretend = 0, frame = 0
 1609              		@ frame_needed = 0, uses_anonymous_args = 0
 1610              		@ link register save eliminated.
 1611              	.LVL195:
1834:Generated_Source\PSoC4/CapSense.c ****         #if(0u != CapSense_MULTIPLE_FREQUENCY_SET)
1835:Generated_Source\PSoC4/CapSense.c ****             CapSense_senseClkDividerVal[sensor] = (uint8)senseClk;
 1612              		.loc 1 1835 0
 1613 0000 014B     		ldr	r3, .L102
 1614 0002 1954     		strb	r1, [r3, r0]
1836:Generated_Source\PSoC4/CapSense.c ****         #else
1837:Generated_Source\PSoC4/CapSense.c ****             CapSense_senseClkDividerVal = (uint8)senseClk;
1838:Generated_Source\PSoC4/CapSense.c ****         #endif /* (0u != CapSense_MULTIPLE_FREQUENCY_SET) */
1839:Generated_Source\PSoC4/CapSense.c ****     }
 1615              		.loc 1 1839 0
 1616              		@ sp needed
 1617 0004 7047     		bx	lr
 1618              	.L103:
 1619 0006 C046     		.align	2
 1620              	.L102:
 1621 0008 00000000 		.word	CapSense_senseClkDividerVal
 1622              		.cfi_endproc
 1623              	.LFE60:
 1624              		.size	CapSense_SetSenseClkDivider, .-CapSense_SetSenseClkDivider
 1625              		.section	.text.CapSense_GetModulatorClkDivider,"ax",%progbits
 1626              		.align	2
 1627              		.global	CapSense_GetModulatorClkDivider
 1628              		.code	16
 1629              		.thumb_func
 1630              		.type	CapSense_GetModulatorClkDivider, %function
 1631              	CapSense_GetModulatorClkDivider:
 1632              	.LFB61:
1840:Generated_Source\PSoC4/CapSense.c **** #endif /* (CapSense_TUNING_METHOD != CapSense__TUNING_NONE) */
1841:Generated_Source\PSoC4/CapSense.c **** 
1842:Generated_Source\PSoC4/CapSense.c **** 
1843:Generated_Source\PSoC4/CapSense.c **** /*******************************************************************************
1844:Generated_Source\PSoC4/CapSense.c **** * Function Name: CapSense_GetModulatorClkDivider
1845:Generated_Source\PSoC4/CapSense.c **** ********************************************************************************
1846:Generated_Source\PSoC4/CapSense.c **** *
1847:Generated_Source\PSoC4/CapSense.c **** * Summary:
1848:Generated_Source\PSoC4/CapSense.c **** *  This API returns a value of the modulator sample clock divider for the  sensor.
1849:Generated_Source\PSoC4/CapSense.c **** *
1850:Generated_Source\PSoC4/CapSense.c **** * Parameters:
1851:Generated_Source\PSoC4/CapSense.c **** *  sensor: sensor index. The value of index can be
1852:Generated_Source\PSoC4/CapSense.c **** *  from 0 to (CapSense_TOTAL_SENSOR_COUNT-1).
1853:Generated_Source\PSoC4/CapSense.c **** *
1854:Generated_Source\PSoC4/CapSense.c **** * Return:
ARM GAS  C:\Users\Ray\AppData\Local\Temp\ccn7U9Aq.s 			page 64


1855:Generated_Source\PSoC4/CapSense.c **** *  This API returns the modulator sample clock divider for the  sensor.
1856:Generated_Source\PSoC4/CapSense.c **** *
1857:Generated_Source\PSoC4/CapSense.c **** * Global Variables:
1858:Generated_Source\PSoC4/CapSense.c **** *  CapSense_sampleClkDividerVal[] - stores the modulator sample divider values.
1859:Generated_Source\PSoC4/CapSense.c **** *
1860:Generated_Source\PSoC4/CapSense.c **** * Side Effects:
1861:Generated_Source\PSoC4/CapSense.c **** *  None
1862:Generated_Source\PSoC4/CapSense.c **** *
1863:Generated_Source\PSoC4/CapSense.c **** *******************************************************************************/
1864:Generated_Source\PSoC4/CapSense.c **** uint32 CapSense_GetModulatorClkDivider(uint32 sensor)
1865:Generated_Source\PSoC4/CapSense.c **** {
 1633              		.loc 1 1865 0
 1634              		.cfi_startproc
 1635              		@ args = 0, pretend = 0, frame = 0
 1636              		@ frame_needed = 0, uses_anonymous_args = 0
 1637              		@ link register save eliminated.
 1638              	.LVL196:
1866:Generated_Source\PSoC4/CapSense.c ****     #if(0u != CapSense_MULTIPLE_FREQUENCY_SET)
1867:Generated_Source\PSoC4/CapSense.c ****         return((uint32)CapSense_sampleClkDividerVal[sensor]);
 1639              		.loc 1 1867 0
 1640 0000 014B     		ldr	r3, .L105
 1641 0002 185C     		ldrb	r0, [r3, r0]
 1642              	.LVL197:
1868:Generated_Source\PSoC4/CapSense.c ****     #else
1869:Generated_Source\PSoC4/CapSense.c ****         return((uint32)CapSense_sampleClkDividerVal);
1870:Generated_Source\PSoC4/CapSense.c ****     #endif /* (0u != CapSense_MULTIPLE_FREQUENCY_SET) */
1871:Generated_Source\PSoC4/CapSense.c **** }
 1643              		.loc 1 1871 0
 1644              		@ sp needed
 1645 0004 7047     		bx	lr
 1646              	.L106:
 1647 0006 C046     		.align	2
 1648              	.L105:
 1649 0008 00000000 		.word	CapSense_sampleClkDividerVal
 1650              		.cfi_endproc
 1651              	.LFE61:
 1652              		.size	CapSense_GetModulatorClkDivider, .-CapSense_GetModulatorClkDivider
 1653              		.section	.text.CapSense_SetModulatorClkDivider,"ax",%progbits
 1654              		.align	2
 1655              		.global	CapSense_SetModulatorClkDivider
 1656              		.code	16
 1657              		.thumb_func
 1658              		.type	CapSense_SetModulatorClkDivider, %function
 1659              	CapSense_SetModulatorClkDivider:
 1660              	.LFB62:
1872:Generated_Source\PSoC4/CapSense.c **** 
1873:Generated_Source\PSoC4/CapSense.c **** #if (CapSense_TUNING_METHOD != CapSense__TUNING_NONE)
1874:Generated_Source\PSoC4/CapSense.c ****     /*******************************************************************************
1875:Generated_Source\PSoC4/CapSense.c ****     * Function Name: CapSense_SetModulatorClkDivider
1876:Generated_Source\PSoC4/CapSense.c ****     ********************************************************************************
1877:Generated_Source\PSoC4/CapSense.c ****     *
1878:Generated_Source\PSoC4/CapSense.c ****     * Summary:
1879:Generated_Source\PSoC4/CapSense.c ****     *  This API sets a value of the modulator sample clock divider for the  sensor.
1880:Generated_Source\PSoC4/CapSense.c ****     *
1881:Generated_Source\PSoC4/CapSense.c ****     * Parameters:
1882:Generated_Source\PSoC4/CapSense.c ****     *  sensor:  Sensor index.
1883:Generated_Source\PSoC4/CapSense.c ****     *  modulatorClk: represents the modulator sample clock value.
ARM GAS  C:\Users\Ray\AppData\Local\Temp\ccn7U9Aq.s 			page 65


1884:Generated_Source\PSoC4/CapSense.c ****     *
1885:Generated_Source\PSoC4/CapSense.c ****     * Return:
1886:Generated_Source\PSoC4/CapSense.c ****     *  None.
1887:Generated_Source\PSoC4/CapSense.c ****     *
1888:Generated_Source\PSoC4/CapSense.c ****     * Global Variables:
1889:Generated_Source\PSoC4/CapSense.c ****     *  CapSense_sampleClkDividerVal[] - stores the modulator sample divider values.
1890:Generated_Source\PSoC4/CapSense.c ****     *
1891:Generated_Source\PSoC4/CapSense.c ****     * Side Effects:
1892:Generated_Source\PSoC4/CapSense.c ****     *  None
1893:Generated_Source\PSoC4/CapSense.c ****     *
1894:Generated_Source\PSoC4/CapSense.c ****     *******************************************************************************/
1895:Generated_Source\PSoC4/CapSense.c ****     void CapSense_SetModulatorClkDivider(uint32 sensor, uint32 modulatorClk)
1896:Generated_Source\PSoC4/CapSense.c ****     {
 1661              		.loc 1 1896 0
 1662              		.cfi_startproc
 1663              		@ args = 0, pretend = 0, frame = 0
 1664              		@ frame_needed = 0, uses_anonymous_args = 0
 1665              		@ link register save eliminated.
 1666              	.LVL198:
1897:Generated_Source\PSoC4/CapSense.c ****         #if(0u != CapSense_MULTIPLE_FREQUENCY_SET)
1898:Generated_Source\PSoC4/CapSense.c ****             CapSense_sampleClkDividerVal[sensor] = (uint8)modulatorClk;
 1667              		.loc 1 1898 0
 1668 0000 014B     		ldr	r3, .L108
 1669 0002 1954     		strb	r1, [r3, r0]
1899:Generated_Source\PSoC4/CapSense.c ****         #else
1900:Generated_Source\PSoC4/CapSense.c ****             CapSense_sampleClkDividerVal = (uint8)modulatorClk;
1901:Generated_Source\PSoC4/CapSense.c ****         #endif /* (0u != CapSense_MULTIPLE_FREQUENCY_SET) */
1902:Generated_Source\PSoC4/CapSense.c ****     }
 1670              		.loc 1 1902 0
 1671              		@ sp needed
 1672 0004 7047     		bx	lr
 1673              	.L109:
 1674 0006 C046     		.align	2
 1675              	.L108:
 1676 0008 00000000 		.word	CapSense_sampleClkDividerVal
 1677              		.cfi_endproc
 1678              	.LFE62:
 1679              		.size	CapSense_SetModulatorClkDivider, .-CapSense_SetModulatorClkDivider
 1680              		.section	.text.CapSense_GetModulationIDAC,"ax",%progbits
 1681              		.align	2
 1682              		.global	CapSense_GetModulationIDAC
 1683              		.code	16
 1684              		.thumb_func
 1685              		.type	CapSense_GetModulationIDAC, %function
 1686              	CapSense_GetModulationIDAC:
 1687              	.LFB63:
1903:Generated_Source\PSoC4/CapSense.c **** #endif /* (CapSense_TUNING_METHOD != CapSense__TUNING_NONE) */
1904:Generated_Source\PSoC4/CapSense.c **** 
1905:Generated_Source\PSoC4/CapSense.c **** /*******************************************************************************
1906:Generated_Source\PSoC4/CapSense.c **** * Function Name: CapSense_GetModulationIDAC
1907:Generated_Source\PSoC4/CapSense.c **** ********************************************************************************
1908:Generated_Source\PSoC4/CapSense.c **** *
1909:Generated_Source\PSoC4/CapSense.c **** * Summary:
1910:Generated_Source\PSoC4/CapSense.c **** *  This API returns a value of the modulation IDAC for the  sensor.
1911:Generated_Source\PSoC4/CapSense.c **** *
1912:Generated_Source\PSoC4/CapSense.c **** * Parameters:
1913:Generated_Source\PSoC4/CapSense.c **** *  sensor: sensor index. The index value can be
ARM GAS  C:\Users\Ray\AppData\Local\Temp\ccn7U9Aq.s 			page 66


1914:Generated_Source\PSoC4/CapSense.c **** *  from 0 to (CapSense_TOTAL_SENSOR_COUNT-1).
1915:Generated_Source\PSoC4/CapSense.c **** *
1916:Generated_Source\PSoC4/CapSense.c **** * Return:
1917:Generated_Source\PSoC4/CapSense.c **** *  This API returns the modulation IDAC of the sensor.
1918:Generated_Source\PSoC4/CapSense.c **** *
1919:Generated_Source\PSoC4/CapSense.c **** * Global Variables:
1920:Generated_Source\PSoC4/CapSense.c **** *  CapSense_modulationIDAC[] - stores modulation IDAC values.
1921:Generated_Source\PSoC4/CapSense.c **** *
1922:Generated_Source\PSoC4/CapSense.c **** * Side Effects:
1923:Generated_Source\PSoC4/CapSense.c **** *  None
1924:Generated_Source\PSoC4/CapSense.c **** *
1925:Generated_Source\PSoC4/CapSense.c **** *******************************************************************************/
1926:Generated_Source\PSoC4/CapSense.c **** uint32 CapSense_GetModulationIDAC(uint32 sensor)
1927:Generated_Source\PSoC4/CapSense.c **** {
 1688              		.loc 1 1927 0
 1689              		.cfi_startproc
 1690              		@ args = 0, pretend = 0, frame = 0
 1691              		@ frame_needed = 0, uses_anonymous_args = 0
 1692              		@ link register save eliminated.
 1693              	.LVL199:
1928:Generated_Source\PSoC4/CapSense.c ****         return((uint32)CapSense_modulationIDAC[sensor]);
 1694              		.loc 1 1928 0
 1695 0000 014B     		ldr	r3, .L111
 1696 0002 185C     		ldrb	r0, [r3, r0]
 1697              	.LVL200:
1929:Generated_Source\PSoC4/CapSense.c **** }
 1698              		.loc 1 1929 0
 1699              		@ sp needed
 1700 0004 7047     		bx	lr
 1701              	.L112:
 1702 0006 C046     		.align	2
 1703              	.L111:
 1704 0008 00000000 		.word	CapSense_modulationIDAC
 1705              		.cfi_endproc
 1706              	.LFE63:
 1707              		.size	CapSense_GetModulationIDAC, .-CapSense_GetModulationIDAC
 1708              		.section	.text.CapSense_SetModulationIDAC,"ax",%progbits
 1709              		.align	2
 1710              		.global	CapSense_SetModulationIDAC
 1711              		.code	16
 1712              		.thumb_func
 1713              		.type	CapSense_SetModulationIDAC, %function
 1714              	CapSense_SetModulationIDAC:
 1715              	.LFB64:
1930:Generated_Source\PSoC4/CapSense.c **** 
1931:Generated_Source\PSoC4/CapSense.c **** #if (CapSense_TUNING_METHOD != CapSense__TUNING_NONE)
1932:Generated_Source\PSoC4/CapSense.c ****     /*******************************************************************************
1933:Generated_Source\PSoC4/CapSense.c ****     * Function Name: CapSense_SetModulationIDAC
1934:Generated_Source\PSoC4/CapSense.c ****     ********************************************************************************
1935:Generated_Source\PSoC4/CapSense.c ****     *
1936:Generated_Source\PSoC4/CapSense.c ****     * Summary:
1937:Generated_Source\PSoC4/CapSense.c ****     *  This API sets a value of the modulation IDAC for the  sensor.
1938:Generated_Source\PSoC4/CapSense.c ****     *
1939:Generated_Source\PSoC4/CapSense.c ****     * Parameters:
1940:Generated_Source\PSoC4/CapSense.c ****     *  sensor:  Sensor index.
1941:Generated_Source\PSoC4/CapSense.c ****     *  compIdacValue: represents the modulation IDAC data register value.
1942:Generated_Source\PSoC4/CapSense.c ****     *
ARM GAS  C:\Users\Ray\AppData\Local\Temp\ccn7U9Aq.s 			page 67


1943:Generated_Source\PSoC4/CapSense.c ****     * Return:
1944:Generated_Source\PSoC4/CapSense.c ****     *  None.
1945:Generated_Source\PSoC4/CapSense.c ****     *
1946:Generated_Source\PSoC4/CapSense.c ****     * Global Variables:
1947:Generated_Source\PSoC4/CapSense.c ****     *  CapSense_modulationIDAC[] - array with modulation IDAC values
1948:Generated_Source\PSoC4/CapSense.c ****     *
1949:Generated_Source\PSoC4/CapSense.c ****     * Side Effects:
1950:Generated_Source\PSoC4/CapSense.c ****     *  None
1951:Generated_Source\PSoC4/CapSense.c ****     *
1952:Generated_Source\PSoC4/CapSense.c ****     *******************************************************************************/
1953:Generated_Source\PSoC4/CapSense.c ****     void CapSense_SetModulationIDAC(uint32 sensor, uint32 modIdacValue)
1954:Generated_Source\PSoC4/CapSense.c ****     {
 1716              		.loc 1 1954 0
 1717              		.cfi_startproc
 1718              		@ args = 0, pretend = 0, frame = 0
 1719              		@ frame_needed = 0, uses_anonymous_args = 0
 1720              		@ link register save eliminated.
 1721              	.LVL201:
1955:Generated_Source\PSoC4/CapSense.c ****         CapSense_modulationIDAC[sensor] = (uint8)modIdacValue;
 1722              		.loc 1 1955 0
 1723 0000 014B     		ldr	r3, .L114
 1724 0002 1954     		strb	r1, [r3, r0]
1956:Generated_Source\PSoC4/CapSense.c ****     }
 1725              		.loc 1 1956 0
 1726              		@ sp needed
 1727 0004 7047     		bx	lr
 1728              	.L115:
 1729 0006 C046     		.align	2
 1730              	.L114:
 1731 0008 00000000 		.word	CapSense_modulationIDAC
 1732              		.cfi_endproc
 1733              	.LFE64:
 1734              		.size	CapSense_SetModulationIDAC, .-CapSense_SetModulationIDAC
 1735              		.section	.text.CapSense_GetCompensationIDAC,"ax",%progbits
 1736              		.align	2
 1737              		.global	CapSense_GetCompensationIDAC
 1738              		.code	16
 1739              		.thumb_func
 1740              		.type	CapSense_GetCompensationIDAC, %function
 1741              	CapSense_GetCompensationIDAC:
 1742              	.LFB65:
1957:Generated_Source\PSoC4/CapSense.c **** #endif /* (CapSense_TUNING_METHOD != CapSense__TUNING_NONE) */
1958:Generated_Source\PSoC4/CapSense.c **** 
1959:Generated_Source\PSoC4/CapSense.c **** 
1960:Generated_Source\PSoC4/CapSense.c **** #if(CapSense_IDAC_CNT > 1u)
1961:Generated_Source\PSoC4/CapSense.c ****     /*******************************************************************************
1962:Generated_Source\PSoC4/CapSense.c ****     * Function Name: CapSense_GetCompensationIDAC
1963:Generated_Source\PSoC4/CapSense.c ****     ********************************************************************************
1964:Generated_Source\PSoC4/CapSense.c ****     *
1965:Generated_Source\PSoC4/CapSense.c ****     * Summary:
1966:Generated_Source\PSoC4/CapSense.c ****     *  This API returns a value of the compensation IDAC for the  sensor.
1967:Generated_Source\PSoC4/CapSense.c ****     *
1968:Generated_Source\PSoC4/CapSense.c ****     * Parameters:
1969:Generated_Source\PSoC4/CapSense.c ****     *  sensor: sensor index. The index value can be
1970:Generated_Source\PSoC4/CapSense.c ****     *  from 0 to (CapSense_TOTAL_SENSOR_COUNT-1).
1971:Generated_Source\PSoC4/CapSense.c ****     *
1972:Generated_Source\PSoC4/CapSense.c ****     * Return:
ARM GAS  C:\Users\Ray\AppData\Local\Temp\ccn7U9Aq.s 			page 68


1973:Generated_Source\PSoC4/CapSense.c ****     *  This API returns the compensation IDAC of the sensor.
1974:Generated_Source\PSoC4/CapSense.c ****     *
1975:Generated_Source\PSoC4/CapSense.c ****     * Global Variables:
1976:Generated_Source\PSoC4/CapSense.c ****     *  CapSense_compensationIDAC[] - stores the compensation IDAC values.
1977:Generated_Source\PSoC4/CapSense.c ****     *
1978:Generated_Source\PSoC4/CapSense.c ****     * Side Effects:
1979:Generated_Source\PSoC4/CapSense.c ****     *  None
1980:Generated_Source\PSoC4/CapSense.c ****     *
1981:Generated_Source\PSoC4/CapSense.c ****     *******************************************************************************/
1982:Generated_Source\PSoC4/CapSense.c ****     uint32 CapSense_GetCompensationIDAC(uint32 sensor)
1983:Generated_Source\PSoC4/CapSense.c ****     {
 1743              		.loc 1 1983 0
 1744              		.cfi_startproc
 1745              		@ args = 0, pretend = 0, frame = 0
 1746              		@ frame_needed = 0, uses_anonymous_args = 0
 1747              		@ link register save eliminated.
 1748              	.LVL202:
1984:Generated_Source\PSoC4/CapSense.c ****         return((uint32)CapSense_compensationIDAC[sensor]);
 1749              		.loc 1 1984 0
 1750 0000 014B     		ldr	r3, .L117
 1751 0002 185C     		ldrb	r0, [r3, r0]
 1752              	.LVL203:
1985:Generated_Source\PSoC4/CapSense.c ****     }
 1753              		.loc 1 1985 0
 1754              		@ sp needed
 1755 0004 7047     		bx	lr
 1756              	.L118:
 1757 0006 C046     		.align	2
 1758              	.L117:
 1759 0008 00000000 		.word	CapSense_compensationIDAC
 1760              		.cfi_endproc
 1761              	.LFE65:
 1762              		.size	CapSense_GetCompensationIDAC, .-CapSense_GetCompensationIDAC
 1763              		.section	.text.CapSense_SetCompensationIDAC,"ax",%progbits
 1764              		.align	2
 1765              		.global	CapSense_SetCompensationIDAC
 1766              		.code	16
 1767              		.thumb_func
 1768              		.type	CapSense_SetCompensationIDAC, %function
 1769              	CapSense_SetCompensationIDAC:
 1770              	.LFB66:
1986:Generated_Source\PSoC4/CapSense.c **** #endif /* (CapSense_IDAC_CNT > 1u) */
1987:Generated_Source\PSoC4/CapSense.c **** 
1988:Generated_Source\PSoC4/CapSense.c **** 
1989:Generated_Source\PSoC4/CapSense.c **** #if((CapSense_TUNING_METHOD != CapSense__TUNING_NONE) && (CapSense_IDAC_CNT > 1u))
1990:Generated_Source\PSoC4/CapSense.c ****     /*******************************************************************************
1991:Generated_Source\PSoC4/CapSense.c ****     * Function Name: CapSense_SetCompensationIDAC
1992:Generated_Source\PSoC4/CapSense.c ****     ********************************************************************************
1993:Generated_Source\PSoC4/CapSense.c ****     *
1994:Generated_Source\PSoC4/CapSense.c ****     * Summary:
1995:Generated_Source\PSoC4/CapSense.c ****     *  This API sets a value of compensation IDAC for the  sensor.
1996:Generated_Source\PSoC4/CapSense.c ****     *
1997:Generated_Source\PSoC4/CapSense.c ****     * Parameters:
1998:Generated_Source\PSoC4/CapSense.c ****     *  sensor:  Sensor index.
1999:Generated_Source\PSoC4/CapSense.c ****     *  compIdacValue: represents the compensation IDAC data register value.
2000:Generated_Source\PSoC4/CapSense.c ****     *
2001:Generated_Source\PSoC4/CapSense.c ****     * Return:
ARM GAS  C:\Users\Ray\AppData\Local\Temp\ccn7U9Aq.s 			page 69


2002:Generated_Source\PSoC4/CapSense.c ****     *  None.
2003:Generated_Source\PSoC4/CapSense.c ****     *
2004:Generated_Source\PSoC4/CapSense.c ****     * Global Variables:
2005:Generated_Source\PSoC4/CapSense.c ****     *  CapSense_compensationIDAC[] - an array with compensation IDAC values
2006:Generated_Source\PSoC4/CapSense.c ****     *
2007:Generated_Source\PSoC4/CapSense.c ****     * Side Effects:
2008:Generated_Source\PSoC4/CapSense.c ****     *  None
2009:Generated_Source\PSoC4/CapSense.c ****     *
2010:Generated_Source\PSoC4/CapSense.c ****     *******************************************************************************/
2011:Generated_Source\PSoC4/CapSense.c ****     void CapSense_SetCompensationIDAC(uint32 sensor, uint32 compIdacValue)
2012:Generated_Source\PSoC4/CapSense.c ****     {
 1771              		.loc 1 2012 0
 1772              		.cfi_startproc
 1773              		@ args = 0, pretend = 0, frame = 0
 1774              		@ frame_needed = 0, uses_anonymous_args = 0
 1775              		@ link register save eliminated.
 1776              	.LVL204:
2013:Generated_Source\PSoC4/CapSense.c ****         CapSense_compensationIDAC[sensor] = (uint8)compIdacValue;
 1777              		.loc 1 2013 0
 1778 0000 014B     		ldr	r3, .L120
 1779 0002 1954     		strb	r1, [r3, r0]
2014:Generated_Source\PSoC4/CapSense.c ****     }
 1780              		.loc 1 2014 0
 1781              		@ sp needed
 1782 0004 7047     		bx	lr
 1783              	.L121:
 1784 0006 C046     		.align	2
 1785              	.L120:
 1786 0008 00000000 		.word	CapSense_compensationIDAC
 1787              		.cfi_endproc
 1788              	.LFE66:
 1789              		.size	CapSense_SetCompensationIDAC, .-CapSense_SetCompensationIDAC
 1790              		.section	.text.CapSense_GetIDACRange,"ax",%progbits
 1791              		.align	2
 1792              		.global	CapSense_GetIDACRange
 1793              		.code	16
 1794              		.thumb_func
 1795              		.type	CapSense_GetIDACRange, %function
 1796              	CapSense_GetIDACRange:
 1797              	.LFB67:
2015:Generated_Source\PSoC4/CapSense.c **** #endif /* ((CapSense_TUNING_METHOD != CapSense__TUNING_NONE) && (CapSense_IDAC_CNT > 1u)) */
2016:Generated_Source\PSoC4/CapSense.c **** 
2017:Generated_Source\PSoC4/CapSense.c **** /*******************************************************************************
2018:Generated_Source\PSoC4/CapSense.c **** * Function Name: CapSense_GetIDACRange
2019:Generated_Source\PSoC4/CapSense.c **** ********************************************************************************
2020:Generated_Source\PSoC4/CapSense.c **** *
2021:Generated_Source\PSoC4/CapSense.c **** * Summary:
2022:Generated_Source\PSoC4/CapSense.c **** *  This API returns a value that indicates the IDAC range used by the
2023:Generated_Source\PSoC4/CapSense.c **** *  component to scan sensors. The IDAC range is common for all the sensors.
2024:Generated_Source\PSoC4/CapSense.c **** *
2025:Generated_Source\PSoC4/CapSense.c **** * Parameters:
2026:Generated_Source\PSoC4/CapSense.c **** *  None
2027:Generated_Source\PSoC4/CapSense.c **** *
2028:Generated_Source\PSoC4/CapSense.c **** * Return:
2029:Generated_Source\PSoC4/CapSense.c **** *  This API Returns a value that indicates the IDAC range:
2030:Generated_Source\PSoC4/CapSense.c **** *      0 - IDAC range set to 4x
2031:Generated_Source\PSoC4/CapSense.c **** *      1 - IDAC range set to 8x
ARM GAS  C:\Users\Ray\AppData\Local\Temp\ccn7U9Aq.s 			page 70


2032:Generated_Source\PSoC4/CapSense.c **** *
2033:Generated_Source\PSoC4/CapSense.c **** * Global Variables:
2034:Generated_Source\PSoC4/CapSense.c **** *  None
2035:Generated_Source\PSoC4/CapSense.c **** *
2036:Generated_Source\PSoC4/CapSense.c **** * Side Effects:
2037:Generated_Source\PSoC4/CapSense.c **** *  None
2038:Generated_Source\PSoC4/CapSense.c **** *
2039:Generated_Source\PSoC4/CapSense.c **** *******************************************************************************/
2040:Generated_Source\PSoC4/CapSense.c **** uint32 CapSense_GetIDACRange(void)
2041:Generated_Source\PSoC4/CapSense.c **** {
 1798              		.loc 1 2041 0
 1799              		.cfi_startproc
 1800              		@ args = 0, pretend = 0, frame = 0
 1801              		@ frame_needed = 0, uses_anonymous_args = 0
 1802              		@ link register save eliminated.
2042:Generated_Source\PSoC4/CapSense.c ****     return((0u != (CapSense_CSD_IDAC_REG & CapSense_CSD_IDAC1_RANGE_8X)) ? 1uL : 0uL);
 1803              		.loc 1 2042 0
 1804 0000 034B     		ldr	r3, .L124
 1805 0002 1868     		ldr	r0, [r3]
 1806 0004 8023     		movs	r3, #128
 1807 0006 DB00     		lsls	r3, r3, #3
 1808 0008 1840     		ands	r0, r3
 1809 000a 00D0     		beq	.L123
 1810 000c 0120     		movs	r0, #1
 1811              	.L123:
2043:Generated_Source\PSoC4/CapSense.c **** }
 1812              		.loc 1 2043 0 discriminator 4
 1813              		@ sp needed
 1814 000e 7047     		bx	lr
 1815              	.L125:
 1816              		.align	2
 1817              	.L124:
 1818 0010 08000840 		.word	1074266120
 1819              		.cfi_endproc
 1820              	.LFE67:
 1821              		.size	CapSense_GetIDACRange, .-CapSense_GetIDACRange
 1822              		.section	.text.CapSense_SetIDACRange,"ax",%progbits
 1823              		.align	2
 1824              		.global	CapSense_SetIDACRange
 1825              		.code	16
 1826              		.thumb_func
 1827              		.type	CapSense_SetIDACRange, %function
 1828              	CapSense_SetIDACRange:
 1829              	.LFB68:
2044:Generated_Source\PSoC4/CapSense.c **** 
2045:Generated_Source\PSoC4/CapSense.c **** #if (CapSense_TUNING_METHOD != CapSense__TUNING_NONE)
2046:Generated_Source\PSoC4/CapSense.c ****     /*******************************************************************************
2047:Generated_Source\PSoC4/CapSense.c ****     * Function Name: CapSense_SetIDACRange
2048:Generated_Source\PSoC4/CapSense.c ****     ********************************************************************************
2049:Generated_Source\PSoC4/CapSense.c ****     *
2050:Generated_Source\PSoC4/CapSense.c ****     * Summary:
2051:Generated_Source\PSoC4/CapSense.c ****     *  This API sets the IDAC range to the 4x (1.2uA/bit) or 8x (2.4uA/bit) mode.
2052:Generated_Source\PSoC4/CapSense.c ****     *  The IDAC range is common for all the sensors and common for the modulation and
2053:Generated_Source\PSoC4/CapSense.c ****     *  compensation IDACs.
2054:Generated_Source\PSoC4/CapSense.c ****     *
2055:Generated_Source\PSoC4/CapSense.c ****     * Parameters:
2056:Generated_Source\PSoC4/CapSense.c ****     *  iDacRange:  represents value for IDAC range
ARM GAS  C:\Users\Ray\AppData\Local\Temp\ccn7U9Aq.s 			page 71


2057:Generated_Source\PSoC4/CapSense.c ****     *  0 -  IDAC range set to 4x (1.2uA/bit)
2058:Generated_Source\PSoC4/CapSense.c ****     *  1 or >1 - IDAC range set to 8x (2.4uA/bit)
2059:Generated_Source\PSoC4/CapSense.c ****     *
2060:Generated_Source\PSoC4/CapSense.c ****     * Return:
2061:Generated_Source\PSoC4/CapSense.c ****     *  None.
2062:Generated_Source\PSoC4/CapSense.c ****     *
2063:Generated_Source\PSoC4/CapSense.c ****     * Global Variables:
2064:Generated_Source\PSoC4/CapSense.c ****     *  None
2065:Generated_Source\PSoC4/CapSense.c ****     *
2066:Generated_Source\PSoC4/CapSense.c ****     * Side Effects:
2067:Generated_Source\PSoC4/CapSense.c ****     *  None
2068:Generated_Source\PSoC4/CapSense.c ****     *
2069:Generated_Source\PSoC4/CapSense.c ****     *******************************************************************************/
2070:Generated_Source\PSoC4/CapSense.c ****     void CapSense_SetIDACRange(uint32 iDacRange)
2071:Generated_Source\PSoC4/CapSense.c ****     {
 1830              		.loc 1 2071 0
 1831              		.cfi_startproc
 1832              		@ args = 0, pretend = 0, frame = 0
 1833              		@ frame_needed = 0, uses_anonymous_args = 0
 1834              		@ link register save eliminated.
 1835              	.LVL205:
2072:Generated_Source\PSoC4/CapSense.c ****         if(iDacRange != 0u)
 1836              		.loc 1 2072 0
 1837 0000 0028     		cmp	r0, #0
 1838 0002 05D0     		beq	.L127
2073:Generated_Source\PSoC4/CapSense.c ****         {
2074:Generated_Source\PSoC4/CapSense.c ****             /*  IDAC range = 8x (2.4uA/bit) */
2075:Generated_Source\PSoC4/CapSense.c ****             CapSense_CSD_IDAC_REG |= (CapSense_CSD_IDAC1_RANGE_8X |\
 1839              		.loc 1 2075 0
 1840 0004 054A     		ldr	r2, .L129
 1841 0006 1368     		ldr	r3, [r2]
 1842 0008 0549     		ldr	r1, .L129+4
 1843 000a 0B43     		orrs	r3, r1
 1844 000c 1360     		str	r3, [r2]
 1845 000e 04E0     		b	.L126
 1846              	.L127:
2076:Generated_Source\PSoC4/CapSense.c ****                                               CapSense_CSD_IDAC2_RANGE_8X);
2077:Generated_Source\PSoC4/CapSense.c ****         }
2078:Generated_Source\PSoC4/CapSense.c ****         else
2079:Generated_Source\PSoC4/CapSense.c ****         {
2080:Generated_Source\PSoC4/CapSense.c ****             /*  IDAC range = 4x (1.2uA/bit) */
2081:Generated_Source\PSoC4/CapSense.c ****             /*  IDAC range = 8x (2.4uA/bit) */
2082:Generated_Source\PSoC4/CapSense.c ****             CapSense_CSD_IDAC_REG &= ~(CapSense_CSD_IDAC1_RANGE_8X |\
 1847              		.loc 1 2082 0
 1848 0010 024A     		ldr	r2, .L129
 1849 0012 1168     		ldr	r1, [r2]
 1850 0014 034B     		ldr	r3, .L129+8
 1851 0016 0B40     		ands	r3, r1
 1852 0018 1360     		str	r3, [r2]
 1853              	.L126:
2083:Generated_Source\PSoC4/CapSense.c ****                                                CapSense_CSD_IDAC2_RANGE_8X);
2084:Generated_Source\PSoC4/CapSense.c ****         }
2085:Generated_Source\PSoC4/CapSense.c ****     }
 1854              		.loc 1 2085 0
 1855              		@ sp needed
 1856 001a 7047     		bx	lr
 1857              	.L130:
ARM GAS  C:\Users\Ray\AppData\Local\Temp\ccn7U9Aq.s 			page 72


 1858              		.align	2
 1859              	.L129:
 1860 001c 08000840 		.word	1074266120
 1861 0020 00040004 		.word	67109888
 1862 0024 FFFBFFFB 		.word	-67109889
 1863              		.cfi_endproc
 1864              	.LFE68:
 1865              		.size	CapSense_SetIDACRange, .-CapSense_SetIDACRange
 1866              		.section	.text.CapSense_GetSensorRaw,"ax",%progbits
 1867              		.align	2
 1868              		.global	CapSense_GetSensorRaw
 1869              		.code	16
 1870              		.thumb_func
 1871              		.type	CapSense_GetSensorRaw, %function
 1872              	CapSense_GetSensorRaw:
 1873              	.LFB69:
2086:Generated_Source\PSoC4/CapSense.c **** #endif /* (CapSense_TUNING_METHOD != CapSense__TUNING_NONE) */
2087:Generated_Source\PSoC4/CapSense.c **** 
2088:Generated_Source\PSoC4/CapSense.c **** 
2089:Generated_Source\PSoC4/CapSense.c **** #if((0u != CapSense_AUTOCALIBRATION_ENABLE) || (CapSense_TUNING_METHOD == CapSense__TUNING_AUTO))
2090:Generated_Source\PSoC4/CapSense.c ****     /*******************************************************************************
2091:Generated_Source\PSoC4/CapSense.c ****     * Function Name: CapSense_GetSensorRaw
2092:Generated_Source\PSoC4/CapSense.c ****     ********************************************************************************
2093:Generated_Source\PSoC4/CapSense.c ****     *
2094:Generated_Source\PSoC4/CapSense.c ****     * Summary:
2095:Generated_Source\PSoC4/CapSense.c ****     *  The API updates and gets uprated raw data from the sensor.
2096:Generated_Source\PSoC4/CapSense.c ****     *
2097:Generated_Source\PSoC4/CapSense.c ****     * Parameters:
2098:Generated_Source\PSoC4/CapSense.c ****     *  sensor - Sensor number.
2099:Generated_Source\PSoC4/CapSense.c ****     *
2100:Generated_Source\PSoC4/CapSense.c ****     * Return:
2101:Generated_Source\PSoC4/CapSense.c ****     *  Returns the current raw data value for a defined sensor number.
2102:Generated_Source\PSoC4/CapSense.c ****     *
2103:Generated_Source\PSoC4/CapSense.c ****     * Global Variables:
2104:Generated_Source\PSoC4/CapSense.c ****     *  None
2105:Generated_Source\PSoC4/CapSense.c ****     *
2106:Generated_Source\PSoC4/CapSense.c ****     * Side Effects:
2107:Generated_Source\PSoC4/CapSense.c ****     *  None
2108:Generated_Source\PSoC4/CapSense.c ****     *
2109:Generated_Source\PSoC4/CapSense.c ****     *******************************************************************************/
2110:Generated_Source\PSoC4/CapSense.c ****     uint16  CapSense_GetSensorRaw(uint32 sensor)
2111:Generated_Source\PSoC4/CapSense.c ****     {
 1874              		.loc 1 2111 0
 1875              		.cfi_startproc
 1876              		@ args = 0, pretend = 0, frame = 0
 1877              		@ frame_needed = 0, uses_anonymous_args = 0
 1878              	.LVL206:
 1879 0000 70B5     		push	{r4, r5, r6, lr}
 1880              		.cfi_def_cfa_offset 16
 1881              		.cfi_offset 4, -16
 1882              		.cfi_offset 5, -12
 1883              		.cfi_offset 6, -8
 1884              		.cfi_offset 14, -4
 1885 0002 0600     		movs	r6, r0
 1886              	.LVL207:
2112:Generated_Source\PSoC4/CapSense.c ****         uint32 curSample;
2113:Generated_Source\PSoC4/CapSense.c ****         uint32 avgVal = 0u;
ARM GAS  C:\Users\Ray\AppData\Local\Temp\ccn7U9Aq.s 			page 73


 1887              		.loc 1 2113 0
 1888 0004 0024     		movs	r4, #0
2114:Generated_Source\PSoC4/CapSense.c **** 
2115:Generated_Source\PSoC4/CapSense.c ****         for(curSample = 0u; curSample < CapSense_AVG_SAMPLES_NUM; curSample++)
 1889              		.loc 1 2115 0
 1890 0006 0025     		movs	r5, #0
 1891 0008 0BE0     		b	.L132
 1892              	.LVL208:
 1893              	.L134:
2116:Generated_Source\PSoC4/CapSense.c ****         {
2117:Generated_Source\PSoC4/CapSense.c **** 
2118:Generated_Source\PSoC4/CapSense.c ****             CapSense_ScanSensor((uint32)sensor);
 1894              		.loc 1 2118 0
 1895 000a 3000     		movs	r0, r6
 1896 000c FFF7FEFF 		bl	CapSense_ScanSensor
 1897              	.LVL209:
 1898              	.L133:
2119:Generated_Source\PSoC4/CapSense.c ****             while(CapSense_IsBusy() == 1u)
 1899              		.loc 1 2119 0 discriminator 1
 1900 0010 FFF7FEFF 		bl	CapSense_IsBusy
 1901              	.LVL210:
 1902 0014 0128     		cmp	r0, #1
 1903 0016 FBD0     		beq	.L133
2120:Generated_Source\PSoC4/CapSense.c ****             {
2121:Generated_Source\PSoC4/CapSense.c ****                 /* Wait while sensor is busy */
2122:Generated_Source\PSoC4/CapSense.c ****             }
2123:Generated_Source\PSoC4/CapSense.c ****             avgVal += CapSense_ReadSensorRaw((uint32)sensor);
 1904              		.loc 1 2123 0 discriminator 2
 1905 0018 3000     		movs	r0, r6
 1906 001a FFF7FEFF 		bl	CapSense_ReadSensorRaw
 1907              	.LVL211:
 1908 001e 2418     		adds	r4, r4, r0
 1909              	.LVL212:
2115:Generated_Source\PSoC4/CapSense.c ****         {
 1910              		.loc 1 2115 0 discriminator 2
 1911 0020 0135     		adds	r5, r5, #1
 1912              	.LVL213:
 1913              	.L132:
2115:Generated_Source\PSoC4/CapSense.c ****         {
 1914              		.loc 1 2115 0 is_stmt 0 discriminator 1
 1915 0022 002D     		cmp	r5, #0
 1916 0024 F1D0     		beq	.L134
2124:Generated_Source\PSoC4/CapSense.c ****         }
2125:Generated_Source\PSoC4/CapSense.c **** 
2126:Generated_Source\PSoC4/CapSense.c ****         return((uint16)(avgVal / CapSense_AVG_SAMPLES_NUM));
 1917              		.loc 1 2126 0 is_stmt 1
 1918 0026 A0B2     		uxth	r0, r4
2127:Generated_Source\PSoC4/CapSense.c ****     }
 1919              		.loc 1 2127 0
 1920              		@ sp needed
 1921              	.LVL214:
 1922              	.LVL215:
 1923              	.LVL216:
 1924 0028 70BD     		pop	{r4, r5, r6, pc}
 1925              		.cfi_endproc
 1926              	.LFE69:
 1927              		.size	CapSense_GetSensorRaw, .-CapSense_GetSensorRaw
ARM GAS  C:\Users\Ray\AppData\Local\Temp\ccn7U9Aq.s 			page 74


 1928 002a C046     		.section	.text.CapSense_SetUnscannedSensorState,"ax",%progbits
 1929              		.align	2
 1930              		.global	CapSense_SetUnscannedSensorState
 1931              		.code	16
 1932              		.thumb_func
 1933              		.type	CapSense_SetUnscannedSensorState, %function
 1934              	CapSense_SetUnscannedSensorState:
 1935              	.LFB70:
2128:Generated_Source\PSoC4/CapSense.c **** #endif /* ((0u != CapSense_AUTOCALIBRATION_ENABLE) && (CapSense_TUNING_METHOD == CapSense__TUNING_A
2129:Generated_Source\PSoC4/CapSense.c **** 
2130:Generated_Source\PSoC4/CapSense.c **** 
2131:Generated_Source\PSoC4/CapSense.c **** #if((0u != CapSense_AUTOCALIBRATION_ENABLE) && (CapSense_TUNING_METHOD != CapSense__TUNING_AUTO))
2132:Generated_Source\PSoC4/CapSense.c ****     /*******************************************************************************
2133:Generated_Source\PSoC4/CapSense.c ****     * Function Name: CapSense_CalibrateSensor
2134:Generated_Source\PSoC4/CapSense.c ****     ********************************************************************************
2135:Generated_Source\PSoC4/CapSense.c ****     *
2136:Generated_Source\PSoC4/CapSense.c ****     * Summary:
2137:Generated_Source\PSoC4/CapSense.c ****     *  Computes the one sensor IDAC value, which provides the raw signal on
2138:Generated_Source\PSoC4/CapSense.c ****     *  a specified level, with a specified prescaler, speed, and resolution.
2139:Generated_Source\PSoC4/CapSense.c ****     *
2140:Generated_Source\PSoC4/CapSense.c ****     * Parameters:
2141:Generated_Source\PSoC4/CapSense.c ****     *  sensor - Sensor Number.
2142:Generated_Source\PSoC4/CapSense.c ****     *
2143:Generated_Source\PSoC4/CapSense.c ****     *  rawLevel -  Raw data level which should be reached during the calibration
2144:Generated_Source\PSoC4/CapSense.c ****     *              procedure.
2145:Generated_Source\PSoC4/CapSense.c ****     *
2146:Generated_Source\PSoC4/CapSense.c ****     *  idacLevelsTbl - Pointer to the modulatorIdac data register configuration table.
2147:Generated_Source\PSoC4/CapSense.c ****     *
2148:Generated_Source\PSoC4/CapSense.c ****     * Return:
2149:Generated_Source\PSoC4/CapSense.c ****     *  None
2150:Generated_Source\PSoC4/CapSense.c ****     *
2151:Generated_Source\PSoC4/CapSense.c ****     *******************************************************************************/
2152:Generated_Source\PSoC4/CapSense.c ****     void CapSense_CalibrateSensor(uint32 sensor, uint32 rawLevel, uint8 idacLevelsTbl[])
2153:Generated_Source\PSoC4/CapSense.c ****     {
2154:Generated_Source\PSoC4/CapSense.c ****         uint8 mask;
2155:Generated_Source\PSoC4/CapSense.c ****         uint16 rawData;
2156:Generated_Source\PSoC4/CapSense.c **** 
2157:Generated_Source\PSoC4/CapSense.c ****         rawData = 0u;
2158:Generated_Source\PSoC4/CapSense.c **** 
2159:Generated_Source\PSoC4/CapSense.c ****         mask = 0x80u;
2160:Generated_Source\PSoC4/CapSense.c ****         /* Init IDAC for null Channel */
2161:Generated_Source\PSoC4/CapSense.c ****         idacLevelsTbl[sensor] = 0x00u;
2162:Generated_Source\PSoC4/CapSense.c **** 
2163:Generated_Source\PSoC4/CapSense.c ****         do
2164:Generated_Source\PSoC4/CapSense.c ****         {
2165:Generated_Source\PSoC4/CapSense.c ****             /* Set bit for null Channel */
2166:Generated_Source\PSoC4/CapSense.c ****             idacLevelsTbl[sensor] |= mask;
2167:Generated_Source\PSoC4/CapSense.c **** 
2168:Generated_Source\PSoC4/CapSense.c ****             /* Scan null Channel and get Rawdata */
2169:Generated_Source\PSoC4/CapSense.c ****             rawData = CapSense_GetSensorRaw(sensor);
2170:Generated_Source\PSoC4/CapSense.c **** 
2171:Generated_Source\PSoC4/CapSense.c ****             /* Decrease IDAC until Rawdata reaches rawLevel */
2172:Generated_Source\PSoC4/CapSense.c ****             if(rawData < rawLevel)
2173:Generated_Source\PSoC4/CapSense.c ****             {
2174:Generated_Source\PSoC4/CapSense.c ****                 /* Reset bit for null Channel  */
2175:Generated_Source\PSoC4/CapSense.c ****                 idacLevelsTbl[sensor] &= (uint8)~mask;
2176:Generated_Source\PSoC4/CapSense.c ****             }
ARM GAS  C:\Users\Ray\AppData\Local\Temp\ccn7U9Aq.s 			page 75


2177:Generated_Source\PSoC4/CapSense.c **** 
2178:Generated_Source\PSoC4/CapSense.c ****             mask >>= 1u;
2179:Generated_Source\PSoC4/CapSense.c ****         }
2180:Generated_Source\PSoC4/CapSense.c ****         while(mask > 0u);
2181:Generated_Source\PSoC4/CapSense.c **** 
2182:Generated_Source\PSoC4/CapSense.c ****     }
2183:Generated_Source\PSoC4/CapSense.c **** #endif /* ((0u != CapSense_AUTOCALIBRATION_ENABLE) && (CapSense_TUNING_METHOD != CapSense__TUNING_A
2184:Generated_Source\PSoC4/CapSense.c **** 
2185:Generated_Source\PSoC4/CapSense.c **** 
2186:Generated_Source\PSoC4/CapSense.c **** /*******************************************************************************
2187:Generated_Source\PSoC4/CapSense.c **** * Function Name: CapSense_SetUnscannedSensorState
2188:Generated_Source\PSoC4/CapSense.c **** ********************************************************************************
2189:Generated_Source\PSoC4/CapSense.c **** *
2190:Generated_Source\PSoC4/CapSense.c **** * Summary:
2191:Generated_Source\PSoC4/CapSense.c **** *  This API sets a state for un-scanned sensors.
2192:Generated_Source\PSoC4/CapSense.c **** *  It is possible to set the state to Ground, High-Z, or the shield electrode.
2193:Generated_Source\PSoC4/CapSense.c **** *  The un-scanned sensor can be connected to a shield electrode only if the shield is
2194:Generated_Source\PSoC4/CapSense.c **** *  enabled. If the shield is disabled and this API is called with the parameter which
2195:Generated_Source\PSoC4/CapSense.c **** *  indicates the shield state, the un-scanned sensor will be connected to Ground.
2196:Generated_Source\PSoC4/CapSense.c **** *
2197:Generated_Source\PSoC4/CapSense.c **** * Parameters:
2198:Generated_Source\PSoC4/CapSense.c **** *  sensor - Sensor Number.
2199:Generated_Source\PSoC4/CapSense.c **** *  sensorState: This parameter indicates un-scanned sensor state:
2200:Generated_Source\PSoC4/CapSense.c **** *
2201:Generated_Source\PSoC4/CapSense.c **** *     CapSense__GROUND 0
2202:Generated_Source\PSoC4/CapSense.c **** *     CapSense__HIZ_ANALOG 1
2203:Generated_Source\PSoC4/CapSense.c **** *     CapSense__SHIELD 2
2204:Generated_Source\PSoC4/CapSense.c **** *
2205:Generated_Source\PSoC4/CapSense.c **** * Return:
2206:Generated_Source\PSoC4/CapSense.c **** *  None.
2207:Generated_Source\PSoC4/CapSense.c **** *
2208:Generated_Source\PSoC4/CapSense.c **** * Global Variables:
2209:Generated_Source\PSoC4/CapSense.c **** *  CapSense_unscannedSnsDriveMode[] - used to store the state for
2210:Generated_Source\PSoC4/CapSense.c **** *  un-scanned sensors.
2211:Generated_Source\PSoC4/CapSense.c **** *
2212:Generated_Source\PSoC4/CapSense.c **** * Side Effects:
2213:Generated_Source\PSoC4/CapSense.c **** *  None
2214:Generated_Source\PSoC4/CapSense.c **** *
2215:Generated_Source\PSoC4/CapSense.c **** *******************************************************************************/
2216:Generated_Source\PSoC4/CapSense.c **** void CapSense_SetUnscannedSensorState(uint32 sensor, uint32 sensorState)
2217:Generated_Source\PSoC4/CapSense.c **** {
 1936              		.loc 1 2217 0
 1937              		.cfi_startproc
 1938              		@ args = 0, pretend = 0, frame = 0
 1939              		@ frame_needed = 0, uses_anonymous_args = 0
 1940              		@ link register save eliminated.
 1941              	.LVL217:
2218:Generated_Source\PSoC4/CapSense.c ****     #if(CapSense_IS_COMPLEX_SCANSLOTS)
2219:Generated_Source\PSoC4/CapSense.c ****         uint8 snsType;
2220:Generated_Source\PSoC4/CapSense.c ****         uint8 curSensor;
2221:Generated_Source\PSoC4/CapSense.c ****         uint16 snsNumber;
2222:Generated_Source\PSoC4/CapSense.c **** 
2223:Generated_Source\PSoC4/CapSense.c ****         /* Read sensor type: single or complex */
2224:Generated_Source\PSoC4/CapSense.c ****         snsType = CapSense_portTable[sensor];
2225:Generated_Source\PSoC4/CapSense.c **** 
2226:Generated_Source\PSoC4/CapSense.c ****         /* Check if sensor is complex */
2227:Generated_Source\PSoC4/CapSense.c ****         if(0u != (snsType & CapSense_COMPLEX_SS_FLAG))
ARM GAS  C:\Users\Ray\AppData\Local\Temp\ccn7U9Aq.s 			page 76


2228:Generated_Source\PSoC4/CapSense.c ****         {
2229:Generated_Source\PSoC4/CapSense.c ****             snsType &= (uint8)~CapSense_COMPLEX_SS_FLAG;
2230:Generated_Source\PSoC4/CapSense.c ****             snsNumber = (uint16)CapSense_maskTable[sensor];
2231:Generated_Source\PSoC4/CapSense.c **** 
2232:Generated_Source\PSoC4/CapSense.c ****             for (curSensor=0u; curSensor < snsNumber; curSensor++)
2233:Generated_Source\PSoC4/CapSense.c ****             {
2234:Generated_Source\PSoC4/CapSense.c ****                 sensor = CapSense_indexTable[snsType + curSensor];
2235:Generated_Source\PSoC4/CapSense.c ****                 CapSense_unscannedSnsDriveMode[sensor] = (uint8)sensorState;
2236:Generated_Source\PSoC4/CapSense.c ****             }
2237:Generated_Source\PSoC4/CapSense.c ****         }
2238:Generated_Source\PSoC4/CapSense.c ****         else
2239:Generated_Source\PSoC4/CapSense.c ****         {
2240:Generated_Source\PSoC4/CapSense.c ****             CapSense_unscannedSnsDriveMode[sensor] = (uint8)sensorState;
2241:Generated_Source\PSoC4/CapSense.c ****         }
2242:Generated_Source\PSoC4/CapSense.c ****     #else
2243:Generated_Source\PSoC4/CapSense.c ****         CapSense_unscannedSnsDriveMode[sensor] = (uint8)sensorState;
 1942              		.loc 1 2243 0
 1943 0000 014B     		ldr	r3, .L136
 1944 0002 1954     		strb	r1, [r3, r0]
2244:Generated_Source\PSoC4/CapSense.c ****     #endif /* (CapSense_IS_COMPLEX_SCANSLOTS) */
2245:Generated_Source\PSoC4/CapSense.c **** }
 1945              		.loc 1 2245 0
 1946              		@ sp needed
 1947 0004 7047     		bx	lr
 1948              	.L137:
 1949 0006 C046     		.align	2
 1950              	.L136:
 1951 0008 00000000 		.word	CapSense_unscannedSnsDriveMode
 1952              		.cfi_endproc
 1953              	.LFE70:
 1954              		.size	CapSense_SetUnscannedSensorState, .-CapSense_SetUnscannedSensorState
 1955              		.section	.text.CapSense_Init,"ax",%progbits
 1956              		.align	2
 1957              		.global	CapSense_Init
 1958              		.code	16
 1959              		.thumb_func
 1960              		.type	CapSense_Init, %function
 1961              	CapSense_Init:
 1962              	.LFB32:
 152:Generated_Source\PSoC4/CapSense.c ****     uint32 curSensor;
 1963              		.loc 1 152 0
 1964              		.cfi_startproc
 1965              		@ args = 0, pretend = 0, frame = 0
 1966              		@ frame_needed = 0, uses_anonymous_args = 0
 1967 0000 10B5     		push	{r4, lr}
 1968              		.cfi_def_cfa_offset 8
 1969              		.cfi_offset 4, -8
 1970              		.cfi_offset 14, -4
 1971              	.LVL218:
 183:Generated_Source\PSoC4/CapSense.c ****     {
 1972              		.loc 1 183 0
 1973 0002 0024     		movs	r4, #0
 1974 0004 04E0     		b	.L139
 1975              	.LVL219:
 1976              	.L140:
 185:Generated_Source\PSoC4/CapSense.c ****     }
 1977              		.loc 1 185 0 discriminator 3
ARM GAS  C:\Users\Ray\AppData\Local\Temp\ccn7U9Aq.s 			page 77


 1978 0006 0021     		movs	r1, #0
 1979 0008 2000     		movs	r0, r4
 1980 000a FFF7FEFF 		bl	CapSense_SetUnscannedSensorState
 1981              	.LVL220:
 183:Generated_Source\PSoC4/CapSense.c ****     {
 1982              		.loc 1 183 0 discriminator 3
 1983 000e 0134     		adds	r4, r4, #1
 1984              	.LVL221:
 1985              	.L139:
 183:Generated_Source\PSoC4/CapSense.c ****     {
 1986              		.loc 1 183 0 is_stmt 0 discriminator 1
 1987 0010 012C     		cmp	r4, #1
 1988 0012 F8D9     		bls	.L140
 188:Generated_Source\PSoC4/CapSense.c ****     CapSense_SetShieldDelay(CapSense_SHIELD_DELAY );
 1989              		.loc 1 188 0 is_stmt 1
 1990 0014 FFF7FEFF 		bl	CapSense_CsdHwBlockInit
 1991              	.LVL222:
 189:Generated_Source\PSoC4/CapSense.c **** 
 1992              		.loc 1 189 0
 1993 0018 0020     		movs	r0, #0
 1994 001a FFF7FEFF 		bl	CapSense_SetShieldDelay
 1995              	.LVL223:
 192:Generated_Source\PSoC4/CapSense.c **** }
 1996              		.loc 1 192 0
 1997 001e FFF7FEFF 		bl	CapSense_ClearSensors
 1998              	.LVL224:
 193:Generated_Source\PSoC4/CapSense.c **** 
 1999              		.loc 1 193 0
 2000              		@ sp needed
 2001              	.LVL225:
 2002 0022 10BD     		pop	{r4, pc}
 2003              		.cfi_endproc
 2004              	.LFE32:
 2005              		.size	CapSense_Init, .-CapSense_Init
 2006              		.section	.text.CapSense_Start,"ax",%progbits
 2007              		.align	2
 2008              		.global	CapSense_Start
 2009              		.code	16
 2010              		.thumb_func
 2011              		.type	CapSense_Start, %function
 2012              	CapSense_Start:
 2013              	.LFB35:
 361:Generated_Source\PSoC4/CapSense.c **** 
 2014              		.loc 1 361 0
 2015              		.cfi_startproc
 2016              		@ args = 0, pretend = 0, frame = 0
 2017              		@ frame_needed = 0, uses_anonymous_args = 0
 2018 0000 10B5     		push	{r4, lr}
 2019              		.cfi_def_cfa_offset 8
 2020              		.cfi_offset 4, -8
 2021              		.cfi_offset 14, -4
 371:Generated_Source\PSoC4/CapSense.c ****     {
 2022              		.loc 1 371 0
 2023 0002 0B4B     		ldr	r3, .L143
 2024 0004 5B7A     		ldrb	r3, [r3, #9]
 2025 0006 002B     		cmp	r3, #0
 2026 0008 04D1     		bne	.L142
ARM GAS  C:\Users\Ray\AppData\Local\Temp\ccn7U9Aq.s 			page 78


 373:Generated_Source\PSoC4/CapSense.c ****         CapSense_initVar = 1u;
 2027              		.loc 1 373 0
 2028 000a FFF7FEFF 		bl	CapSense_Init
 2029              	.LVL226:
 374:Generated_Source\PSoC4/CapSense.c ****     }
 2030              		.loc 1 374 0
 2031 000e 0122     		movs	r2, #1
 2032 0010 074B     		ldr	r3, .L143
 2033 0012 5A72     		strb	r2, [r3, #9]
 2034              	.L142:
 376:Generated_Source\PSoC4/CapSense.c **** 
 2035              		.loc 1 376 0
 2036 0014 FFF7FEFF 		bl	CapSense_Enable
 2037              	.LVL227:
 381:Generated_Source\PSoC4/CapSense.c ****             CapSense_lowLevelTuningDone = 1u;
 2038              		.loc 1 381 0
 2039 0018 FFF7FEFF 		bl	CapSense_AutoTune
 2040              	.LVL228:
 382:Generated_Source\PSoC4/CapSense.c ****         #endif /* (0u != CapSense_CSHL_API_GENERATE) */
 2041              		.loc 1 382 0
 2042 001c 0122     		movs	r2, #1
 2043 001e 044B     		ldr	r3, .L143
 2044 0020 9A72     		strb	r2, [r3, #10]
 425:Generated_Source\PSoC4/CapSense.c **** }
 2045              		.loc 1 425 0
 2046 0022 044A     		ldr	r2, .L143+4
 2047 0024 1368     		ldr	r3, [r2]
 2048 0026 8021     		movs	r1, #128
 2049 0028 C903     		lsls	r1, r1, #15
 2050 002a 0B43     		orrs	r3, r1
 2051 002c 1360     		str	r3, [r2]
 426:Generated_Source\PSoC4/CapSense.c **** 
 2052              		.loc 1 426 0
 2053              		@ sp needed
 2054 002e 10BD     		pop	{r4, pc}
 2055              	.L144:
 2056              		.align	2
 2057              	.L143:
 2058 0030 00000000 		.word	.LANCHOR0
 2059 0034 04000840 		.word	1074266116
 2060              		.cfi_endproc
 2061              	.LFE35:
 2062              		.size	CapSense_Start, .-CapSense_Start
 2063              		.global	CapSense_prtDRTbl
 2064              		.global	CapSense_prtCfgTbl
 2065              		.global	CapSense_prtSelTbl
 2066              		.global	CapSense_widgetNumber
 2067              		.comm	CapSense_sampleClkDividerVal,2,4
 2068              		.comm	CapSense_senseClkDividerVal,2,4
 2069              		.global	CapSense_widgetResolution
 2070              		.comm	CapSense_compensationIDAC,2,4
 2071              		.comm	CapSense_modulationIDAC,2,4
 2072              		.global	CapSense_pinShiftTbl
 2073              		.global	CapSense_maskTable
 2074              		.global	CapSense_portTable
 2075              		.global	CapSense_pcTable
 2076              		.global	CapSense_sensorEnableMask
ARM GAS  C:\Users\Ray\AppData\Local\Temp\ccn7U9Aq.s 			page 79


 2077              		.comm	CapSense_sensorEnableMaskBackup,1,4
 2078              		.comm	CapSense_unscannedSnsDriveMode,2,4
 2079              		.comm	CapSense_csdTrim1,1,1
 2080              		.global	CapSense_sensorRaw
 2081              		.global	CapSense_sensorIndex
 2082              		.global	CapSense_csdStatusVar
 2083              		.comm	CapSense_scanSpeedTbl,1,4
 2084              		.global	CapSense_lowLevelTuningDone
 2085              		.section	.rodata
 2086              		.align	2
 2087              		.set	.LANCHOR2,. + 0
 2088              		.type	CapSense_portTable, %object
 2089              		.size	CapSense_portTable, 2
 2090              	CapSense_portTable:
 2091 0000 03       		.byte	3
 2092 0001 02       		.byte	2
 2093 0002 0000     		.space	2
 2094              		.type	CapSense_pinShiftTbl, %object
 2095              		.size	CapSense_pinShiftTbl, 2
 2096              	CapSense_pinShiftTbl:
 2097 0004 00       		.byte	0
 2098 0005 04       		.byte	4
 2099 0006 0000     		.space	2
 2100              		.type	CapSense_prtSelTbl, %object
 2101              		.size	CapSense_prtSelTbl, 20
 2102              	CapSense_prtSelTbl:
 2103 0008 00000140 		.word	1073807360
 2104 000c 04000140 		.word	1073807364
 2105 0010 08000140 		.word	1073807368
 2106 0014 0C000140 		.word	1073807372
 2107 0018 10000140 		.word	1073807376
 2108              		.type	CapSense_prtCfgTbl, %object
 2109              		.size	CapSense_prtCfgTbl, 20
 2110              	CapSense_prtCfgTbl:
 2111 001c 08000440 		.word	1074003976
 2112 0020 08010440 		.word	1074004232
 2113 0024 08020440 		.word	1074004488
 2114 0028 08030440 		.word	1074004744
 2115 002c 08040440 		.word	1074005000
 2116              		.type	CapSense_prtDRTbl, %object
 2117              		.size	CapSense_prtDRTbl, 20
 2118              	CapSense_prtDRTbl:
 2119 0030 00000440 		.word	1074003968
 2120 0034 00010440 		.word	1074004224
 2121 0038 00020440 		.word	1074004480
 2122 003c 00030440 		.word	1074004736
 2123 0040 00040440 		.word	1074004992
 2124              		.type	CapSense_widgetNumber, %object
 2125              		.size	CapSense_widgetNumber, 2
 2126              	CapSense_widgetNumber:
 2127 0044 00       		.byte	0
 2128 0045 01       		.byte	1
 2129 0046 0000     		.space	2
 2130              		.type	CapSense_maskTable, %object
 2131              		.size	CapSense_maskTable, 8
 2132              	CapSense_maskTable:
 2133 0048 01000000 		.word	1
ARM GAS  C:\Users\Ray\AppData\Local\Temp\ccn7U9Aq.s 			page 80


 2134 004c 10000000 		.word	16
 2135              		.data
 2136              		.align	2
 2137              		.set	.LANCHOR1,. + 0
 2138              		.type	CapSense_widgetResolution, %object
 2139              		.size	CapSense_widgetResolution, 8
 2140              	CapSense_widgetResolution:
 2141 0000 0000FF0F 		.word	268369920
 2142 0004 0000FF0F 		.word	268369920
 2143              		.type	CapSense_sensorEnableMask, %object
 2144              		.size	CapSense_sensorEnableMask, 1
 2145              	CapSense_sensorEnableMask:
 2146 0008 03       		.byte	3
 2147 0009 000000   		.space	3
 2148              		.type	CapSense_pcTable, %object
 2149              		.size	CapSense_pcTable, 8
 2150              	CapSense_pcTable:
 2151 000c 08030440 		.word	1074004744
 2152 0010 08020440 		.word	1074004488
 2153              		.bss
 2154              		.align	2
 2155              		.set	.LANCHOR0,. + 0
 2156              		.type	CapSense_csdStatusVar, %object
 2157              		.size	CapSense_csdStatusVar, 1
 2158              	CapSense_csdStatusVar:
 2159 0000 00       		.space	1
 2160 0001 000000   		.space	3
 2161              		.type	CapSense_sensorRaw, %object
 2162              		.size	CapSense_sensorRaw, 4
 2163              	CapSense_sensorRaw:
 2164 0004 00000000 		.space	4
 2165              		.type	CapSense_sensorIndex, %object
 2166              		.size	CapSense_sensorIndex, 1
 2167              	CapSense_sensorIndex:
 2168 0008 00       		.space	1
 2169              		.type	CapSense_initVar.5384, %object
 2170              		.size	CapSense_initVar.5384, 1
 2171              	CapSense_initVar.5384:
 2172 0009 00       		.space	1
 2173              		.type	CapSense_lowLevelTuningDone, %object
 2174              		.size	CapSense_lowLevelTuningDone, 1
 2175              	CapSense_lowLevelTuningDone:
 2176 000a 00       		.space	1
 2177              		.text
 2178              	.Letext0:
 2179              		.file 2 "Generated_Source\\PSoC4\\cytypes.h"
 2180              		.file 3 "Generated_Source\\PSoC4\\CapSense_CSHL.h"
 2181              		.file 4 "Generated_Source\\PSoC4\\CyLib.h"
 2182              		.file 5 "Generated_Source\\PSoC4\\CapSense_SenseClk.h"
 2183              		.file 6 "Generated_Source\\PSoC4\\CapSense_SampleClk.h"
 2184              		.file 7 "Generated_Source\\PSoC4\\CapSense.h"
 2185              		.section	.debug_info,"",%progbits
 2186              	.Ldebug_info0:
 2187 0000 EB0F0000 		.4byte	0xfeb
 2188 0004 0400     		.2byte	0x4
 2189 0006 00000000 		.4byte	.Ldebug_abbrev0
 2190 000a 04       		.byte	0x4
ARM GAS  C:\Users\Ray\AppData\Local\Temp\ccn7U9Aq.s 			page 81


 2191 000b 01       		.uleb128 0x1
 2192 000c 06030000 		.4byte	.LASF133
 2193 0010 0C       		.byte	0xc
 2194 0011 D1020000 		.4byte	.LASF134
 2195 0015 0D040000 		.4byte	.LASF135
 2196 0019 00000000 		.4byte	.Ldebug_ranges0+0
 2197 001d 00000000 		.4byte	0
 2198 0021 00000000 		.4byte	.Ldebug_line0
 2199 0025 02       		.uleb128 0x2
 2200 0026 01       		.byte	0x1
 2201 0027 06       		.byte	0x6
 2202 0028 190A0000 		.4byte	.LASF0
 2203 002c 02       		.uleb128 0x2
 2204 002d 01       		.byte	0x1
 2205 002e 08       		.byte	0x8
 2206 002f F7080000 		.4byte	.LASF1
 2207 0033 02       		.uleb128 0x2
 2208 0034 02       		.byte	0x2
 2209 0035 05       		.byte	0x5
 2210 0036 51070000 		.4byte	.LASF2
 2211 003a 02       		.uleb128 0x2
 2212 003b 02       		.byte	0x2
 2213 003c 07       		.byte	0x7
 2214 003d 250A0000 		.4byte	.LASF3
 2215 0041 02       		.uleb128 0x2
 2216 0042 04       		.byte	0x4
 2217 0043 05       		.byte	0x5
 2218 0044 5B070000 		.4byte	.LASF4
 2219 0048 02       		.uleb128 0x2
 2220 0049 04       		.byte	0x4
 2221 004a 07       		.byte	0x7
 2222 004b AE080000 		.4byte	.LASF5
 2223 004f 02       		.uleb128 0x2
 2224 0050 08       		.byte	0x8
 2225 0051 05       		.byte	0x5
 2226 0052 DC050000 		.4byte	.LASF6
 2227 0056 02       		.uleb128 0x2
 2228 0057 08       		.byte	0x8
 2229 0058 07       		.byte	0x7
 2230 0059 42020000 		.4byte	.LASF7
 2231 005d 03       		.uleb128 0x3
 2232 005e 04       		.byte	0x4
 2233 005f 05       		.byte	0x5
 2234 0060 696E7400 		.ascii	"int\000"
 2235 0064 02       		.uleb128 0x2
 2236 0065 04       		.byte	0x4
 2237 0066 07       		.byte	0x7
 2238 0067 94000000 		.4byte	.LASF8
 2239 006b 04       		.uleb128 0x4
 2240 006c 440A0000 		.4byte	.LASF9
 2241 0070 02       		.byte	0x2
 2242 0071 D201     		.2byte	0x1d2
 2243 0073 2C000000 		.4byte	0x2c
 2244 0077 04       		.uleb128 0x4
 2245 0078 4A050000 		.4byte	.LASF10
 2246 007c 02       		.byte	0x2
 2247 007d D301     		.2byte	0x1d3
ARM GAS  C:\Users\Ray\AppData\Local\Temp\ccn7U9Aq.s 			page 82


 2248 007f 3A000000 		.4byte	0x3a
 2249 0083 04       		.uleb128 0x4
 2250 0084 7B060000 		.4byte	.LASF11
 2251 0088 02       		.byte	0x2
 2252 0089 D401     		.2byte	0x1d4
 2253 008b 48000000 		.4byte	0x48
 2254 008f 02       		.uleb128 0x2
 2255 0090 04       		.byte	0x4
 2256 0091 04       		.byte	0x4
 2257 0092 3C020000 		.4byte	.LASF12
 2258 0096 02       		.uleb128 0x2
 2259 0097 08       		.byte	0x8
 2260 0098 04       		.byte	0x4
 2261 0099 4A0A0000 		.4byte	.LASF13
 2262 009d 02       		.uleb128 0x2
 2263 009e 01       		.byte	0x1
 2264 009f 08       		.byte	0x8
 2265 00a0 F2040000 		.4byte	.LASF14
 2266 00a4 04       		.uleb128 0x4
 2267 00a5 CD000000 		.4byte	.LASF15
 2268 00a9 02       		.byte	0x2
 2269 00aa 7C02     		.2byte	0x27c
 2270 00ac B0000000 		.4byte	0xb0
 2271 00b0 05       		.uleb128 0x5
 2272 00b1 6B000000 		.4byte	0x6b
 2273 00b5 04       		.uleb128 0x4
 2274 00b6 AC060000 		.4byte	.LASF16
 2275 00ba 02       		.byte	0x2
 2276 00bb 7E02     		.2byte	0x27e
 2277 00bd C1000000 		.4byte	0xc1
 2278 00c1 05       		.uleb128 0x5
 2279 00c2 83000000 		.4byte	0x83
 2280 00c6 02       		.uleb128 0x2
 2281 00c7 04       		.byte	0x4
 2282 00c8 07       		.byte	0x7
 2283 00c9 A5080000 		.4byte	.LASF17
 2284 00cd 02       		.uleb128 0x2
 2285 00ce 08       		.byte	0x8
 2286 00cf 04       		.byte	0x4
 2287 00d0 95060000 		.4byte	.LASF18
 2288 00d4 06       		.uleb128 0x6
 2289 00d5 04       		.byte	0x4
 2290 00d6 6B000000 		.4byte	0x6b
 2291 00da 06       		.uleb128 0x6
 2292 00db 04       		.byte	0x4
 2293 00dc E0000000 		.4byte	0xe0
 2294 00e0 07       		.uleb128 0x7
 2295 00e1 6B000000 		.4byte	0x6b
 2296 00e5 08       		.uleb128 0x8
 2297 00e6 9A010000 		.4byte	.LASF19
 2298 00ea 01       		.byte	0x1
 2299 00eb D8       		.byte	0xd8
 2300 00ec 00000000 		.4byte	.LFB33
 2301 00f0 84000000 		.4byte	.LFE33-.LFB33
 2302 00f4 01       		.uleb128 0x1
 2303 00f5 9C       		.byte	0x9c
 2304 00f6 47010000 		.4byte	0x147
ARM GAS  C:\Users\Ray\AppData\Local\Temp\ccn7U9Aq.s 			page 83


 2305 00fa 09       		.uleb128 0x9
 2306 00fb 380A0000 		.4byte	.LASF21
 2307 00ff 01       		.byte	0x1
 2308 0100 DA       		.byte	0xda
 2309 0101 83000000 		.4byte	0x83
 2310 0105 00000000 		.4byte	.LLST0
 2311 0109 0A       		.uleb128 0xa
 2312 010a 4A000000 		.4byte	.LVL11
 2313 010e 530F0000 		.4byte	0xf53
 2314 0112 1D010000 		.4byte	0x11d
 2315 0116 0B       		.uleb128 0xb
 2316 0117 01       		.uleb128 0x1
 2317 0118 50       		.byte	0x50
 2318 0119 02       		.uleb128 0x2
 2319 011a 74       		.byte	0x74
 2320 011b 00       		.sleb128 0
 2321 011c 00       		.byte	0
 2322 011d 0A       		.uleb128 0xa
 2323 011e 52000000 		.4byte	.LVL12
 2324 0122 5E0F0000 		.4byte	0xf5e
 2325 0126 31010000 		.4byte	0x131
 2326 012a 0B       		.uleb128 0xb
 2327 012b 01       		.uleb128 0x1
 2328 012c 50       		.byte	0x50
 2329 012d 02       		.uleb128 0x2
 2330 012e 74       		.byte	0x74
 2331 012f 00       		.sleb128 0
 2332 0130 00       		.byte	0
 2333 0131 0C       		.uleb128 0xc
 2334 0132 5A000000 		.4byte	.LVL13
 2335 0136 690F0000 		.4byte	0xf69
 2336 013a 0B       		.uleb128 0xb
 2337 013b 01       		.uleb128 0x1
 2338 013c 50       		.byte	0x50
 2339 013d 02       		.uleb128 0x2
 2340 013e 74       		.byte	0x74
 2341 013f 00       		.sleb128 0
 2342 0140 0B       		.uleb128 0xb
 2343 0141 01       		.uleb128 0x1
 2344 0142 51       		.byte	0x51
 2345 0143 01       		.uleb128 0x1
 2346 0144 33       		.byte	0x33
 2347 0145 00       		.byte	0
 2348 0146 00       		.byte	0
 2349 0147 0D       		.uleb128 0xd
 2350 0148 D9030000 		.4byte	.LASF20
 2351 014c 01       		.byte	0x1
 2352 014d 2D01     		.2byte	0x12d
 2353 014f 00000000 		.4byte	.LFB34
 2354 0153 3C000000 		.4byte	.LFE34-.LFB34
 2355 0157 01       		.uleb128 0x1
 2356 0158 9C       		.byte	0x9c
 2357 0159 D1010000 		.4byte	0x1d1
 2358 015d 0E       		.uleb128 0xe
 2359 015e 380A0000 		.4byte	.LASF21
 2360 0162 01       		.byte	0x1
 2361 0163 2F01     		.2byte	0x12f
ARM GAS  C:\Users\Ray\AppData\Local\Temp\ccn7U9Aq.s 			page 84


 2362 0165 83000000 		.4byte	0x83
 2363 0169 4B000000 		.4byte	.LLST1
 2364 016d 0F       		.uleb128 0xf
 2365 016e 06000000 		.4byte	.LVL14
 2366 0172 740F0000 		.4byte	0xf74
 2367 0176 0F       		.uleb128 0xf
 2368 0177 0A000000 		.4byte	.LVL15
 2369 017b 7F0F0000 		.4byte	0xf7f
 2370 017f 0A       		.uleb128 0xa
 2371 0180 12000000 		.4byte	.LVL16
 2372 0184 8A0F0000 		.4byte	0xf8a
 2373 0188 97010000 		.4byte	0x197
 2374 018c 0B       		.uleb128 0xb
 2375 018d 01       		.uleb128 0x1
 2376 018e 50       		.byte	0x50
 2377 018f 01       		.uleb128 0x1
 2378 0190 30       		.byte	0x30
 2379 0191 0B       		.uleb128 0xb
 2380 0192 01       		.uleb128 0x1
 2381 0193 51       		.byte	0x51
 2382 0194 01       		.uleb128 0x1
 2383 0195 30       		.byte	0x30
 2384 0196 00       		.byte	0
 2385 0197 0A       		.uleb128 0xa
 2386 0198 1A000000 		.4byte	.LVL17
 2387 019c 950F0000 		.4byte	0xf95
 2388 01a0 AF010000 		.4byte	0x1af
 2389 01a4 0B       		.uleb128 0xb
 2390 01a5 01       		.uleb128 0x1
 2391 01a6 50       		.byte	0x50
 2392 01a7 01       		.uleb128 0x1
 2393 01a8 30       		.byte	0x30
 2394 01a9 0B       		.uleb128 0xb
 2395 01aa 01       		.uleb128 0x1
 2396 01ab 51       		.byte	0x51
 2397 01ac 01       		.uleb128 0x1
 2398 01ad 30       		.byte	0x30
 2399 01ae 00       		.byte	0
 2400 01af 0F       		.uleb128 0xf
 2401 01b0 1E000000 		.4byte	.LVL18
 2402 01b4 A00F0000 		.4byte	0xfa0
 2403 01b8 0F       		.uleb128 0xf
 2404 01b9 22000000 		.4byte	.LVL19
 2405 01bd AB0F0000 		.4byte	0xfab
 2406 01c1 0C       		.uleb128 0xc
 2407 01c2 32000000 		.4byte	.LVL22
 2408 01c6 B60F0000 		.4byte	0xfb6
 2409 01ca 0B       		.uleb128 0xb
 2410 01cb 01       		.uleb128 0x1
 2411 01cc 50       		.byte	0x50
 2412 01cd 01       		.uleb128 0x1
 2413 01ce 3F       		.byte	0x3f
 2414 01cf 00       		.byte	0
 2415 01d0 00       		.byte	0
 2416 01d1 0D       		.uleb128 0xd
 2417 01d2 D4010000 		.4byte	.LASF22
 2418 01d6 01       		.byte	0x1
ARM GAS  C:\Users\Ray\AppData\Local\Temp\ccn7U9Aq.s 			page 85


 2419 01d7 C401     		.2byte	0x1c4
 2420 01d9 00000000 		.4byte	.LFB36
 2421 01dd 2C000000 		.4byte	.LFE36-.LFB36
 2422 01e1 01       		.uleb128 0x1
 2423 01e2 9C       		.byte	0x9c
 2424 01e3 0D020000 		.4byte	0x20d
 2425 01e7 0A       		.uleb128 0xa
 2426 01e8 08000000 		.4byte	.LVL23
 2427 01ec 530F0000 		.4byte	0xf53
 2428 01f0 FA010000 		.4byte	0x1fa
 2429 01f4 0B       		.uleb128 0xb
 2430 01f5 01       		.uleb128 0x1
 2431 01f6 50       		.byte	0x50
 2432 01f7 01       		.uleb128 0x1
 2433 01f8 3F       		.byte	0x3f
 2434 01f9 00       		.byte	0
 2435 01fa 0F       		.uleb128 0xf
 2436 01fb 1E000000 		.4byte	.LVL24
 2437 01ff 740F0000 		.4byte	0xf74
 2438 0203 0F       		.uleb128 0xf
 2439 0204 22000000 		.4byte	.LVL25
 2440 0208 7F0F0000 		.4byte	0xf7f
 2441 020c 00       		.byte	0
 2442 020d 10       		.uleb128 0x10
 2443 020e 33010000 		.4byte	.LASF54
 2444 0212 01       		.byte	0x1
 2445 0213 BF02     		.2byte	0x2bf
 2446 0215 83000000 		.4byte	0x83
 2447 0219 00000000 		.4byte	.LFB41
 2448 021d 10000000 		.4byte	.LFE41-.LFB41
 2449 0221 01       		.uleb128 0x1
 2450 0222 9C       		.byte	0x9c
 2451 0223 11       		.uleb128 0x11
 2452 0224 17090000 		.4byte	.LASF29
 2453 0228 01       		.byte	0x1
 2454 0229 DD02     		.2byte	0x2dd
 2455 022b 77000000 		.4byte	0x77
 2456 022f 00000000 		.4byte	.LFB42
 2457 0233 10000000 		.4byte	.LFE42-.LFB42
 2458 0237 01       		.uleb128 0x1
 2459 0238 9C       		.byte	0x9c
 2460 0239 4E020000 		.4byte	0x24e
 2461 023d 12       		.uleb128 0x12
 2462 023e D8040000 		.4byte	.LASF24
 2463 0242 01       		.byte	0x1
 2464 0243 DD02     		.2byte	0x2dd
 2465 0245 83000000 		.4byte	0x83
 2466 0249 5E000000 		.4byte	.LLST2
 2467 024d 00       		.byte	0
 2468 024e 0D       		.uleb128 0xd
 2469 024f A5030000 		.4byte	.LASF23
 2470 0253 01       		.byte	0x1
 2471 0254 F802     		.2byte	0x2f8
 2472 0256 00000000 		.4byte	.LFB43
 2473 025a 10000000 		.4byte	.LFE43-.LFB43
 2474 025e 01       		.uleb128 0x1
 2475 025f 9C       		.byte	0x9c
ARM GAS  C:\Users\Ray\AppData\Local\Temp\ccn7U9Aq.s 			page 86


 2476 0260 83020000 		.4byte	0x283
 2477 0264 12       		.uleb128 0x12
 2478 0265 D8040000 		.4byte	.LASF24
 2479 0269 01       		.byte	0x1
 2480 026a F802     		.2byte	0x2f8
 2481 026c 83000000 		.4byte	0x83
 2482 0270 7F000000 		.4byte	.LLST3
 2483 0274 13       		.uleb128 0x13
 2484 0275 00030000 		.4byte	.LASF25
 2485 0279 01       		.byte	0x1
 2486 027a F802     		.2byte	0x2f8
 2487 027c 77000000 		.4byte	0x77
 2488 0280 01       		.uleb128 0x1
 2489 0281 51       		.byte	0x51
 2490 0282 00       		.byte	0
 2491 0283 0D       		.uleb128 0xd
 2492 0284 57040000 		.4byte	.LASF26
 2493 0288 01       		.byte	0x1
 2494 0289 2203     		.2byte	0x322
 2495 028b 00000000 		.4byte	.LFB44
 2496 028f 0C000000 		.4byte	.LFE44-.LFB44
 2497 0293 01       		.uleb128 0x1
 2498 0294 9C       		.byte	0x9c
 2499 0295 B8020000 		.4byte	0x2b8
 2500 0299 12       		.uleb128 0x12
 2501 029a 6E020000 		.4byte	.LASF27
 2502 029e 01       		.byte	0x1
 2503 029f 2203     		.2byte	0x322
 2504 02a1 83000000 		.4byte	0x83
 2505 02a5 A0000000 		.4byte	.LLST4
 2506 02a9 13       		.uleb128 0x13
 2507 02aa 60050000 		.4byte	.LASF28
 2508 02ae 01       		.byte	0x1
 2509 02af 2203     		.2byte	0x322
 2510 02b1 83000000 		.4byte	0x83
 2511 02b5 01       		.uleb128 0x1
 2512 02b6 51       		.byte	0x51
 2513 02b7 00       		.byte	0
 2514 02b8 11       		.uleb128 0x11
 2515 02b9 B6020000 		.4byte	.LASF30
 2516 02bd 01       		.byte	0x1
 2517 02be 4B03     		.2byte	0x34b
 2518 02c0 83000000 		.4byte	0x83
 2519 02c4 00000000 		.4byte	.LFB45
 2520 02c8 0C000000 		.4byte	.LFE45-.LFB45
 2521 02cc 01       		.uleb128 0x1
 2522 02cd 9C       		.byte	0x9c
 2523 02ce E3020000 		.4byte	0x2e3
 2524 02d2 12       		.uleb128 0x12
 2525 02d3 6E020000 		.4byte	.LASF27
 2526 02d7 01       		.byte	0x1
 2527 02d8 4B03     		.2byte	0x34b
 2528 02da 83000000 		.4byte	0x83
 2529 02de C1000000 		.4byte	.LLST5
 2530 02e2 00       		.byte	0
 2531 02e3 0D       		.uleb128 0xd
 2532 02e4 0A060000 		.4byte	.LASF31
ARM GAS  C:\Users\Ray\AppData\Local\Temp\ccn7U9Aq.s 			page 87


 2533 02e8 01       		.byte	0x1
 2534 02e9 0404     		.2byte	0x404
 2535 02eb 00000000 		.4byte	.LFB47
 2536 02ef 48000000 		.4byte	.LFE47-.LFB47
 2537 02f3 01       		.uleb128 0x1
 2538 02f4 9C       		.byte	0x9c
 2539 02f5 6C030000 		.4byte	0x36c
 2540 02f9 12       		.uleb128 0x12
 2541 02fa D8040000 		.4byte	.LASF24
 2542 02fe 01       		.byte	0x1
 2543 02ff 0404     		.2byte	0x404
 2544 0301 83000000 		.4byte	0x83
 2545 0305 E2000000 		.4byte	.LLST6
 2546 0309 0E       		.uleb128 0xe
 2547 030a 43010000 		.4byte	.LASF32
 2548 030e 01       		.byte	0x1
 2549 030f 0604     		.2byte	0x406
 2550 0311 6B000000 		.4byte	0x6b
 2551 0315 03010000 		.4byte	.LLST7
 2552 0319 0E       		.uleb128 0xe
 2553 031a F5000000 		.4byte	.LASF33
 2554 031e 01       		.byte	0x1
 2555 031f 0704     		.2byte	0x407
 2556 0321 6B000000 		.4byte	0x6b
 2557 0325 68010000 		.4byte	.LLST8
 2558 0329 0E       		.uleb128 0xe
 2559 032a BE000000 		.4byte	.LASF34
 2560 032e 01       		.byte	0x1
 2561 032f 0804     		.2byte	0x408
 2562 0331 6B000000 		.4byte	0x6b
 2563 0335 AA010000 		.4byte	.LLST9
 2564 0339 0E       		.uleb128 0xe
 2565 033a 94030000 		.4byte	.LASF35
 2566 033e 01       		.byte	0x1
 2567 033f 0904     		.2byte	0x409
 2568 0341 83000000 		.4byte	0x83
 2569 0345 BD010000 		.4byte	.LLST10
 2570 0349 0E       		.uleb128 0xe
 2571 034a C0080000 		.4byte	.LASF36
 2572 034e 01       		.byte	0x1
 2573 034f 0A04     		.2byte	0x40a
 2574 0351 83000000 		.4byte	0x83
 2575 0355 E6010000 		.4byte	.LLST11
 2576 0359 0F       		.uleb128 0xf
 2577 035a 18000000 		.4byte	.LVL39
 2578 035e C10F0000 		.4byte	0xfc1
 2579 0362 0F       		.uleb128 0xf
 2580 0363 40000000 		.4byte	.LVL46
 2581 0367 CC0F0000 		.4byte	0xfcc
 2582 036b 00       		.byte	0
 2583 036c 0D       		.uleb128 0xd
 2584 036d 83010000 		.4byte	.LASF37
 2585 0371 01       		.byte	0x1
 2586 0372 3904     		.2byte	0x439
 2587 0374 00000000 		.4byte	.LFB48
 2588 0378 70000000 		.4byte	.LFE48-.LFB48
 2589 037c 01       		.uleb128 0x1
ARM GAS  C:\Users\Ray\AppData\Local\Temp\ccn7U9Aq.s 			page 88


 2590 037d 9C       		.byte	0x9c
 2591 037e 15040000 		.4byte	0x415
 2592 0382 12       		.uleb128 0x12
 2593 0383 D8040000 		.4byte	.LASF24
 2594 0387 01       		.byte	0x1
 2595 0388 3904     		.2byte	0x439
 2596 038a 83000000 		.4byte	0x83
 2597 038e 28020000 		.4byte	.LLST12
 2598 0392 0E       		.uleb128 0xe
 2599 0393 BE000000 		.4byte	.LASF34
 2600 0397 01       		.byte	0x1
 2601 0398 3B04     		.2byte	0x43b
 2602 039a 6B000000 		.4byte	0x6b
 2603 039e 49020000 		.4byte	.LLST13
 2604 03a2 0E       		.uleb128 0xe
 2605 03a3 94030000 		.4byte	.LASF35
 2606 03a7 01       		.byte	0x1
 2607 03a8 3C04     		.2byte	0x43c
 2608 03aa 83000000 		.4byte	0x83
 2609 03ae 5C020000 		.4byte	.LLST14
 2610 03b2 0E       		.uleb128 0xe
 2611 03b3 C0080000 		.4byte	.LASF36
 2612 03b7 01       		.byte	0x1
 2613 03b8 3E04     		.2byte	0x43e
 2614 03ba 83000000 		.4byte	0x83
 2615 03be 85020000 		.4byte	.LLST15
 2616 03c2 0E       		.uleb128 0xe
 2617 03c3 F5000000 		.4byte	.LASF33
 2618 03c7 01       		.byte	0x1
 2619 03c8 3F04     		.2byte	0x43f
 2620 03ca 6B000000 		.4byte	0x6b
 2621 03ce E0020000 		.4byte	.LLST16
 2622 03d2 0E       		.uleb128 0xe
 2623 03d3 43010000 		.4byte	.LASF32
 2624 03d7 01       		.byte	0x1
 2625 03d8 4004     		.2byte	0x440
 2626 03da 6B000000 		.4byte	0x6b
 2627 03de 1A030000 		.4byte	.LLST17
 2628 03e2 0E       		.uleb128 0xe
 2629 03e3 B2010000 		.4byte	.LASF38
 2630 03e7 01       		.byte	0x1
 2631 03e8 4204     		.2byte	0x442
 2632 03ea 83000000 		.4byte	0x83
 2633 03ee 69030000 		.4byte	.LLST18
 2634 03f2 0E       		.uleb128 0xe
 2635 03f3 E9030000 		.4byte	.LASF39
 2636 03f7 01       		.byte	0x1
 2637 03f8 4304     		.2byte	0x443
 2638 03fa 83000000 		.4byte	0x83
 2639 03fe 88030000 		.4byte	.LLST19
 2640 0402 0F       		.uleb128 0xf
 2641 0403 3C000000 		.4byte	.LVL56
 2642 0407 C10F0000 		.4byte	0xfc1
 2643 040b 0F       		.uleb128 0xf
 2644 040c 5A000000 		.4byte	.LVL63
 2645 0410 CC0F0000 		.4byte	0xfcc
 2646 0414 00       		.byte	0
ARM GAS  C:\Users\Ray\AppData\Local\Temp\ccn7U9Aq.s 			page 89


 2647 0415 0D       		.uleb128 0xd
 2648 0416 F5010000 		.4byte	.LASF40
 2649 041a 01       		.byte	0x1
 2650 041b 6603     		.2byte	0x366
 2651 041d 00000000 		.4byte	.LFB46
 2652 0421 14000000 		.4byte	.LFE46-.LFB46
 2653 0425 01       		.uleb128 0x1
 2654 0426 9C       		.byte	0x9c
 2655 0427 4C040000 		.4byte	0x44c
 2656 042b 0E       		.uleb128 0xe
 2657 042c 8C060000 		.4byte	.LASF41
 2658 0430 01       		.byte	0x1
 2659 0431 6803     		.2byte	0x368
 2660 0433 83000000 		.4byte	0x83
 2661 0437 9B030000 		.4byte	.LLST20
 2662 043b 0C       		.uleb128 0xc
 2663 043c 0C000000 		.4byte	.LVL69
 2664 0440 6C030000 		.4byte	0x36c
 2665 0444 0B       		.uleb128 0xb
 2666 0445 01       		.uleb128 0x1
 2667 0446 50       		.byte	0x50
 2668 0447 02       		.uleb128 0x2
 2669 0448 74       		.byte	0x74
 2670 0449 00       		.sleb128 0
 2671 044a 00       		.byte	0
 2672 044b 00       		.byte	0
 2673 044c 0D       		.uleb128 0xd
 2674 044d 38070000 		.4byte	.LASF42
 2675 0451 01       		.byte	0x1
 2676 0452 0305     		.2byte	0x503
 2677 0454 00000000 		.4byte	.LFB51
 2678 0458 24000000 		.4byte	.LFE51-.LFB51
 2679 045c 01       		.uleb128 0x1
 2680 045d 9C       		.byte	0x9c
 2681 045e B1040000 		.4byte	0x4b1
 2682 0462 12       		.uleb128 0x12
 2683 0463 6E0A0000 		.4byte	.LASF43
 2684 0467 01       		.byte	0x1
 2685 0468 0305     		.2byte	0x503
 2686 046a 83000000 		.4byte	0x83
 2687 046e BA030000 		.4byte	.LLST21
 2688 0472 12       		.uleb128 0x12
 2689 0473 82060000 		.4byte	.LASF44
 2690 0477 01       		.byte	0x1
 2691 0478 0305     		.2byte	0x503
 2692 047a 83000000 		.4byte	0x83
 2693 047e DB030000 		.4byte	.LLST22
 2694 0482 12       		.uleb128 0x12
 2695 0483 00070000 		.4byte	.LASF45
 2696 0487 01       		.byte	0x1
 2697 0488 0305     		.2byte	0x503
 2698 048a 83000000 		.4byte	0x83
 2699 048e FC030000 		.4byte	.LLST23
 2700 0492 14       		.uleb128 0x14
 2701 0493 43010000 		.4byte	.LASF32
 2702 0497 01       		.byte	0x1
 2703 0498 0505     		.2byte	0x505
ARM GAS  C:\Users\Ray\AppData\Local\Temp\ccn7U9Aq.s 			page 90


 2704 049a 83000000 		.4byte	0x83
 2705 049e 01       		.uleb128 0x1
 2706 049f 51       		.byte	0x51
 2707 04a0 0E       		.uleb128 0xe
 2708 04a1 94030000 		.4byte	.LASF35
 2709 04a5 01       		.byte	0x1
 2710 04a6 0605     		.2byte	0x506
 2711 04a8 83000000 		.4byte	0x83
 2712 04ac 1D040000 		.4byte	.LLST24
 2713 04b0 00       		.byte	0
 2714 04b1 0D       		.uleb128 0xd
 2715 04b2 8D070000 		.4byte	.LASF46
 2716 04b6 01       		.byte	0x1
 2717 04b7 8604     		.2byte	0x486
 2718 04b9 00000000 		.4byte	.LFB49
 2719 04bd 30000000 		.4byte	.LFE49-.LFB49
 2720 04c1 01       		.uleb128 0x1
 2721 04c2 9C       		.byte	0x9c
 2722 04c3 58050000 		.4byte	0x558
 2723 04c7 12       		.uleb128 0x12
 2724 04c8 6E0A0000 		.4byte	.LASF43
 2725 04cc 01       		.byte	0x1
 2726 04cd 8604     		.2byte	0x486
 2727 04cf 83000000 		.4byte	0x83
 2728 04d3 3B040000 		.4byte	.LLST25
 2729 04d7 0E       		.uleb128 0xe
 2730 04d8 510A0000 		.4byte	.LASF47
 2731 04dc 01       		.byte	0x1
 2732 04dd 8804     		.2byte	0x488
 2733 04df 6B000000 		.4byte	0x6b
 2734 04e3 67040000 		.4byte	.LLST26
 2735 04e7 0E       		.uleb128 0xe
 2736 04e8 86040000 		.4byte	.LASF48
 2737 04ec 01       		.byte	0x1
 2738 04ed 8D04     		.2byte	0x48d
 2739 04ef 83000000 		.4byte	0x83
 2740 04f3 91040000 		.4byte	.LLST27
 2741 04f7 0E       		.uleb128 0xe
 2742 04f8 85050000 		.4byte	.LASF49
 2743 04fc 01       		.byte	0x1
 2744 04fd 8E04     		.2byte	0x48e
 2745 04ff 83000000 		.4byte	0x83
 2746 0503 D4040000 		.4byte	.LLST28
 2747 0507 0A       		.uleb128 0xa
 2748 0508 16000000 		.4byte	.LVL84
 2749 050c 4C040000 		.4byte	0x44c
 2750 0510 3D050000 		.4byte	0x53d
 2751 0514 0B       		.uleb128 0xb
 2752 0515 01       		.uleb128 0x1
 2753 0516 50       		.byte	0x50
 2754 0517 02       		.uleb128 0x2
 2755 0518 75       		.byte	0x75
 2756 0519 00       		.sleb128 0
 2757 051a 0B       		.uleb128 0xb
 2758 051b 01       		.uleb128 0x1
 2759 051c 51       		.byte	0x51
 2760 051d 0D       		.uleb128 0xd
ARM GAS  C:\Users\Ray\AppData\Local\Temp\ccn7U9Aq.s 			page 91


 2761 051e 74       		.byte	0x74
 2762 051f 00       		.sleb128 0
 2763 0520 03       		.byte	0x3
 2764 0521 04000000 		.4byte	.LANCHOR2+4
 2765 0525 22       		.byte	0x22
 2766 0526 94       		.byte	0x94
 2767 0527 01       		.byte	0x1
 2768 0528 08       		.byte	0x8
 2769 0529 FF       		.byte	0xff
 2770 052a 1A       		.byte	0x1a
 2771 052b 0B       		.uleb128 0xb
 2772 052c 01       		.uleb128 0x1
 2773 052d 52       		.byte	0x52
 2774 052e 0D       		.uleb128 0xd
 2775 052f 74       		.byte	0x74
 2776 0530 00       		.sleb128 0
 2777 0531 03       		.byte	0x3
 2778 0532 00000000 		.4byte	.LANCHOR2
 2779 0536 22       		.byte	0x22
 2780 0537 94       		.byte	0x94
 2781 0538 01       		.byte	0x1
 2782 0539 08       		.byte	0x8
 2783 053a FF       		.byte	0xff
 2784 053b 1A       		.byte	0x1a
 2785 053c 00       		.byte	0
 2786 053d 0C       		.uleb128 0xc
 2787 053e 28000000 		.4byte	.LVL87
 2788 0542 4C040000 		.4byte	0x44c
 2789 0546 0B       		.uleb128 0xb
 2790 0547 01       		.uleb128 0x1
 2791 0548 50       		.byte	0x50
 2792 0549 02       		.uleb128 0x2
 2793 054a 75       		.byte	0x75
 2794 054b 00       		.sleb128 0
 2795 054c 0B       		.uleb128 0xb
 2796 054d 01       		.uleb128 0x1
 2797 054e 51       		.byte	0x51
 2798 054f 01       		.uleb128 0x1
 2799 0550 32       		.byte	0x32
 2800 0551 0B       		.uleb128 0xb
 2801 0552 01       		.uleb128 0x1
 2802 0553 52       		.byte	0x52
 2803 0554 01       		.uleb128 0x1
 2804 0555 34       		.byte	0x34
 2805 0556 00       		.byte	0
 2806 0557 00       		.byte	0
 2807 0558 0D       		.uleb128 0xd
 2808 0559 B2060000 		.4byte	.LASF50
 2809 055d 01       		.byte	0x1
 2810 055e CF04     		.2byte	0x4cf
 2811 0560 00000000 		.4byte	.LFB50
 2812 0564 24000000 		.4byte	.LFE50-.LFB50
 2813 0568 01       		.uleb128 0x1
 2814 0569 9C       		.byte	0x9c
 2815 056a 8E050000 		.4byte	0x58e
 2816 056e 0E       		.uleb128 0xe
 2817 056f 94030000 		.4byte	.LASF35
ARM GAS  C:\Users\Ray\AppData\Local\Temp\ccn7U9Aq.s 			page 92


 2818 0573 01       		.byte	0x1
 2819 0574 D104     		.2byte	0x4d1
 2820 0576 83000000 		.4byte	0x83
 2821 057a 17050000 		.4byte	.LLST29
 2822 057e 0C       		.uleb128 0xc
 2823 057f 08000000 		.4byte	.LVL90
 2824 0583 B1040000 		.4byte	0x4b1
 2825 0587 0B       		.uleb128 0xb
 2826 0588 01       		.uleb128 0x1
 2827 0589 50       		.byte	0x50
 2828 058a 01       		.uleb128 0x1
 2829 058b 30       		.byte	0x30
 2830 058c 00       		.byte	0
 2831 058d 00       		.byte	0
 2832 058e 0D       		.uleb128 0xd
 2833 058f 1D020000 		.4byte	.LASF51
 2834 0593 01       		.byte	0x1
 2835 0594 4906     		.2byte	0x649
 2836 0596 00000000 		.4byte	.LFB54
 2837 059a 34000000 		.4byte	.LFE54-.LFB54
 2838 059e 01       		.uleb128 0x1
 2839 059f 9C       		.byte	0x9c
 2840 05a0 D5050000 		.4byte	0x5d5
 2841 05a4 12       		.uleb128 0x12
 2842 05a5 82060000 		.4byte	.LASF44
 2843 05a9 01       		.byte	0x1
 2844 05aa 4906     		.2byte	0x649
 2845 05ac 83000000 		.4byte	0x83
 2846 05b0 35050000 		.4byte	.LLST30
 2847 05b4 12       		.uleb128 0x12
 2848 05b5 00070000 		.4byte	.LASF45
 2849 05b9 01       		.byte	0x1
 2850 05ba 4906     		.2byte	0x649
 2851 05bc 83000000 		.4byte	0x83
 2852 05c0 56050000 		.4byte	.LLST31
 2853 05c4 0E       		.uleb128 0xe
 2854 05c5 380A0000 		.4byte	.LASF21
 2855 05c9 01       		.byte	0x1
 2856 05ca 4B06     		.2byte	0x64b
 2857 05cc 83000000 		.4byte	0x83
 2858 05d0 77050000 		.4byte	.LLST32
 2859 05d4 00       		.byte	0
 2860 05d5 0D       		.uleb128 0xd
 2861 05d6 75020000 		.4byte	.LASF52
 2862 05da 01       		.byte	0x1
 2863 05db 6C06     		.2byte	0x66c
 2864 05dd 00000000 		.4byte	.LFB55
 2865 05e1 18000000 		.4byte	.LFE55-.LFB55
 2866 05e5 01       		.uleb128 0x1
 2867 05e6 9C       		.byte	0x9c
 2868 05e7 0C060000 		.4byte	0x60c
 2869 05eb 12       		.uleb128 0x12
 2870 05ec 64070000 		.4byte	.LASF53
 2871 05f0 01       		.byte	0x1
 2872 05f1 6C06     		.2byte	0x66c
 2873 05f3 83000000 		.4byte	0x83
 2874 05f7 A0050000 		.4byte	.LLST33
ARM GAS  C:\Users\Ray\AppData\Local\Temp\ccn7U9Aq.s 			page 93


 2875 05fb 0E       		.uleb128 0xe
 2876 05fc 380A0000 		.4byte	.LASF21
 2877 0600 01       		.byte	0x1
 2878 0601 6E06     		.2byte	0x66e
 2879 0603 83000000 		.4byte	0x83
 2880 0607 D2050000 		.4byte	.LLST34
 2881 060b 00       		.byte	0
 2882 060c 10       		.uleb128 0x10
 2883 060d 6A070000 		.4byte	.LASF55
 2884 0611 01       		.byte	0x1
 2885 0612 9006     		.2byte	0x690
 2886 0614 83000000 		.4byte	0x83
 2887 0618 00000000 		.4byte	.LFB56
 2888 061c 1C000000 		.4byte	.LFE56-.LFB56
 2889 0620 01       		.uleb128 0x1
 2890 0621 9C       		.byte	0x9c
 2891 0622 11       		.uleb128 0x11
 2892 0623 5E090000 		.4byte	.LASF56
 2893 0627 01       		.byte	0x1
 2894 0628 AC06     		.2byte	0x6ac
 2895 062a 83000000 		.4byte	0x83
 2896 062e 00000000 		.4byte	.LFB57
 2897 0632 18000000 		.4byte	.LFE57-.LFB57
 2898 0636 01       		.uleb128 0x1
 2899 0637 9C       		.byte	0x9c
 2900 0638 7B060000 		.4byte	0x67b
 2901 063c 12       		.uleb128 0x12
 2902 063d 1B050000 		.4byte	.LASF57
 2903 0641 01       		.byte	0x1
 2904 0642 AC06     		.2byte	0x6ac
 2905 0644 DA000000 		.4byte	0xda
 2906 0648 F0050000 		.4byte	.LLST35
 2907 064c 12       		.uleb128 0x12
 2908 064d 780A0000 		.4byte	.LASF58
 2909 0651 01       		.byte	0x1
 2910 0652 AC06     		.2byte	0x6ac
 2911 0654 83000000 		.4byte	0x83
 2912 0658 2A060000 		.4byte	.LLST36
 2913 065c 0E       		.uleb128 0xe
 2914 065d 06040000 		.4byte	.LASF59
 2915 0661 01       		.byte	0x1
 2916 0662 AE06     		.2byte	0x6ae
 2917 0664 83000000 		.4byte	0x83
 2918 0668 4B060000 		.4byte	.LLST37
 2919 066c 14       		.uleb128 0x14
 2920 066d DE080000 		.4byte	.LASF60
 2921 0671 01       		.byte	0x1
 2922 0672 AF06     		.2byte	0x6af
 2923 0674 6B000000 		.4byte	0x6b
 2924 0678 01       		.uleb128 0x1
 2925 0679 53       		.byte	0x53
 2926 067a 00       		.byte	0
 2927 067b 11       		.uleb128 0x11
 2928 067c 21050000 		.4byte	.LASF61
 2929 0680 01       		.byte	0x1
 2930 0681 EA01     		.2byte	0x1ea
 2931 0683 6B000000 		.4byte	0x6b
ARM GAS  C:\Users\Ray\AppData\Local\Temp\ccn7U9Aq.s 			page 94


 2932 0687 00000000 		.4byte	.LFB37
 2933 068b 24000000 		.4byte	.LFE37-.LFB37
 2934 068f 01       		.uleb128 0x1
 2935 0690 9C       		.byte	0x9c
 2936 0691 CF060000 		.4byte	0x6cf
 2937 0695 12       		.uleb128 0x12
 2938 0696 8C060000 		.4byte	.LASF41
 2939 069a 01       		.byte	0x1
 2940 069b EA01     		.2byte	0x1ea
 2941 069d 6B000000 		.4byte	0x6b
 2942 06a1 6E060000 		.4byte	.LLST38
 2943 06a5 0E       		.uleb128 0xe
 2944 06a6 EA050000 		.4byte	.LASF62
 2945 06aa 01       		.byte	0x1
 2946 06ab EC01     		.2byte	0x1ec
 2947 06ad 83000000 		.4byte	0x83
 2948 06b1 A2060000 		.4byte	.LLST39
 2949 06b5 0C       		.uleb128 0xc
 2950 06b6 16000000 		.4byte	.LVL117
 2951 06ba 22060000 		.4byte	0x622
 2952 06be 0B       		.uleb128 0xb
 2953 06bf 01       		.uleb128 0x1
 2954 06c0 50       		.byte	0x50
 2955 06c1 05       		.uleb128 0x5
 2956 06c2 03       		.byte	0x3
 2957 06c3 08000000 		.4byte	.LANCHOR1+8
 2958 06c7 0B       		.uleb128 0xb
 2959 06c8 01       		.uleb128 0x1
 2960 06c9 51       		.byte	0x51
 2961 06ca 02       		.uleb128 0x2
 2962 06cb 74       		.byte	0x74
 2963 06cc 00       		.sleb128 0
 2964 06cd 00       		.byte	0
 2965 06ce 00       		.byte	0
 2966 06cf 0D       		.uleb128 0xd
 2967 06d0 F5030000 		.4byte	.LASF63
 2968 06d4 01       		.byte	0x1
 2969 06d5 2705     		.2byte	0x527
 2970 06d7 00000000 		.4byte	.LFB52
 2971 06db CC000000 		.4byte	.LFE52-.LFB52
 2972 06df 01       		.uleb128 0x1
 2973 06e0 9C       		.byte	0x9c
 2974 06e1 EF070000 		.4byte	0x7ef
 2975 06e5 12       		.uleb128 0x12
 2976 06e6 D8040000 		.4byte	.LASF24
 2977 06ea 01       		.byte	0x1
 2978 06eb 2705     		.2byte	0x527
 2979 06ed 83000000 		.4byte	0x83
 2980 06f1 B5060000 		.4byte	.LLST40
 2981 06f5 0E       		.uleb128 0xe
 2982 06f6 6E020000 		.4byte	.LASF27
 2983 06fa 01       		.byte	0x1
 2984 06fb 2905     		.2byte	0x529
 2985 06fd 6B000000 		.4byte	0x6b
 2986 0701 EC060000 		.4byte	.LLST41
 2987 0705 0E       		.uleb128 0xe
 2988 0706 BE000000 		.4byte	.LASF34
ARM GAS  C:\Users\Ray\AppData\Local\Temp\ccn7U9Aq.s 			page 95


 2989 070a 01       		.byte	0x1
 2990 070b 2A05     		.2byte	0x52a
 2991 070d 6B000000 		.4byte	0x6b
 2992 0711 5D070000 		.4byte	.LLST42
 2993 0715 0E       		.uleb128 0xe
 2994 0716 380A0000 		.4byte	.LASF21
 2995 071a 01       		.byte	0x1
 2996 071b 2B05     		.2byte	0x52b
 2997 071d 83000000 		.4byte	0x83
 2998 0721 70070000 		.4byte	.LLST43
 2999 0725 0E       		.uleb128 0xe
 3000 0726 05090000 		.4byte	.LASF64
 3001 072a 01       		.byte	0x1
 3002 072b 2C05     		.2byte	0x52c
 3003 072d 83000000 		.4byte	0x83
 3004 0731 99070000 		.4byte	.LLST44
 3005 0735 0E       		.uleb128 0xe
 3006 0736 5B0A0000 		.4byte	.LASF65
 3007 073a 01       		.byte	0x1
 3008 073b 3505     		.2byte	0x535
 3009 073d 83000000 		.4byte	0x83
 3010 0741 AC070000 		.4byte	.LLST45
 3011 0745 0A       		.uleb128 0xa
 3012 0746 1A000000 		.4byte	.LVL126
 3013 074a 22060000 		.4byte	0x622
 3014 074e 62070000 		.4byte	0x762
 3015 0752 0B       		.uleb128 0xb
 3016 0753 01       		.uleb128 0x1
 3017 0754 50       		.byte	0x50
 3018 0755 05       		.uleb128 0x5
 3019 0756 03       		.byte	0x3
 3020 0757 00000000 		.4byte	CapSense_scanSpeedTbl
 3021 075b 0B       		.uleb128 0xb
 3022 075c 01       		.uleb128 0x1
 3023 075d 51       		.byte	0x51
 3024 075e 02       		.uleb128 0x2
 3025 075f 74       		.byte	0x74
 3026 0760 00       		.sleb128 0
 3027 0761 00       		.byte	0
 3028 0762 0A       		.uleb128 0xa
 3029 0763 36000000 		.4byte	.LVL130
 3030 0767 8A0F0000 		.4byte	0xf8a
 3031 076b 75070000 		.4byte	0x775
 3032 076f 0B       		.uleb128 0xb
 3033 0770 01       		.uleb128 0x1
 3034 0771 51       		.byte	0x51
 3035 0772 01       		.uleb128 0x1
 3036 0773 30       		.byte	0x30
 3037 0774 00       		.byte	0
 3038 0775 0A       		.uleb128 0xa
 3039 0776 44000000 		.4byte	.LVL131
 3040 077a 950F0000 		.4byte	0xf95
 3041 077e 88070000 		.4byte	0x788
 3042 0782 0B       		.uleb128 0xb
 3043 0783 01       		.uleb128 0x1
 3044 0784 51       		.byte	0x51
 3045 0785 01       		.uleb128 0x1
ARM GAS  C:\Users\Ray\AppData\Local\Temp\ccn7U9Aq.s 			page 96


 3046 0786 30       		.byte	0x30
 3047 0787 00       		.byte	0
 3048 0788 0A       		.uleb128 0xa
 3049 0789 4A000000 		.4byte	.LVL132
 3050 078d 530F0000 		.4byte	0xf53
 3051 0791 9B070000 		.4byte	0x79b
 3052 0795 0B       		.uleb128 0xb
 3053 0796 01       		.uleb128 0x1
 3054 0797 50       		.byte	0x50
 3055 0798 01       		.uleb128 0x1
 3056 0799 3F       		.byte	0x3f
 3057 079a 00       		.byte	0
 3058 079b 0A       		.uleb128 0xa
 3059 079c 74000000 		.4byte	.LVL139
 3060 07a0 B60F0000 		.4byte	0xfb6
 3061 07a4 AE070000 		.4byte	0x7ae
 3062 07a8 0B       		.uleb128 0xb
 3063 07a9 01       		.uleb128 0x1
 3064 07aa 50       		.byte	0x50
 3065 07ab 01       		.uleb128 0x1
 3066 07ac 3F       		.byte	0x3f
 3067 07ad 00       		.byte	0
 3068 07ae 0A       		.uleb128 0xa
 3069 07af 7A000000 		.4byte	.LVL140
 3070 07b3 E3020000 		.4byte	0x2e3
 3071 07b7 C2070000 		.4byte	0x7c2
 3072 07bb 0B       		.uleb128 0xb
 3073 07bc 01       		.uleb128 0x1
 3074 07bd 50       		.byte	0x50
 3075 07be 02       		.uleb128 0x2
 3076 07bf 74       		.byte	0x74
 3077 07c0 00       		.sleb128 0
 3078 07c1 00       		.byte	0
 3079 07c2 0F       		.uleb128 0xf
 3080 07c3 7E000000 		.4byte	.LVL141
 3081 07c7 C10F0000 		.4byte	0xfc1
 3082 07cb 0A       		.uleb128 0xa
 3083 07cc 88000000 		.4byte	.LVL143
 3084 07d0 D70F0000 		.4byte	0xfd7
 3085 07d4 DE070000 		.4byte	0x7de
 3086 07d8 0B       		.uleb128 0xb
 3087 07d9 01       		.uleb128 0x1
 3088 07da 50       		.byte	0x50
 3089 07db 01       		.uleb128 0x1
 3090 07dc 30       		.byte	0x30
 3091 07dd 00       		.byte	0
 3092 07de 0C       		.uleb128 0xc
 3093 07df 92000000 		.4byte	.LVL144
 3094 07e3 CC0F0000 		.4byte	0xfcc
 3095 07e7 0B       		.uleb128 0xb
 3096 07e8 01       		.uleb128 0x1
 3097 07e9 50       		.byte	0x50
 3098 07ea 02       		.uleb128 0x2
 3099 07eb 74       		.byte	0x74
 3100 07ec 00       		.sleb128 0
 3101 07ed 00       		.byte	0
 3102 07ee 00       		.byte	0
ARM GAS  C:\Users\Ray\AppData\Local\Temp\ccn7U9Aq.s 			page 97


 3103 07ef 0D       		.uleb128 0xd
 3104 07f0 72040000 		.4byte	.LASF66
 3105 07f4 01       		.byte	0x1
 3106 07f5 1A02     		.2byte	0x21a
 3107 07f7 00000000 		.4byte	.LFB38
 3108 07fb 1C000000 		.4byte	.LFE38-.LFB38
 3109 07ff 01       		.uleb128 0x1
 3110 0800 9C       		.byte	0x9c
 3111 0801 27080000 		.4byte	0x827
 3112 0805 12       		.uleb128 0x12
 3113 0806 D8040000 		.4byte	.LASF24
 3114 080a 01       		.byte	0x1
 3115 080b 1A02     		.2byte	0x21a
 3116 080d 83000000 		.4byte	0x83
 3117 0811 BF070000 		.4byte	.LLST46
 3118 0815 0C       		.uleb128 0xc
 3119 0816 14000000 		.4byte	.LVL149
 3120 081a CF060000 		.4byte	0x6cf
 3121 081e 0B       		.uleb128 0xb
 3122 081f 01       		.uleb128 0x1
 3123 0820 50       		.byte	0x50
 3124 0821 03       		.uleb128 0x3
 3125 0822 F3       		.byte	0xf3
 3126 0823 01       		.uleb128 0x1
 3127 0824 50       		.byte	0x50
 3128 0825 00       		.byte	0
 3129 0826 00       		.byte	0
 3130 0827 0D       		.uleb128 0xd
 3131 0828 A8050000 		.4byte	.LASF67
 3132 082c 01       		.byte	0x1
 3133 082d 9602     		.2byte	0x296
 3134 082f 00000000 		.4byte	.LFB40
 3135 0833 38000000 		.4byte	.LFE40-.LFB40
 3136 0837 01       		.uleb128 0x1
 3137 0838 9C       		.byte	0x9c
 3138 0839 50080000 		.4byte	0x850
 3139 083d 0F       		.uleb128 0xf
 3140 083e 14000000 		.4byte	.LVL150
 3141 0842 7B060000 		.4byte	0x67b
 3142 0846 0F       		.uleb128 0xf
 3143 0847 30000000 		.4byte	.LVL151
 3144 084b CF060000 		.4byte	0x6cf
 3145 084f 00       		.byte	0
 3146 0850 0D       		.uleb128 0xd
 3147 0851 27000000 		.4byte	.LASF68
 3148 0855 01       		.byte	0x1
 3149 0856 EC05     		.2byte	0x5ec
 3150 0858 00000000 		.4byte	.LFB53
 3151 085c 90000000 		.4byte	.LFE53-.LFB53
 3152 0860 01       		.uleb128 0x1
 3153 0861 9C       		.byte	0x9c
 3154 0862 FA080000 		.4byte	0x8fa
 3155 0866 12       		.uleb128 0x12
 3156 0867 D8040000 		.4byte	.LASF24
 3157 086b 01       		.byte	0x1
 3158 086c EC05     		.2byte	0x5ec
 3159 086e 83000000 		.4byte	0x83
ARM GAS  C:\Users\Ray\AppData\Local\Temp\ccn7U9Aq.s 			page 98


 3160 0872 E0070000 		.4byte	.LLST47
 3161 0876 0E       		.uleb128 0xe
 3162 0877 380A0000 		.4byte	.LASF21
 3163 087b 01       		.byte	0x1
 3164 087c EE05     		.2byte	0x5ee
 3165 087e 83000000 		.4byte	0x83
 3166 0882 17080000 		.4byte	.LLST48
 3167 0886 0E       		.uleb128 0xe
 3168 0887 5B0A0000 		.4byte	.LASF65
 3169 088b 01       		.byte	0x1
 3170 088c F105     		.2byte	0x5f1
 3171 088e 83000000 		.4byte	0x83
 3172 0892 44080000 		.4byte	.LLST49
 3173 0896 0E       		.uleb128 0xe
 3174 0897 6E020000 		.4byte	.LASF27
 3175 089b 01       		.byte	0x1
 3176 089c F205     		.2byte	0x5f2
 3177 089e 83000000 		.4byte	0x83
 3178 08a2 57080000 		.4byte	.LLST50
 3179 08a6 0A       		.uleb128 0xa
 3180 08a7 2E000000 		.4byte	.LVL157
 3181 08ab 22060000 		.4byte	0x622
 3182 08af C3080000 		.4byte	0x8c3
 3183 08b3 0B       		.uleb128 0xb
 3184 08b4 01       		.uleb128 0x1
 3185 08b5 50       		.byte	0x50
 3186 08b6 05       		.uleb128 0x5
 3187 08b7 03       		.byte	0x3
 3188 08b8 00000000 		.4byte	CapSense_scanSpeedTbl
 3189 08bc 0B       		.uleb128 0xb
 3190 08bd 01       		.uleb128 0x1
 3191 08be 51       		.byte	0x51
 3192 08bf 02       		.uleb128 0x2
 3193 08c0 75       		.byte	0x75
 3194 08c1 00       		.sleb128 0
 3195 08c2 00       		.byte	0
 3196 08c3 0A       		.uleb128 0xa
 3197 08c4 3E000000 		.4byte	.LVL159
 3198 08c8 6C030000 		.4byte	0x36c
 3199 08cc D7080000 		.4byte	0x8d7
 3200 08d0 0B       		.uleb128 0xb
 3201 08d1 01       		.uleb128 0x1
 3202 08d2 50       		.byte	0x50
 3203 08d3 02       		.uleb128 0x2
 3204 08d4 75       		.byte	0x75
 3205 08d5 00       		.sleb128 0
 3206 08d6 00       		.byte	0
 3207 08d7 0A       		.uleb128 0xa
 3208 08d8 44000000 		.4byte	.LVL160
 3209 08dc 530F0000 		.4byte	0xf53
 3210 08e0 EA080000 		.4byte	0x8ea
 3211 08e4 0B       		.uleb128 0xb
 3212 08e5 01       		.uleb128 0x1
 3213 08e6 50       		.byte	0x50
 3214 08e7 01       		.uleb128 0x1
 3215 08e8 3F       		.byte	0x3f
 3216 08e9 00       		.byte	0
ARM GAS  C:\Users\Ray\AppData\Local\Temp\ccn7U9Aq.s 			page 99


 3217 08ea 0C       		.uleb128 0xc
 3218 08eb 64000000 		.4byte	.LVL166
 3219 08ef B60F0000 		.4byte	0xfb6
 3220 08f3 0B       		.uleb128 0xb
 3221 08f4 01       		.uleb128 0x1
 3222 08f5 50       		.byte	0x50
 3223 08f6 01       		.uleb128 0x1
 3224 08f7 3F       		.byte	0x3f
 3225 08f8 00       		.byte	0
 3226 08f9 00       		.byte	0
 3227 08fa 0D       		.uleb128 0xd
 3228 08fb 49090000 		.4byte	.LASF69
 3229 08ff 01       		.byte	0x1
 3230 0900 D706     		.2byte	0x6d7
 3231 0902 00000000 		.4byte	.LFB58
 3232 0906 26000000 		.4byte	.LFE58-.LFB58
 3233 090a 01       		.uleb128 0x1
 3234 090b 9C       		.byte	0x9c
 3235 090c 5F090000 		.4byte	0x95f
 3236 0910 13       		.uleb128 0x13
 3237 0911 1B050000 		.4byte	.LASF57
 3238 0915 01       		.byte	0x1
 3239 0916 D706     		.2byte	0x6d7
 3240 0918 D4000000 		.4byte	0xd4
 3241 091c 01       		.uleb128 0x1
 3242 091d 50       		.byte	0x50
 3243 091e 12       		.uleb128 0x12
 3244 091f 780A0000 		.4byte	.LASF58
 3245 0923 01       		.byte	0x1
 3246 0924 D706     		.2byte	0x6d7
 3247 0926 83000000 		.4byte	0x83
 3248 092a E6080000 		.4byte	.LLST51
 3249 092e 12       		.uleb128 0x12
 3250 092f 00030000 		.4byte	.LASF25
 3251 0933 01       		.byte	0x1
 3252 0934 D706     		.2byte	0x6d7
 3253 0936 83000000 		.4byte	0x83
 3254 093a 07090000 		.4byte	.LLST52
 3255 093e 0E       		.uleb128 0xe
 3256 093f 06040000 		.4byte	.LASF59
 3257 0943 01       		.byte	0x1
 3258 0944 D906     		.2byte	0x6d9
 3259 0946 83000000 		.4byte	0x83
 3260 094a 41090000 		.4byte	.LLST53
 3261 094e 0E       		.uleb128 0xe
 3262 094f DE080000 		.4byte	.LASF60
 3263 0953 01       		.byte	0x1
 3264 0954 DA06     		.2byte	0x6da
 3265 0956 6B000000 		.4byte	0x6b
 3266 095a 7F090000 		.4byte	.LLST54
 3267 095e 00       		.byte	0
 3268 095f 0D       		.uleb128 0xd
 3269 0960 E1000000 		.4byte	.LASF70
 3270 0964 01       		.byte	0x1
 3271 0965 4102     		.2byte	0x241
 3272 0967 00000000 		.4byte	.LFB39
 3273 096b 8C000000 		.4byte	.LFE39-.LFB39
ARM GAS  C:\Users\Ray\AppData\Local\Temp\ccn7U9Aq.s 			page 100


 3274 096f 01       		.uleb128 0x1
 3275 0970 9C       		.byte	0x9c
 3276 0971 030A0000 		.4byte	0xa03
 3277 0975 12       		.uleb128 0x12
 3278 0976 6E020000 		.4byte	.LASF27
 3279 097a 01       		.byte	0x1
 3280 097b 4102     		.2byte	0x241
 3281 097d 83000000 		.4byte	0x83
 3282 0981 BB090000 		.4byte	.LLST55
 3283 0985 0E       		.uleb128 0xe
 3284 0986 93040000 		.4byte	.LASF71
 3285 098a 01       		.byte	0x1
 3286 098b 4302     		.2byte	0x243
 3287 098d 83000000 		.4byte	0x83
 3288 0991 DC090000 		.4byte	.LLST56
 3289 0995 0E       		.uleb128 0xe
 3290 0996 A1060000 		.4byte	.LASF72
 3291 099a 01       		.byte	0x1
 3292 099b 4402     		.2byte	0x244
 3293 099d 83000000 		.4byte	0x83
 3294 09a1 EF090000 		.4byte	.LLST57
 3295 09a5 0E       		.uleb128 0xe
 3296 09a6 8C060000 		.4byte	.LASF41
 3297 09aa 01       		.byte	0x1
 3298 09ab 4502     		.2byte	0x245
 3299 09ad 83000000 		.4byte	0x83
 3300 09b1 020A0000 		.4byte	.LLST58
 3301 09b5 0A       		.uleb128 0xa
 3302 09b6 4A000000 		.4byte	.LVL187
 3303 09ba FA080000 		.4byte	0x8fa
 3304 09be D7090000 		.4byte	0x9d7
 3305 09c2 0B       		.uleb128 0xb
 3306 09c3 01       		.uleb128 0x1
 3307 09c4 50       		.byte	0x50
 3308 09c5 05       		.uleb128 0x5
 3309 09c6 03       		.byte	0x3
 3310 09c7 08000000 		.4byte	.LANCHOR1+8
 3311 09cb 0B       		.uleb128 0xb
 3312 09cc 01       		.uleb128 0x1
 3313 09cd 51       		.byte	0x51
 3314 09ce 02       		.uleb128 0x2
 3315 09cf 74       		.byte	0x74
 3316 09d0 00       		.sleb128 0
 3317 09d1 0B       		.uleb128 0xb
 3318 09d2 01       		.uleb128 0x1
 3319 09d3 52       		.byte	0x52
 3320 09d4 01       		.uleb128 0x1
 3321 09d5 31       		.byte	0x31
 3322 09d6 00       		.byte	0
 3323 09d7 0A       		.uleb128 0xa
 3324 09d8 58000000 		.4byte	.LVL188
 3325 09dc FA080000 		.4byte	0x8fa
 3326 09e0 F9090000 		.4byte	0x9f9
 3327 09e4 0B       		.uleb128 0xb
 3328 09e5 01       		.uleb128 0x1
 3329 09e6 50       		.byte	0x50
 3330 09e7 05       		.uleb128 0x5
ARM GAS  C:\Users\Ray\AppData\Local\Temp\ccn7U9Aq.s 			page 101


 3331 09e8 03       		.byte	0x3
 3332 09e9 08000000 		.4byte	.LANCHOR1+8
 3333 09ed 0B       		.uleb128 0xb
 3334 09ee 01       		.uleb128 0x1
 3335 09ef 51       		.byte	0x51
 3336 09f0 02       		.uleb128 0x2
 3337 09f1 74       		.byte	0x74
 3338 09f2 00       		.sleb128 0
 3339 09f3 0B       		.uleb128 0xb
 3340 09f4 01       		.uleb128 0x1
 3341 09f5 52       		.byte	0x52
 3342 09f6 01       		.uleb128 0x1
 3343 09f7 30       		.byte	0x30
 3344 09f8 00       		.byte	0
 3345 09f9 0F       		.uleb128 0xf
 3346 09fa 76000000 		.4byte	.LVL190
 3347 09fe CF060000 		.4byte	0x6cf
 3348 0a02 00       		.byte	0
 3349 0a03 11       		.uleb128 0x11
 3350 0a04 5F060000 		.4byte	.LASF73
 3351 0a08 01       		.byte	0x1
 3352 0a09 0907     		.2byte	0x709
 3353 0a0b 83000000 		.4byte	0x83
 3354 0a0f 00000000 		.4byte	.LFB59
 3355 0a13 0C000000 		.4byte	.LFE59-.LFB59
 3356 0a17 01       		.uleb128 0x1
 3357 0a18 9C       		.byte	0x9c
 3358 0a19 2E0A0000 		.4byte	0xa2e
 3359 0a1d 12       		.uleb128 0x12
 3360 0a1e D8040000 		.4byte	.LASF24
 3361 0a22 01       		.byte	0x1
 3362 0a23 0907     		.2byte	0x709
 3363 0a25 83000000 		.4byte	0x83
 3364 0a29 2C0A0000 		.4byte	.LLST59
 3365 0a2d 00       		.byte	0
 3366 0a2e 0D       		.uleb128 0xd
 3367 0a2f 03010000 		.4byte	.LASF74
 3368 0a33 01       		.byte	0x1
 3369 0a34 2807     		.2byte	0x728
 3370 0a36 00000000 		.4byte	.LFB60
 3371 0a3a 0C000000 		.4byte	.LFE60-.LFB60
 3372 0a3e 01       		.uleb128 0x1
 3373 0a3f 9C       		.byte	0x9c
 3374 0a40 610A0000 		.4byte	0xa61
 3375 0a44 13       		.uleb128 0x13
 3376 0a45 D8040000 		.4byte	.LASF24
 3377 0a49 01       		.byte	0x1
 3378 0a4a 2807     		.2byte	0x728
 3379 0a4c 83000000 		.4byte	0x83
 3380 0a50 01       		.uleb128 0x1
 3381 0a51 50       		.byte	0x50
 3382 0a52 13       		.uleb128 0x13
 3383 0a53 2F070000 		.4byte	.LASF75
 3384 0a57 01       		.byte	0x1
 3385 0a58 2807     		.2byte	0x728
 3386 0a5a 83000000 		.4byte	0x83
 3387 0a5e 01       		.uleb128 0x1
ARM GAS  C:\Users\Ray\AppData\Local\Temp\ccn7U9Aq.s 			page 102


 3388 0a5f 51       		.byte	0x51
 3389 0a60 00       		.byte	0
 3390 0a61 11       		.uleb128 0x11
 3391 0a62 1B080000 		.4byte	.LASF76
 3392 0a66 01       		.byte	0x1
 3393 0a67 4807     		.2byte	0x748
 3394 0a69 83000000 		.4byte	0x83
 3395 0a6d 00000000 		.4byte	.LFB61
 3396 0a71 0C000000 		.4byte	.LFE61-.LFB61
 3397 0a75 01       		.uleb128 0x1
 3398 0a76 9C       		.byte	0x9c
 3399 0a77 8C0A0000 		.4byte	0xa8c
 3400 0a7b 12       		.uleb128 0x12
 3401 0a7c D8040000 		.4byte	.LASF24
 3402 0a80 01       		.byte	0x1
 3403 0a81 4807     		.2byte	0x748
 3404 0a83 83000000 		.4byte	0x83
 3405 0a87 4D0A0000 		.4byte	.LLST60
 3406 0a8b 00       		.byte	0
 3407 0a8c 0D       		.uleb128 0xd
 3408 0a8d 20060000 		.4byte	.LASF77
 3409 0a91 01       		.byte	0x1
 3410 0a92 6707     		.2byte	0x767
 3411 0a94 00000000 		.4byte	.LFB62
 3412 0a98 0C000000 		.4byte	.LFE62-.LFB62
 3413 0a9c 01       		.uleb128 0x1
 3414 0a9d 9C       		.byte	0x9c
 3415 0a9e BF0A0000 		.4byte	0xabf
 3416 0aa2 13       		.uleb128 0x13
 3417 0aa3 D8040000 		.4byte	.LASF24
 3418 0aa7 01       		.byte	0x1
 3419 0aa8 6707     		.2byte	0x767
 3420 0aaa 83000000 		.4byte	0x83
 3421 0aae 01       		.uleb128 0x1
 3422 0aaf 50       		.byte	0x50
 3423 0ab0 13       		.uleb128 0x13
 3424 0ab1 F3020000 		.4byte	.LASF78
 3425 0ab5 01       		.byte	0x1
 3426 0ab6 6707     		.2byte	0x767
 3427 0ab8 83000000 		.4byte	0x83
 3428 0abc 01       		.uleb128 0x1
 3429 0abd 51       		.byte	0x51
 3430 0abe 00       		.byte	0
 3431 0abf 11       		.uleb128 0x11
 3432 0ac0 E7090000 		.4byte	.LASF79
 3433 0ac4 01       		.byte	0x1
 3434 0ac5 8607     		.2byte	0x786
 3435 0ac7 83000000 		.4byte	0x83
 3436 0acb 00000000 		.4byte	.LFB63
 3437 0acf 0C000000 		.4byte	.LFE63-.LFB63
 3438 0ad3 01       		.uleb128 0x1
 3439 0ad4 9C       		.byte	0x9c
 3440 0ad5 EA0A0000 		.4byte	0xaea
 3441 0ad9 12       		.uleb128 0x12
 3442 0ada D8040000 		.4byte	.LASF24
 3443 0ade 01       		.byte	0x1
 3444 0adf 8607     		.2byte	0x786
ARM GAS  C:\Users\Ray\AppData\Local\Temp\ccn7U9Aq.s 			page 103


 3445 0ae1 83000000 		.4byte	0x83
 3446 0ae5 6E0A0000 		.4byte	.LLST61
 3447 0ae9 00       		.byte	0
 3448 0aea 0D       		.uleb128 0xd
 3449 0aeb 2E090000 		.4byte	.LASF80
 3450 0aef 01       		.byte	0x1
 3451 0af0 A107     		.2byte	0x7a1
 3452 0af2 00000000 		.4byte	.LFB64
 3453 0af6 0C000000 		.4byte	.LFE64-.LFB64
 3454 0afa 01       		.uleb128 0x1
 3455 0afb 9C       		.byte	0x9c
 3456 0afc 1D0B0000 		.4byte	0xb1d
 3457 0b00 13       		.uleb128 0x13
 3458 0b01 D8040000 		.4byte	.LASF24
 3459 0b05 01       		.byte	0x1
 3460 0b06 A107     		.2byte	0x7a1
 3461 0b08 83000000 		.4byte	0x83
 3462 0b0c 01       		.uleb128 0x1
 3463 0b0d 50       		.byte	0x50
 3464 0b0e 13       		.uleb128 0x13
 3465 0b0f 98080000 		.4byte	.LASF81
 3466 0b13 01       		.byte	0x1
 3467 0b14 A107     		.2byte	0x7a1
 3468 0b16 83000000 		.4byte	0x83
 3469 0b1a 01       		.uleb128 0x1
 3470 0b1b 51       		.byte	0x51
 3471 0b1c 00       		.byte	0
 3472 0b1d 11       		.uleb128 0x11
 3473 0b1e 73090000 		.4byte	.LASF82
 3474 0b22 01       		.byte	0x1
 3475 0b23 BE07     		.2byte	0x7be
 3476 0b25 83000000 		.4byte	0x83
 3477 0b29 00000000 		.4byte	.LFB65
 3478 0b2d 0C000000 		.4byte	.LFE65-.LFB65
 3479 0b31 01       		.uleb128 0x1
 3480 0b32 9C       		.byte	0x9c
 3481 0b33 480B0000 		.4byte	0xb48
 3482 0b37 12       		.uleb128 0x12
 3483 0b38 D8040000 		.4byte	.LASF24
 3484 0b3c 01       		.byte	0x1
 3485 0b3d BE07     		.2byte	0x7be
 3486 0b3f 83000000 		.4byte	0x83
 3487 0b43 8F0A0000 		.4byte	.LLST62
 3488 0b47 00       		.byte	0
 3489 0b48 0D       		.uleb128 0xd
 3490 0b49 50010000 		.4byte	.LASF83
 3491 0b4d 01       		.byte	0x1
 3492 0b4e DB07     		.2byte	0x7db
 3493 0b50 00000000 		.4byte	.LFB66
 3494 0b54 0C000000 		.4byte	.LFE66-.LFB66
 3495 0b58 01       		.uleb128 0x1
 3496 0b59 9C       		.byte	0x9c
 3497 0b5a 7B0B0000 		.4byte	0xb7b
 3498 0b5e 13       		.uleb128 0x13
 3499 0b5f D8040000 		.4byte	.LASF24
 3500 0b63 01       		.byte	0x1
 3501 0b64 DB07     		.2byte	0x7db
ARM GAS  C:\Users\Ray\AppData\Local\Temp\ccn7U9Aq.s 			page 104


 3502 0b66 83000000 		.4byte	0x83
 3503 0b6a 01       		.uleb128 0x1
 3504 0b6b 50       		.byte	0x50
 3505 0b6c 13       		.uleb128 0x13
 3506 0b6d 72080000 		.4byte	.LASF84
 3507 0b71 01       		.byte	0x1
 3508 0b72 DB07     		.2byte	0x7db
 3509 0b74 83000000 		.4byte	0x83
 3510 0b78 01       		.uleb128 0x1
 3511 0b79 51       		.byte	0x51
 3512 0b7a 00       		.byte	0
 3513 0b7b 10       		.uleb128 0x10
 3514 0b7c 92050000 		.4byte	.LASF85
 3515 0b80 01       		.byte	0x1
 3516 0b81 F807     		.2byte	0x7f8
 3517 0b83 83000000 		.4byte	0x83
 3518 0b87 00000000 		.4byte	.LFB67
 3519 0b8b 14000000 		.4byte	.LFE67-.LFB67
 3520 0b8f 01       		.uleb128 0x1
 3521 0b90 9C       		.byte	0x9c
 3522 0b91 0D       		.uleb128 0xd
 3523 0b92 EA060000 		.4byte	.LASF86
 3524 0b96 01       		.byte	0x1
 3525 0b97 1608     		.2byte	0x816
 3526 0b99 00000000 		.4byte	.LFB68
 3527 0b9d 28000000 		.4byte	.LFE68-.LFB68
 3528 0ba1 01       		.uleb128 0x1
 3529 0ba2 9C       		.byte	0x9c
 3530 0ba3 B60B0000 		.4byte	0xbb6
 3531 0ba7 13       		.uleb128 0x13
 3532 0ba8 55080000 		.4byte	.LASF87
 3533 0bac 01       		.byte	0x1
 3534 0bad 1608     		.2byte	0x816
 3535 0baf 83000000 		.4byte	0x83
 3536 0bb3 01       		.uleb128 0x1
 3537 0bb4 50       		.byte	0x50
 3538 0bb5 00       		.byte	0
 3539 0bb6 11       		.uleb128 0x11
 3540 0bb7 0B070000 		.4byte	.LASF88
 3541 0bbb 01       		.byte	0x1
 3542 0bbc 3E08     		.2byte	0x83e
 3543 0bbe 77000000 		.4byte	0x77
 3544 0bc2 00000000 		.4byte	.LFB69
 3545 0bc6 2A000000 		.4byte	.LFE69-.LFB69
 3546 0bca 01       		.uleb128 0x1
 3547 0bcb 9C       		.byte	0x9c
 3548 0bcc 2E0C0000 		.4byte	0xc2e
 3549 0bd0 12       		.uleb128 0x12
 3550 0bd1 D8040000 		.4byte	.LASF24
 3551 0bd5 01       		.byte	0x1
 3552 0bd6 3E08     		.2byte	0x83e
 3553 0bd8 83000000 		.4byte	0x83
 3554 0bdc B00A0000 		.4byte	.LLST63
 3555 0be0 0E       		.uleb128 0xe
 3556 0be1 CE040000 		.4byte	.LASF89
 3557 0be5 01       		.byte	0x1
 3558 0be6 4008     		.2byte	0x840
ARM GAS  C:\Users\Ray\AppData\Local\Temp\ccn7U9Aq.s 			page 105


 3559 0be8 83000000 		.4byte	0x83
 3560 0bec DC0A0000 		.4byte	.LLST64
 3561 0bf0 0E       		.uleb128 0xe
 3562 0bf1 2C010000 		.4byte	.LASF90
 3563 0bf5 01       		.byte	0x1
 3564 0bf6 4108     		.2byte	0x841
 3565 0bf8 83000000 		.4byte	0x83
 3566 0bfc FB0A0000 		.4byte	.LLST65
 3567 0c00 0A       		.uleb128 0xa
 3568 0c01 10000000 		.4byte	.LVL209
 3569 0c05 EF070000 		.4byte	0x7ef
 3570 0c09 140C0000 		.4byte	0xc14
 3571 0c0d 0B       		.uleb128 0xb
 3572 0c0e 01       		.uleb128 0x1
 3573 0c0f 50       		.byte	0x50
 3574 0c10 02       		.uleb128 0x2
 3575 0c11 76       		.byte	0x76
 3576 0c12 00       		.sleb128 0
 3577 0c13 00       		.byte	0
 3578 0c14 0F       		.uleb128 0xf
 3579 0c15 14000000 		.4byte	.LVL210
 3580 0c19 0D020000 		.4byte	0x20d
 3581 0c1d 0C       		.uleb128 0xc
 3582 0c1e 1E000000 		.4byte	.LVL211
 3583 0c22 23020000 		.4byte	0x223
 3584 0c26 0B       		.uleb128 0xb
 3585 0c27 01       		.uleb128 0x1
 3586 0c28 50       		.byte	0x50
 3587 0c29 02       		.uleb128 0x2
 3588 0c2a 76       		.byte	0x76
 3589 0c2b 00       		.sleb128 0
 3590 0c2c 00       		.byte	0
 3591 0c2d 00       		.byte	0
 3592 0c2e 0D       		.uleb128 0xd
 3593 0c2f CA070000 		.4byte	.LASF91
 3594 0c33 01       		.byte	0x1
 3595 0c34 A808     		.2byte	0x8a8
 3596 0c36 00000000 		.4byte	.LFB70
 3597 0c3a 0C000000 		.4byte	.LFE70-.LFB70
 3598 0c3e 01       		.uleb128 0x1
 3599 0c3f 9C       		.byte	0x9c
 3600 0c40 610C0000 		.4byte	0xc61
 3601 0c44 13       		.uleb128 0x13
 3602 0c45 D8040000 		.4byte	.LASF24
 3603 0c49 01       		.byte	0x1
 3604 0c4a A808     		.2byte	0x8a8
 3605 0c4c 83000000 		.4byte	0x83
 3606 0c50 01       		.uleb128 0x1
 3607 0c51 50       		.byte	0x50
 3608 0c52 13       		.uleb128 0x13
 3609 0c53 E9030000 		.4byte	.LASF39
 3610 0c57 01       		.byte	0x1
 3611 0c58 A808     		.2byte	0x8a8
 3612 0c5a 83000000 		.4byte	0x83
 3613 0c5e 01       		.uleb128 0x1
 3614 0c5f 51       		.byte	0x51
 3615 0c60 00       		.byte	0
ARM GAS  C:\Users\Ray\AppData\Local\Temp\ccn7U9Aq.s 			page 106


 3616 0c61 08       		.uleb128 0x8
 3617 0c62 21070000 		.4byte	.LASF92
 3618 0c66 01       		.byte	0x1
 3619 0c67 97       		.byte	0x97
 3620 0c68 00000000 		.4byte	.LFB32
 3621 0c6c 24000000 		.4byte	.LFE32-.LFB32
 3622 0c70 01       		.uleb128 0x1
 3623 0c71 9C       		.byte	0x9c
 3624 0c72 C40C0000 		.4byte	0xcc4
 3625 0c76 09       		.uleb128 0x9
 3626 0c77 510A0000 		.4byte	.LASF47
 3627 0c7b 01       		.byte	0x1
 3628 0c7c 99       		.byte	0x99
 3629 0c7d 83000000 		.4byte	0x83
 3630 0c81 1A0B0000 		.4byte	.LLST66
 3631 0c85 0A       		.uleb128 0xa
 3632 0c86 0E000000 		.4byte	.LVL220
 3633 0c8a 2E0C0000 		.4byte	0xc2e
 3634 0c8e 9E0C0000 		.4byte	0xc9e
 3635 0c92 0B       		.uleb128 0xb
 3636 0c93 01       		.uleb128 0x1
 3637 0c94 50       		.byte	0x50
 3638 0c95 02       		.uleb128 0x2
 3639 0c96 74       		.byte	0x74
 3640 0c97 00       		.sleb128 0
 3641 0c98 0B       		.uleb128 0xb
 3642 0c99 01       		.uleb128 0x1
 3643 0c9a 51       		.byte	0x51
 3644 0c9b 01       		.uleb128 0x1
 3645 0c9c 30       		.byte	0x30
 3646 0c9d 00       		.byte	0
 3647 0c9e 0F       		.uleb128 0xf
 3648 0c9f 18000000 		.4byte	.LVL222
 3649 0ca3 E5000000 		.4byte	0xe5
 3650 0ca7 0A       		.uleb128 0xa
 3651 0ca8 1E000000 		.4byte	.LVL223
 3652 0cac D5050000 		.4byte	0x5d5
 3653 0cb0 BA0C0000 		.4byte	0xcba
 3654 0cb4 0B       		.uleb128 0xb
 3655 0cb5 01       		.uleb128 0x1
 3656 0cb6 50       		.byte	0x50
 3657 0cb7 01       		.uleb128 0x1
 3658 0cb8 30       		.byte	0x30
 3659 0cb9 00       		.byte	0
 3660 0cba 0F       		.uleb128 0xf
 3661 0cbb 22000000 		.4byte	.LVL224
 3662 0cbf 15040000 		.4byte	0x415
 3663 0cc3 00       		.byte	0
 3664 0cc4 0D       		.uleb128 0xd
 3665 0cc5 D2000000 		.4byte	.LASF93
 3666 0cc9 01       		.byte	0x1
 3667 0cca 6801     		.2byte	0x168
 3668 0ccc 00000000 		.4byte	.LFB35
 3669 0cd0 38000000 		.4byte	.LFE35-.LFB35
 3670 0cd4 01       		.uleb128 0x1
 3671 0cd5 9C       		.byte	0x9c
 3672 0cd6 080D0000 		.4byte	0xd08
ARM GAS  C:\Users\Ray\AppData\Local\Temp\ccn7U9Aq.s 			page 107


 3673 0cda 14       		.uleb128 0x14
 3674 0cdb A4040000 		.4byte	.LASF94
 3675 0cdf 01       		.byte	0x1
 3676 0ce0 6B01     		.2byte	0x16b
 3677 0ce2 6B000000 		.4byte	0x6b
 3678 0ce6 05       		.uleb128 0x5
 3679 0ce7 03       		.byte	0x3
 3680 0ce8 09000000 		.4byte	CapSense_initVar.5384
 3681 0cec 0F       		.uleb128 0xf
 3682 0ced 0E000000 		.4byte	.LVL226
 3683 0cf1 610C0000 		.4byte	0xc61
 3684 0cf5 0F       		.uleb128 0xf
 3685 0cf6 18000000 		.4byte	.LVL227
 3686 0cfa 47010000 		.4byte	0x147
 3687 0cfe 0F       		.uleb128 0xf
 3688 0cff 1C000000 		.4byte	.LVL228
 3689 0d03 E20F0000 		.4byte	0xfe2
 3690 0d07 00       		.byte	0
 3691 0d08 15       		.uleb128 0x15
 3692 0d09 90090000 		.4byte	.LASF95
 3693 0d0d 01       		.byte	0x1
 3694 0d0e 24       		.byte	0x24
 3695 0d0f 6B000000 		.4byte	0x6b
 3696 0d13 05       		.uleb128 0x5
 3697 0d14 03       		.byte	0x3
 3698 0d15 00000000 		.4byte	CapSense_lowLevelTuningDone
 3699 0d19 16       		.uleb128 0x16
 3700 0d1a 6B000000 		.4byte	0x6b
 3701 0d1e 290D0000 		.4byte	0xd29
 3702 0d22 17       		.uleb128 0x17
 3703 0d23 C6000000 		.4byte	0xc6
 3704 0d27 00       		.byte	0
 3705 0d28 00       		.byte	0
 3706 0d29 15       		.uleb128 0x15
 3707 0d2a 11000000 		.4byte	.LASF96
 3708 0d2e 01       		.byte	0x1
 3709 0d2f 25       		.byte	0x25
 3710 0d30 190D0000 		.4byte	0xd19
 3711 0d34 05       		.uleb128 0x5
 3712 0d35 03       		.byte	0x3
 3713 0d36 00000000 		.4byte	CapSense_scanSpeedTbl
 3714 0d3a 15       		.uleb128 0x15
 3715 0d3b 39000000 		.4byte	.LASF97
 3716 0d3f 01       		.byte	0x1
 3717 0d40 2D       		.byte	0x2d
 3718 0d41 B0000000 		.4byte	0xb0
 3719 0d45 05       		.uleb128 0x5
 3720 0d46 03       		.byte	0x3
 3721 0d47 00000000 		.4byte	CapSense_csdStatusVar
 3722 0d4b 15       		.uleb128 0x15
 3723 0d4c 59020000 		.4byte	.LASF98
 3724 0d50 01       		.byte	0x1
 3725 0d51 2E       		.byte	0x2e
 3726 0d52 B0000000 		.4byte	0xb0
 3727 0d56 05       		.uleb128 0x5
 3728 0d57 03       		.byte	0x3
 3729 0d58 00000000 		.4byte	CapSense_sensorIndex
ARM GAS  C:\Users\Ray\AppData\Local\Temp\ccn7U9Aq.s 			page 108


 3730 0d5c 16       		.uleb128 0x16
 3731 0d5d 77000000 		.4byte	0x77
 3732 0d61 6C0D0000 		.4byte	0xd6c
 3733 0d65 17       		.uleb128 0x17
 3734 0d66 C6000000 		.4byte	0xc6
 3735 0d6a 01       		.byte	0x1
 3736 0d6b 00       		.byte	0
 3737 0d6c 15       		.uleb128 0x15
 3738 0d6d DF040000 		.4byte	.LASF99
 3739 0d71 01       		.byte	0x1
 3740 0d72 31       		.byte	0x31
 3741 0d73 5C0D0000 		.4byte	0xd5c
 3742 0d77 05       		.uleb128 0x5
 3743 0d78 03       		.byte	0x3
 3744 0d79 00000000 		.4byte	CapSense_sensorRaw
 3745 0d7d 16       		.uleb128 0x16
 3746 0d7e 6B000000 		.4byte	0x6b
 3747 0d82 8D0D0000 		.4byte	0xd8d
 3748 0d86 17       		.uleb128 0x17
 3749 0d87 C6000000 		.4byte	0xc6
 3750 0d8b 01       		.byte	0x1
 3751 0d8c 00       		.byte	0
 3752 0d8d 15       		.uleb128 0x15
 3753 0d8e 40060000 		.4byte	.LASF100
 3754 0d92 01       		.byte	0x1
 3755 0d93 3B       		.byte	0x3b
 3756 0d94 7D0D0000 		.4byte	0xd7d
 3757 0d98 05       		.uleb128 0x5
 3758 0d99 03       		.byte	0x3
 3759 0d9a 00000000 		.4byte	CapSense_unscannedSnsDriveMode
 3760 0d9e 15       		.uleb128 0x15
 3761 0d9f AA070000 		.4byte	.LASF101
 3762 0da3 01       		.byte	0x1
 3763 0da4 3E       		.byte	0x3e
 3764 0da5 190D0000 		.4byte	0xd19
 3765 0da9 05       		.uleb128 0x5
 3766 0daa 03       		.byte	0x3
 3767 0dab 00000000 		.4byte	CapSense_sensorEnableMaskBackup
 3768 0daf 15       		.uleb128 0x15
 3769 0db0 3B080000 		.4byte	.LASF102
 3770 0db4 01       		.byte	0x1
 3771 0db5 41       		.byte	0x41
 3772 0db6 190D0000 		.4byte	0xd19
 3773 0dba 05       		.uleb128 0x5
 3774 0dbb 03       		.byte	0x3
 3775 0dbc 00000000 		.4byte	CapSense_sensorEnableMask
 3776 0dc0 15       		.uleb128 0x15
 3777 0dc1 C4050000 		.4byte	.LASF103
 3778 0dc5 01       		.byte	0x1
 3779 0dc6 58       		.byte	0x58
 3780 0dc7 7D0D0000 		.4byte	0xd7d
 3781 0dcb 05       		.uleb128 0x5
 3782 0dcc 03       		.byte	0x3
 3783 0dcd 00000000 		.4byte	CapSense_modulationIDAC
 3784 0dd1 15       		.uleb128 0x15
 3785 0dd2 4F000000 		.4byte	.LASF104
 3786 0dd6 01       		.byte	0x1
ARM GAS  C:\Users\Ray\AppData\Local\Temp\ccn7U9Aq.s 			page 109


 3787 0dd7 59       		.byte	0x59
 3788 0dd8 7D0D0000 		.4byte	0xd7d
 3789 0ddc 05       		.uleb128 0x5
 3790 0ddd 03       		.byte	0x3
 3791 0dde 00000000 		.4byte	CapSense_compensationIDAC
 3792 0de2 16       		.uleb128 0x16
 3793 0de3 83000000 		.4byte	0x83
 3794 0de7 F20D0000 		.4byte	0xdf2
 3795 0deb 17       		.uleb128 0x17
 3796 0dec C6000000 		.4byte	0xc6
 3797 0df0 01       		.byte	0x1
 3798 0df1 00       		.byte	0
 3799 0df2 15       		.uleb128 0x15
 3800 0df3 6B050000 		.4byte	.LASF105
 3801 0df7 01       		.byte	0x1
 3802 0df8 5B       		.byte	0x5b
 3803 0df9 E20D0000 		.4byte	0xde2
 3804 0dfd 05       		.uleb128 0x5
 3805 0dfe 03       		.byte	0x3
 3806 0dff 00000000 		.4byte	CapSense_widgetResolution
 3807 0e03 15       		.uleb128 0x15
 3808 0e04 BD030000 		.4byte	.LASF106
 3809 0e08 01       		.byte	0x1
 3810 0e09 60       		.byte	0x60
 3811 0e0a 7D0D0000 		.4byte	0xd7d
 3812 0e0e 05       		.uleb128 0x5
 3813 0e0f 03       		.byte	0x3
 3814 0e10 00000000 		.4byte	CapSense_senseClkDividerVal
 3815 0e14 15       		.uleb128 0x15
 3816 0e15 A1000000 		.4byte	.LASF107
 3817 0e19 01       		.byte	0x1
 3818 0e1a 61       		.byte	0x61
 3819 0e1b 7D0D0000 		.4byte	0xd7d
 3820 0e1f 05       		.uleb128 0x5
 3821 0e20 03       		.byte	0x3
 3822 0e21 00000000 		.4byte	CapSense_sampleClkDividerVal
 3823 0e25 16       		.uleb128 0x16
 3824 0e26 E0000000 		.4byte	0xe0
 3825 0e2a 350E0000 		.4byte	0xe35
 3826 0e2e 17       		.uleb128 0x17
 3827 0e2f C6000000 		.4byte	0xc6
 3828 0e33 01       		.byte	0x1
 3829 0e34 00       		.byte	0
 3830 0e35 15       		.uleb128 0x15
 3831 0e36 8D020000 		.4byte	.LASF108
 3832 0e3a 01       		.byte	0x1
 3833 0e3b 63       		.byte	0x63
 3834 0e3c 460E0000 		.4byte	0xe46
 3835 0e40 05       		.uleb128 0x5
 3836 0e41 03       		.byte	0x3
 3837 0e42 00000000 		.4byte	CapSense_widgetNumber
 3838 0e46 07       		.uleb128 0x7
 3839 0e47 250E0000 		.4byte	0xe25
 3840 0e4b 16       		.uleb128 0x16
 3841 0e4c 610E0000 		.4byte	0xe61
 3842 0e50 5B0E0000 		.4byte	0xe5b
 3843 0e54 17       		.uleb128 0x17
ARM GAS  C:\Users\Ray\AppData\Local\Temp\ccn7U9Aq.s 			page 110


 3844 0e55 C6000000 		.4byte	0xc6
 3845 0e59 04       		.byte	0x4
 3846 0e5a 00       		.byte	0
 3847 0e5b 06       		.uleb128 0x6
 3848 0e5c 04       		.byte	0x4
 3849 0e5d B5000000 		.4byte	0xb5
 3850 0e61 07       		.uleb128 0x7
 3851 0e62 5B0E0000 		.4byte	0xe5b
 3852 0e66 15       		.uleb128 0x15
 3853 0e67 E2010000 		.4byte	.LASF109
 3854 0e6b 01       		.byte	0x1
 3855 0e6c 68       		.byte	0x68
 3856 0e6d 770E0000 		.4byte	0xe77
 3857 0e71 05       		.uleb128 0x5
 3858 0e72 03       		.byte	0x3
 3859 0e73 00000000 		.4byte	CapSense_prtSelTbl
 3860 0e77 07       		.uleb128 0x7
 3861 0e78 4B0E0000 		.4byte	0xe4b
 3862 0e7c 15       		.uleb128 0x15
 3863 0e7d A3020000 		.4byte	.LASF110
 3864 0e81 01       		.byte	0x1
 3865 0e82 70       		.byte	0x70
 3866 0e83 8D0E0000 		.4byte	0xe8d
 3867 0e87 05       		.uleb128 0x5
 3868 0e88 03       		.byte	0x3
 3869 0e89 00000000 		.4byte	CapSense_prtCfgTbl
 3870 0e8d 07       		.uleb128 0x7
 3871 0e8e 4B0E0000 		.4byte	0xe4b
 3872 0e92 15       		.uleb128 0x15
 3873 0e93 0B020000 		.4byte	.LASF111
 3874 0e97 01       		.byte	0x1
 3875 0e98 78       		.byte	0x78
 3876 0e99 A30E0000 		.4byte	0xea3
 3877 0e9d 05       		.uleb128 0x5
 3878 0e9e 03       		.byte	0x3
 3879 0e9f 00000000 		.4byte	CapSense_prtDRTbl
 3880 0ea3 07       		.uleb128 0x7
 3881 0ea4 4B0E0000 		.4byte	0xe4b
 3882 0ea8 16       		.uleb128 0x16
 3883 0ea9 5B0E0000 		.4byte	0xe5b
 3884 0ead B80E0000 		.4byte	0xeb8
 3885 0eb1 17       		.uleb128 0x17
 3886 0eb2 C6000000 		.4byte	0xc6
 3887 0eb6 01       		.byte	0x1
 3888 0eb7 00       		.byte	0
 3889 0eb8 15       		.uleb128 0x15
 3890 0eb9 39050000 		.4byte	.LASF112
 3891 0ebd 01       		.byte	0x1
 3892 0ebe 44       		.byte	0x44
 3893 0ebf A80E0000 		.4byte	0xea8
 3894 0ec3 05       		.uleb128 0x5
 3895 0ec4 03       		.byte	0x3
 3896 0ec5 00000000 		.4byte	CapSense_pcTable
 3897 0ec9 15       		.uleb128 0x15
 3898 0eca 5F080000 		.4byte	.LASF113
 3899 0ece 01       		.byte	0x1
 3900 0ecf 49       		.byte	0x49
ARM GAS  C:\Users\Ray\AppData\Local\Temp\ccn7U9Aq.s 			page 111


 3901 0ed0 DA0E0000 		.4byte	0xeda
 3902 0ed4 05       		.uleb128 0x5
 3903 0ed5 03       		.byte	0x3
 3904 0ed6 00000000 		.4byte	CapSense_portTable
 3905 0eda 07       		.uleb128 0x7
 3906 0edb 250E0000 		.4byte	0xe25
 3907 0edf 16       		.uleb128 0x16
 3908 0ee0 EF0E0000 		.4byte	0xeef
 3909 0ee4 EF0E0000 		.4byte	0xeef
 3910 0ee8 17       		.uleb128 0x17
 3911 0ee9 C6000000 		.4byte	0xc6
 3912 0eed 01       		.byte	0x1
 3913 0eee 00       		.byte	0
 3914 0eef 07       		.uleb128 0x7
 3915 0ef0 83000000 		.4byte	0x83
 3916 0ef4 15       		.uleb128 0x15
 3917 0ef5 81000000 		.4byte	.LASF114
 3918 0ef9 01       		.byte	0x1
 3919 0efa 4E       		.byte	0x4e
 3920 0efb 050F0000 		.4byte	0xf05
 3921 0eff 05       		.uleb128 0x5
 3922 0f00 03       		.byte	0x3
 3923 0f01 00000000 		.4byte	CapSense_maskTable
 3924 0f05 07       		.uleb128 0x7
 3925 0f06 DF0E0000 		.4byte	0xedf
 3926 0f0a 15       		.uleb128 0x15
 3927 0f0b F5050000 		.4byte	.LASF115
 3928 0f0f 01       		.byte	0x1
 3929 0f10 53       		.byte	0x53
 3930 0f11 1B0F0000 		.4byte	0xf1b
 3931 0f15 05       		.uleb128 0x5
 3932 0f16 03       		.byte	0x3
 3933 0f17 00000000 		.4byte	CapSense_pinShiftTbl
 3934 0f1b 07       		.uleb128 0x7
 3935 0f1c 250E0000 		.4byte	0xe25
 3936 0f20 18       		.uleb128 0x18
 3937 0f21 6D010000 		.4byte	.LASF116
 3938 0f25 03       		.byte	0x3
 3939 0f26 3B01     		.2byte	0x13b
 3940 0f28 2C0F0000 		.4byte	0xf2c
 3941 0f2c 07       		.uleb128 0x7
 3942 0f2d 250E0000 		.4byte	0xe25
 3943 0f31 18       		.uleb128 0x18
 3944 0f32 B5040000 		.4byte	.LASF117
 3945 0f36 03       		.byte	0x3
 3946 0f37 3C01     		.2byte	0x13c
 3947 0f39 3D0F0000 		.4byte	0xf3d
 3948 0f3d 07       		.uleb128 0x7
 3949 0f3e 250E0000 		.4byte	0xe25
 3950 0f42 15       		.uleb128 0x15
 3951 0f43 C2010000 		.4byte	.LASF118
 3952 0f47 01       		.byte	0x1
 3953 0f48 37       		.byte	0x37
 3954 0f49 6B000000 		.4byte	0x6b
 3955 0f4d 05       		.uleb128 0x5
 3956 0f4e 03       		.byte	0x3
 3957 0f4f 00000000 		.4byte	CapSense_csdTrim1
ARM GAS  C:\Users\Ray\AppData\Local\Temp\ccn7U9Aq.s 			page 112


 3958 0f53 19       		.uleb128 0x19
 3959 0f54 1F010000 		.4byte	.LASF119
 3960 0f58 1F010000 		.4byte	.LASF119
 3961 0f5c 04       		.byte	0x4
 3962 0f5d C5       		.byte	0xc5
 3963 0f5e 19       		.uleb128 0x19
 3964 0f5f 51050000 		.4byte	.LASF120
 3965 0f63 51050000 		.4byte	.LASF120
 3966 0f67 04       		.byte	0x4
 3967 0f68 BD       		.byte	0xbd
 3968 0f69 19       		.uleb128 0x19
 3969 0f6a 00000000 		.4byte	.LASF121
 3970 0f6e 00000000 		.4byte	.LASF121
 3971 0f72 04       		.byte	0x4
 3972 0f73 C0       		.byte	0xc0
 3973 0f74 19       		.uleb128 0x19
 3974 0f75 D3060000 		.4byte	.LASF122
 3975 0f79 D3060000 		.4byte	.LASF122
 3976 0f7d 05       		.byte	0x5
 3977 0f7e 27       		.byte	0x27
 3978 0f7f 19       		.uleb128 0x19
 3979 0f80 80080000 		.4byte	.LASF123
 3980 0f84 80080000 		.4byte	.LASF123
 3981 0f88 06       		.byte	0x6
 3982 0f89 27       		.byte	0x27
 3983 0f8a 19       		.uleb128 0x19
 3984 0f8b EB070000 		.4byte	.LASF124
 3985 0f8f EB070000 		.4byte	.LASF124
 3986 0f93 06       		.byte	0x6
 3987 0f94 29       		.byte	0x29
 3988 0f95 19       		.uleb128 0x19
 3989 0f96 AC090000 		.4byte	.LASF125
 3990 0f9a AC090000 		.4byte	.LASF125
 3991 0f9e 05       		.byte	0x5
 3992 0f9f 29       		.byte	0x29
 3993 0fa0 19       		.uleb128 0x19
 3994 0fa1 69000000 		.4byte	.LASF126
 3995 0fa5 69000000 		.4byte	.LASF126
 3996 0fa9 05       		.byte	0x5
 3997 0faa 23       		.byte	0x23
 3998 0fab 19       		.uleb128 0x19
 3999 0fac C5080000 		.4byte	.LASF127
 4000 0fb0 C5080000 		.4byte	.LASF127
 4001 0fb4 06       		.byte	0x6
 4002 0fb5 23       		.byte	0x23
 4003 0fb6 19       		.uleb128 0x19
 4004 0fb7 DB090000 		.4byte	.LASF128
 4005 0fbb DB090000 		.4byte	.LASF128
 4006 0fbf 04       		.byte	0x4
 4007 0fc0 C3       		.byte	0xc3
 4008 0fc1 19       		.uleb128 0x19
 4009 0fc2 020A0000 		.4byte	.LASF129
 4010 0fc6 020A0000 		.4byte	.LASF129
 4011 0fca 04       		.byte	0x4
 4012 0fcb E5       		.byte	0xe5
 4013 0fcc 19       		.uleb128 0x19
 4014 0fcd F7040000 		.4byte	.LASF130
ARM GAS  C:\Users\Ray\AppData\Local\Temp\ccn7U9Aq.s 			page 113


 4015 0fd1 F7040000 		.4byte	.LASF130
 4016 0fd5 04       		.byte	0x4
 4017 0fd6 E6       		.byte	0xe6
 4018 0fd7 19       		.uleb128 0x19
 4019 0fd8 0D050000 		.4byte	.LASF131
 4020 0fdc 0D050000 		.4byte	.LASF131
 4021 0fe0 04       		.byte	0x4
 4022 0fe1 DC       		.byte	0xdc
 4023 0fe2 1A       		.uleb128 0x1a
 4024 0fe3 E5080000 		.4byte	.LASF132
 4025 0fe7 E5080000 		.4byte	.LASF132
 4026 0feb 07       		.byte	0x7
 4027 0fec BA02     		.2byte	0x2ba
 4028 0fee 00       		.byte	0
 4029              		.section	.debug_abbrev,"",%progbits
 4030              	.Ldebug_abbrev0:
 4031 0000 01       		.uleb128 0x1
 4032 0001 11       		.uleb128 0x11
 4033 0002 01       		.byte	0x1
 4034 0003 25       		.uleb128 0x25
 4035 0004 0E       		.uleb128 0xe
 4036 0005 13       		.uleb128 0x13
 4037 0006 0B       		.uleb128 0xb
 4038 0007 03       		.uleb128 0x3
 4039 0008 0E       		.uleb128 0xe
 4040 0009 1B       		.uleb128 0x1b
 4041 000a 0E       		.uleb128 0xe
 4042 000b 55       		.uleb128 0x55
 4043 000c 17       		.uleb128 0x17
 4044 000d 11       		.uleb128 0x11
 4045 000e 01       		.uleb128 0x1
 4046 000f 10       		.uleb128 0x10
 4047 0010 17       		.uleb128 0x17
 4048 0011 00       		.byte	0
 4049 0012 00       		.byte	0
 4050 0013 02       		.uleb128 0x2
 4051 0014 24       		.uleb128 0x24
 4052 0015 00       		.byte	0
 4053 0016 0B       		.uleb128 0xb
 4054 0017 0B       		.uleb128 0xb
 4055 0018 3E       		.uleb128 0x3e
 4056 0019 0B       		.uleb128 0xb
 4057 001a 03       		.uleb128 0x3
 4058 001b 0E       		.uleb128 0xe
 4059 001c 00       		.byte	0
 4060 001d 00       		.byte	0
 4061 001e 03       		.uleb128 0x3
 4062 001f 24       		.uleb128 0x24
 4063 0020 00       		.byte	0
 4064 0021 0B       		.uleb128 0xb
 4065 0022 0B       		.uleb128 0xb
 4066 0023 3E       		.uleb128 0x3e
 4067 0024 0B       		.uleb128 0xb
 4068 0025 03       		.uleb128 0x3
 4069 0026 08       		.uleb128 0x8
 4070 0027 00       		.byte	0
 4071 0028 00       		.byte	0
ARM GAS  C:\Users\Ray\AppData\Local\Temp\ccn7U9Aq.s 			page 114


 4072 0029 04       		.uleb128 0x4
 4073 002a 16       		.uleb128 0x16
 4074 002b 00       		.byte	0
 4075 002c 03       		.uleb128 0x3
 4076 002d 0E       		.uleb128 0xe
 4077 002e 3A       		.uleb128 0x3a
 4078 002f 0B       		.uleb128 0xb
 4079 0030 3B       		.uleb128 0x3b
 4080 0031 05       		.uleb128 0x5
 4081 0032 49       		.uleb128 0x49
 4082 0033 13       		.uleb128 0x13
 4083 0034 00       		.byte	0
 4084 0035 00       		.byte	0
 4085 0036 05       		.uleb128 0x5
 4086 0037 35       		.uleb128 0x35
 4087 0038 00       		.byte	0
 4088 0039 49       		.uleb128 0x49
 4089 003a 13       		.uleb128 0x13
 4090 003b 00       		.byte	0
 4091 003c 00       		.byte	0
 4092 003d 06       		.uleb128 0x6
 4093 003e 0F       		.uleb128 0xf
 4094 003f 00       		.byte	0
 4095 0040 0B       		.uleb128 0xb
 4096 0041 0B       		.uleb128 0xb
 4097 0042 49       		.uleb128 0x49
 4098 0043 13       		.uleb128 0x13
 4099 0044 00       		.byte	0
 4100 0045 00       		.byte	0
 4101 0046 07       		.uleb128 0x7
 4102 0047 26       		.uleb128 0x26
 4103 0048 00       		.byte	0
 4104 0049 49       		.uleb128 0x49
 4105 004a 13       		.uleb128 0x13
 4106 004b 00       		.byte	0
 4107 004c 00       		.byte	0
 4108 004d 08       		.uleb128 0x8
 4109 004e 2E       		.uleb128 0x2e
 4110 004f 01       		.byte	0x1
 4111 0050 3F       		.uleb128 0x3f
 4112 0051 19       		.uleb128 0x19
 4113 0052 03       		.uleb128 0x3
 4114 0053 0E       		.uleb128 0xe
 4115 0054 3A       		.uleb128 0x3a
 4116 0055 0B       		.uleb128 0xb
 4117 0056 3B       		.uleb128 0x3b
 4118 0057 0B       		.uleb128 0xb
 4119 0058 27       		.uleb128 0x27
 4120 0059 19       		.uleb128 0x19
 4121 005a 11       		.uleb128 0x11
 4122 005b 01       		.uleb128 0x1
 4123 005c 12       		.uleb128 0x12
 4124 005d 06       		.uleb128 0x6
 4125 005e 40       		.uleb128 0x40
 4126 005f 18       		.uleb128 0x18
 4127 0060 9742     		.uleb128 0x2117
 4128 0062 19       		.uleb128 0x19
ARM GAS  C:\Users\Ray\AppData\Local\Temp\ccn7U9Aq.s 			page 115


 4129 0063 01       		.uleb128 0x1
 4130 0064 13       		.uleb128 0x13
 4131 0065 00       		.byte	0
 4132 0066 00       		.byte	0
 4133 0067 09       		.uleb128 0x9
 4134 0068 34       		.uleb128 0x34
 4135 0069 00       		.byte	0
 4136 006a 03       		.uleb128 0x3
 4137 006b 0E       		.uleb128 0xe
 4138 006c 3A       		.uleb128 0x3a
 4139 006d 0B       		.uleb128 0xb
 4140 006e 3B       		.uleb128 0x3b
 4141 006f 0B       		.uleb128 0xb
 4142 0070 49       		.uleb128 0x49
 4143 0071 13       		.uleb128 0x13
 4144 0072 02       		.uleb128 0x2
 4145 0073 17       		.uleb128 0x17
 4146 0074 00       		.byte	0
 4147 0075 00       		.byte	0
 4148 0076 0A       		.uleb128 0xa
 4149 0077 898201   		.uleb128 0x4109
 4150 007a 01       		.byte	0x1
 4151 007b 11       		.uleb128 0x11
 4152 007c 01       		.uleb128 0x1
 4153 007d 31       		.uleb128 0x31
 4154 007e 13       		.uleb128 0x13
 4155 007f 01       		.uleb128 0x1
 4156 0080 13       		.uleb128 0x13
 4157 0081 00       		.byte	0
 4158 0082 00       		.byte	0
 4159 0083 0B       		.uleb128 0xb
 4160 0084 8A8201   		.uleb128 0x410a
 4161 0087 00       		.byte	0
 4162 0088 02       		.uleb128 0x2
 4163 0089 18       		.uleb128 0x18
 4164 008a 9142     		.uleb128 0x2111
 4165 008c 18       		.uleb128 0x18
 4166 008d 00       		.byte	0
 4167 008e 00       		.byte	0
 4168 008f 0C       		.uleb128 0xc
 4169 0090 898201   		.uleb128 0x4109
 4170 0093 01       		.byte	0x1
 4171 0094 11       		.uleb128 0x11
 4172 0095 01       		.uleb128 0x1
 4173 0096 31       		.uleb128 0x31
 4174 0097 13       		.uleb128 0x13
 4175 0098 00       		.byte	0
 4176 0099 00       		.byte	0
 4177 009a 0D       		.uleb128 0xd
 4178 009b 2E       		.uleb128 0x2e
 4179 009c 01       		.byte	0x1
 4180 009d 3F       		.uleb128 0x3f
 4181 009e 19       		.uleb128 0x19
 4182 009f 03       		.uleb128 0x3
 4183 00a0 0E       		.uleb128 0xe
 4184 00a1 3A       		.uleb128 0x3a
 4185 00a2 0B       		.uleb128 0xb
ARM GAS  C:\Users\Ray\AppData\Local\Temp\ccn7U9Aq.s 			page 116


 4186 00a3 3B       		.uleb128 0x3b
 4187 00a4 05       		.uleb128 0x5
 4188 00a5 27       		.uleb128 0x27
 4189 00a6 19       		.uleb128 0x19
 4190 00a7 11       		.uleb128 0x11
 4191 00a8 01       		.uleb128 0x1
 4192 00a9 12       		.uleb128 0x12
 4193 00aa 06       		.uleb128 0x6
 4194 00ab 40       		.uleb128 0x40
 4195 00ac 18       		.uleb128 0x18
 4196 00ad 9742     		.uleb128 0x2117
 4197 00af 19       		.uleb128 0x19
 4198 00b0 01       		.uleb128 0x1
 4199 00b1 13       		.uleb128 0x13
 4200 00b2 00       		.byte	0
 4201 00b3 00       		.byte	0
 4202 00b4 0E       		.uleb128 0xe
 4203 00b5 34       		.uleb128 0x34
 4204 00b6 00       		.byte	0
 4205 00b7 03       		.uleb128 0x3
 4206 00b8 0E       		.uleb128 0xe
 4207 00b9 3A       		.uleb128 0x3a
 4208 00ba 0B       		.uleb128 0xb
 4209 00bb 3B       		.uleb128 0x3b
 4210 00bc 05       		.uleb128 0x5
 4211 00bd 49       		.uleb128 0x49
 4212 00be 13       		.uleb128 0x13
 4213 00bf 02       		.uleb128 0x2
 4214 00c0 17       		.uleb128 0x17
 4215 00c1 00       		.byte	0
 4216 00c2 00       		.byte	0
 4217 00c3 0F       		.uleb128 0xf
 4218 00c4 898201   		.uleb128 0x4109
 4219 00c7 00       		.byte	0
 4220 00c8 11       		.uleb128 0x11
 4221 00c9 01       		.uleb128 0x1
 4222 00ca 31       		.uleb128 0x31
 4223 00cb 13       		.uleb128 0x13
 4224 00cc 00       		.byte	0
 4225 00cd 00       		.byte	0
 4226 00ce 10       		.uleb128 0x10
 4227 00cf 2E       		.uleb128 0x2e
 4228 00d0 00       		.byte	0
 4229 00d1 3F       		.uleb128 0x3f
 4230 00d2 19       		.uleb128 0x19
 4231 00d3 03       		.uleb128 0x3
 4232 00d4 0E       		.uleb128 0xe
 4233 00d5 3A       		.uleb128 0x3a
 4234 00d6 0B       		.uleb128 0xb
 4235 00d7 3B       		.uleb128 0x3b
 4236 00d8 05       		.uleb128 0x5
 4237 00d9 27       		.uleb128 0x27
 4238 00da 19       		.uleb128 0x19
 4239 00db 49       		.uleb128 0x49
 4240 00dc 13       		.uleb128 0x13
 4241 00dd 11       		.uleb128 0x11
 4242 00de 01       		.uleb128 0x1
ARM GAS  C:\Users\Ray\AppData\Local\Temp\ccn7U9Aq.s 			page 117


 4243 00df 12       		.uleb128 0x12
 4244 00e0 06       		.uleb128 0x6
 4245 00e1 40       		.uleb128 0x40
 4246 00e2 18       		.uleb128 0x18
 4247 00e3 9742     		.uleb128 0x2117
 4248 00e5 19       		.uleb128 0x19
 4249 00e6 00       		.byte	0
 4250 00e7 00       		.byte	0
 4251 00e8 11       		.uleb128 0x11
 4252 00e9 2E       		.uleb128 0x2e
 4253 00ea 01       		.byte	0x1
 4254 00eb 3F       		.uleb128 0x3f
 4255 00ec 19       		.uleb128 0x19
 4256 00ed 03       		.uleb128 0x3
 4257 00ee 0E       		.uleb128 0xe
 4258 00ef 3A       		.uleb128 0x3a
 4259 00f0 0B       		.uleb128 0xb
 4260 00f1 3B       		.uleb128 0x3b
 4261 00f2 05       		.uleb128 0x5
 4262 00f3 27       		.uleb128 0x27
 4263 00f4 19       		.uleb128 0x19
 4264 00f5 49       		.uleb128 0x49
 4265 00f6 13       		.uleb128 0x13
 4266 00f7 11       		.uleb128 0x11
 4267 00f8 01       		.uleb128 0x1
 4268 00f9 12       		.uleb128 0x12
 4269 00fa 06       		.uleb128 0x6
 4270 00fb 40       		.uleb128 0x40
 4271 00fc 18       		.uleb128 0x18
 4272 00fd 9742     		.uleb128 0x2117
 4273 00ff 19       		.uleb128 0x19
 4274 0100 01       		.uleb128 0x1
 4275 0101 13       		.uleb128 0x13
 4276 0102 00       		.byte	0
 4277 0103 00       		.byte	0
 4278 0104 12       		.uleb128 0x12
 4279 0105 05       		.uleb128 0x5
 4280 0106 00       		.byte	0
 4281 0107 03       		.uleb128 0x3
 4282 0108 0E       		.uleb128 0xe
 4283 0109 3A       		.uleb128 0x3a
 4284 010a 0B       		.uleb128 0xb
 4285 010b 3B       		.uleb128 0x3b
 4286 010c 05       		.uleb128 0x5
 4287 010d 49       		.uleb128 0x49
 4288 010e 13       		.uleb128 0x13
 4289 010f 02       		.uleb128 0x2
 4290 0110 17       		.uleb128 0x17
 4291 0111 00       		.byte	0
 4292 0112 00       		.byte	0
 4293 0113 13       		.uleb128 0x13
 4294 0114 05       		.uleb128 0x5
 4295 0115 00       		.byte	0
 4296 0116 03       		.uleb128 0x3
 4297 0117 0E       		.uleb128 0xe
 4298 0118 3A       		.uleb128 0x3a
 4299 0119 0B       		.uleb128 0xb
ARM GAS  C:\Users\Ray\AppData\Local\Temp\ccn7U9Aq.s 			page 118


 4300 011a 3B       		.uleb128 0x3b
 4301 011b 05       		.uleb128 0x5
 4302 011c 49       		.uleb128 0x49
 4303 011d 13       		.uleb128 0x13
 4304 011e 02       		.uleb128 0x2
 4305 011f 18       		.uleb128 0x18
 4306 0120 00       		.byte	0
 4307 0121 00       		.byte	0
 4308 0122 14       		.uleb128 0x14
 4309 0123 34       		.uleb128 0x34
 4310 0124 00       		.byte	0
 4311 0125 03       		.uleb128 0x3
 4312 0126 0E       		.uleb128 0xe
 4313 0127 3A       		.uleb128 0x3a
 4314 0128 0B       		.uleb128 0xb
 4315 0129 3B       		.uleb128 0x3b
 4316 012a 05       		.uleb128 0x5
 4317 012b 49       		.uleb128 0x49
 4318 012c 13       		.uleb128 0x13
 4319 012d 02       		.uleb128 0x2
 4320 012e 18       		.uleb128 0x18
 4321 012f 00       		.byte	0
 4322 0130 00       		.byte	0
 4323 0131 15       		.uleb128 0x15
 4324 0132 34       		.uleb128 0x34
 4325 0133 00       		.byte	0
 4326 0134 03       		.uleb128 0x3
 4327 0135 0E       		.uleb128 0xe
 4328 0136 3A       		.uleb128 0x3a
 4329 0137 0B       		.uleb128 0xb
 4330 0138 3B       		.uleb128 0x3b
 4331 0139 0B       		.uleb128 0xb
 4332 013a 49       		.uleb128 0x49
 4333 013b 13       		.uleb128 0x13
 4334 013c 3F       		.uleb128 0x3f
 4335 013d 19       		.uleb128 0x19
 4336 013e 02       		.uleb128 0x2
 4337 013f 18       		.uleb128 0x18
 4338 0140 00       		.byte	0
 4339 0141 00       		.byte	0
 4340 0142 16       		.uleb128 0x16
 4341 0143 01       		.uleb128 0x1
 4342 0144 01       		.byte	0x1
 4343 0145 49       		.uleb128 0x49
 4344 0146 13       		.uleb128 0x13
 4345 0147 01       		.uleb128 0x1
 4346 0148 13       		.uleb128 0x13
 4347 0149 00       		.byte	0
 4348 014a 00       		.byte	0
 4349 014b 17       		.uleb128 0x17
 4350 014c 21       		.uleb128 0x21
 4351 014d 00       		.byte	0
 4352 014e 49       		.uleb128 0x49
 4353 014f 13       		.uleb128 0x13
 4354 0150 2F       		.uleb128 0x2f
 4355 0151 0B       		.uleb128 0xb
 4356 0152 00       		.byte	0
ARM GAS  C:\Users\Ray\AppData\Local\Temp\ccn7U9Aq.s 			page 119


 4357 0153 00       		.byte	0
 4358 0154 18       		.uleb128 0x18
 4359 0155 34       		.uleb128 0x34
 4360 0156 00       		.byte	0
 4361 0157 03       		.uleb128 0x3
 4362 0158 0E       		.uleb128 0xe
 4363 0159 3A       		.uleb128 0x3a
 4364 015a 0B       		.uleb128 0xb
 4365 015b 3B       		.uleb128 0x3b
 4366 015c 05       		.uleb128 0x5
 4367 015d 49       		.uleb128 0x49
 4368 015e 13       		.uleb128 0x13
 4369 015f 3F       		.uleb128 0x3f
 4370 0160 19       		.uleb128 0x19
 4371 0161 3C       		.uleb128 0x3c
 4372 0162 19       		.uleb128 0x19
 4373 0163 00       		.byte	0
 4374 0164 00       		.byte	0
 4375 0165 19       		.uleb128 0x19
 4376 0166 2E       		.uleb128 0x2e
 4377 0167 00       		.byte	0
 4378 0168 3F       		.uleb128 0x3f
 4379 0169 19       		.uleb128 0x19
 4380 016a 3C       		.uleb128 0x3c
 4381 016b 19       		.uleb128 0x19
 4382 016c 6E       		.uleb128 0x6e
 4383 016d 0E       		.uleb128 0xe
 4384 016e 03       		.uleb128 0x3
 4385 016f 0E       		.uleb128 0xe
 4386 0170 3A       		.uleb128 0x3a
 4387 0171 0B       		.uleb128 0xb
 4388 0172 3B       		.uleb128 0x3b
 4389 0173 0B       		.uleb128 0xb
 4390 0174 00       		.byte	0
 4391 0175 00       		.byte	0
 4392 0176 1A       		.uleb128 0x1a
 4393 0177 2E       		.uleb128 0x2e
 4394 0178 00       		.byte	0
 4395 0179 3F       		.uleb128 0x3f
 4396 017a 19       		.uleb128 0x19
 4397 017b 3C       		.uleb128 0x3c
 4398 017c 19       		.uleb128 0x19
 4399 017d 6E       		.uleb128 0x6e
 4400 017e 0E       		.uleb128 0xe
 4401 017f 03       		.uleb128 0x3
 4402 0180 0E       		.uleb128 0xe
 4403 0181 3A       		.uleb128 0x3a
 4404 0182 0B       		.uleb128 0xb
 4405 0183 3B       		.uleb128 0x3b
 4406 0184 05       		.uleb128 0x5
 4407 0185 00       		.byte	0
 4408 0186 00       		.byte	0
 4409 0187 00       		.byte	0
 4410              		.section	.debug_loc,"",%progbits
 4411              	.Ldebug_loc0:
 4412              	.LLST0:
 4413 0000 0C000000 		.4byte	.LVL0
ARM GAS  C:\Users\Ray\AppData\Local\Temp\ccn7U9Aq.s 			page 120


 4414 0004 10000000 		.4byte	.LVL1
 4415 0008 0100     		.2byte	0x1
 4416 000a 53       		.byte	0x53
 4417 000b 12000000 		.4byte	.LVL2
 4418 000f 1C000000 		.4byte	.LVL3
 4419 0013 0100     		.2byte	0x1
 4420 0015 51       		.byte	0x51
 4421 0016 1C000000 		.4byte	.LVL3
 4422 001a 2C000000 		.4byte	.LVL6
 4423 001e 0100     		.2byte	0x1
 4424 0020 53       		.byte	0x53
 4425 0021 2C000000 		.4byte	.LVL6
 4426 0025 2E000000 		.4byte	.LVL7
 4427 0029 0200     		.2byte	0x2
 4428 002b 70       		.byte	0x70
 4429 002c 00       		.sleb128 0
 4430 002d 38000000 		.4byte	.LVL8
 4431 0031 3C000000 		.4byte	.LVL9
 4432 0035 0100     		.2byte	0x1
 4433 0037 51       		.byte	0x51
 4434 0038 3C000000 		.4byte	.LVL9
 4435 003c 49000000 		.4byte	.LVL11-1
 4436 0040 0100     		.2byte	0x1
 4437 0042 53       		.byte	0x53
 4438 0043 00000000 		.4byte	0
 4439 0047 00000000 		.4byte	0
 4440              	.LLST1:
 4441 004b 26000000 		.4byte	.LVL20
 4442 004f 31000000 		.4byte	.LVL22-1
 4443 0053 0100     		.2byte	0x1
 4444 0055 53       		.byte	0x53
 4445 0056 00000000 		.4byte	0
 4446 005a 00000000 		.4byte	0
 4447              	.LLST2:
 4448 005e 00000000 		.4byte	.LVL26
 4449 0062 02000000 		.4byte	.LVL27
 4450 0066 0100     		.2byte	0x1
 4451 0068 50       		.byte	0x50
 4452 0069 02000000 		.4byte	.LVL27
 4453 006d 10000000 		.4byte	.LFE42
 4454 0071 0400     		.2byte	0x4
 4455 0073 F3       		.byte	0xf3
 4456 0074 01       		.uleb128 0x1
 4457 0075 50       		.byte	0x50
 4458 0076 9F       		.byte	0x9f
 4459 0077 00000000 		.4byte	0
 4460 007b 00000000 		.4byte	0
 4461              	.LLST3:
 4462 007f 00000000 		.4byte	.LVL28
 4463 0083 02000000 		.4byte	.LVL29
 4464 0087 0100     		.2byte	0x1
 4465 0089 50       		.byte	0x50
 4466 008a 02000000 		.4byte	.LVL29
 4467 008e 10000000 		.4byte	.LFE43
 4468 0092 0400     		.2byte	0x4
 4469 0094 F3       		.byte	0xf3
 4470 0095 01       		.uleb128 0x1
ARM GAS  C:\Users\Ray\AppData\Local\Temp\ccn7U9Aq.s 			page 121


 4471 0096 50       		.byte	0x50
 4472 0097 9F       		.byte	0x9f
 4473 0098 00000000 		.4byte	0
 4474 009c 00000000 		.4byte	0
 4475              	.LLST4:
 4476 00a0 00000000 		.4byte	.LVL30
 4477 00a4 02000000 		.4byte	.LVL31
 4478 00a8 0100     		.2byte	0x1
 4479 00aa 50       		.byte	0x50
 4480 00ab 02000000 		.4byte	.LVL31
 4481 00af 0C000000 		.4byte	.LFE44
 4482 00b3 0400     		.2byte	0x4
 4483 00b5 F3       		.byte	0xf3
 4484 00b6 01       		.uleb128 0x1
 4485 00b7 50       		.byte	0x50
 4486 00b8 9F       		.byte	0x9f
 4487 00b9 00000000 		.4byte	0
 4488 00bd 00000000 		.4byte	0
 4489              	.LLST5:
 4490 00c1 00000000 		.4byte	.LVL32
 4491 00c5 02000000 		.4byte	.LVL33
 4492 00c9 0100     		.2byte	0x1
 4493 00cb 50       		.byte	0x50
 4494 00cc 02000000 		.4byte	.LVL33
 4495 00d0 0C000000 		.4byte	.LFE45
 4496 00d4 0400     		.2byte	0x4
 4497 00d6 F3       		.byte	0xf3
 4498 00d7 01       		.uleb128 0x1
 4499 00d8 50       		.byte	0x50
 4500 00d9 9F       		.byte	0x9f
 4501 00da 00000000 		.4byte	0
 4502 00de 00000000 		.4byte	0
 4503              	.LLST6:
 4504 00e2 00000000 		.4byte	.LVL34
 4505 00e6 08000000 		.4byte	.LVL36
 4506 00ea 0100     		.2byte	0x1
 4507 00ec 50       		.byte	0x50
 4508 00ed 08000000 		.4byte	.LVL36
 4509 00f1 48000000 		.4byte	.LFE47
 4510 00f5 0400     		.2byte	0x4
 4511 00f7 F3       		.byte	0xf3
 4512 00f8 01       		.uleb128 0x1
 4513 00f9 50       		.byte	0x50
 4514 00fa 9F       		.byte	0x9f
 4515 00fb 00000000 		.4byte	0
 4516 00ff 00000000 		.4byte	0
 4517              	.LLST7:
 4518 0103 10000000 		.4byte	.LVL37
 4519 0107 40000000 		.4byte	.LVL47
 4520 010b 0100     		.2byte	0x1
 4521 010d 55       		.byte	0x55
 4522 010e 40000000 		.4byte	.LVL47
 4523 0112 40000000 		.4byte	.LVL48
 4524 0116 1E00     		.2byte	0x1e
 4525 0118 77       		.byte	0x77
 4526 0119 00       		.sleb128 0
 4527 011a F3       		.byte	0xf3
ARM GAS  C:\Users\Ray\AppData\Local\Temp\ccn7U9Aq.s 			page 122


 4528 011b 01       		.uleb128 0x1
 4529 011c 50       		.byte	0x50
 4530 011d 22       		.byte	0x22
 4531 011e 23       		.byte	0x23
 4532 011f 04       		.uleb128 0x4
 4533 0120 94       		.byte	0x94
 4534 0121 01       		.byte	0x1
 4535 0122 08       		.byte	0x8
 4536 0123 FF       		.byte	0xff
 4537 0124 1A       		.byte	0x1a
 4538 0125 31       		.byte	0x31
 4539 0126 24       		.byte	0x24
 4540 0127 77       		.byte	0x77
 4541 0128 00       		.sleb128 0
 4542 0129 F3       		.byte	0xf3
 4543 012a 01       		.uleb128 0x1
 4544 012b 50       		.byte	0x50
 4545 012c 22       		.byte	0x22
 4546 012d 23       		.byte	0x23
 4547 012e 04       		.uleb128 0x4
 4548 012f 94       		.byte	0x94
 4549 0130 01       		.byte	0x1
 4550 0131 08       		.byte	0x8
 4551 0132 FF       		.byte	0xff
 4552 0133 1A       		.byte	0x1a
 4553 0134 22       		.byte	0x22
 4554 0135 9F       		.byte	0x9f
 4555 0136 40000000 		.4byte	.LVL48
 4556 013a 48000000 		.4byte	.LFE47
 4557 013e 2000     		.2byte	0x20
 4558 0140 F3       		.byte	0xf3
 4559 0141 01       		.uleb128 0x1
 4560 0142 50       		.byte	0x50
 4561 0143 03       		.byte	0x3
 4562 0144 04000000 		.4byte	.LANCHOR2+4
 4563 0148 22       		.byte	0x22
 4564 0149 94       		.byte	0x94
 4565 014a 01       		.byte	0x1
 4566 014b 08       		.byte	0x8
 4567 014c FF       		.byte	0xff
 4568 014d 1A       		.byte	0x1a
 4569 014e 31       		.byte	0x31
 4570 014f 24       		.byte	0x24
 4571 0150 F3       		.byte	0xf3
 4572 0151 01       		.uleb128 0x1
 4573 0152 50       		.byte	0x50
 4574 0153 03       		.byte	0x3
 4575 0154 04000000 		.4byte	.LANCHOR2+4
 4576 0158 22       		.byte	0x22
 4577 0159 94       		.byte	0x94
 4578 015a 01       		.byte	0x1
 4579 015b 08       		.byte	0x8
 4580 015c FF       		.byte	0xff
 4581 015d 1A       		.byte	0x1a
 4582 015e 22       		.byte	0x22
 4583 015f 9F       		.byte	0x9f
 4584 0160 00000000 		.4byte	0
ARM GAS  C:\Users\Ray\AppData\Local\Temp\ccn7U9Aq.s 			page 123


 4585 0164 00000000 		.4byte	0
 4586              	.LLST8:
 4587 0168 14000000 		.4byte	.LVL38
 4588 016c 30000000 		.4byte	.LVL45
 4589 0170 0100     		.2byte	0x1
 4590 0172 54       		.byte	0x54
 4591 0173 30000000 		.4byte	.LVL45
 4592 0177 40000000 		.4byte	.LVL48
 4593 017b 0D00     		.2byte	0xd
 4594 017d 77       		.byte	0x77
 4595 017e 00       		.sleb128 0
 4596 017f F3       		.byte	0xf3
 4597 0180 01       		.uleb128 0x1
 4598 0181 50       		.byte	0x50
 4599 0182 22       		.byte	0x22
 4600 0183 23       		.byte	0x23
 4601 0184 04       		.uleb128 0x4
 4602 0185 94       		.byte	0x94
 4603 0186 01       		.byte	0x1
 4604 0187 32       		.byte	0x32
 4605 0188 24       		.byte	0x24
 4606 0189 9F       		.byte	0x9f
 4607 018a 40000000 		.4byte	.LVL48
 4608 018e 48000000 		.4byte	.LFE47
 4609 0192 0E00     		.2byte	0xe
 4610 0194 F3       		.byte	0xf3
 4611 0195 01       		.uleb128 0x1
 4612 0196 50       		.byte	0x50
 4613 0197 03       		.byte	0x3
 4614 0198 04000000 		.4byte	.LANCHOR2+4
 4615 019c 22       		.byte	0x22
 4616 019d 94       		.byte	0x94
 4617 019e 01       		.byte	0x1
 4618 019f 32       		.byte	0x32
 4619 01a0 24       		.byte	0x24
 4620 01a1 9F       		.byte	0x9f
 4621 01a2 00000000 		.4byte	0
 4622 01a6 00000000 		.4byte	0
 4623              	.LLST9:
 4624 01aa 18000000 		.4byte	.LVL39
 4625 01ae 3F000000 		.4byte	.LVL46-1
 4626 01b2 0100     		.2byte	0x1
 4627 01b4 50       		.byte	0x50
 4628 01b5 00000000 		.4byte	0
 4629 01b9 00000000 		.4byte	0
 4630              	.LLST10:
 4631 01bd 20000000 		.4byte	.LVL41
 4632 01c1 26000000 		.4byte	.LVL42
 4633 01c5 0100     		.2byte	0x1
 4634 01c7 52       		.byte	0x52
 4635 01c8 28000000 		.4byte	.LVL43
 4636 01cc 2E000000 		.4byte	.LVL44
 4637 01d0 0100     		.2byte	0x1
 4638 01d2 51       		.byte	0x51
 4639 01d3 2E000000 		.4byte	.LVL44
 4640 01d7 3F000000 		.4byte	.LVL46-1
 4641 01db 0100     		.2byte	0x1
ARM GAS  C:\Users\Ray\AppData\Local\Temp\ccn7U9Aq.s 			page 124


 4642 01dd 52       		.byte	0x52
 4643 01de 00000000 		.4byte	0
 4644 01e2 00000000 		.4byte	0
 4645              	.LLST11:
 4646 01e6 06000000 		.4byte	.LVL35
 4647 01ea 1E000000 		.4byte	.LVL40
 4648 01ee 0100     		.2byte	0x1
 4649 01f0 56       		.byte	0x56
 4650 01f1 1E000000 		.4byte	.LVL40
 4651 01f5 40000000 		.4byte	.LVL48
 4652 01f9 0C00     		.2byte	0xc
 4653 01fb 77       		.byte	0x77
 4654 01fc 00       		.sleb128 0
 4655 01fd F3       		.byte	0xf3
 4656 01fe 01       		.uleb128 0x1
 4657 01ff 50       		.byte	0x50
 4658 0200 22       		.byte	0x22
 4659 0201 94       		.byte	0x94
 4660 0202 01       		.byte	0x1
 4661 0203 08       		.byte	0x8
 4662 0204 FF       		.byte	0xff
 4663 0205 1A       		.byte	0x1a
 4664 0206 9F       		.byte	0x9f
 4665 0207 40000000 		.4byte	.LVL48
 4666 020b 48000000 		.4byte	.LFE47
 4667 020f 0F00     		.2byte	0xf
 4668 0211 F3       		.byte	0xf3
 4669 0212 01       		.uleb128 0x1
 4670 0213 50       		.byte	0x50
 4671 0214 03       		.byte	0x3
 4672 0215 00000000 		.4byte	.LANCHOR2
 4673 0219 22       		.byte	0x22
 4674 021a 94       		.byte	0x94
 4675 021b 01       		.byte	0x1
 4676 021c 08       		.byte	0x8
 4677 021d FF       		.byte	0xff
 4678 021e 1A       		.byte	0x1a
 4679 021f 9F       		.byte	0x9f
 4680 0220 00000000 		.4byte	0
 4681 0224 00000000 		.4byte	0
 4682              	.LLST12:
 4683 0228 00000000 		.4byte	.LVL49
 4684 022c 18000000 		.4byte	.LVL53
 4685 0230 0100     		.2byte	0x1
 4686 0232 50       		.byte	0x50
 4687 0233 18000000 		.4byte	.LVL53
 4688 0237 70000000 		.4byte	.LFE48
 4689 023b 0400     		.2byte	0x4
 4690 023d F3       		.byte	0xf3
 4691 023e 01       		.uleb128 0x1
 4692 023f 50       		.byte	0x50
 4693 0240 9F       		.byte	0x9f
 4694 0241 00000000 		.4byte	0
 4695 0245 00000000 		.4byte	0
 4696              	.LLST13:
 4697 0249 3C000000 		.4byte	.LVL56
 4698 024d 59000000 		.4byte	.LVL63-1
ARM GAS  C:\Users\Ray\AppData\Local\Temp\ccn7U9Aq.s 			page 125


 4699 0251 0100     		.2byte	0x1
 4700 0253 50       		.byte	0x50
 4701 0254 00000000 		.4byte	0
 4702 0258 00000000 		.4byte	0
 4703              	.LLST14:
 4704 025c 46000000 		.4byte	.LVL59
 4705 0260 4C000000 		.4byte	.LVL60
 4706 0264 0100     		.2byte	0x1
 4707 0266 53       		.byte	0x53
 4708 0267 4E000000 		.4byte	.LVL61
 4709 026b 54000000 		.4byte	.LVL62
 4710 026f 0100     		.2byte	0x1
 4711 0271 52       		.byte	0x52
 4712 0272 54000000 		.4byte	.LVL62
 4713 0276 59000000 		.4byte	.LVL63-1
 4714 027a 0100     		.2byte	0x1
 4715 027c 53       		.byte	0x53
 4716 027d 00000000 		.4byte	0
 4717 0281 00000000 		.4byte	0
 4718              	.LLST15:
 4719 0285 06000000 		.4byte	.LVL50
 4720 0289 3E000000 		.4byte	.LVL57
 4721 028d 0100     		.2byte	0x1
 4722 028f 54       		.byte	0x54
 4723 0290 3E000000 		.4byte	.LVL57
 4724 0294 40000000 		.4byte	.LVL58
 4725 0298 0F00     		.2byte	0xf
 4726 029a F3       		.byte	0xf3
 4727 029b 01       		.uleb128 0x1
 4728 029c 50       		.byte	0x50
 4729 029d 03       		.byte	0x3
 4730 029e 00000000 		.4byte	.LANCHOR2
 4731 02a2 22       		.byte	0x22
 4732 02a3 94       		.byte	0x94
 4733 02a4 01       		.byte	0x1
 4734 02a5 08       		.byte	0x8
 4735 02a6 FF       		.byte	0xff
 4736 02a7 1A       		.byte	0x1a
 4737 02a8 9F       		.byte	0x9f
 4738 02a9 40000000 		.4byte	.LVL58
 4739 02ad 46000000 		.4byte	.LVL59
 4740 02b1 0C00     		.2byte	0xc
 4741 02b3 73       		.byte	0x73
 4742 02b4 00       		.sleb128 0
 4743 02b5 F3       		.byte	0xf3
 4744 02b6 01       		.uleb128 0x1
 4745 02b7 50       		.byte	0x50
 4746 02b8 22       		.byte	0x22
 4747 02b9 94       		.byte	0x94
 4748 02ba 01       		.byte	0x1
 4749 02bb 08       		.byte	0x8
 4750 02bc FF       		.byte	0xff
 4751 02bd 1A       		.byte	0x1a
 4752 02be 9F       		.byte	0x9f
 4753 02bf 46000000 		.4byte	.LVL59
 4754 02c3 70000000 		.4byte	.LFE48
 4755 02c7 0F00     		.2byte	0xf
ARM GAS  C:\Users\Ray\AppData\Local\Temp\ccn7U9Aq.s 			page 126


 4756 02c9 F3       		.byte	0xf3
 4757 02ca 01       		.uleb128 0x1
 4758 02cb 50       		.byte	0x50
 4759 02cc 03       		.byte	0x3
 4760 02cd 00000000 		.4byte	.LANCHOR2
 4761 02d1 22       		.byte	0x22
 4762 02d2 94       		.byte	0x94
 4763 02d3 01       		.byte	0x1
 4764 02d4 08       		.byte	0x8
 4765 02d5 FF       		.byte	0xff
 4766 02d6 1A       		.byte	0x1a
 4767 02d7 9F       		.byte	0x9f
 4768 02d8 00000000 		.4byte	0
 4769 02dc 00000000 		.4byte	0
 4770              	.LLST16:
 4771 02e0 0E000000 		.4byte	.LVL51
 4772 02e4 3B000000 		.4byte	.LVL56-1
 4773 02e8 0100     		.2byte	0x1
 4774 02ea 51       		.byte	0x51
 4775 02eb 3B000000 		.4byte	.LVL56-1
 4776 02ef 66000000 		.4byte	.LVL66
 4777 02f3 0500     		.2byte	0x5
 4778 02f5 77       		.byte	0x77
 4779 02f6 00       		.sleb128 0
 4780 02f7 32       		.byte	0x32
 4781 02f8 24       		.byte	0x24
 4782 02f9 9F       		.byte	0x9f
 4783 02fa 66000000 		.4byte	.LVL66
 4784 02fe 70000000 		.4byte	.LFE48
 4785 0302 0E00     		.2byte	0xe
 4786 0304 F3       		.byte	0xf3
 4787 0305 01       		.uleb128 0x1
 4788 0306 50       		.byte	0x50
 4789 0307 03       		.byte	0x3
 4790 0308 04000000 		.4byte	.LANCHOR2+4
 4791 030c 22       		.byte	0x22
 4792 030d 94       		.byte	0x94
 4793 030e 01       		.byte	0x1
 4794 030f 32       		.byte	0x32
 4795 0310 24       		.byte	0x24
 4796 0311 9F       		.byte	0x9f
 4797 0312 00000000 		.4byte	0
 4798 0316 00000000 		.4byte	0
 4799              	.LLST17:
 4800 031a 14000000 		.4byte	.LVL52
 4801 031e 66000000 		.4byte	.LVL64
 4802 0322 0100     		.2byte	0x1
 4803 0324 55       		.byte	0x55
 4804 0325 66000000 		.4byte	.LVL64
 4805 0329 66000000 		.4byte	.LVL66
 4806 032d 0800     		.2byte	0x8
 4807 032f 77       		.byte	0x77
 4808 0330 00       		.sleb128 0
 4809 0331 31       		.byte	0x31
 4810 0332 24       		.byte	0x24
 4811 0333 77       		.byte	0x77
 4812 0334 00       		.sleb128 0
ARM GAS  C:\Users\Ray\AppData\Local\Temp\ccn7U9Aq.s 			page 127


 4813 0335 22       		.byte	0x22
 4814 0336 9F       		.byte	0x9f
 4815 0337 66000000 		.4byte	.LVL66
 4816 033b 70000000 		.4byte	.LFE48
 4817 033f 2000     		.2byte	0x20
 4818 0341 F3       		.byte	0xf3
 4819 0342 01       		.uleb128 0x1
 4820 0343 50       		.byte	0x50
 4821 0344 03       		.byte	0x3
 4822 0345 04000000 		.4byte	.LANCHOR2+4
 4823 0349 22       		.byte	0x22
 4824 034a 94       		.byte	0x94
 4825 034b 01       		.byte	0x1
 4826 034c 08       		.byte	0x8
 4827 034d FF       		.byte	0xff
 4828 034e 1A       		.byte	0x1a
 4829 034f 31       		.byte	0x31
 4830 0350 24       		.byte	0x24
 4831 0351 F3       		.byte	0xf3
 4832 0352 01       		.uleb128 0x1
 4833 0353 50       		.byte	0x50
 4834 0354 03       		.byte	0x3
 4835 0355 04000000 		.4byte	.LANCHOR2+4
 4836 0359 22       		.byte	0x22
 4837 035a 94       		.byte	0x94
 4838 035b 01       		.byte	0x1
 4839 035c 08       		.byte	0x8
 4840 035d FF       		.byte	0xff
 4841 035e 1A       		.byte	0x1a
 4842 035f 22       		.byte	0x22
 4843 0360 9F       		.byte	0x9f
 4844 0361 00000000 		.4byte	0
 4845 0365 00000000 		.4byte	0
 4846              	.LLST18:
 4847 0369 14000000 		.4byte	.LVL52
 4848 036d 38000000 		.4byte	.LVL55
 4849 0371 0200     		.2byte	0x2
 4850 0373 30       		.byte	0x30
 4851 0374 9F       		.byte	0x9f
 4852 0375 38000000 		.4byte	.LVL55
 4853 0379 66000000 		.4byte	.LVL65
 4854 037d 0100     		.2byte	0x1
 4855 037f 56       		.byte	0x56
 4856 0380 00000000 		.4byte	0
 4857 0384 00000000 		.4byte	0
 4858              	.LLST19:
 4859 0388 18000000 		.4byte	.LVL53
 4860 038c 3B000000 		.4byte	.LVL56-1
 4861 0390 0100     		.2byte	0x1
 4862 0392 50       		.byte	0x50
 4863 0393 00000000 		.4byte	0
 4864 0397 00000000 		.4byte	0
 4865              	.LLST20:
 4866 039b 02000000 		.4byte	.LVL67
 4867 039f 06000000 		.4byte	.LVL68
 4868 03a3 0200     		.2byte	0x2
 4869 03a5 30       		.byte	0x30
ARM GAS  C:\Users\Ray\AppData\Local\Temp\ccn7U9Aq.s 			page 128


 4870 03a6 9F       		.byte	0x9f
 4871 03a7 06000000 		.4byte	.LVL68
 4872 03ab 12000000 		.4byte	.LVL71
 4873 03af 0100     		.2byte	0x1
 4874 03b1 54       		.byte	0x54
 4875 03b2 00000000 		.4byte	0
 4876 03b6 00000000 		.4byte	0
 4877              	.LLST21:
 4878 03ba 00000000 		.4byte	.LVL72
 4879 03be 18000000 		.4byte	.LVL77
 4880 03c2 0100     		.2byte	0x1
 4881 03c4 50       		.byte	0x50
 4882 03c5 18000000 		.4byte	.LVL77
 4883 03c9 24000000 		.4byte	.LFE51
 4884 03cd 0400     		.2byte	0x4
 4885 03cf F3       		.byte	0xf3
 4886 03d0 01       		.uleb128 0x1
 4887 03d1 50       		.byte	0x50
 4888 03d2 9F       		.byte	0x9f
 4889 03d3 00000000 		.4byte	0
 4890 03d7 00000000 		.4byte	0
 4891              	.LLST22:
 4892 03db 00000000 		.4byte	.LVL72
 4893 03df 06000000 		.4byte	.LVL73
 4894 03e3 0100     		.2byte	0x1
 4895 03e5 51       		.byte	0x51
 4896 03e6 06000000 		.4byte	.LVL73
 4897 03ea 24000000 		.4byte	.LFE51
 4898 03ee 0400     		.2byte	0x4
 4899 03f0 F3       		.byte	0xf3
 4900 03f1 01       		.uleb128 0x1
 4901 03f2 51       		.byte	0x51
 4902 03f3 9F       		.byte	0x9f
 4903 03f4 00000000 		.4byte	0
 4904 03f8 00000000 		.4byte	0
 4905              	.LLST23:
 4906 03fc 00000000 		.4byte	.LVL72
 4907 0400 08000000 		.4byte	.LVL74
 4908 0404 0100     		.2byte	0x1
 4909 0406 52       		.byte	0x52
 4910 0407 08000000 		.4byte	.LVL74
 4911 040b 24000000 		.4byte	.LFE51
 4912 040f 0400     		.2byte	0x4
 4913 0411 F3       		.byte	0xf3
 4914 0412 01       		.uleb128 0x1
 4915 0413 52       		.byte	0x52
 4916 0414 9F       		.byte	0x9f
 4917 0415 00000000 		.4byte	0
 4918 0419 00000000 		.4byte	0
 4919              	.LLST24:
 4920 041d 10000000 		.4byte	.LVL75
 4921 0421 1A000000 		.4byte	.LVL78
 4922 0425 0100     		.2byte	0x1
 4923 0427 53       		.byte	0x53
 4924 0428 1A000000 		.4byte	.LVL78
 4925 042c 24000000 		.4byte	.LFE51
 4926 0430 0100     		.2byte	0x1
ARM GAS  C:\Users\Ray\AppData\Local\Temp\ccn7U9Aq.s 			page 129


 4927 0432 50       		.byte	0x50
 4928 0433 00000000 		.4byte	0
 4929 0437 00000000 		.4byte	0
 4930              	.LLST25:
 4931 043b 00000000 		.4byte	.LVL79
 4932 043f 08000000 		.4byte	.LVL81
 4933 0443 0100     		.2byte	0x1
 4934 0445 50       		.byte	0x50
 4935 0446 08000000 		.4byte	.LVL81
 4936 044a 28000000 		.4byte	.LVL89
 4937 044e 0100     		.2byte	0x1
 4938 0450 55       		.byte	0x55
 4939 0451 28000000 		.4byte	.LVL89
 4940 0455 30000000 		.4byte	.LFE49
 4941 0459 0400     		.2byte	0x4
 4942 045b F3       		.byte	0xf3
 4943 045c 01       		.uleb128 0x1
 4944 045d 50       		.byte	0x50
 4945 045e 9F       		.byte	0x9f
 4946 045f 00000000 		.4byte	0
 4947 0463 00000000 		.4byte	0
 4948              	.LLST26:
 4949 0467 04000000 		.4byte	.LVL80
 4950 046b 08000000 		.4byte	.LVL81
 4951 046f 0200     		.2byte	0x2
 4952 0471 30       		.byte	0x30
 4953 0472 9F       		.byte	0x9f
 4954 0473 08000000 		.4byte	.LVL81
 4955 0477 18000000 		.4byte	.LVL85
 4956 047b 0100     		.2byte	0x1
 4957 047d 54       		.byte	0x54
 4958 047e 1A000000 		.4byte	.LVL86
 4959 0482 28000000 		.4byte	.LVL88
 4960 0486 0100     		.2byte	0x1
 4961 0488 54       		.byte	0x54
 4962 0489 00000000 		.4byte	0
 4963 048d 00000000 		.4byte	0
 4964              	.LLST27:
 4965 0491 0C000000 		.4byte	.LVL82
 4966 0495 15000000 		.4byte	.LVL84-1
 4967 0499 0100     		.2byte	0x1
 4968 049b 52       		.byte	0x52
 4969 049c 15000000 		.4byte	.LVL84-1
 4970 04a0 18000000 		.4byte	.LVL85
 4971 04a4 0E00     		.2byte	0xe
 4972 04a6 74       		.byte	0x74
 4973 04a7 00       		.sleb128 0
 4974 04a8 03       		.byte	0x3
 4975 04a9 00000000 		.4byte	.LANCHOR2
 4976 04ad 22       		.byte	0x22
 4977 04ae 94       		.byte	0x94
 4978 04af 01       		.byte	0x1
 4979 04b0 08       		.byte	0x8
 4980 04b1 FF       		.byte	0xff
 4981 04b2 1A       		.byte	0x1a
 4982 04b3 9F       		.byte	0x9f
 4983 04b4 18000000 		.4byte	.LVL85
ARM GAS  C:\Users\Ray\AppData\Local\Temp\ccn7U9Aq.s 			page 130


 4984 04b8 1A000000 		.4byte	.LVL86
 4985 04bc 0E00     		.2byte	0xe
 4986 04be 74       		.byte	0x74
 4987 04bf 00       		.sleb128 0
 4988 04c0 03       		.byte	0x3
 4989 04c1 FFFFFFFF 		.4byte	.LANCHOR2-1
 4990 04c5 22       		.byte	0x22
 4991 04c6 94       		.byte	0x94
 4992 04c7 01       		.byte	0x1
 4993 04c8 08       		.byte	0x8
 4994 04c9 FF       		.byte	0xff
 4995 04ca 1A       		.byte	0x1a
 4996 04cb 9F       		.byte	0x9f
 4997 04cc 00000000 		.4byte	0
 4998 04d0 00000000 		.4byte	0
 4999              	.LLST28:
 5000 04d4 10000000 		.4byte	.LVL83
 5001 04d8 15000000 		.4byte	.LVL84-1
 5002 04dc 0100     		.2byte	0x1
 5003 04de 51       		.byte	0x51
 5004 04df 15000000 		.4byte	.LVL84-1
 5005 04e3 18000000 		.4byte	.LVL85
 5006 04e7 0E00     		.2byte	0xe
 5007 04e9 74       		.byte	0x74
 5008 04ea 00       		.sleb128 0
 5009 04eb 03       		.byte	0x3
 5010 04ec 04000000 		.4byte	.LANCHOR2+4
 5011 04f0 22       		.byte	0x22
 5012 04f1 94       		.byte	0x94
 5013 04f2 01       		.byte	0x1
 5014 04f3 08       		.byte	0x8
 5015 04f4 FF       		.byte	0xff
 5016 04f5 1A       		.byte	0x1a
 5017 04f6 9F       		.byte	0x9f
 5018 04f7 18000000 		.4byte	.LVL85
 5019 04fb 1A000000 		.4byte	.LVL86
 5020 04ff 0E00     		.2byte	0xe
 5021 0501 74       		.byte	0x74
 5022 0502 00       		.sleb128 0
 5023 0503 03       		.byte	0x3
 5024 0504 03000000 		.4byte	.LANCHOR2+3
 5025 0508 22       		.byte	0x22
 5026 0509 94       		.byte	0x94
 5027 050a 01       		.byte	0x1
 5028 050b 08       		.byte	0x8
 5029 050c FF       		.byte	0xff
 5030 050d 1A       		.byte	0x1a
 5031 050e 9F       		.byte	0x9f
 5032 050f 00000000 		.4byte	0
 5033 0513 00000000 		.4byte	0
 5034              	.LLST29:
 5035 0517 0C000000 		.4byte	.LVL91
 5036 051b 10000000 		.4byte	.LVL92
 5037 051f 0100     		.2byte	0x1
 5038 0521 51       		.byte	0x51
 5039 0522 10000000 		.4byte	.LVL92
 5040 0526 24000000 		.4byte	.LFE50
ARM GAS  C:\Users\Ray\AppData\Local\Temp\ccn7U9Aq.s 			page 131


 5041 052a 0100     		.2byte	0x1
 5042 052c 53       		.byte	0x53
 5043 052d 00000000 		.4byte	0
 5044 0531 00000000 		.4byte	0
 5045              	.LLST30:
 5046 0535 00000000 		.4byte	.LVL94
 5047 0539 1E000000 		.4byte	.LVL97
 5048 053d 0100     		.2byte	0x1
 5049 053f 50       		.byte	0x50
 5050 0540 1E000000 		.4byte	.LVL97
 5051 0544 34000000 		.4byte	.LFE54
 5052 0548 0400     		.2byte	0x4
 5053 054a F3       		.byte	0xf3
 5054 054b 01       		.uleb128 0x1
 5055 054c 50       		.byte	0x50
 5056 054d 9F       		.byte	0x9f
 5057 054e 00000000 		.4byte	0
 5058 0552 00000000 		.4byte	0
 5059              	.LLST31:
 5060 0556 00000000 		.4byte	.LVL94
 5061 055a 04000000 		.4byte	.LVL95
 5062 055e 0100     		.2byte	0x1
 5063 0560 51       		.byte	0x51
 5064 0561 04000000 		.4byte	.LVL95
 5065 0565 34000000 		.4byte	.LFE54
 5066 0569 0400     		.2byte	0x4
 5067 056b F3       		.byte	0xf3
 5068 056c 01       		.uleb128 0x1
 5069 056d 51       		.byte	0x51
 5070 056e 9F       		.byte	0x9f
 5071 056f 00000000 		.4byte	0
 5072 0573 00000000 		.4byte	0
 5073              	.LLST32:
 5074 0577 1C000000 		.4byte	.LVL96
 5075 057b 24000000 		.4byte	.LVL98
 5076 057f 0100     		.2byte	0x1
 5077 0581 53       		.byte	0x53
 5078 0582 26000000 		.4byte	.LVL99
 5079 0586 2C000000 		.4byte	.LVL100
 5080 058a 0100     		.2byte	0x1
 5081 058c 52       		.byte	0x52
 5082 058d 2C000000 		.4byte	.LVL100
 5083 0591 34000000 		.4byte	.LFE54
 5084 0595 0100     		.2byte	0x1
 5085 0597 53       		.byte	0x53
 5086 0598 00000000 		.4byte	0
 5087 059c 00000000 		.4byte	0
 5088              	.LLST33:
 5089 05a0 00000000 		.4byte	.LVL101
 5090 05a4 00000000 		.4byte	.LVL101
 5091 05a8 0100     		.2byte	0x1
 5092 05aa 50       		.byte	0x50
 5093 05ab 00000000 		.4byte	.LVL101
 5094 05af 06000000 		.4byte	.LVL103
 5095 05b3 0500     		.2byte	0x5
 5096 05b5 70       		.byte	0x70
 5097 05b6 00       		.sleb128 0
ARM GAS  C:\Users\Ray\AppData\Local\Temp\ccn7U9Aq.s 			page 132


 5098 05b7 33       		.byte	0x33
 5099 05b8 1A       		.byte	0x1a
 5100 05b9 9F       		.byte	0x9f
 5101 05ba 06000000 		.4byte	.LVL103
 5102 05be 18000000 		.4byte	.LFE55
 5103 05c2 0600     		.2byte	0x6
 5104 05c4 F3       		.byte	0xf3
 5105 05c5 01       		.uleb128 0x1
 5106 05c6 50       		.byte	0x50
 5107 05c7 33       		.byte	0x33
 5108 05c8 1A       		.byte	0x1a
 5109 05c9 9F       		.byte	0x9f
 5110 05ca 00000000 		.4byte	0
 5111 05ce 00000000 		.4byte	0
 5112              	.LLST34:
 5113 05d2 04000000 		.4byte	.LVL102
 5114 05d6 0E000000 		.4byte	.LVL104
 5115 05da 0100     		.2byte	0x1
 5116 05dc 51       		.byte	0x51
 5117 05dd 0E000000 		.4byte	.LVL104
 5118 05e1 18000000 		.4byte	.LFE55
 5119 05e5 0100     		.2byte	0x1
 5120 05e7 50       		.byte	0x50
 5121 05e8 00000000 		.4byte	0
 5122 05ec 00000000 		.4byte	0
 5123              	.LLST35:
 5124 05f0 00000000 		.4byte	.LVL105
 5125 05f4 12000000 		.4byte	.LVL110
 5126 05f8 0100     		.2byte	0x1
 5127 05fa 50       		.byte	0x50
 5128 05fb 12000000 		.4byte	.LVL110
 5129 05ff 14000000 		.4byte	.LVL111
 5130 0603 0400     		.2byte	0x4
 5131 0605 F3       		.byte	0xf3
 5132 0606 01       		.uleb128 0x1
 5133 0607 50       		.byte	0x50
 5134 0608 9F       		.byte	0x9f
 5135 0609 14000000 		.4byte	.LVL111
 5136 060d 16000000 		.4byte	.LVL112
 5137 0611 0100     		.2byte	0x1
 5138 0613 50       		.byte	0x50
 5139 0614 16000000 		.4byte	.LVL112
 5140 0618 18000000 		.4byte	.LFE57
 5141 061c 0400     		.2byte	0x4
 5142 061e F3       		.byte	0xf3
 5143 061f 01       		.uleb128 0x1
 5144 0620 50       		.byte	0x50
 5145 0621 9F       		.byte	0x9f
 5146 0622 00000000 		.4byte	0
 5147 0626 00000000 		.4byte	0
 5148              	.LLST36:
 5149 062a 00000000 		.4byte	.LVL105
 5150 062e 06000000 		.4byte	.LVL107
 5151 0632 0100     		.2byte	0x1
 5152 0634 51       		.byte	0x51
 5153 0635 06000000 		.4byte	.LVL107
 5154 0639 18000000 		.4byte	.LFE57
ARM GAS  C:\Users\Ray\AppData\Local\Temp\ccn7U9Aq.s 			page 133


 5155 063d 0400     		.2byte	0x4
 5156 063f F3       		.byte	0xf3
 5157 0640 01       		.uleb128 0x1
 5158 0641 51       		.byte	0x51
 5159 0642 9F       		.byte	0x9f
 5160 0643 00000000 		.4byte	0
 5161 0647 00000000 		.4byte	0
 5162              	.LLST37:
 5163 064b 02000000 		.4byte	.LVL106
 5164 064f 0C000000 		.4byte	.LVL109
 5165 0653 0100     		.2byte	0x1
 5166 0655 52       		.byte	0x52
 5167 0656 0C000000 		.4byte	.LVL109
 5168 065a 18000000 		.4byte	.LFE57
 5169 065e 0600     		.2byte	0x6
 5170 0660 F3       		.byte	0xf3
 5171 0661 01       		.uleb128 0x1
 5172 0662 51       		.byte	0x51
 5173 0663 33       		.byte	0x33
 5174 0664 25       		.byte	0x25
 5175 0665 9F       		.byte	0x9f
 5176 0666 00000000 		.4byte	0
 5177 066a 00000000 		.4byte	0
 5178              	.LLST38:
 5179 066e 00000000 		.4byte	.LVL113
 5180 0672 04000000 		.4byte	.LVL114
 5181 0676 0100     		.2byte	0x1
 5182 0678 50       		.byte	0x50
 5183 0679 04000000 		.4byte	.LVL114
 5184 067d 06000000 		.4byte	.LVL115
 5185 0681 0100     		.2byte	0x1
 5186 0683 54       		.byte	0x54
 5187 0684 08000000 		.4byte	.LVL116
 5188 0688 1C000000 		.4byte	.LVL119
 5189 068c 0100     		.2byte	0x1
 5190 068e 54       		.byte	0x54
 5191 068f 1C000000 		.4byte	.LVL119
 5192 0693 24000000 		.4byte	.LFE37
 5193 0697 0100     		.2byte	0x1
 5194 0699 50       		.byte	0x50
 5195 069a 00000000 		.4byte	0
 5196 069e 00000000 		.4byte	0
 5197              	.LLST39:
 5198 06a2 16000000 		.4byte	.LVL117
 5199 06a6 1A000000 		.4byte	.LVL118
 5200 06aa 0100     		.2byte	0x1
 5201 06ac 50       		.byte	0x50
 5202 06ad 00000000 		.4byte	0
 5203 06b1 00000000 		.4byte	0
 5204              	.LLST40:
 5205 06b5 00000000 		.4byte	.LVL120
 5206 06b9 16000000 		.4byte	.LVL125
 5207 06bd 0100     		.2byte	0x1
 5208 06bf 50       		.byte	0x50
 5209 06c0 16000000 		.4byte	.LVL125
 5210 06c4 19000000 		.4byte	.LVL126-1
 5211 06c8 0100     		.2byte	0x1
ARM GAS  C:\Users\Ray\AppData\Local\Temp\ccn7U9Aq.s 			page 134


 5212 06ca 51       		.byte	0x51
 5213 06cb 19000000 		.4byte	.LVL126-1
 5214 06cf 80000000 		.4byte	.LVL142
 5215 06d3 0100     		.2byte	0x1
 5216 06d5 54       		.byte	0x54
 5217 06d6 80000000 		.4byte	.LVL142
 5218 06da CC000000 		.4byte	.LFE52
 5219 06de 0400     		.2byte	0x4
 5220 06e0 F3       		.byte	0xf3
 5221 06e1 01       		.uleb128 0x1
 5222 06e2 50       		.byte	0x50
 5223 06e3 9F       		.byte	0x9f
 5224 06e4 00000000 		.4byte	0
 5225 06e8 00000000 		.4byte	0
 5226              	.LLST41:
 5227 06ec 0C000000 		.4byte	.LVL121
 5228 06f0 0E000000 		.4byte	.LVL122
 5229 06f4 0100     		.2byte	0x1
 5230 06f6 53       		.byte	0x53
 5231 06f7 0E000000 		.4byte	.LVL122
 5232 06fb 10000000 		.4byte	.LVL123
 5233 06ff 0B00     		.2byte	0xb
 5234 0701 70       		.byte	0x70
 5235 0702 00       		.sleb128 0
 5236 0703 72       		.byte	0x72
 5237 0704 00       		.sleb128 0
 5238 0705 22       		.byte	0x22
 5239 0706 03       		.byte	0x3
 5240 0707 00000000 		.4byte	.LANCHOR2
 5241 070b 22       		.byte	0x22
 5242 070c 10000000 		.4byte	.LVL123
 5243 0710 16000000 		.4byte	.LVL125
 5244 0714 0800     		.2byte	0x8
 5245 0716 70       		.byte	0x70
 5246 0717 00       		.sleb128 0
 5247 0718 03       		.byte	0x3
 5248 0719 44000000 		.4byte	.LANCHOR2+68
 5249 071d 22       		.byte	0x22
 5250 071e 16000000 		.4byte	.LVL125
 5251 0722 19000000 		.4byte	.LVL126-1
 5252 0726 0800     		.2byte	0x8
 5253 0728 71       		.byte	0x71
 5254 0729 00       		.sleb128 0
 5255 072a 03       		.byte	0x3
 5256 072b 44000000 		.4byte	.LANCHOR2+68
 5257 072f 22       		.byte	0x22
 5258 0730 19000000 		.4byte	.LVL126-1
 5259 0734 80000000 		.4byte	.LVL142
 5260 0738 0800     		.2byte	0x8
 5261 073a 74       		.byte	0x74
 5262 073b 00       		.sleb128 0
 5263 073c 03       		.byte	0x3
 5264 073d 44000000 		.4byte	.LANCHOR2+68
 5265 0741 22       		.byte	0x22
 5266 0742 80000000 		.4byte	.LVL142
 5267 0746 CC000000 		.4byte	.LFE52
 5268 074a 0900     		.2byte	0x9
ARM GAS  C:\Users\Ray\AppData\Local\Temp\ccn7U9Aq.s 			page 135


 5269 074c F3       		.byte	0xf3
 5270 074d 01       		.uleb128 0x1
 5271 074e 50       		.byte	0x50
 5272 074f 03       		.byte	0x3
 5273 0750 44000000 		.4byte	.LANCHOR2+68
 5274 0754 22       		.byte	0x22
 5275 0755 00000000 		.4byte	0
 5276 0759 00000000 		.4byte	0
 5277              	.LLST42:
 5278 075d 80000000 		.4byte	.LVL142
 5279 0761 92000000 		.4byte	.LVL145
 5280 0765 0100     		.2byte	0x1
 5281 0767 54       		.byte	0x54
 5282 0768 00000000 		.4byte	0
 5283 076c 00000000 		.4byte	0
 5284              	.LLST43:
 5285 0770 4E000000 		.4byte	.LVL133
 5286 0774 60000000 		.4byte	.LVL135
 5287 0778 0100     		.2byte	0x1
 5288 077a 51       		.byte	0x51
 5289 077b 60000000 		.4byte	.LVL135
 5290 077f 66000000 		.4byte	.LVL136
 5291 0783 0100     		.2byte	0x1
 5292 0785 53       		.byte	0x53
 5293 0786 66000000 		.4byte	.LVL136
 5294 078a 92000000 		.4byte	.LVL146
 5295 078e 0100     		.2byte	0x1
 5296 0790 55       		.byte	0x55
 5297 0791 00000000 		.4byte	0
 5298 0795 00000000 		.4byte	0
 5299              	.LLST44:
 5300 0799 12000000 		.4byte	.LVL124
 5301 079d 92000000 		.4byte	.LVL147
 5302 07a1 0100     		.2byte	0x1
 5303 07a3 56       		.byte	0x56
 5304 07a4 00000000 		.4byte	0
 5305 07a8 00000000 		.4byte	0
 5306              	.LLST45:
 5307 07ac 1A000000 		.4byte	.LVL126
 5308 07b0 2C000000 		.4byte	.LVL129
 5309 07b4 0100     		.2byte	0x1
 5310 07b6 50       		.byte	0x50
 5311 07b7 00000000 		.4byte	0
 5312 07bb 00000000 		.4byte	0
 5313              	.LLST46:
 5314 07bf 00000000 		.4byte	.LVL148
 5315 07c3 13000000 		.4byte	.LVL149-1
 5316 07c7 0100     		.2byte	0x1
 5317 07c9 50       		.byte	0x50
 5318 07ca 13000000 		.4byte	.LVL149-1
 5319 07ce 1C000000 		.4byte	.LFE38
 5320 07d2 0400     		.2byte	0x4
 5321 07d4 F3       		.byte	0xf3
 5322 07d5 01       		.uleb128 0x1
 5323 07d6 50       		.byte	0x50
 5324 07d7 9F       		.byte	0x9f
 5325 07d8 00000000 		.4byte	0
ARM GAS  C:\Users\Ray\AppData\Local\Temp\ccn7U9Aq.s 			page 136


 5326 07dc 00000000 		.4byte	0
 5327              	.LLST47:
 5328 07e0 00000000 		.4byte	.LVL152
 5329 07e4 2A000000 		.4byte	.LVL156
 5330 07e8 0100     		.2byte	0x1
 5331 07ea 50       		.byte	0x50
 5332 07eb 2A000000 		.4byte	.LVL156
 5333 07ef 2D000000 		.4byte	.LVL157-1
 5334 07f3 0100     		.2byte	0x1
 5335 07f5 51       		.byte	0x51
 5336 07f6 2D000000 		.4byte	.LVL157-1
 5337 07fa 64000000 		.4byte	.LVL167
 5338 07fe 0100     		.2byte	0x1
 5339 0800 55       		.byte	0x55
 5340 0801 64000000 		.4byte	.LVL167
 5341 0805 90000000 		.4byte	.LFE53
 5342 0809 0400     		.2byte	0x4
 5343 080b F3       		.byte	0xf3
 5344 080c 01       		.uleb128 0x1
 5345 080d 50       		.byte	0x50
 5346 080e 9F       		.byte	0x9f
 5347 080f 00000000 		.4byte	0
 5348 0813 00000000 		.4byte	0
 5349              	.LLST48:
 5350 0817 48000000 		.4byte	.LVL161
 5351 081b 4C000000 		.4byte	.LVL162
 5352 081f 0100     		.2byte	0x1
 5353 0821 51       		.byte	0x51
 5354 0822 4C000000 		.4byte	.LVL162
 5355 0826 5A000000 		.4byte	.LVL164
 5356 082a 0100     		.2byte	0x1
 5357 082c 53       		.byte	0x53
 5358 082d 5A000000 		.4byte	.LVL164
 5359 0831 5E000000 		.4byte	.LVL165
 5360 0835 0500     		.2byte	0x5
 5361 0837 0C       		.byte	0xc
 5362 0838 04000840 		.4byte	0x40080004
 5363 083c 00000000 		.4byte	0
 5364 0840 00000000 		.4byte	0
 5365              	.LLST49:
 5366 0844 2E000000 		.4byte	.LVL157
 5367 0848 38000000 		.4byte	.LVL158
 5368 084c 0100     		.2byte	0x1
 5369 084e 50       		.byte	0x50
 5370 084f 00000000 		.4byte	0
 5371 0853 00000000 		.4byte	0
 5372              	.LLST50:
 5373 0857 1A000000 		.4byte	.LVL153
 5374 085b 1C000000 		.4byte	.LVL154
 5375 085f 0100     		.2byte	0x1
 5376 0861 53       		.byte	0x53
 5377 0862 1C000000 		.4byte	.LVL154
 5378 0866 1E000000 		.4byte	.LVL155
 5379 086a 1100     		.2byte	0x11
 5380 086c 70       		.byte	0x70
 5381 086d 00       		.sleb128 0
 5382 086e 72       		.byte	0x72
ARM GAS  C:\Users\Ray\AppData\Local\Temp\ccn7U9Aq.s 			page 137


 5383 086f 00       		.sleb128 0
 5384 0870 22       		.byte	0x22
 5385 0871 03       		.byte	0x3
 5386 0872 00000000 		.4byte	.LANCHOR2
 5387 0876 22       		.byte	0x22
 5388 0877 94       		.byte	0x94
 5389 0878 01       		.byte	0x1
 5390 0879 08       		.byte	0x8
 5391 087a FF       		.byte	0xff
 5392 087b 1A       		.byte	0x1a
 5393 087c 9F       		.byte	0x9f
 5394 087d 1E000000 		.4byte	.LVL155
 5395 0881 2A000000 		.4byte	.LVL156
 5396 0885 0E00     		.2byte	0xe
 5397 0887 70       		.byte	0x70
 5398 0888 00       		.sleb128 0
 5399 0889 03       		.byte	0x3
 5400 088a 44000000 		.4byte	.LANCHOR2+68
 5401 088e 22       		.byte	0x22
 5402 088f 94       		.byte	0x94
 5403 0890 01       		.byte	0x1
 5404 0891 08       		.byte	0x8
 5405 0892 FF       		.byte	0xff
 5406 0893 1A       		.byte	0x1a
 5407 0894 9F       		.byte	0x9f
 5408 0895 2A000000 		.4byte	.LVL156
 5409 0899 2D000000 		.4byte	.LVL157-1
 5410 089d 0E00     		.2byte	0xe
 5411 089f 71       		.byte	0x71
 5412 08a0 00       		.sleb128 0
 5413 08a1 03       		.byte	0x3
 5414 08a2 44000000 		.4byte	.LANCHOR2+68
 5415 08a6 22       		.byte	0x22
 5416 08a7 94       		.byte	0x94
 5417 08a8 01       		.byte	0x1
 5418 08a9 08       		.byte	0x8
 5419 08aa FF       		.byte	0xff
 5420 08ab 1A       		.byte	0x1a
 5421 08ac 9F       		.byte	0x9f
 5422 08ad 2D000000 		.4byte	.LVL157-1
 5423 08b1 64000000 		.4byte	.LVL167
 5424 08b5 0E00     		.2byte	0xe
 5425 08b7 75       		.byte	0x75
 5426 08b8 00       		.sleb128 0
 5427 08b9 03       		.byte	0x3
 5428 08ba 44000000 		.4byte	.LANCHOR2+68
 5429 08be 22       		.byte	0x22
 5430 08bf 94       		.byte	0x94
 5431 08c0 01       		.byte	0x1
 5432 08c1 08       		.byte	0x8
 5433 08c2 FF       		.byte	0xff
 5434 08c3 1A       		.byte	0x1a
 5435 08c4 9F       		.byte	0x9f
 5436 08c5 64000000 		.4byte	.LVL167
 5437 08c9 90000000 		.4byte	.LFE53
 5438 08cd 0F00     		.2byte	0xf
 5439 08cf F3       		.byte	0xf3
ARM GAS  C:\Users\Ray\AppData\Local\Temp\ccn7U9Aq.s 			page 138


 5440 08d0 01       		.uleb128 0x1
 5441 08d1 50       		.byte	0x50
 5442 08d2 03       		.byte	0x3
 5443 08d3 44000000 		.4byte	.LANCHOR2+68
 5444 08d7 22       		.byte	0x22
 5445 08d8 94       		.byte	0x94
 5446 08d9 01       		.byte	0x1
 5447 08da 08       		.byte	0x8
 5448 08db FF       		.byte	0xff
 5449 08dc 1A       		.byte	0x1a
 5450 08dd 9F       		.byte	0x9f
 5451 08de 00000000 		.4byte	0
 5452 08e2 00000000 		.4byte	0
 5453              	.LLST51:
 5454 08e6 00000000 		.4byte	.LVL168
 5455 08ea 08000000 		.4byte	.LVL170
 5456 08ee 0100     		.2byte	0x1
 5457 08f0 51       		.byte	0x51
 5458 08f1 08000000 		.4byte	.LVL170
 5459 08f5 26000000 		.4byte	.LFE58
 5460 08f9 0400     		.2byte	0x4
 5461 08fb F3       		.byte	0xf3
 5462 08fc 01       		.uleb128 0x1
 5463 08fd 51       		.byte	0x51
 5464 08fe 9F       		.byte	0x9f
 5465 08ff 00000000 		.4byte	0
 5466 0903 00000000 		.4byte	0
 5467              	.LLST52:
 5468 0907 00000000 		.4byte	.LVL168
 5469 090b 16000000 		.4byte	.LVL173
 5470 090f 0100     		.2byte	0x1
 5471 0911 52       		.byte	0x52
 5472 0912 16000000 		.4byte	.LVL173
 5473 0916 1C000000 		.4byte	.LVL175
 5474 091a 0400     		.2byte	0x4
 5475 091c F3       		.byte	0xf3
 5476 091d 01       		.uleb128 0x1
 5477 091e 52       		.byte	0x52
 5478 091f 9F       		.byte	0x9f
 5479 0920 1C000000 		.4byte	.LVL175
 5480 0924 20000000 		.4byte	.LVL177
 5481 0928 0100     		.2byte	0x1
 5482 092a 52       		.byte	0x52
 5483 092b 20000000 		.4byte	.LVL177
 5484 092f 26000000 		.4byte	.LFE58
 5485 0933 0400     		.2byte	0x4
 5486 0935 F3       		.byte	0xf3
 5487 0936 01       		.uleb128 0x1
 5488 0937 52       		.byte	0x52
 5489 0938 9F       		.byte	0x9f
 5490 0939 00000000 		.4byte	0
 5491 093d 00000000 		.4byte	0
 5492              	.LLST53:
 5493 0941 04000000 		.4byte	.LVL169
 5494 0945 14000000 		.4byte	.LVL172
 5495 0949 0100     		.2byte	0x1
 5496 094b 54       		.byte	0x54
ARM GAS  C:\Users\Ray\AppData\Local\Temp\ccn7U9Aq.s 			page 139


 5497 094c 14000000 		.4byte	.LVL172
 5498 0950 1C000000 		.4byte	.LVL175
 5499 0954 0600     		.2byte	0x6
 5500 0956 F3       		.byte	0xf3
 5501 0957 01       		.uleb128 0x1
 5502 0958 51       		.byte	0x51
 5503 0959 33       		.byte	0x33
 5504 095a 25       		.byte	0x25
 5505 095b 9F       		.byte	0x9f
 5506 095c 1C000000 		.4byte	.LVL175
 5507 0960 1E000000 		.4byte	.LVL176
 5508 0964 0100     		.2byte	0x1
 5509 0966 54       		.byte	0x54
 5510 0967 1E000000 		.4byte	.LVL176
 5511 096b 26000000 		.4byte	.LFE58
 5512 096f 0600     		.2byte	0x6
 5513 0971 F3       		.byte	0xf3
 5514 0972 01       		.uleb128 0x1
 5515 0973 51       		.byte	0x51
 5516 0974 33       		.byte	0x33
 5517 0975 25       		.byte	0x25
 5518 0976 9F       		.byte	0x9f
 5519 0977 00000000 		.4byte	0
 5520 097b 00000000 		.4byte	0
 5521              	.LLST54:
 5522 097f 0E000000 		.4byte	.LVL171
 5523 0983 18000000 		.4byte	.LVL174
 5524 0987 0100     		.2byte	0x1
 5525 0989 53       		.byte	0x53
 5526 098a 18000000 		.4byte	.LVL174
 5527 098e 1C000000 		.4byte	.LVL175
 5528 0992 0500     		.2byte	0x5
 5529 0994 31       		.byte	0x31
 5530 0995 71       		.byte	0x71
 5531 0996 00       		.sleb128 0
 5532 0997 24       		.byte	0x24
 5533 0998 9F       		.byte	0x9f
 5534 0999 1C000000 		.4byte	.LVL175
 5535 099d 24000000 		.4byte	.LVL178
 5536 09a1 0100     		.2byte	0x1
 5537 09a3 53       		.byte	0x53
 5538 09a4 24000000 		.4byte	.LVL178
 5539 09a8 26000000 		.4byte	.LFE58
 5540 09ac 0500     		.2byte	0x5
 5541 09ae 31       		.byte	0x31
 5542 09af 71       		.byte	0x71
 5543 09b0 00       		.sleb128 0
 5544 09b1 24       		.byte	0x24
 5545 09b2 9F       		.byte	0x9f
 5546 09b3 00000000 		.4byte	0
 5547 09b7 00000000 		.4byte	0
 5548              	.LLST55:
 5549 09bb 00000000 		.4byte	.LVL179
 5550 09bf 30000000 		.4byte	.LVL186
 5551 09c3 0100     		.2byte	0x1
 5552 09c5 50       		.byte	0x50
 5553 09c6 30000000 		.4byte	.LVL186
ARM GAS  C:\Users\Ray\AppData\Local\Temp\ccn7U9Aq.s 			page 140


 5554 09ca 8C000000 		.4byte	.LFE39
 5555 09ce 0400     		.2byte	0x4
 5556 09d0 F3       		.byte	0xf3
 5557 09d1 01       		.uleb128 0x1
 5558 09d2 50       		.byte	0x50
 5559 09d3 9F       		.byte	0x9f
 5560 09d4 00000000 		.4byte	0
 5561 09d8 00000000 		.4byte	0
 5562              	.LLST56:
 5563 09dc 0E000000 		.4byte	.LVL180
 5564 09e0 16000000 		.4byte	.LVL182
 5565 09e4 0100     		.2byte	0x1
 5566 09e6 53       		.byte	0x53
 5567 09e7 00000000 		.4byte	0
 5568 09eb 00000000 		.4byte	0
 5569              	.LLST57:
 5570 09ef 18000000 		.4byte	.LVL183
 5571 09f3 76000000 		.4byte	.LVL192
 5572 09f7 0100     		.2byte	0x1
 5573 09f9 55       		.byte	0x55
 5574 09fa 00000000 		.4byte	0
 5575 09fe 00000000 		.4byte	0
 5576              	.LLST58:
 5577 0a02 18000000 		.4byte	.LVL183
 5578 0a06 1C000000 		.4byte	.LVL184
 5579 0a0a 0200     		.2byte	0x2
 5580 0a0c 30       		.byte	0x30
 5581 0a0d 9F       		.byte	0x9f
 5582 0a0e 1C000000 		.4byte	.LVL184
 5583 0a12 30000000 		.4byte	.LVL186
 5584 0a16 0100     		.2byte	0x1
 5585 0a18 53       		.byte	0x53
 5586 0a19 30000000 		.4byte	.LVL186
 5587 0a1d 76000000 		.4byte	.LVL191
 5588 0a21 0100     		.2byte	0x1
 5589 0a23 54       		.byte	0x54
 5590 0a24 00000000 		.4byte	0
 5591 0a28 00000000 		.4byte	0
 5592              	.LLST59:
 5593 0a2c 00000000 		.4byte	.LVL193
 5594 0a30 04000000 		.4byte	.LVL194
 5595 0a34 0100     		.2byte	0x1
 5596 0a36 50       		.byte	0x50
 5597 0a37 04000000 		.4byte	.LVL194
 5598 0a3b 0C000000 		.4byte	.LFE59
 5599 0a3f 0400     		.2byte	0x4
 5600 0a41 F3       		.byte	0xf3
 5601 0a42 01       		.uleb128 0x1
 5602 0a43 50       		.byte	0x50
 5603 0a44 9F       		.byte	0x9f
 5604 0a45 00000000 		.4byte	0
 5605 0a49 00000000 		.4byte	0
 5606              	.LLST60:
 5607 0a4d 00000000 		.4byte	.LVL196
 5608 0a51 04000000 		.4byte	.LVL197
 5609 0a55 0100     		.2byte	0x1
 5610 0a57 50       		.byte	0x50
ARM GAS  C:\Users\Ray\AppData\Local\Temp\ccn7U9Aq.s 			page 141


 5611 0a58 04000000 		.4byte	.LVL197
 5612 0a5c 0C000000 		.4byte	.LFE61
 5613 0a60 0400     		.2byte	0x4
 5614 0a62 F3       		.byte	0xf3
 5615 0a63 01       		.uleb128 0x1
 5616 0a64 50       		.byte	0x50
 5617 0a65 9F       		.byte	0x9f
 5618 0a66 00000000 		.4byte	0
 5619 0a6a 00000000 		.4byte	0
 5620              	.LLST61:
 5621 0a6e 00000000 		.4byte	.LVL199
 5622 0a72 04000000 		.4byte	.LVL200
 5623 0a76 0100     		.2byte	0x1
 5624 0a78 50       		.byte	0x50
 5625 0a79 04000000 		.4byte	.LVL200
 5626 0a7d 0C000000 		.4byte	.LFE63
 5627 0a81 0400     		.2byte	0x4
 5628 0a83 F3       		.byte	0xf3
 5629 0a84 01       		.uleb128 0x1
 5630 0a85 50       		.byte	0x50
 5631 0a86 9F       		.byte	0x9f
 5632 0a87 00000000 		.4byte	0
 5633 0a8b 00000000 		.4byte	0
 5634              	.LLST62:
 5635 0a8f 00000000 		.4byte	.LVL202
 5636 0a93 04000000 		.4byte	.LVL203
 5637 0a97 0100     		.2byte	0x1
 5638 0a99 50       		.byte	0x50
 5639 0a9a 04000000 		.4byte	.LVL203
 5640 0a9e 0C000000 		.4byte	.LFE65
 5641 0aa2 0400     		.2byte	0x4
 5642 0aa4 F3       		.byte	0xf3
 5643 0aa5 01       		.uleb128 0x1
 5644 0aa6 50       		.byte	0x50
 5645 0aa7 9F       		.byte	0x9f
 5646 0aa8 00000000 		.4byte	0
 5647 0aac 00000000 		.4byte	0
 5648              	.LLST63:
 5649 0ab0 00000000 		.4byte	.LVL206
 5650 0ab4 0A000000 		.4byte	.LVL208
 5651 0ab8 0100     		.2byte	0x1
 5652 0aba 50       		.byte	0x50
 5653 0abb 0A000000 		.4byte	.LVL208
 5654 0abf 28000000 		.4byte	.LVL216
 5655 0ac3 0100     		.2byte	0x1
 5656 0ac5 56       		.byte	0x56
 5657 0ac6 28000000 		.4byte	.LVL216
 5658 0aca 2A000000 		.4byte	.LFE69
 5659 0ace 0400     		.2byte	0x4
 5660 0ad0 F3       		.byte	0xf3
 5661 0ad1 01       		.uleb128 0x1
 5662 0ad2 50       		.byte	0x50
 5663 0ad3 9F       		.byte	0x9f
 5664 0ad4 00000000 		.4byte	0
 5665 0ad8 00000000 		.4byte	0
 5666              	.LLST64:
 5667 0adc 04000000 		.4byte	.LVL207
ARM GAS  C:\Users\Ray\AppData\Local\Temp\ccn7U9Aq.s 			page 142


 5668 0ae0 0A000000 		.4byte	.LVL208
 5669 0ae4 0200     		.2byte	0x2
 5670 0ae6 30       		.byte	0x30
 5671 0ae7 9F       		.byte	0x9f
 5672 0ae8 0A000000 		.4byte	.LVL208
 5673 0aec 28000000 		.4byte	.LVL215
 5674 0af0 0100     		.2byte	0x1
 5675 0af2 55       		.byte	0x55
 5676 0af3 00000000 		.4byte	0
 5677 0af7 00000000 		.4byte	0
 5678              	.LLST65:
 5679 0afb 04000000 		.4byte	.LVL207
 5680 0aff 0A000000 		.4byte	.LVL208
 5681 0b03 0200     		.2byte	0x2
 5682 0b05 30       		.byte	0x30
 5683 0b06 9F       		.byte	0x9f
 5684 0b07 0A000000 		.4byte	.LVL208
 5685 0b0b 28000000 		.4byte	.LVL214
 5686 0b0f 0100     		.2byte	0x1
 5687 0b11 54       		.byte	0x54
 5688 0b12 00000000 		.4byte	0
 5689 0b16 00000000 		.4byte	0
 5690              	.LLST66:
 5691 0b1a 02000000 		.4byte	.LVL218
 5692 0b1e 06000000 		.4byte	.LVL219
 5693 0b22 0200     		.2byte	0x2
 5694 0b24 30       		.byte	0x30
 5695 0b25 9F       		.byte	0x9f
 5696 0b26 06000000 		.4byte	.LVL219
 5697 0b2a 22000000 		.4byte	.LVL225
 5698 0b2e 0100     		.2byte	0x1
 5699 0b30 54       		.byte	0x54
 5700 0b31 00000000 		.4byte	0
 5701 0b35 00000000 		.4byte	0
 5702              		.section	.debug_aranges,"",%progbits
 5703 0000 4C010000 		.4byte	0x14c
 5704 0004 0200     		.2byte	0x2
 5705 0006 00000000 		.4byte	.Ldebug_info0
 5706 000a 04       		.byte	0x4
 5707 000b 00       		.byte	0
 5708 000c 0000     		.2byte	0
 5709 000e 0000     		.2byte	0
 5710 0010 00000000 		.4byte	.LFB33
 5711 0014 84000000 		.4byte	.LFE33-.LFB33
 5712 0018 00000000 		.4byte	.LFB34
 5713 001c 3C000000 		.4byte	.LFE34-.LFB34
 5714 0020 00000000 		.4byte	.LFB36
 5715 0024 2C000000 		.4byte	.LFE36-.LFB36
 5716 0028 00000000 		.4byte	.LFB41
 5717 002c 10000000 		.4byte	.LFE41-.LFB41
 5718 0030 00000000 		.4byte	.LFB42
 5719 0034 10000000 		.4byte	.LFE42-.LFB42
 5720 0038 00000000 		.4byte	.LFB43
 5721 003c 10000000 		.4byte	.LFE43-.LFB43
 5722 0040 00000000 		.4byte	.LFB44
 5723 0044 0C000000 		.4byte	.LFE44-.LFB44
 5724 0048 00000000 		.4byte	.LFB45
ARM GAS  C:\Users\Ray\AppData\Local\Temp\ccn7U9Aq.s 			page 143


 5725 004c 0C000000 		.4byte	.LFE45-.LFB45
 5726 0050 00000000 		.4byte	.LFB47
 5727 0054 48000000 		.4byte	.LFE47-.LFB47
 5728 0058 00000000 		.4byte	.LFB48
 5729 005c 70000000 		.4byte	.LFE48-.LFB48
 5730 0060 00000000 		.4byte	.LFB46
 5731 0064 14000000 		.4byte	.LFE46-.LFB46
 5732 0068 00000000 		.4byte	.LFB51
 5733 006c 24000000 		.4byte	.LFE51-.LFB51
 5734 0070 00000000 		.4byte	.LFB49
 5735 0074 30000000 		.4byte	.LFE49-.LFB49
 5736 0078 00000000 		.4byte	.LFB50
 5737 007c 24000000 		.4byte	.LFE50-.LFB50
 5738 0080 00000000 		.4byte	.LFB54
 5739 0084 34000000 		.4byte	.LFE54-.LFB54
 5740 0088 00000000 		.4byte	.LFB55
 5741 008c 18000000 		.4byte	.LFE55-.LFB55
 5742 0090 00000000 		.4byte	.LFB56
 5743 0094 1C000000 		.4byte	.LFE56-.LFB56
 5744 0098 00000000 		.4byte	.LFB57
 5745 009c 18000000 		.4byte	.LFE57-.LFB57
 5746 00a0 00000000 		.4byte	.LFB37
 5747 00a4 24000000 		.4byte	.LFE37-.LFB37
 5748 00a8 00000000 		.4byte	.LFB52
 5749 00ac CC000000 		.4byte	.LFE52-.LFB52
 5750 00b0 00000000 		.4byte	.LFB38
 5751 00b4 1C000000 		.4byte	.LFE38-.LFB38
 5752 00b8 00000000 		.4byte	.LFB40
 5753 00bc 38000000 		.4byte	.LFE40-.LFB40
 5754 00c0 00000000 		.4byte	.LFB53
 5755 00c4 90000000 		.4byte	.LFE53-.LFB53
 5756 00c8 00000000 		.4byte	.LFB58
 5757 00cc 26000000 		.4byte	.LFE58-.LFB58
 5758 00d0 00000000 		.4byte	.LFB39
 5759 00d4 8C000000 		.4byte	.LFE39-.LFB39
 5760 00d8 00000000 		.4byte	.LFB59
 5761 00dc 0C000000 		.4byte	.LFE59-.LFB59
 5762 00e0 00000000 		.4byte	.LFB60
 5763 00e4 0C000000 		.4byte	.LFE60-.LFB60
 5764 00e8 00000000 		.4byte	.LFB61
 5765 00ec 0C000000 		.4byte	.LFE61-.LFB61
 5766 00f0 00000000 		.4byte	.LFB62
 5767 00f4 0C000000 		.4byte	.LFE62-.LFB62
 5768 00f8 00000000 		.4byte	.LFB63
 5769 00fc 0C000000 		.4byte	.LFE63-.LFB63
 5770 0100 00000000 		.4byte	.LFB64
 5771 0104 0C000000 		.4byte	.LFE64-.LFB64
 5772 0108 00000000 		.4byte	.LFB65
 5773 010c 0C000000 		.4byte	.LFE65-.LFB65
 5774 0110 00000000 		.4byte	.LFB66
 5775 0114 0C000000 		.4byte	.LFE66-.LFB66
 5776 0118 00000000 		.4byte	.LFB67
 5777 011c 14000000 		.4byte	.LFE67-.LFB67
 5778 0120 00000000 		.4byte	.LFB68
 5779 0124 28000000 		.4byte	.LFE68-.LFB68
 5780 0128 00000000 		.4byte	.LFB69
 5781 012c 2A000000 		.4byte	.LFE69-.LFB69
ARM GAS  C:\Users\Ray\AppData\Local\Temp\ccn7U9Aq.s 			page 144


 5782 0130 00000000 		.4byte	.LFB70
 5783 0134 0C000000 		.4byte	.LFE70-.LFB70
 5784 0138 00000000 		.4byte	.LFB32
 5785 013c 24000000 		.4byte	.LFE32-.LFB32
 5786 0140 00000000 		.4byte	.LFB35
 5787 0144 38000000 		.4byte	.LFE35-.LFB35
 5788 0148 00000000 		.4byte	0
 5789 014c 00000000 		.4byte	0
 5790              		.section	.debug_ranges,"",%progbits
 5791              	.Ldebug_ranges0:
 5792 0000 00000000 		.4byte	.LFB33
 5793 0004 84000000 		.4byte	.LFE33
 5794 0008 00000000 		.4byte	.LFB34
 5795 000c 3C000000 		.4byte	.LFE34
 5796 0010 00000000 		.4byte	.LFB36
 5797 0014 2C000000 		.4byte	.LFE36
 5798 0018 00000000 		.4byte	.LFB41
 5799 001c 10000000 		.4byte	.LFE41
 5800 0020 00000000 		.4byte	.LFB42
 5801 0024 10000000 		.4byte	.LFE42
 5802 0028 00000000 		.4byte	.LFB43
 5803 002c 10000000 		.4byte	.LFE43
 5804 0030 00000000 		.4byte	.LFB44
 5805 0034 0C000000 		.4byte	.LFE44
 5806 0038 00000000 		.4byte	.LFB45
 5807 003c 0C000000 		.4byte	.LFE45
 5808 0040 00000000 		.4byte	.LFB47
 5809 0044 48000000 		.4byte	.LFE47
 5810 0048 00000000 		.4byte	.LFB48
 5811 004c 70000000 		.4byte	.LFE48
 5812 0050 00000000 		.4byte	.LFB46
 5813 0054 14000000 		.4byte	.LFE46
 5814 0058 00000000 		.4byte	.LFB51
 5815 005c 24000000 		.4byte	.LFE51
 5816 0060 00000000 		.4byte	.LFB49
 5817 0064 30000000 		.4byte	.LFE49
 5818 0068 00000000 		.4byte	.LFB50
 5819 006c 24000000 		.4byte	.LFE50
 5820 0070 00000000 		.4byte	.LFB54
 5821 0074 34000000 		.4byte	.LFE54
 5822 0078 00000000 		.4byte	.LFB55
 5823 007c 18000000 		.4byte	.LFE55
 5824 0080 00000000 		.4byte	.LFB56
 5825 0084 1C000000 		.4byte	.LFE56
 5826 0088 00000000 		.4byte	.LFB57
 5827 008c 18000000 		.4byte	.LFE57
 5828 0090 00000000 		.4byte	.LFB37
 5829 0094 24000000 		.4byte	.LFE37
 5830 0098 00000000 		.4byte	.LFB52
 5831 009c CC000000 		.4byte	.LFE52
 5832 00a0 00000000 		.4byte	.LFB38
 5833 00a4 1C000000 		.4byte	.LFE38
 5834 00a8 00000000 		.4byte	.LFB40
 5835 00ac 38000000 		.4byte	.LFE40
 5836 00b0 00000000 		.4byte	.LFB53
 5837 00b4 90000000 		.4byte	.LFE53
 5838 00b8 00000000 		.4byte	.LFB58
ARM GAS  C:\Users\Ray\AppData\Local\Temp\ccn7U9Aq.s 			page 145


 5839 00bc 26000000 		.4byte	.LFE58
 5840 00c0 00000000 		.4byte	.LFB39
 5841 00c4 8C000000 		.4byte	.LFE39
 5842 00c8 00000000 		.4byte	.LFB59
 5843 00cc 0C000000 		.4byte	.LFE59
 5844 00d0 00000000 		.4byte	.LFB60
 5845 00d4 0C000000 		.4byte	.LFE60
 5846 00d8 00000000 		.4byte	.LFB61
 5847 00dc 0C000000 		.4byte	.LFE61
 5848 00e0 00000000 		.4byte	.LFB62
 5849 00e4 0C000000 		.4byte	.LFE62
 5850 00e8 00000000 		.4byte	.LFB63
 5851 00ec 0C000000 		.4byte	.LFE63
 5852 00f0 00000000 		.4byte	.LFB64
 5853 00f4 0C000000 		.4byte	.LFE64
 5854 00f8 00000000 		.4byte	.LFB65
 5855 00fc 0C000000 		.4byte	.LFE65
 5856 0100 00000000 		.4byte	.LFB66
 5857 0104 0C000000 		.4byte	.LFE66
 5858 0108 00000000 		.4byte	.LFB67
 5859 010c 14000000 		.4byte	.LFE67
 5860 0110 00000000 		.4byte	.LFB68
 5861 0114 28000000 		.4byte	.LFE68
 5862 0118 00000000 		.4byte	.LFB69
 5863 011c 2A000000 		.4byte	.LFE69
 5864 0120 00000000 		.4byte	.LFB70
 5865 0124 0C000000 		.4byte	.LFE70
 5866 0128 00000000 		.4byte	.LFB32
 5867 012c 24000000 		.4byte	.LFE32
 5868 0130 00000000 		.4byte	.LFB35
 5869 0134 38000000 		.4byte	.LFE35
 5870 0138 00000000 		.4byte	0
 5871 013c 00000000 		.4byte	0
 5872              		.section	.debug_line,"",%progbits
 5873              	.Ldebug_line0:
 5874 0000 B9040000 		.section	.debug_str,"MS",%progbits,1
 5874      0200A000 
 5874      00000201 
 5874      FB0E0D00 
 5874      01010101 
 5875              	.LASF121:
 5876 0000 4379496E 		.ascii	"CyIntSetPriority\000"
 5876      74536574 
 5876      5072696F 
 5876      72697479 
 5876      00
 5877              	.LASF96:
 5878 0011 43617053 		.ascii	"CapSense_scanSpeedTbl\000"
 5878      656E7365 
 5878      5F736361 
 5878      6E537065 
 5878      65645462 
 5879              	.LASF68:
 5880 0027 43617053 		.ascii	"CapSense_PostScan\000"
 5880      656E7365 
 5880      5F506F73 
 5880      74536361 
ARM GAS  C:\Users\Ray\AppData\Local\Temp\ccn7U9Aq.s 			page 146


 5880      6E00
 5881              	.LASF97:
 5882 0039 43617053 		.ascii	"CapSense_csdStatusVar\000"
 5882      656E7365 
 5882      5F637364 
 5882      53746174 
 5882      75735661 
 5883              	.LASF104:
 5884 004f 43617053 		.ascii	"CapSense_compensationIDAC\000"
 5884      656E7365 
 5884      5F636F6D 
 5884      70656E73 
 5884      6174696F 
 5885              	.LASF126:
 5886 0069 43617053 		.ascii	"CapSense_SenseClk_Start\000"
 5886      656E7365 
 5886      5F53656E 
 5886      7365436C 
 5886      6B5F5374 
 5887              	.LASF114:
 5888 0081 43617053 		.ascii	"CapSense_maskTable\000"
 5888      656E7365 
 5888      5F6D6173 
 5888      6B546162 
 5888      6C6500
 5889              	.LASF8:
 5890 0094 756E7369 		.ascii	"unsigned int\000"
 5890      676E6564 
 5890      20696E74 
 5890      00
 5891              	.LASF107:
 5892 00a1 43617053 		.ascii	"CapSense_sampleClkDividerVal\000"
 5892      656E7365 
 5892      5F73616D 
 5892      706C6543 
 5892      6C6B4469 
 5893              	.LASF34:
 5894 00be 696E7465 		.ascii	"interruptState\000"
 5894      72727570 
 5894      74537461 
 5894      746500
 5895              	.LASF15:
 5896 00cd 72656738 		.ascii	"reg8\000"
 5896      00
 5897              	.LASF93:
 5898 00d2 43617053 		.ascii	"CapSense_Start\000"
 5898      656E7365 
 5898      5F537461 
 5898      727400
 5899              	.LASF70:
 5900 00e1 43617053 		.ascii	"CapSense_ScanWidget\000"
 5900      656E7365 
 5900      5F536361 
 5900      6E576964 
 5900      67657400 
 5901              	.LASF33:
 5902 00f5 70696E48 		.ascii	"pinHSIOMShift\000"
ARM GAS  C:\Users\Ray\AppData\Local\Temp\ccn7U9Aq.s 			page 147


 5902      53494F4D 
 5902      53686966 
 5902      7400
 5903              	.LASF74:
 5904 0103 43617053 		.ascii	"CapSense_SetSenseClkDivider\000"
 5904      656E7365 
 5904      5F536574 
 5904      53656E73 
 5904      65436C6B 
 5905              	.LASF119:
 5906 011f 4379496E 		.ascii	"CyIntDisable\000"
 5906      74446973 
 5906      61626C65 
 5906      00
 5907              	.LASF90:
 5908 012c 61766756 		.ascii	"avgVal\000"
 5908      616C00
 5909              	.LASF54:
 5910 0133 43617053 		.ascii	"CapSense_IsBusy\000"
 5910      656E7365 
 5910      5F497342 
 5910      75737900 
 5911              	.LASF32:
 5912 0143 70696E4D 		.ascii	"pinModeShift\000"
 5912      6F646553 
 5912      68696674 
 5912      00
 5913              	.LASF83:
 5914 0150 43617053 		.ascii	"CapSense_SetCompensationIDAC\000"
 5914      656E7365 
 5914      5F536574 
 5914      436F6D70 
 5914      656E7361 
 5915              	.LASF116:
 5916 016d 43617053 		.ascii	"CapSense_rawDataIndex\000"
 5916      656E7365 
 5916      5F726177 
 5916      44617461 
 5916      496E6465 
 5917              	.LASF37:
 5918 0183 43617053 		.ascii	"CapSense_DisableSensor\000"
 5918      656E7365 
 5918      5F446973 
 5918      61626C65 
 5918      53656E73 
 5919              	.LASF19:
 5920 019a 43617053 		.ascii	"CapSense_CsdHwBlockInit\000"
 5920      656E7365 
 5920      5F437364 
 5920      4877426C 
 5920      6F636B49 
 5921              	.LASF38:
 5922 01b2 696E6163 		.ascii	"inactiveConnect\000"
 5922      74697665 
 5922      436F6E6E 
 5922      65637400 
 5923              	.LASF118:
ARM GAS  C:\Users\Ray\AppData\Local\Temp\ccn7U9Aq.s 			page 148


 5924 01c2 43617053 		.ascii	"CapSense_csdTrim1\000"
 5924      656E7365 
 5924      5F637364 
 5924      5472696D 
 5924      3100
 5925              	.LASF22:
 5926 01d4 43617053 		.ascii	"CapSense_Stop\000"
 5926      656E7365 
 5926      5F53746F 
 5926      7000
 5927              	.LASF109:
 5928 01e2 43617053 		.ascii	"CapSense_prtSelTbl\000"
 5928      656E7365 
 5928      5F707274 
 5928      53656C54 
 5928      626C00
 5929              	.LASF40:
 5930 01f5 43617053 		.ascii	"CapSense_ClearSensors\000"
 5930      656E7365 
 5930      5F436C65 
 5930      61725365 
 5930      6E736F72 
 5931              	.LASF111:
 5932 020b 43617053 		.ascii	"CapSense_prtDRTbl\000"
 5932      656E7365 
 5932      5F707274 
 5932      44525462 
 5932      6C00
 5933              	.LASF51:
 5934 021d 43617053 		.ascii	"CapSense_EnableShieldElectrode\000"
 5934      656E7365 
 5934      5F456E61 
 5934      626C6553 
 5934      6869656C 
 5935              	.LASF12:
 5936 023c 666C6F61 		.ascii	"float\000"
 5936      7400
 5937              	.LASF7:
 5938 0242 6C6F6E67 		.ascii	"long long unsigned int\000"
 5938      206C6F6E 
 5938      6720756E 
 5938      7369676E 
 5938      65642069 
 5939              	.LASF98:
 5940 0259 43617053 		.ascii	"CapSense_sensorIndex\000"
 5940      656E7365 
 5940      5F73656E 
 5940      736F7249 
 5940      6E646578 
 5941              	.LASF27:
 5942 026e 77696467 		.ascii	"widget\000"
 5942      657400
 5943              	.LASF52:
 5944 0275 43617053 		.ascii	"CapSense_SetShieldDelay\000"
 5944      656E7365 
 5944      5F536574 
 5944      53686965 
ARM GAS  C:\Users\Ray\AppData\Local\Temp\ccn7U9Aq.s 			page 149


 5944      6C644465 
 5945              	.LASF108:
 5946 028d 43617053 		.ascii	"CapSense_widgetNumber\000"
 5946      656E7365 
 5946      5F776964 
 5946      6765744E 
 5946      756D6265 
 5947              	.LASF110:
 5948 02a3 43617053 		.ascii	"CapSense_prtCfgTbl\000"
 5948      656E7365 
 5948      5F707274 
 5948      43666754 
 5948      626C00
 5949              	.LASF30:
 5950 02b6 43617053 		.ascii	"CapSense_GetScanResolution\000"
 5950      656E7365 
 5950      5F476574 
 5950      5363616E 
 5950      5265736F 
 5951              	.LASF134:
 5952 02d1 47656E65 		.ascii	"Generated_Source\\PSoC4\\CapSense.c\000"
 5952      72617465 
 5952      645F536F 
 5952      75726365 
 5952      5C50536F 
 5953              	.LASF78:
 5954 02f3 6D6F6475 		.ascii	"modulatorClk\000"
 5954      6C61746F 
 5954      72436C6B 
 5954      00
 5955              	.LASF25:
 5956 0300 76616C75 		.ascii	"value\000"
 5956      6500
 5957              	.LASF133:
 5958 0306 474E5520 		.ascii	"GNU C11 5.4.1 20160609 (release) [ARM/embedded-5-br"
 5958      43313120 
 5958      352E342E 
 5958      31203230 
 5958      31363036 
 5959 0339 616E6368 		.ascii	"anch revision 237715] -mcpu=cortex-m0 -mthumb -g -O"
 5959      20726576 
 5959      6973696F 
 5959      6E203233 
 5959      37373135 
 5960 036c 67202D66 		.ascii	"g -ffunction-sections -ffat-lto-objects\000"
 5960      66756E63 
 5960      74696F6E 
 5960      2D736563 
 5960      74696F6E 
 5961              	.LASF35:
 5962 0394 6E657752 		.ascii	"newRegisterValue\000"
 5962      65676973 
 5962      74657256 
 5962      616C7565 
 5962      00
 5963              	.LASF23:
 5964 03a5 43617053 		.ascii	"CapSense_WriteSensorRaw\000"
ARM GAS  C:\Users\Ray\AppData\Local\Temp\ccn7U9Aq.s 			page 150


 5964      656E7365 
 5964      5F577269 
 5964      74655365 
 5964      6E736F72 
 5965              	.LASF106:
 5966 03bd 43617053 		.ascii	"CapSense_senseClkDividerVal\000"
 5966      656E7365 
 5966      5F73656E 
 5966      7365436C 
 5966      6B446976 
 5967              	.LASF20:
 5968 03d9 43617053 		.ascii	"CapSense_Enable\000"
 5968      656E7365 
 5968      5F456E61 
 5968      626C6500 
 5969              	.LASF39:
 5970 03e9 73656E73 		.ascii	"sensorState\000"
 5970      6F725374 
 5970      61746500 
 5971              	.LASF63:
 5972 03f5 43617053 		.ascii	"CapSense_PreScan\000"
 5972      656E7365 
 5972      5F507265 
 5972      5363616E 
 5972      00
 5973              	.LASF59:
 5974 0406 6F666673 		.ascii	"offset\000"
 5974      657400
 5975              	.LASF135:
 5976 040d 5C5C5642 		.ascii	"\\\\VBOXSVR\\raywang\\Dropbox (MIT)\\CTFs\\eCTF\\ec"
 5976      4F585356 
 5976      525C7261 
 5976      7977616E 
 5976      675C4472 
 5977 0439 74662D32 		.ascii	"tf-2018-techsec\\AESTest.cydsn\000"
 5977      3031382D 
 5977      74656368 
 5977      7365635C 
 5977      41455354 
 5978              	.LASF26:
 5979 0457 43617053 		.ascii	"CapSense_SetScanResolution\000"
 5979      656E7365 
 5979      5F536574 
 5979      5363616E 
 5979      5265736F 
 5980              	.LASF66:
 5981 0472 43617053 		.ascii	"CapSense_ScanSensor\000"
 5981      656E7365 
 5981      5F536361 
 5981      6E53656E 
 5981      736F7200 
 5982              	.LASF48:
 5983 0486 7072744E 		.ascii	"prtNumberTmp\000"
 5983      756D6265 
 5983      72546D70 
 5983      00
 5984              	.LASF71:
ARM GAS  C:\Users\Ray\AppData\Local\Temp\ccn7U9Aq.s 			page 151


 5985 0493 73656E73 		.ascii	"sensorsPerWidget\000"
 5985      6F727350 
 5985      65725769 
 5985      64676574 
 5985      00
 5986              	.LASF94:
 5987 04a4 43617053 		.ascii	"CapSense_initVar\000"
 5987      656E7365 
 5987      5F696E69 
 5987      74566172 
 5987      00
 5988              	.LASF117:
 5989 04b5 43617053 		.ascii	"CapSense_numberOfSensors\000"
 5989      656E7365 
 5989      5F6E756D 
 5989      6265724F 
 5989      6653656E 
 5990              	.LASF89:
 5991 04ce 63757253 		.ascii	"curSample\000"
 5991      616D706C 
 5991      6500
 5992              	.LASF24:
 5993 04d8 73656E73 		.ascii	"sensor\000"
 5993      6F7200
 5994              	.LASF99:
 5995 04df 43617053 		.ascii	"CapSense_sensorRaw\000"
 5995      656E7365 
 5995      5F73656E 
 5995      736F7252 
 5995      617700
 5996              	.LASF14:
 5997 04f2 63686172 		.ascii	"char\000"
 5997      00
 5998              	.LASF130:
 5999 04f7 43794578 		.ascii	"CyExitCriticalSection\000"
 5999      69744372 
 5999      69746963 
 5999      616C5365 
 5999      6374696F 
 6000              	.LASF131:
 6001 050d 43794465 		.ascii	"CyDelayCycles\000"
 6001      6C617943 
 6001      79636C65 
 6001      7300
 6002              	.LASF57:
 6003 051b 7461626C 		.ascii	"table\000"
 6003      6500
 6004              	.LASF61:
 6005 0521 43617053 		.ascii	"CapSense_FindNextSensor\000"
 6005      656E7365 
 6005      5F46696E 
 6005      644E6578 
 6005      7453656E 
 6006              	.LASF112:
 6007 0539 43617053 		.ascii	"CapSense_pcTable\000"
 6007      656E7365 
 6007      5F706354 
ARM GAS  C:\Users\Ray\AppData\Local\Temp\ccn7U9Aq.s 			page 152


 6007      61626C65 
 6007      00
 6008              	.LASF10:
 6009 054a 75696E74 		.ascii	"uint16\000"
 6009      313600
 6010              	.LASF120:
 6011 0551 4379496E 		.ascii	"CyIntSetVector\000"
 6011      74536574 
 6011      56656374 
 6011      6F7200
 6012              	.LASF28:
 6013 0560 7265736F 		.ascii	"resolution\000"
 6013      6C757469 
 6013      6F6E00
 6014              	.LASF105:
 6015 056b 43617053 		.ascii	"CapSense_widgetResolution\000"
 6015      656E7365 
 6015      5F776964 
 6015      67657452 
 6015      65736F6C 
 6016              	.LASF49:
 6017 0585 70696E4E 		.ascii	"pinNumberTmp\000"
 6017      756D6265 
 6017      72546D70 
 6017      00
 6018              	.LASF85:
 6019 0592 43617053 		.ascii	"CapSense_GetIDACRange\000"
 6019      656E7365 
 6019      5F476574 
 6019      49444143 
 6019      52616E67 
 6020              	.LASF67:
 6021 05a8 43617053 		.ascii	"CapSense_ScanEnabledWidgets\000"
 6021      656E7365 
 6021      5F536361 
 6021      6E456E61 
 6021      626C6564 
 6022              	.LASF103:
 6023 05c4 43617053 		.ascii	"CapSense_modulationIDAC\000"
 6023      656E7365 
 6023      5F6D6F64 
 6023      756C6174 
 6023      696F6E49 
 6024              	.LASF6:
 6025 05dc 6C6F6E67 		.ascii	"long long int\000"
 6025      206C6F6E 
 6025      6720696E 
 6025      7400
 6026              	.LASF62:
 6027 05ea 656E6162 		.ascii	"enableFlag\000"
 6027      6C65466C 
 6027      616700
 6028              	.LASF115:
 6029 05f5 43617053 		.ascii	"CapSense_pinShiftTbl\000"
 6029      656E7365 
 6029      5F70696E 
 6029      53686966 
ARM GAS  C:\Users\Ray\AppData\Local\Temp\ccn7U9Aq.s 			page 153


 6029      7454626C 
 6030              	.LASF31:
 6031 060a 43617053 		.ascii	"CapSense_EnableSensor\000"
 6031      656E7365 
 6031      5F456E61 
 6031      626C6553 
 6031      656E736F 
 6032              	.LASF77:
 6033 0620 43617053 		.ascii	"CapSense_SetModulatorClkDivider\000"
 6033      656E7365 
 6033      5F536574 
 6033      4D6F6475 
 6033      6C61746F 
 6034              	.LASF100:
 6035 0640 43617053 		.ascii	"CapSense_unscannedSnsDriveMode\000"
 6035      656E7365 
 6035      5F756E73 
 6035      63616E6E 
 6035      6564536E 
 6036              	.LASF73:
 6037 065f 43617053 		.ascii	"CapSense_GetSenseClkDivider\000"
 6037      656E7365 
 6037      5F476574 
 6037      53656E73 
 6037      65436C6B 
 6038              	.LASF11:
 6039 067b 75696E74 		.ascii	"uint32\000"
 6039      333200
 6040              	.LASF44:
 6041 0682 70696E4E 		.ascii	"pinNumber\000"
 6041      756D6265 
 6041      7200
 6042              	.LASF41:
 6043 068c 736E7349 		.ascii	"snsIndex\000"
 6043      6E646578 
 6043      00
 6044              	.LASF18:
 6045 0695 6C6F6E67 		.ascii	"long double\000"
 6045      20646F75 
 6045      626C6500 
 6046              	.LASF72:
 6047 06a1 6C617374 		.ascii	"lastSensor\000"
 6047      53656E73 
 6047      6F7200
 6048              	.LASF16:
 6049 06ac 72656733 		.ascii	"reg32\000"
 6049      3200
 6050              	.LASF50:
 6051 06b2 43617053 		.ascii	"CapSense_RestoreDriveModeAllPins\000"
 6051      656E7365 
 6051      5F526573 
 6051      746F7265 
 6051      44726976 
 6052              	.LASF122:
 6053 06d3 43617053 		.ascii	"CapSense_SenseClk_Stop\000"
 6053      656E7365 
 6053      5F53656E 
ARM GAS  C:\Users\Ray\AppData\Local\Temp\ccn7U9Aq.s 			page 154


 6053      7365436C 
 6053      6B5F5374 
 6054              	.LASF86:
 6055 06ea 43617053 		.ascii	"CapSense_SetIDACRange\000"
 6055      656E7365 
 6055      5F536574 
 6055      49444143 
 6055      52616E67 
 6056              	.LASF45:
 6057 0700 706F7274 		.ascii	"portNumber\000"
 6057      4E756D62 
 6057      657200
 6058              	.LASF88:
 6059 070b 43617053 		.ascii	"CapSense_GetSensorRaw\000"
 6059      656E7365 
 6059      5F476574 
 6059      53656E73 
 6059      6F725261 
 6060              	.LASF92:
 6061 0721 43617053 		.ascii	"CapSense_Init\000"
 6061      656E7365 
 6061      5F496E69 
 6061      7400
 6062              	.LASF75:
 6063 072f 73656E73 		.ascii	"senseClk\000"
 6063      65436C6B 
 6063      00
 6064              	.LASF42:
 6065 0738 43617053 		.ascii	"CapSense_SetPinDriveMode\000"
 6065      656E7365 
 6065      5F536574 
 6065      50696E44 
 6065      72697665 
 6066              	.LASF2:
 6067 0751 73686F72 		.ascii	"short int\000"
 6067      7420696E 
 6067      7400
 6068              	.LASF4:
 6069 075b 6C6F6E67 		.ascii	"long int\000"
 6069      20696E74 
 6069      00
 6070              	.LASF53:
 6071 0764 64656C61 		.ascii	"delay\000"
 6071      7900
 6072              	.LASF55:
 6073 076a 43617053 		.ascii	"CapSense_ReadCurrentScanningSensor\000"
 6073      656E7365 
 6073      5F526561 
 6073      64437572 
 6073      72656E74 
 6074              	.LASF46:
 6075 078d 43617053 		.ascii	"CapSense_SetDriveModeAllPins\000"
 6075      656E7365 
 6075      5F536574 
 6075      44726976 
 6075      654D6F64 
 6076              	.LASF101:
ARM GAS  C:\Users\Ray\AppData\Local\Temp\ccn7U9Aq.s 			page 155


 6077 07aa 43617053 		.ascii	"CapSense_sensorEnableMaskBackup\000"
 6077      656E7365 
 6077      5F73656E 
 6077      736F7245 
 6077      6E61626C 
 6078              	.LASF91:
 6079 07ca 43617053 		.ascii	"CapSense_SetUnscannedSensorState\000"
 6079      656E7365 
 6079      5F536574 
 6079      556E7363 
 6079      616E6E65 
 6080              	.LASF124:
 6081 07eb 43617053 		.ascii	"CapSense_SampleClk_SetFractionalDividerRegister\000"
 6081      656E7365 
 6081      5F53616D 
 6081      706C6543 
 6081      6C6B5F53 
 6082              	.LASF76:
 6083 081b 43617053 		.ascii	"CapSense_GetModulatorClkDivider\000"
 6083      656E7365 
 6083      5F476574 
 6083      4D6F6475 
 6083      6C61746F 
 6084              	.LASF102:
 6085 083b 43617053 		.ascii	"CapSense_sensorEnableMask\000"
 6085      656E7365 
 6085      5F73656E 
 6085      736F7245 
 6085      6E61626C 
 6086              	.LASF87:
 6087 0855 69446163 		.ascii	"iDacRange\000"
 6087      52616E67 
 6087      6500
 6088              	.LASF113:
 6089 085f 43617053 		.ascii	"CapSense_portTable\000"
 6089      656E7365 
 6089      5F706F72 
 6089      74546162 
 6089      6C6500
 6090              	.LASF84:
 6091 0872 636F6D70 		.ascii	"compIdacValue\000"
 6091      49646163 
 6091      56616C75 
 6091      6500
 6092              	.LASF123:
 6093 0880 43617053 		.ascii	"CapSense_SampleClk_Stop\000"
 6093      656E7365 
 6093      5F53616D 
 6093      706C6543 
 6093      6C6B5F53 
 6094              	.LASF81:
 6095 0898 6D6F6449 		.ascii	"modIdacValue\000"
 6095      64616356 
 6095      616C7565 
 6095      00
 6096              	.LASF17:
 6097 08a5 73697A65 		.ascii	"sizetype\000"
ARM GAS  C:\Users\Ray\AppData\Local\Temp\ccn7U9Aq.s 			page 156


 6097      74797065 
 6097      00
 6098              	.LASF5:
 6099 08ae 6C6F6E67 		.ascii	"long unsigned int\000"
 6099      20756E73 
 6099      69676E65 
 6099      6420696E 
 6099      7400
 6100              	.LASF36:
 6101 08c0 706F7274 		.ascii	"port\000"
 6101      00
 6102              	.LASF127:
 6103 08c5 43617053 		.ascii	"CapSense_SampleClk_Start\000"
 6103      656E7365 
 6103      5F53616D 
 6103      706C6543 
 6103      6C6B5F53 
 6104              	.LASF60:
 6105 08de 656E4D61 		.ascii	"enMask\000"
 6105      736B00
 6106              	.LASF132:
 6107 08e5 43617053 		.ascii	"CapSense_AutoTune\000"
 6107      656E7365 
 6107      5F417574 
 6107      6F54756E 
 6107      6500
 6108              	.LASF1:
 6109 08f7 756E7369 		.ascii	"unsigned char\000"
 6109      676E6564 
 6109      20636861 
 6109      7200
 6110              	.LASF64:
 6111 0905 636F756E 		.ascii	"counterResolution\000"
 6111      74657252 
 6111      65736F6C 
 6111      7574696F 
 6111      6E00
 6112              	.LASF29:
 6113 0917 43617053 		.ascii	"CapSense_ReadSensorRaw\000"
 6113      656E7365 
 6113      5F526561 
 6113      6453656E 
 6113      736F7252 
 6114              	.LASF80:
 6115 092e 43617053 		.ascii	"CapSense_SetModulationIDAC\000"
 6115      656E7365 
 6115      5F536574 
 6115      4D6F6475 
 6115      6C617469 
 6116              	.LASF69:
 6117 0949 43617053 		.ascii	"CapSense_SetBitValue\000"
 6117      656E7365 
 6117      5F536574 
 6117      42697456 
 6117      616C7565 
 6118              	.LASF56:
 6119 095e 43617053 		.ascii	"CapSense_GetBitValue\000"
ARM GAS  C:\Users\Ray\AppData\Local\Temp\ccn7U9Aq.s 			page 157


 6119      656E7365 
 6119      5F476574 
 6119      42697456 
 6119      616C7565 
 6120              	.LASF82:
 6121 0973 43617053 		.ascii	"CapSense_GetCompensationIDAC\000"
 6121      656E7365 
 6121      5F476574 
 6121      436F6D70 
 6121      656E7361 
 6122              	.LASF95:
 6123 0990 43617053 		.ascii	"CapSense_lowLevelTuningDone\000"
 6123      656E7365 
 6123      5F6C6F77 
 6123      4C657665 
 6123      6C54756E 
 6124              	.LASF125:
 6125 09ac 43617053 		.ascii	"CapSense_SenseClk_SetFractionalDividerRegister\000"
 6125      656E7365 
 6125      5F53656E 
 6125      7365436C 
 6125      6B5F5365 
 6126              	.LASF128:
 6127 09db 4379496E 		.ascii	"CyIntEnable\000"
 6127      74456E61 
 6127      626C6500 
 6128              	.LASF79:
 6129 09e7 43617053 		.ascii	"CapSense_GetModulationIDAC\000"
 6129      656E7365 
 6129      5F476574 
 6129      4D6F6475 
 6129      6C617469 
 6130              	.LASF129:
 6131 0a02 4379456E 		.ascii	"CyEnterCriticalSection\000"
 6131      74657243 
 6131      72697469 
 6131      63616C53 
 6131      65637469 
 6132              	.LASF0:
 6133 0a19 7369676E 		.ascii	"signed char\000"
 6133      65642063 
 6133      68617200 
 6134              	.LASF3:
 6135 0a25 73686F72 		.ascii	"short unsigned int\000"
 6135      7420756E 
 6135      7369676E 
 6135      65642069 
 6135      6E7400
 6136              	.LASF21:
 6137 0a38 6E657752 		.ascii	"newRegValue\000"
 6137      65675661 
 6137      6C756500 
 6138              	.LASF9:
 6139 0a44 75696E74 		.ascii	"uint8\000"
 6139      3800
 6140              	.LASF13:
 6141 0a4a 646F7562 		.ascii	"double\000"
ARM GAS  C:\Users\Ray\AppData\Local\Temp\ccn7U9Aq.s 			page 158


 6141      6C6500
 6142              	.LASF47:
 6143 0a51 63757253 		.ascii	"curSensor\000"
 6143      656E736F 
 6143      7200
 6144              	.LASF65:
 6145 0a5b 6F766572 		.ascii	"oversamplingFactor\000"
 6145      73616D70 
 6145      6C696E67 
 6145      46616374 
 6145      6F7200
 6146              	.LASF43:
 6147 0a6e 64726976 		.ascii	"driveMode\000"
 6147      654D6F64 
 6147      6500
 6148              	.LASF58:
 6149 0a78 706F7369 		.ascii	"position\000"
 6149      74696F6E 
 6149      00
 6150              		.ident	"GCC: (GNU Tools for ARM Embedded Processors) 5.4.1 20160609 (release) [ARM/embedded-5-bran
