ARM GAS  C:\Users\Ray\AppData\Local\Temp\cc0vTyt3.s 			page 1


   1              		.syntax unified
   2              		.cpu cortex-m0
   3              		.fpu softvfp
   4              		.eabi_attribute 20, 1
   5              		.eabi_attribute 21, 1
   6              		.eabi_attribute 23, 3
   7              		.eabi_attribute 24, 1
   8              		.eabi_attribute 25, 1
   9              		.eabi_attribute 26, 1
  10              		.eabi_attribute 30, 1
  11              		.eabi_attribute 34, 0
  12              		.eabi_attribute 18, 4
  13              		.thumb
  14              		.syntax unified
  15              		.file	"Comp_0.c"
  16              		.text
  17              	.Ltext0:
  18              		.cfi_sections	.debug_frame
  19              		.section	.text.Comp_0_Init,"ax",%progbits
  20              		.align	2
  21              		.global	Comp_0_Init
  22              		.code	16
  23              		.thumb_func
  24              		.type	Comp_0_Init, %function
  25              	Comp_0_Init:
  26              	.LFB1:
  27              		.file 1 "Generated_Source\\PSoC4\\Comp_0.c"
   1:Generated_Source\PSoC4/Comp_0.c **** /*******************************************************************************
   2:Generated_Source\PSoC4/Comp_0.c **** * File Name: Comp_0.c
   3:Generated_Source\PSoC4/Comp_0.c **** * Version 2.20
   4:Generated_Source\PSoC4/Comp_0.c **** *
   5:Generated_Source\PSoC4/Comp_0.c **** * Description:
   6:Generated_Source\PSoC4/Comp_0.c **** *  This file provides the source code to the API for the Low Power Comparator
   7:Generated_Source\PSoC4/Comp_0.c **** *  component.
   8:Generated_Source\PSoC4/Comp_0.c **** *
   9:Generated_Source\PSoC4/Comp_0.c **** * Note:
  10:Generated_Source\PSoC4/Comp_0.c **** *  None
  11:Generated_Source\PSoC4/Comp_0.c **** *
  12:Generated_Source\PSoC4/Comp_0.c **** ********************************************************************************
  13:Generated_Source\PSoC4/Comp_0.c **** * Copyright 2013-2016, Cypress Semiconductor Corporation.  All rights reserved.
  14:Generated_Source\PSoC4/Comp_0.c **** * You may use this file only in accordance with the license, terms, conditions,
  15:Generated_Source\PSoC4/Comp_0.c **** * disclaimers, and limitations in the end user license agreement accompanying
  16:Generated_Source\PSoC4/Comp_0.c **** * the software package with which this file was provided.
  17:Generated_Source\PSoC4/Comp_0.c **** *******************************************************************************/
  18:Generated_Source\PSoC4/Comp_0.c **** 
  19:Generated_Source\PSoC4/Comp_0.c **** #include "Comp_0.h"
  20:Generated_Source\PSoC4/Comp_0.c **** #include "CyLib.h"
  21:Generated_Source\PSoC4/Comp_0.c **** #include "cyPm.h"
  22:Generated_Source\PSoC4/Comp_0.c **** 
  23:Generated_Source\PSoC4/Comp_0.c **** uint8 Comp_0_initVar = 0u;
  24:Generated_Source\PSoC4/Comp_0.c **** static uint32 Comp_0_internalIntr = 0u;
  25:Generated_Source\PSoC4/Comp_0.c **** #if(Comp_0_CY_LPCOMP_V2)
  26:Generated_Source\PSoC4/Comp_0.c ****     #if(CY_IP_SRSSV2)
  27:Generated_Source\PSoC4/Comp_0.c ****         /* This variable saves INTR_MASK register since it get reset after wakeup 
  28:Generated_Source\PSoC4/Comp_0.c ****         * from Hibernate. Attribute CY_NOINIT puts SRAM variable in memory section 
  29:Generated_Source\PSoC4/Comp_0.c ****         * which is retained in low power modes 
  30:Generated_Source\PSoC4/Comp_0.c ****         */
ARM GAS  C:\Users\Ray\AppData\Local\Temp\cc0vTyt3.s 			page 2


  31:Generated_Source\PSoC4/Comp_0.c ****         CY_NOINIT static uint32 Comp_0_intrMaskRegState;
  32:Generated_Source\PSoC4/Comp_0.c ****     #endif /* (CY_IP_SRSSV2) */
  33:Generated_Source\PSoC4/Comp_0.c **** #endif /* (Comp_0_CY_LPCOMP_V2) */
  34:Generated_Source\PSoC4/Comp_0.c **** 
  35:Generated_Source\PSoC4/Comp_0.c **** 
  36:Generated_Source\PSoC4/Comp_0.c **** /*******************************************************************************
  37:Generated_Source\PSoC4/Comp_0.c **** * Function Name: Comp_0_Start
  38:Generated_Source\PSoC4/Comp_0.c **** ********************************************************************************
  39:Generated_Source\PSoC4/Comp_0.c **** *
  40:Generated_Source\PSoC4/Comp_0.c **** * Summary:
  41:Generated_Source\PSoC4/Comp_0.c **** *  Performs all of the required initialization for the component and enables
  42:Generated_Source\PSoC4/Comp_0.c **** *  power to the block. The first time the routine is executed, the component is
  43:Generated_Source\PSoC4/Comp_0.c **** *  initialized to the configuration from the customizer. When called to restart
  44:Generated_Source\PSoC4/Comp_0.c **** *  the comparator following a Comp_0_Stop() call, the current
  45:Generated_Source\PSoC4/Comp_0.c **** *  component parameter settings are retained.
  46:Generated_Source\PSoC4/Comp_0.c **** *
  47:Generated_Source\PSoC4/Comp_0.c **** * Parameters:
  48:Generated_Source\PSoC4/Comp_0.c **** *   None
  49:Generated_Source\PSoC4/Comp_0.c **** *
  50:Generated_Source\PSoC4/Comp_0.c **** * Return:
  51:Generated_Source\PSoC4/Comp_0.c **** *  None
  52:Generated_Source\PSoC4/Comp_0.c **** *
  53:Generated_Source\PSoC4/Comp_0.c **** * Global variables:
  54:Generated_Source\PSoC4/Comp_0.c **** *  Comp_0_initVar: Is modified when this function is called for the
  55:Generated_Source\PSoC4/Comp_0.c **** *   first time. Is used to ensure that initialization happens only once.
  56:Generated_Source\PSoC4/Comp_0.c **** *
  57:Generated_Source\PSoC4/Comp_0.c **** *******************************************************************************/
  58:Generated_Source\PSoC4/Comp_0.c **** void Comp_0_Start(void)
  59:Generated_Source\PSoC4/Comp_0.c **** {
  60:Generated_Source\PSoC4/Comp_0.c ****     if(0u == Comp_0_initVar)
  61:Generated_Source\PSoC4/Comp_0.c ****     {
  62:Generated_Source\PSoC4/Comp_0.c ****         Comp_0_Init();
  63:Generated_Source\PSoC4/Comp_0.c ****         Comp_0_initVar = 1u;
  64:Generated_Source\PSoC4/Comp_0.c ****     }
  65:Generated_Source\PSoC4/Comp_0.c ****     Comp_0_Enable();
  66:Generated_Source\PSoC4/Comp_0.c **** }
  67:Generated_Source\PSoC4/Comp_0.c **** 
  68:Generated_Source\PSoC4/Comp_0.c **** 
  69:Generated_Source\PSoC4/Comp_0.c **** /*******************************************************************************
  70:Generated_Source\PSoC4/Comp_0.c **** * Function Name: Comp_0_Init
  71:Generated_Source\PSoC4/Comp_0.c **** ********************************************************************************
  72:Generated_Source\PSoC4/Comp_0.c **** *
  73:Generated_Source\PSoC4/Comp_0.c **** * Summary:
  74:Generated_Source\PSoC4/Comp_0.c **** *  Initializes or restores the component according to the customizer settings.
  75:Generated_Source\PSoC4/Comp_0.c **** *  It is not necessary to call Comp_0_Init() because the
  76:Generated_Source\PSoC4/Comp_0.c **** *  Comp_0_Start() API calls this function and is the preferred method
  77:Generated_Source\PSoC4/Comp_0.c **** *  to begin component operation.
  78:Generated_Source\PSoC4/Comp_0.c **** *
  79:Generated_Source\PSoC4/Comp_0.c **** * Parameters:
  80:Generated_Source\PSoC4/Comp_0.c **** *  None
  81:Generated_Source\PSoC4/Comp_0.c **** *
  82:Generated_Source\PSoC4/Comp_0.c **** * Return:
  83:Generated_Source\PSoC4/Comp_0.c **** *  None
  84:Generated_Source\PSoC4/Comp_0.c **** *
  85:Generated_Source\PSoC4/Comp_0.c **** *******************************************************************************/
  86:Generated_Source\PSoC4/Comp_0.c **** void Comp_0_Init(void)
  87:Generated_Source\PSoC4/Comp_0.c **** {
ARM GAS  C:\Users\Ray\AppData\Local\Temp\cc0vTyt3.s 			page 3


  28              		.loc 1 87 0
  29              		.cfi_startproc
  30              		@ args = 0, pretend = 0, frame = 0
  31              		@ frame_needed = 0, uses_anonymous_args = 0
  32 0000 10B5     		push	{r4, lr}
  33              		.cfi_def_cfa_offset 8
  34              		.cfi_offset 4, -8
  35              		.cfi_offset 14, -4
  88:Generated_Source\PSoC4/Comp_0.c ****     uint8 enableInterrupts;
  89:Generated_Source\PSoC4/Comp_0.c **** 
  90:Generated_Source\PSoC4/Comp_0.c ****     enableInterrupts = CyEnterCriticalSection();
  36              		.loc 1 90 0
  37 0002 FFF7FEFF 		bl	CyEnterCriticalSection
  38              	.LVL0:
  91:Generated_Source\PSoC4/Comp_0.c ****     Comp_0_CONFIG_REG |= Comp_0_CONFIG_REG_DEFAULT;
  39              		.loc 1 91 0
  40 0006 054A     		ldr	r2, .L2
  41 0008 1168     		ldr	r1, [r2]
  42 000a 0123     		movs	r3, #1
  43 000c 0B43     		orrs	r3, r1
  44 000e 1360     		str	r3, [r2]
  92:Generated_Source\PSoC4/Comp_0.c ****     Comp_0_internalIntr = Comp_0_GET_CONFIG_INTR(Comp_0_INTERRUPT);
  45              		.loc 1 92 0
  46 0010 3022     		movs	r2, #48
  47 0012 034B     		ldr	r3, .L2+4
  48 0014 1A60     		str	r2, [r3]
  93:Generated_Source\PSoC4/Comp_0.c ****     
  94:Generated_Source\PSoC4/Comp_0.c ****     #if (Comp_0_CY_LPCOMP_V2)
  95:Generated_Source\PSoC4/Comp_0.c ****         #if(CY_IP_SRSSV2)
  96:Generated_Source\PSoC4/Comp_0.c ****             if (CySysPmGetResetReason() == CY_PM_RESET_REASON_WAKEUP_HIB)
  97:Generated_Source\PSoC4/Comp_0.c ****             {
  98:Generated_Source\PSoC4/Comp_0.c ****                 /* Restore the INTR_MASK register state since it get reset after 
  99:Generated_Source\PSoC4/Comp_0.c ****                 * wakeup from Hibernate.  
 100:Generated_Source\PSoC4/Comp_0.c ****                 */
 101:Generated_Source\PSoC4/Comp_0.c ****                 Comp_0_INTR_MASK_REG |= Comp_0_intrMaskRegState;  
 102:Generated_Source\PSoC4/Comp_0.c ****             }
 103:Generated_Source\PSoC4/Comp_0.c ****             else
 104:Generated_Source\PSoC4/Comp_0.c ****             {
 105:Generated_Source\PSoC4/Comp_0.c ****                 Comp_0_INTR_MASK_REG |= Comp_0_INTR_MASK_REG_DEFAULT;    
 106:Generated_Source\PSoC4/Comp_0.c ****                 Comp_0_intrMaskRegState = Comp_0_INTR_MASK_REG;
 107:Generated_Source\PSoC4/Comp_0.c ****             }
 108:Generated_Source\PSoC4/Comp_0.c ****         #else
 109:Generated_Source\PSoC4/Comp_0.c ****             Comp_0_INTR_MASK_REG |= Comp_0_INTR_MASK_REG_DEFAULT;
 110:Generated_Source\PSoC4/Comp_0.c ****         #endif /* (Comp_0_CY_LPCOMP_V2) */
 111:Generated_Source\PSoC4/Comp_0.c ****     #endif /* (Comp_0_CY_LPCOMP_V2) */
 112:Generated_Source\PSoC4/Comp_0.c ****     
 113:Generated_Source\PSoC4/Comp_0.c ****     CyExitCriticalSection(enableInterrupts);
  49              		.loc 1 113 0
  50 0016 FFF7FEFF 		bl	CyExitCriticalSection
  51              	.LVL1:
 114:Generated_Source\PSoC4/Comp_0.c **** }
  52              		.loc 1 114 0
  53              		@ sp needed
  54 001a 10BD     		pop	{r4, pc}
  55              	.L3:
  56              		.align	2
  57              	.L2:
ARM GAS  C:\Users\Ray\AppData\Local\Temp\cc0vTyt3.s 			page 4


  58 001c 04000A40 		.word	1074397188
  59 0020 00000000 		.word	.LANCHOR0
  60              		.cfi_endproc
  61              	.LFE1:
  62              		.size	Comp_0_Init, .-Comp_0_Init
  63              		.section	.text.Comp_0_Enable,"ax",%progbits
  64              		.align	2
  65              		.global	Comp_0_Enable
  66              		.code	16
  67              		.thumb_func
  68              		.type	Comp_0_Enable, %function
  69              	Comp_0_Enable:
  70              	.LFB2:
 115:Generated_Source\PSoC4/Comp_0.c **** 
 116:Generated_Source\PSoC4/Comp_0.c **** 
 117:Generated_Source\PSoC4/Comp_0.c **** /*******************************************************************************
 118:Generated_Source\PSoC4/Comp_0.c **** * Function Name: Comp_0_Enable
 119:Generated_Source\PSoC4/Comp_0.c **** ********************************************************************************
 120:Generated_Source\PSoC4/Comp_0.c **** *
 121:Generated_Source\PSoC4/Comp_0.c **** * Summary:
 122:Generated_Source\PSoC4/Comp_0.c **** *  Activates the hardware and begins component operation. It is not necessary
 123:Generated_Source\PSoC4/Comp_0.c **** *  to call Comp_0_Enable() because the Comp_0_Start() API
 124:Generated_Source\PSoC4/Comp_0.c **** *  calls this function, which is the preferred method to begin component
 125:Generated_Source\PSoC4/Comp_0.c **** *  operation.
 126:Generated_Source\PSoC4/Comp_0.c **** *
 127:Generated_Source\PSoC4/Comp_0.c **** * Parameters:
 128:Generated_Source\PSoC4/Comp_0.c **** *  None
 129:Generated_Source\PSoC4/Comp_0.c **** *
 130:Generated_Source\PSoC4/Comp_0.c **** * Return:
 131:Generated_Source\PSoC4/Comp_0.c **** *  None
 132:Generated_Source\PSoC4/Comp_0.c **** *
 133:Generated_Source\PSoC4/Comp_0.c **** *******************************************************************************/
 134:Generated_Source\PSoC4/Comp_0.c **** void Comp_0_Enable(void)
 135:Generated_Source\PSoC4/Comp_0.c **** {
  71              		.loc 1 135 0
  72              		.cfi_startproc
  73              		@ args = 0, pretend = 0, frame = 0
  74              		@ frame_needed = 0, uses_anonymous_args = 0
  75 0000 10B5     		push	{r4, lr}
  76              		.cfi_def_cfa_offset 8
  77              		.cfi_offset 4, -8
  78              		.cfi_offset 14, -4
 136:Generated_Source\PSoC4/Comp_0.c ****     uint8 enableInterrupts;
 137:Generated_Source\PSoC4/Comp_0.c ****     
 138:Generated_Source\PSoC4/Comp_0.c ****     enableInterrupts = CyEnterCriticalSection();
  79              		.loc 1 138 0
  80 0002 FFF7FEFF 		bl	CyEnterCriticalSection
  81              	.LVL2:
 139:Generated_Source\PSoC4/Comp_0.c ****     Comp_0_CONFIG_REG |= Comp_0_CONFIG_EN;
  82              		.loc 1 139 0
  83 0006 064B     		ldr	r3, .L5
  84 0008 1968     		ldr	r1, [r3]
  85 000a 8022     		movs	r2, #128
  86 000c 0A43     		orrs	r2, r1
  87 000e 1A60     		str	r2, [r3]
 140:Generated_Source\PSoC4/Comp_0.c ****     
 141:Generated_Source\PSoC4/Comp_0.c ****     /*******************************************************
ARM GAS  C:\Users\Ray\AppData\Local\Temp\cc0vTyt3.s 			page 5


 142:Generated_Source\PSoC4/Comp_0.c ****     * When the Enable() API is called the CONFIG_EN bit is set. 
 143:Generated_Source\PSoC4/Comp_0.c ****     * This can cause fake interrupt because of the output delay 
 144:Generated_Source\PSoC4/Comp_0.c ****     * of the analog. This requires setting the CONFIG_INTR bits 
 145:Generated_Source\PSoC4/Comp_0.c ****     * after the CONFIG_EN bit is set.
 146:Generated_Source\PSoC4/Comp_0.c ****     *******************************************************/
 147:Generated_Source\PSoC4/Comp_0.c ****     Comp_0_CONFIG_REG |= Comp_0_internalIntr;
  88              		.loc 1 147 0
  89 0010 1968     		ldr	r1, [r3]
  90 0012 044A     		ldr	r2, .L5+4
  91 0014 1268     		ldr	r2, [r2]
  92 0016 0A43     		orrs	r2, r1
  93 0018 1A60     		str	r2, [r3]
 148:Generated_Source\PSoC4/Comp_0.c ****     CyExitCriticalSection(enableInterrupts);
  94              		.loc 1 148 0
  95 001a FFF7FEFF 		bl	CyExitCriticalSection
  96              	.LVL3:
 149:Generated_Source\PSoC4/Comp_0.c **** }
  97              		.loc 1 149 0
  98              		@ sp needed
  99 001e 10BD     		pop	{r4, pc}
 100              	.L6:
 101              		.align	2
 102              	.L5:
 103 0020 04000A40 		.word	1074397188
 104 0024 00000000 		.word	.LANCHOR0
 105              		.cfi_endproc
 106              	.LFE2:
 107              		.size	Comp_0_Enable, .-Comp_0_Enable
 108              		.section	.text.Comp_0_Start,"ax",%progbits
 109              		.align	2
 110              		.global	Comp_0_Start
 111              		.code	16
 112              		.thumb_func
 113              		.type	Comp_0_Start, %function
 114              	Comp_0_Start:
 115              	.LFB0:
  59:Generated_Source\PSoC4/Comp_0.c ****     if(0u == Comp_0_initVar)
 116              		.loc 1 59 0
 117              		.cfi_startproc
 118              		@ args = 0, pretend = 0, frame = 0
 119              		@ frame_needed = 0, uses_anonymous_args = 0
 120 0000 10B5     		push	{r4, lr}
 121              		.cfi_def_cfa_offset 8
 122              		.cfi_offset 4, -8
 123              		.cfi_offset 14, -4
  60:Generated_Source\PSoC4/Comp_0.c ****     {
 124              		.loc 1 60 0
 125 0002 064B     		ldr	r3, .L9
 126 0004 1B79     		ldrb	r3, [r3, #4]
 127 0006 002B     		cmp	r3, #0
 128 0008 04D1     		bne	.L8
  62:Generated_Source\PSoC4/Comp_0.c ****         Comp_0_initVar = 1u;
 129              		.loc 1 62 0
 130 000a FFF7FEFF 		bl	Comp_0_Init
 131              	.LVL4:
  63:Generated_Source\PSoC4/Comp_0.c ****     }
 132              		.loc 1 63 0
ARM GAS  C:\Users\Ray\AppData\Local\Temp\cc0vTyt3.s 			page 6


 133 000e 0122     		movs	r2, #1
 134 0010 024B     		ldr	r3, .L9
 135 0012 1A71     		strb	r2, [r3, #4]
 136              	.L8:
  65:Generated_Source\PSoC4/Comp_0.c **** }
 137              		.loc 1 65 0
 138 0014 FFF7FEFF 		bl	Comp_0_Enable
 139              	.LVL5:
  66:Generated_Source\PSoC4/Comp_0.c **** 
 140              		.loc 1 66 0
 141              		@ sp needed
 142 0018 10BD     		pop	{r4, pc}
 143              	.L10:
 144 001a C046     		.align	2
 145              	.L9:
 146 001c 00000000 		.word	.LANCHOR0
 147              		.cfi_endproc
 148              	.LFE0:
 149              		.size	Comp_0_Start, .-Comp_0_Start
 150              		.section	.text.Comp_0_Stop,"ax",%progbits
 151              		.align	2
 152              		.global	Comp_0_Stop
 153              		.code	16
 154              		.thumb_func
 155              		.type	Comp_0_Stop, %function
 156              	Comp_0_Stop:
 157              	.LFB3:
 150:Generated_Source\PSoC4/Comp_0.c **** 
 151:Generated_Source\PSoC4/Comp_0.c **** 
 152:Generated_Source\PSoC4/Comp_0.c **** /*******************************************************************************
 153:Generated_Source\PSoC4/Comp_0.c **** * Function Name: Comp_0_Stop
 154:Generated_Source\PSoC4/Comp_0.c **** ********************************************************************************
 155:Generated_Source\PSoC4/Comp_0.c **** *
 156:Generated_Source\PSoC4/Comp_0.c **** * Summary:
 157:Generated_Source\PSoC4/Comp_0.c **** *  Turns off the LP Comparator.
 158:Generated_Source\PSoC4/Comp_0.c **** *
 159:Generated_Source\PSoC4/Comp_0.c **** * Parameters:
 160:Generated_Source\PSoC4/Comp_0.c **** *  None
 161:Generated_Source\PSoC4/Comp_0.c **** *
 162:Generated_Source\PSoC4/Comp_0.c **** * Return:
 163:Generated_Source\PSoC4/Comp_0.c **** *  None
 164:Generated_Source\PSoC4/Comp_0.c **** *
 165:Generated_Source\PSoC4/Comp_0.c **** * Side Effects:
 166:Generated_Source\PSoC4/Comp_0.c **** *  The function doesn't change component Speed settings.
 167:Generated_Source\PSoC4/Comp_0.c **** *
 168:Generated_Source\PSoC4/Comp_0.c **** *******************************************************************************/
 169:Generated_Source\PSoC4/Comp_0.c **** void Comp_0_Stop(void)
 170:Generated_Source\PSoC4/Comp_0.c **** {
 158              		.loc 1 170 0
 159              		.cfi_startproc
 160              		@ args = 0, pretend = 0, frame = 0
 161              		@ frame_needed = 0, uses_anonymous_args = 0
 162 0000 10B5     		push	{r4, lr}
 163              		.cfi_def_cfa_offset 8
 164              		.cfi_offset 4, -8
 165              		.cfi_offset 14, -4
 171:Generated_Source\PSoC4/Comp_0.c ****     uint8 enableInterrupts;
ARM GAS  C:\Users\Ray\AppData\Local\Temp\cc0vTyt3.s 			page 7


 172:Generated_Source\PSoC4/Comp_0.c ****     
 173:Generated_Source\PSoC4/Comp_0.c ****     enableInterrupts = CyEnterCriticalSection();
 166              		.loc 1 173 0
 167 0002 FFF7FEFF 		bl	CyEnterCriticalSection
 168              	.LVL6:
 174:Generated_Source\PSoC4/Comp_0.c ****     #if (Comp_0_CY_LPCOMP_V0)
 175:Generated_Source\PSoC4/Comp_0.c ****         /*******************************************************
 176:Generated_Source\PSoC4/Comp_0.c ****         * When the Stop() API is called the CONFIG_EN bit is 
 177:Generated_Source\PSoC4/Comp_0.c ****         * cleared. This causes the output of the comparator to go 
 178:Generated_Source\PSoC4/Comp_0.c ****         * low. If the comparator output was high and the Interrupt 
 179:Generated_Source\PSoC4/Comp_0.c ****         * Configuration is set for Falling edge disabling the 
 180:Generated_Source\PSoC4/Comp_0.c ****         * comparator will cause an fake interrupt. This requires 
 181:Generated_Source\PSoC4/Comp_0.c ****         * to clear the CONFIG_INTR bits before the CONFIG_EN bit 
 182:Generated_Source\PSoC4/Comp_0.c ****         * is cleared.
 183:Generated_Source\PSoC4/Comp_0.c ****         *******************************************************/
 184:Generated_Source\PSoC4/Comp_0.c ****         Comp_0_CONFIG_REG &= (uint32)~Comp_0_CONFIG_INTR_MASK;
 169              		.loc 1 184 0
 170 0006 064B     		ldr	r3, .L12
 171 0008 1A68     		ldr	r2, [r3]
 172 000a 3021     		movs	r1, #48
 173 000c 8A43     		bics	r2, r1
 174 000e 1A60     		str	r2, [r3]
 185:Generated_Source\PSoC4/Comp_0.c ****     #endif /* (Comp_0_CY_LPCOMP_V0) */
 186:Generated_Source\PSoC4/Comp_0.c **** 
 187:Generated_Source\PSoC4/Comp_0.c ****     Comp_0_CONFIG_REG &= (uint32)~Comp_0_CONFIG_EN;
 175              		.loc 1 187 0
 176 0010 1A68     		ldr	r2, [r3]
 177 0012 5031     		adds	r1, r1, #80
 178 0014 8A43     		bics	r2, r1
 179 0016 1A60     		str	r2, [r3]
 188:Generated_Source\PSoC4/Comp_0.c ****     CyExitCriticalSection(enableInterrupts);
 180              		.loc 1 188 0
 181 0018 FFF7FEFF 		bl	CyExitCriticalSection
 182              	.LVL7:
 189:Generated_Source\PSoC4/Comp_0.c **** }
 183              		.loc 1 189 0
 184              		@ sp needed
 185 001c 10BD     		pop	{r4, pc}
 186              	.L13:
 187 001e C046     		.align	2
 188              	.L12:
 189 0020 04000A40 		.word	1074397188
 190              		.cfi_endproc
 191              	.LFE3:
 192              		.size	Comp_0_Stop, .-Comp_0_Stop
 193              		.section	.text.Comp_0_SetSpeed,"ax",%progbits
 194              		.align	2
 195              		.global	Comp_0_SetSpeed
 196              		.code	16
 197              		.thumb_func
 198              		.type	Comp_0_SetSpeed, %function
 199              	Comp_0_SetSpeed:
 200              	.LFB4:
 190:Generated_Source\PSoC4/Comp_0.c **** 
 191:Generated_Source\PSoC4/Comp_0.c **** 
 192:Generated_Source\PSoC4/Comp_0.c **** /*******************************************************************************
 193:Generated_Source\PSoC4/Comp_0.c **** * Function Name: Comp_0_SetSpeed
ARM GAS  C:\Users\Ray\AppData\Local\Temp\cc0vTyt3.s 			page 8


 194:Generated_Source\PSoC4/Comp_0.c **** *
 195:Generated_Source\PSoC4/Comp_0.c **** * Summary:
 196:Generated_Source\PSoC4/Comp_0.c **** *  Sets the drive power and speed to one of three settings.
 197:Generated_Source\PSoC4/Comp_0.c **** *
 198:Generated_Source\PSoC4/Comp_0.c **** * Parameters:
 199:Generated_Source\PSoC4/Comp_0.c **** *  uint32 speed: Sets operation mode of the component:
 200:Generated_Source\PSoC4/Comp_0.c **** *   Comp_0_LOW_SPEED  - Slow/ultra low 
 201:Generated_Source\PSoC4/Comp_0.c **** *   Comp_0_MED_SPEED  - Medium/low 
 202:Generated_Source\PSoC4/Comp_0.c **** *   Comp_0_HIGH_SPEED - Fast/normal 
 203:Generated_Source\PSoC4/Comp_0.c **** *
 204:Generated_Source\PSoC4/Comp_0.c **** * Return:
 205:Generated_Source\PSoC4/Comp_0.c **** *  None
 206:Generated_Source\PSoC4/Comp_0.c **** *
 207:Generated_Source\PSoC4/Comp_0.c **** *******************************************************************************/
 208:Generated_Source\PSoC4/Comp_0.c **** void Comp_0_SetSpeed(uint32 speed)
 209:Generated_Source\PSoC4/Comp_0.c **** {
 201              		.loc 1 209 0
 202              		.cfi_startproc
 203              		@ args = 0, pretend = 0, frame = 0
 204              		@ frame_needed = 0, uses_anonymous_args = 0
 205              	.LVL8:
 206 0000 10B5     		push	{r4, lr}
 207              		.cfi_def_cfa_offset 8
 208              		.cfi_offset 4, -8
 209              		.cfi_offset 14, -4
 210 0002 0400     		movs	r4, r0
 210:Generated_Source\PSoC4/Comp_0.c ****     uint32 config;
 211:Generated_Source\PSoC4/Comp_0.c ****     uint8 enableInterrupts;
 212:Generated_Source\PSoC4/Comp_0.c ****     
 213:Generated_Source\PSoC4/Comp_0.c ****     enableInterrupts = CyEnterCriticalSection();
 211              		.loc 1 213 0
 212 0004 FFF7FEFF 		bl	CyEnterCriticalSection
 213              	.LVL9:
 214:Generated_Source\PSoC4/Comp_0.c ****     config = Comp_0_CONFIG_REG & (uint32)~Comp_0_CONFIG_SPEED_MODE_MASK;
 214              		.loc 1 214 0
 215 0008 044A     		ldr	r2, .L15
 216 000a 1368     		ldr	r3, [r2]
 217 000c 0321     		movs	r1, #3
 218 000e 8B43     		bics	r3, r1
 219              	.LVL10:
 215:Generated_Source\PSoC4/Comp_0.c ****     Comp_0_CONFIG_REG = config | Comp_0_GET_CONFIG_SPEED_MODE(speed);
 220              		.loc 1 215 0
 221 0010 0C40     		ands	r4, r1
 222              	.LVL11:
 223 0012 1C43     		orrs	r4, r3
 224 0014 1460     		str	r4, [r2]
 216:Generated_Source\PSoC4/Comp_0.c ****     CyExitCriticalSection(enableInterrupts);
 225              		.loc 1 216 0
 226 0016 FFF7FEFF 		bl	CyExitCriticalSection
 227              	.LVL12:
 217:Generated_Source\PSoC4/Comp_0.c **** }
 228              		.loc 1 217 0
 229              		@ sp needed
 230 001a 10BD     		pop	{r4, pc}
 231              	.L16:
 232              		.align	2
 233              	.L15:
ARM GAS  C:\Users\Ray\AppData\Local\Temp\cc0vTyt3.s 			page 9


 234 001c 04000A40 		.word	1074397188
 235              		.cfi_endproc
 236              	.LFE4:
 237              		.size	Comp_0_SetSpeed, .-Comp_0_SetSpeed
 238              		.section	.text.Comp_0_SetInterruptMode,"ax",%progbits
 239              		.align	2
 240              		.global	Comp_0_SetInterruptMode
 241              		.code	16
 242              		.thumb_func
 243              		.type	Comp_0_SetInterruptMode, %function
 244              	Comp_0_SetInterruptMode:
 245              	.LFB5:
 218:Generated_Source\PSoC4/Comp_0.c **** 
 219:Generated_Source\PSoC4/Comp_0.c **** 
 220:Generated_Source\PSoC4/Comp_0.c **** /*******************************************************************************
 221:Generated_Source\PSoC4/Comp_0.c **** * Function Name: Comp_0_SetInterruptMode
 222:Generated_Source\PSoC4/Comp_0.c **** ********************************************************************************
 223:Generated_Source\PSoC4/Comp_0.c **** *
 224:Generated_Source\PSoC4/Comp_0.c **** * Summary:
 225:Generated_Source\PSoC4/Comp_0.c **** *  Sets the interrupt edge detect mode. This also controls the value provided
 226:Generated_Source\PSoC4/Comp_0.c **** *  on the output.
 227:Generated_Source\PSoC4/Comp_0.c **** *
 228:Generated_Source\PSoC4/Comp_0.c **** * Parameters:
 229:Generated_Source\PSoC4/Comp_0.c **** *  uint32 mode: Enumerated edge detect mode value:
 230:Generated_Source\PSoC4/Comp_0.c **** *  Comp_0_INTR_DISABLE - Disable
 231:Generated_Source\PSoC4/Comp_0.c **** *  Comp_0_INTR_RISING  - Rising edge detect
 232:Generated_Source\PSoC4/Comp_0.c **** *  Comp_0_INTR_FALLING - Falling edge detect
 233:Generated_Source\PSoC4/Comp_0.c **** *  Comp_0_INTR_BOTH    - Detect both edges
 234:Generated_Source\PSoC4/Comp_0.c **** *
 235:Generated_Source\PSoC4/Comp_0.c **** * Return:
 236:Generated_Source\PSoC4/Comp_0.c **** *  None
 237:Generated_Source\PSoC4/Comp_0.c **** *
 238:Generated_Source\PSoC4/Comp_0.c **** *******************************************************************************/
 239:Generated_Source\PSoC4/Comp_0.c **** void Comp_0_SetInterruptMode(uint32 mode)
 240:Generated_Source\PSoC4/Comp_0.c **** {
 246              		.loc 1 240 0
 247              		.cfi_startproc
 248              		@ args = 0, pretend = 0, frame = 0
 249              		@ frame_needed = 0, uses_anonymous_args = 0
 250              	.LVL13:
 251 0000 70B5     		push	{r4, r5, r6, lr}
 252              		.cfi_def_cfa_offset 16
 253              		.cfi_offset 4, -16
 254              		.cfi_offset 5, -12
 255              		.cfi_offset 6, -8
 256              		.cfi_offset 14, -4
 241:Generated_Source\PSoC4/Comp_0.c ****     uint32 config;
 242:Generated_Source\PSoC4/Comp_0.c ****     uint8 enableInterrupts;
 243:Generated_Source\PSoC4/Comp_0.c ****     
 244:Generated_Source\PSoC4/Comp_0.c ****     Comp_0_internalIntr = Comp_0_GET_CONFIG_INTR(mode);
 257              		.loc 1 244 0
 258 0002 0001     		lsls	r0, r0, #4
 259              	.LVL14:
 260 0004 3025     		movs	r5, #48
 261 0006 2840     		ands	r0, r5
 262 0008 064C     		ldr	r4, .L18
 263 000a 2060     		str	r0, [r4]
ARM GAS  C:\Users\Ray\AppData\Local\Temp\cc0vTyt3.s 			page 10


 245:Generated_Source\PSoC4/Comp_0.c **** 
 246:Generated_Source\PSoC4/Comp_0.c ****     enableInterrupts = CyEnterCriticalSection();
 264              		.loc 1 246 0
 265 000c FFF7FEFF 		bl	CyEnterCriticalSection
 266              	.LVL15:
 247:Generated_Source\PSoC4/Comp_0.c ****     config = Comp_0_CONFIG_REG & (uint32)~Comp_0_CONFIG_INTR_MASK;
 267              		.loc 1 247 0
 268 0010 0549     		ldr	r1, .L18+4
 269 0012 0B68     		ldr	r3, [r1]
 270 0014 AB43     		bics	r3, r5
 271              	.LVL16:
 248:Generated_Source\PSoC4/Comp_0.c ****     Comp_0_CONFIG_REG = config | Comp_0_internalIntr;
 272              		.loc 1 248 0
 273 0016 2268     		ldr	r2, [r4]
 274 0018 1343     		orrs	r3, r2
 275              	.LVL17:
 276 001a 0B60     		str	r3, [r1]
 249:Generated_Source\PSoC4/Comp_0.c ****     CyExitCriticalSection(enableInterrupts);
 277              		.loc 1 249 0
 278 001c FFF7FEFF 		bl	CyExitCriticalSection
 279              	.LVL18:
 250:Generated_Source\PSoC4/Comp_0.c **** }
 280              		.loc 1 250 0
 281              		@ sp needed
 282 0020 70BD     		pop	{r4, r5, r6, pc}
 283              	.L19:
 284 0022 C046     		.align	2
 285              	.L18:
 286 0024 00000000 		.word	.LANCHOR0
 287 0028 04000A40 		.word	1074397188
 288              		.cfi_endproc
 289              	.LFE5:
 290              		.size	Comp_0_SetInterruptMode, .-Comp_0_SetInterruptMode
 291              		.section	.text.Comp_0_GetInterruptSource,"ax",%progbits
 292              		.align	2
 293              		.global	Comp_0_GetInterruptSource
 294              		.code	16
 295              		.thumb_func
 296              		.type	Comp_0_GetInterruptSource, %function
 297              	Comp_0_GetInterruptSource:
 298              	.LFB6:
 251:Generated_Source\PSoC4/Comp_0.c **** 
 252:Generated_Source\PSoC4/Comp_0.c **** 
 253:Generated_Source\PSoC4/Comp_0.c **** /*******************************************************************************
 254:Generated_Source\PSoC4/Comp_0.c **** * Function Name: Comp_0_GetInterruptSource
 255:Generated_Source\PSoC4/Comp_0.c **** ********************************************************************************
 256:Generated_Source\PSoC4/Comp_0.c **** *
 257:Generated_Source\PSoC4/Comp_0.c **** * Summary:
 258:Generated_Source\PSoC4/Comp_0.c **** *  Gets the interrupt requests. This function is for use when using the combined
 259:Generated_Source\PSoC4/Comp_0.c **** *  interrupt signal from the global signal reference. This function from either
 260:Generated_Source\PSoC4/Comp_0.c **** *  component instance can be used to determine the interrupt source for both the
 261:Generated_Source\PSoC4/Comp_0.c **** *  interrupts combined.
 262:Generated_Source\PSoC4/Comp_0.c **** *
 263:Generated_Source\PSoC4/Comp_0.c **** * Parameters:
 264:Generated_Source\PSoC4/Comp_0.c **** *  None
 265:Generated_Source\PSoC4/Comp_0.c **** *
 266:Generated_Source\PSoC4/Comp_0.c **** * Return:
ARM GAS  C:\Users\Ray\AppData\Local\Temp\cc0vTyt3.s 			page 11


 267:Generated_Source\PSoC4/Comp_0.c **** *  uint32: Interrupt source. Each component instance has a mask value:
 268:Generated_Source\PSoC4/Comp_0.c **** *  Comp_0_INTR.
 269:Generated_Source\PSoC4/Comp_0.c **** *
 270:Generated_Source\PSoC4/Comp_0.c **** *******************************************************************************/
 271:Generated_Source\PSoC4/Comp_0.c **** uint32 Comp_0_GetInterruptSource(void)
 272:Generated_Source\PSoC4/Comp_0.c **** {
 299              		.loc 1 272 0
 300              		.cfi_startproc
 301              		@ args = 0, pretend = 0, frame = 0
 302              		@ frame_needed = 0, uses_anonymous_args = 0
 303              		@ link register save eliminated.
 273:Generated_Source\PSoC4/Comp_0.c ****     return (Comp_0_INTR_REG); 
 304              		.loc 1 273 0
 305 0000 014B     		ldr	r3, .L21
 306 0002 1868     		ldr	r0, [r3]
 274:Generated_Source\PSoC4/Comp_0.c **** }
 307              		.loc 1 274 0
 308              		@ sp needed
 309 0004 7047     		bx	lr
 310              	.L22:
 311 0006 C046     		.align	2
 312              	.L21:
 313 0008 0C000A40 		.word	1074397196
 314              		.cfi_endproc
 315              	.LFE6:
 316              		.size	Comp_0_GetInterruptSource, .-Comp_0_GetInterruptSource
 317              		.section	.text.Comp_0_ClearInterrupt,"ax",%progbits
 318              		.align	2
 319              		.global	Comp_0_ClearInterrupt
 320              		.code	16
 321              		.thumb_func
 322              		.type	Comp_0_ClearInterrupt, %function
 323              	Comp_0_ClearInterrupt:
 324              	.LFB7:
 275:Generated_Source\PSoC4/Comp_0.c **** 
 276:Generated_Source\PSoC4/Comp_0.c **** 
 277:Generated_Source\PSoC4/Comp_0.c **** /*******************************************************************************
 278:Generated_Source\PSoC4/Comp_0.c **** * Function Name: Comp_0_ClearInterrupt
 279:Generated_Source\PSoC4/Comp_0.c **** ********************************************************************************
 280:Generated_Source\PSoC4/Comp_0.c **** *
 281:Generated_Source\PSoC4/Comp_0.c **** * Summary:
 282:Generated_Source\PSoC4/Comp_0.c **** *  Clears the interrupt request. This function is for use when using the
 283:Generated_Source\PSoC4/Comp_0.c **** *  combined interrupt signal from the global signal reference. This function
 284:Generated_Source\PSoC4/Comp_0.c **** *  from either component instance can be used to clear either or both
 285:Generated_Source\PSoC4/Comp_0.c **** *  interrupts.
 286:Generated_Source\PSoC4/Comp_0.c **** *
 287:Generated_Source\PSoC4/Comp_0.c **** * Parameters:
 288:Generated_Source\PSoC4/Comp_0.c **** *  uint32 interruptMask: Mask of interrupts to clear. Each component instance
 289:Generated_Source\PSoC4/Comp_0.c **** *  has a mask value: Comp_0_INTR.
 290:Generated_Source\PSoC4/Comp_0.c **** *
 291:Generated_Source\PSoC4/Comp_0.c **** * Return:
 292:Generated_Source\PSoC4/Comp_0.c **** *  None
 293:Generated_Source\PSoC4/Comp_0.c **** *
 294:Generated_Source\PSoC4/Comp_0.c **** *******************************************************************************/
 295:Generated_Source\PSoC4/Comp_0.c **** void Comp_0_ClearInterrupt(uint32 interruptMask)
 296:Generated_Source\PSoC4/Comp_0.c **** {   
 325              		.loc 1 296 0
ARM GAS  C:\Users\Ray\AppData\Local\Temp\cc0vTyt3.s 			page 12


 326              		.cfi_startproc
 327              		@ args = 0, pretend = 0, frame = 0
 328              		@ frame_needed = 0, uses_anonymous_args = 0
 329              		@ link register save eliminated.
 330              	.LVL19:
 297:Generated_Source\PSoC4/Comp_0.c ****     Comp_0_INTR_REG = interruptMask;
 331              		.loc 1 297 0
 332 0000 014B     		ldr	r3, .L24
 333 0002 1860     		str	r0, [r3]
 298:Generated_Source\PSoC4/Comp_0.c **** }
 334              		.loc 1 298 0
 335              		@ sp needed
 336 0004 7047     		bx	lr
 337              	.L25:
 338 0006 C046     		.align	2
 339              	.L24:
 340 0008 0C000A40 		.word	1074397196
 341              		.cfi_endproc
 342              	.LFE7:
 343              		.size	Comp_0_ClearInterrupt, .-Comp_0_ClearInterrupt
 344              		.section	.text.Comp_0_SetInterrupt,"ax",%progbits
 345              		.align	2
 346              		.global	Comp_0_SetInterrupt
 347              		.code	16
 348              		.thumb_func
 349              		.type	Comp_0_SetInterrupt, %function
 350              	Comp_0_SetInterrupt:
 351              	.LFB8:
 299:Generated_Source\PSoC4/Comp_0.c **** 
 300:Generated_Source\PSoC4/Comp_0.c **** 
 301:Generated_Source\PSoC4/Comp_0.c **** /*******************************************************************************
 302:Generated_Source\PSoC4/Comp_0.c **** * Function Name: Comp_0_SetInterrupt
 303:Generated_Source\PSoC4/Comp_0.c **** ********************************************************************************
 304:Generated_Source\PSoC4/Comp_0.c **** *
 305:Generated_Source\PSoC4/Comp_0.c **** * Summary:
 306:Generated_Source\PSoC4/Comp_0.c **** *  Sets a software interrupt request. This function is for use when using the
 307:Generated_Source\PSoC4/Comp_0.c **** *  combined interrupt signal from the global signal reference. This function
 308:Generated_Source\PSoC4/Comp_0.c **** *  from either component instance can be used to trigger either or both software
 309:Generated_Source\PSoC4/Comp_0.c **** *  interrupts.
 310:Generated_Source\PSoC4/Comp_0.c **** *
 311:Generated_Source\PSoC4/Comp_0.c **** * Parameters:
 312:Generated_Source\PSoC4/Comp_0.c **** *  uint32 interruptMask: Mask of interrupts to set. Each component instance has
 313:Generated_Source\PSoC4/Comp_0.c **** *  a mask value: Comp_0_INTR_SET.
 314:Generated_Source\PSoC4/Comp_0.c **** *
 315:Generated_Source\PSoC4/Comp_0.c **** * Return:
 316:Generated_Source\PSoC4/Comp_0.c **** *  None
 317:Generated_Source\PSoC4/Comp_0.c **** *
 318:Generated_Source\PSoC4/Comp_0.c **** *******************************************************************************/
 319:Generated_Source\PSoC4/Comp_0.c **** void Comp_0_SetInterrupt(uint32 interruptMask)
 320:Generated_Source\PSoC4/Comp_0.c **** {
 352              		.loc 1 320 0
 353              		.cfi_startproc
 354              		@ args = 0, pretend = 0, frame = 0
 355              		@ frame_needed = 0, uses_anonymous_args = 0
 356              	.LVL20:
 357 0000 10B5     		push	{r4, lr}
 358              		.cfi_def_cfa_offset 8
ARM GAS  C:\Users\Ray\AppData\Local\Temp\cc0vTyt3.s 			page 13


 359              		.cfi_offset 4, -8
 360              		.cfi_offset 14, -4
 361 0002 0400     		movs	r4, r0
 321:Generated_Source\PSoC4/Comp_0.c ****     uint8 enableInterrupts;
 322:Generated_Source\PSoC4/Comp_0.c ****     
 323:Generated_Source\PSoC4/Comp_0.c ****     enableInterrupts = CyEnterCriticalSection();
 362              		.loc 1 323 0
 363 0004 FFF7FEFF 		bl	CyEnterCriticalSection
 364              	.LVL21:
 324:Generated_Source\PSoC4/Comp_0.c ****     Comp_0_INTR_SET_REG |= interruptMask;
 365              		.loc 1 324 0
 366 0008 034B     		ldr	r3, .L27
 367 000a 1A68     		ldr	r2, [r3]
 368 000c 1443     		orrs	r4, r2
 369              	.LVL22:
 370 000e 1C60     		str	r4, [r3]
 325:Generated_Source\PSoC4/Comp_0.c ****     CyExitCriticalSection(enableInterrupts);
 371              		.loc 1 325 0
 372 0010 FFF7FEFF 		bl	CyExitCriticalSection
 373              	.LVL23:
 326:Generated_Source\PSoC4/Comp_0.c **** }
 374              		.loc 1 326 0
 375              		@ sp needed
 376 0014 10BD     		pop	{r4, pc}
 377              	.L28:
 378 0016 C046     		.align	2
 379              	.L27:
 380 0018 10000A40 		.word	1074397200
 381              		.cfi_endproc
 382              	.LFE8:
 383              		.size	Comp_0_SetInterrupt, .-Comp_0_SetInterrupt
 384              		.section	.text.Comp_0_SetHysteresis,"ax",%progbits
 385              		.align	2
 386              		.global	Comp_0_SetHysteresis
 387              		.code	16
 388              		.thumb_func
 389              		.type	Comp_0_SetHysteresis, %function
 390              	Comp_0_SetHysteresis:
 391              	.LFB9:
 327:Generated_Source\PSoC4/Comp_0.c **** 
 328:Generated_Source\PSoC4/Comp_0.c **** 
 329:Generated_Source\PSoC4/Comp_0.c **** /*******************************************************************************
 330:Generated_Source\PSoC4/Comp_0.c **** * Function Name: Comp_0_SetHysteresis
 331:Generated_Source\PSoC4/Comp_0.c **** ********************************************************************************
 332:Generated_Source\PSoC4/Comp_0.c **** *
 333:Generated_Source\PSoC4/Comp_0.c **** * Summary:
 334:Generated_Source\PSoC4/Comp_0.c **** *  Enables or disables the hysteresis.
 335:Generated_Source\PSoC4/Comp_0.c **** *
 336:Generated_Source\PSoC4/Comp_0.c **** * Parameters:
 337:Generated_Source\PSoC4/Comp_0.c **** *  hysteresis: (uint32) Enables or disables the hysteresis setting.
 338:Generated_Source\PSoC4/Comp_0.c **** *  Comp_0_HYST_ENABLE     - Enable hysteresis
 339:Generated_Source\PSoC4/Comp_0.c **** *  Comp_0_HYST_DISABLE    - Disable hysteresis
 340:Generated_Source\PSoC4/Comp_0.c **** *
 341:Generated_Source\PSoC4/Comp_0.c **** * Return:
 342:Generated_Source\PSoC4/Comp_0.c **** *  None
 343:Generated_Source\PSoC4/Comp_0.c **** *
 344:Generated_Source\PSoC4/Comp_0.c **** *******************************************************************************/
ARM GAS  C:\Users\Ray\AppData\Local\Temp\cc0vTyt3.s 			page 14


 345:Generated_Source\PSoC4/Comp_0.c **** void Comp_0_SetHysteresis(uint32 hysteresis)
 346:Generated_Source\PSoC4/Comp_0.c **** {
 392              		.loc 1 346 0
 393              		.cfi_startproc
 394              		@ args = 0, pretend = 0, frame = 0
 395              		@ frame_needed = 0, uses_anonymous_args = 0
 396              	.LVL24:
 397 0000 10B5     		push	{r4, lr}
 398              		.cfi_def_cfa_offset 8
 399              		.cfi_offset 4, -8
 400              		.cfi_offset 14, -4
 401 0002 0400     		movs	r4, r0
 347:Generated_Source\PSoC4/Comp_0.c ****     uint8 enableInterrupts;
 348:Generated_Source\PSoC4/Comp_0.c ****     
 349:Generated_Source\PSoC4/Comp_0.c ****     enableInterrupts = CyEnterCriticalSection();
 402              		.loc 1 349 0
 403 0004 FFF7FEFF 		bl	CyEnterCriticalSection
 404              	.LVL25:
 350:Generated_Source\PSoC4/Comp_0.c ****     if(0u != hysteresis)
 405              		.loc 1 350 0
 406 0008 002C     		cmp	r4, #0
 407 000a 05D0     		beq	.L30
 351:Generated_Source\PSoC4/Comp_0.c ****     {
 352:Generated_Source\PSoC4/Comp_0.c ****         Comp_0_CONFIG_REG |= Comp_0_CONFIG_HYST;
 408              		.loc 1 352 0
 409 000c 064A     		ldr	r2, .L32
 410 000e 1168     		ldr	r1, [r2]
 411 0010 0423     		movs	r3, #4
 412 0012 0B43     		orrs	r3, r1
 413 0014 1360     		str	r3, [r2]
 414 0016 04E0     		b	.L31
 415              	.L30:
 353:Generated_Source\PSoC4/Comp_0.c ****     }
 354:Generated_Source\PSoC4/Comp_0.c ****     else
 355:Generated_Source\PSoC4/Comp_0.c ****     {
 356:Generated_Source\PSoC4/Comp_0.c ****         Comp_0_CONFIG_REG &= (uint32)~Comp_0_CONFIG_HYST;
 416              		.loc 1 356 0
 417 0018 034A     		ldr	r2, .L32
 418 001a 1368     		ldr	r3, [r2]
 419 001c 0421     		movs	r1, #4
 420 001e 8B43     		bics	r3, r1
 421 0020 1360     		str	r3, [r2]
 422              	.L31:
 357:Generated_Source\PSoC4/Comp_0.c ****     }
 358:Generated_Source\PSoC4/Comp_0.c ****     CyExitCriticalSection(enableInterrupts);
 423              		.loc 1 358 0
 424 0022 FFF7FEFF 		bl	CyExitCriticalSection
 425              	.LVL26:
 359:Generated_Source\PSoC4/Comp_0.c **** }
 426              		.loc 1 359 0
 427              		@ sp needed
 428              	.LVL27:
 429 0026 10BD     		pop	{r4, pc}
 430              	.L33:
 431              		.align	2
 432              	.L32:
 433 0028 04000A40 		.word	1074397188
ARM GAS  C:\Users\Ray\AppData\Local\Temp\cc0vTyt3.s 			page 15


 434              		.cfi_endproc
 435              	.LFE9:
 436              		.size	Comp_0_SetHysteresis, .-Comp_0_SetHysteresis
 437              		.section	.text.Comp_0_SetFilter,"ax",%progbits
 438              		.align	2
 439              		.global	Comp_0_SetFilter
 440              		.code	16
 441              		.thumb_func
 442              		.type	Comp_0_SetFilter, %function
 443              	Comp_0_SetFilter:
 444              	.LFB10:
 360:Generated_Source\PSoC4/Comp_0.c **** 
 361:Generated_Source\PSoC4/Comp_0.c **** 
 362:Generated_Source\PSoC4/Comp_0.c **** /*******************************************************************************
 363:Generated_Source\PSoC4/Comp_0.c **** * Function Name: Comp_0_SetFilter
 364:Generated_Source\PSoC4/Comp_0.c **** ********************************************************************************
 365:Generated_Source\PSoC4/Comp_0.c **** *
 366:Generated_Source\PSoC4/Comp_0.c **** * Summary:
 367:Generated_Source\PSoC4/Comp_0.c **** *  Enables or disables the digital filter. This still exists for saving backward 
 368:Generated_Source\PSoC4/Comp_0.c **** *  compatibility, but not recommended for using.
 369:Generated_Source\PSoC4/Comp_0.c **** *  This API is DEPRECATED and should not be used in new projects.
 370:Generated_Source\PSoC4/Comp_0.c **** *
 371:Generated_Source\PSoC4/Comp_0.c **** * Parameters:
 372:Generated_Source\PSoC4/Comp_0.c **** *  uint32 filter: filter enable.
 373:Generated_Source\PSoC4/Comp_0.c **** *  Comp_0_FILT_ENABLE  - Enable filter
 374:Generated_Source\PSoC4/Comp_0.c **** *  Comp_0_FILT_DISABLE - Disable filter
 375:Generated_Source\PSoC4/Comp_0.c **** *
 376:Generated_Source\PSoC4/Comp_0.c **** * Return:
 377:Generated_Source\PSoC4/Comp_0.c **** *  None
 378:Generated_Source\PSoC4/Comp_0.c **** *
 379:Generated_Source\PSoC4/Comp_0.c **** *******************************************************************************/
 380:Generated_Source\PSoC4/Comp_0.c **** void Comp_0_SetFilter(uint32 filter)
 381:Generated_Source\PSoC4/Comp_0.c **** {
 445              		.loc 1 381 0
 446              		.cfi_startproc
 447              		@ args = 0, pretend = 0, frame = 0
 448              		@ frame_needed = 0, uses_anonymous_args = 0
 449              	.LVL28:
 450 0000 10B5     		push	{r4, lr}
 451              		.cfi_def_cfa_offset 8
 452              		.cfi_offset 4, -8
 453              		.cfi_offset 14, -4
 454 0002 0400     		movs	r4, r0
 382:Generated_Source\PSoC4/Comp_0.c ****     uint8 enableInterrupts;
 383:Generated_Source\PSoC4/Comp_0.c ****     
 384:Generated_Source\PSoC4/Comp_0.c ****     enableInterrupts = CyEnterCriticalSection();
 455              		.loc 1 384 0
 456 0004 FFF7FEFF 		bl	CyEnterCriticalSection
 457              	.LVL29:
 385:Generated_Source\PSoC4/Comp_0.c ****     if( 0u != filter)
 458              		.loc 1 385 0
 459 0008 002C     		cmp	r4, #0
 460 000a 05D0     		beq	.L35
 386:Generated_Source\PSoC4/Comp_0.c ****     {
 387:Generated_Source\PSoC4/Comp_0.c ****         Comp_0_CONFIG_REG |= Comp_0_CONFIG_FILT;
 461              		.loc 1 387 0
 462 000c 064A     		ldr	r2, .L37
ARM GAS  C:\Users\Ray\AppData\Local\Temp\cc0vTyt3.s 			page 16


 463 000e 1168     		ldr	r1, [r2]
 464 0010 0823     		movs	r3, #8
 465 0012 0B43     		orrs	r3, r1
 466 0014 1360     		str	r3, [r2]
 467 0016 04E0     		b	.L36
 468              	.L35:
 388:Generated_Source\PSoC4/Comp_0.c ****     }
 389:Generated_Source\PSoC4/Comp_0.c ****     else
 390:Generated_Source\PSoC4/Comp_0.c ****     {
 391:Generated_Source\PSoC4/Comp_0.c ****         Comp_0_CONFIG_REG &= (uint32)~Comp_0_CONFIG_FILT;
 469              		.loc 1 391 0
 470 0018 034A     		ldr	r2, .L37
 471 001a 1368     		ldr	r3, [r2]
 472 001c 0821     		movs	r1, #8
 473 001e 8B43     		bics	r3, r1
 474 0020 1360     		str	r3, [r2]
 475              	.L36:
 392:Generated_Source\PSoC4/Comp_0.c ****     }
 393:Generated_Source\PSoC4/Comp_0.c ****     CyExitCriticalSection(enableInterrupts);
 476              		.loc 1 393 0
 477 0022 FFF7FEFF 		bl	CyExitCriticalSection
 478              	.LVL30:
 394:Generated_Source\PSoC4/Comp_0.c **** }
 479              		.loc 1 394 0
 480              		@ sp needed
 481              	.LVL31:
 482 0026 10BD     		pop	{r4, pc}
 483              	.L38:
 484              		.align	2
 485              	.L37:
 486 0028 04000A40 		.word	1074397188
 487              		.cfi_endproc
 488              	.LFE10:
 489              		.size	Comp_0_SetFilter, .-Comp_0_SetFilter
 490              		.section	.text.Comp_0_GetCompare,"ax",%progbits
 491              		.align	2
 492              		.global	Comp_0_GetCompare
 493              		.code	16
 494              		.thumb_func
 495              		.type	Comp_0_GetCompare, %function
 496              	Comp_0_GetCompare:
 497              	.LFB11:
 395:Generated_Source\PSoC4/Comp_0.c **** 
 396:Generated_Source\PSoC4/Comp_0.c **** 
 397:Generated_Source\PSoC4/Comp_0.c **** /*******************************************************************************
 398:Generated_Source\PSoC4/Comp_0.c **** * Function Name: Comp_0_GetCompare
 399:Generated_Source\PSoC4/Comp_0.c **** ********************************************************************************
 400:Generated_Source\PSoC4/Comp_0.c **** *
 401:Generated_Source\PSoC4/Comp_0.c **** * Summary:
 402:Generated_Source\PSoC4/Comp_0.c **** *  This function returns a nonzero value when the voltage connected to the
 403:Generated_Source\PSoC4/Comp_0.c **** *  positive input is greater than the negative input voltage.
 404:Generated_Source\PSoC4/Comp_0.c **** *  This function reads the direct (unflopped) comparator output which can also be 
 405:Generated_Source\PSoC4/Comp_0.c **** *  metastable (since it may result in incorrect data).
 406:Generated_Source\PSoC4/Comp_0.c **** *
 407:Generated_Source\PSoC4/Comp_0.c **** * Parameters:
 408:Generated_Source\PSoC4/Comp_0.c **** *  None
 409:Generated_Source\PSoC4/Comp_0.c **** *
ARM GAS  C:\Users\Ray\AppData\Local\Temp\cc0vTyt3.s 			page 17


 410:Generated_Source\PSoC4/Comp_0.c **** * Return:
 411:Generated_Source\PSoC4/Comp_0.c **** *  (uint32) Comparator output state. This value is not impacted by the interrupt
 412:Generated_Source\PSoC4/Comp_0.c **** *  edge detect setting:
 413:Generated_Source\PSoC4/Comp_0.c **** *   0 - if positive input is less than negative one.
 414:Generated_Source\PSoC4/Comp_0.c **** *   1 - if positive input greater than negative one.
 415:Generated_Source\PSoC4/Comp_0.c **** *
 416:Generated_Source\PSoC4/Comp_0.c **** *******************************************************************************/
 417:Generated_Source\PSoC4/Comp_0.c **** uint32 Comp_0_GetCompare(void)
 418:Generated_Source\PSoC4/Comp_0.c **** {
 498              		.loc 1 418 0
 499              		.cfi_startproc
 500              		@ args = 0, pretend = 0, frame = 0
 501              		@ frame_needed = 0, uses_anonymous_args = 0
 502              		@ link register save eliminated.
 419:Generated_Source\PSoC4/Comp_0.c ****     return((uint32)((0u == (Comp_0_CONFIG_REG & Comp_0_CONFIG_OUT)) ? 0u : 1u));
 503              		.loc 1 419 0
 504 0000 034B     		ldr	r3, .L40
 505 0002 1B68     		ldr	r3, [r3]
 506 0004 4020     		movs	r0, #64
 507 0006 1840     		ands	r0, r3
 508 0008 431E     		subs	r3, r0, #1
 509 000a 9841     		sbcs	r0, r0, r3
 510 000c C0B2     		uxtb	r0, r0
 420:Generated_Source\PSoC4/Comp_0.c **** }
 511              		.loc 1 420 0
 512              		@ sp needed
 513 000e 7047     		bx	lr
 514              	.L41:
 515              		.align	2
 516              	.L40:
 517 0010 04000A40 		.word	1074397188
 518              		.cfi_endproc
 519              	.LFE11:
 520              		.size	Comp_0_GetCompare, .-Comp_0_GetCompare
 521              		.section	.text.Comp_0_ZeroCal,"ax",%progbits
 522              		.align	2
 523              		.global	Comp_0_ZeroCal
 524              		.code	16
 525              		.thumb_func
 526              		.type	Comp_0_ZeroCal, %function
 527              	Comp_0_ZeroCal:
 528              	.LFB12:
 421:Generated_Source\PSoC4/Comp_0.c **** 
 422:Generated_Source\PSoC4/Comp_0.c **** 
 423:Generated_Source\PSoC4/Comp_0.c **** /*******************************************************************************
 424:Generated_Source\PSoC4/Comp_0.c **** * Function Name: Comp_0_ZeroCal
 425:Generated_Source\PSoC4/Comp_0.c **** ********************************************************************************
 426:Generated_Source\PSoC4/Comp_0.c **** *
 427:Generated_Source\PSoC4/Comp_0.c **** * Summary:
 428:Generated_Source\PSoC4/Comp_0.c **** *  Performs custom calibration of the input offset to minimize error for a
 429:Generated_Source\PSoC4/Comp_0.c **** *  specific set of conditions: comparator reference voltage, supply voltage,
 430:Generated_Source\PSoC4/Comp_0.c **** *  and operating temperature. A reference voltage in the range at which the
 431:Generated_Source\PSoC4/Comp_0.c **** *  comparator will be used must be applied to one of the inputs. The two inputs
 432:Generated_Source\PSoC4/Comp_0.c **** *  will be shorted internally to perform the offset calibration.
 433:Generated_Source\PSoC4/Comp_0.c **** *
 434:Generated_Source\PSoC4/Comp_0.c **** * Parameters:
 435:Generated_Source\PSoC4/Comp_0.c **** *  None
ARM GAS  C:\Users\Ray\AppData\Local\Temp\cc0vTyt3.s 			page 18


 436:Generated_Source\PSoC4/Comp_0.c **** *
 437:Generated_Source\PSoC4/Comp_0.c **** * Return:
 438:Generated_Source\PSoC4/Comp_0.c **** *  The value from the comparator trim register after the offset calibration is
 439:Generated_Source\PSoC4/Comp_0.c **** *  complete. This value has the same format as the input parameter for the
 440:Generated_Source\PSoC4/Comp_0.c **** *  Comp_0_LoadTrim() API routine.
 441:Generated_Source\PSoC4/Comp_0.c **** *
 442:Generated_Source\PSoC4/Comp_0.c **** *******************************************************************************/
 443:Generated_Source\PSoC4/Comp_0.c **** uint32 Comp_0_ZeroCal(void)
 444:Generated_Source\PSoC4/Comp_0.c **** {
 529              		.loc 1 444 0
 530              		.cfi_startproc
 531              		@ args = 0, pretend = 0, frame = 0
 532              		@ frame_needed = 0, uses_anonymous_args = 0
 533 0000 70B5     		push	{r4, r5, r6, lr}
 534              		.cfi_def_cfa_offset 16
 535              		.cfi_offset 4, -16
 536              		.cfi_offset 5, -12
 537              		.cfi_offset 6, -8
 538              		.cfi_offset 14, -4
 445:Generated_Source\PSoC4/Comp_0.c ****     uint32 cmpOut;
 446:Generated_Source\PSoC4/Comp_0.c ****     uint32 i;
 447:Generated_Source\PSoC4/Comp_0.c **** 
 448:Generated_Source\PSoC4/Comp_0.c ****     Comp_0_DFT_REG |= Comp_0_DFT_CAL_EN;
 539              		.loc 1 448 0
 540 0002 254A     		ldr	r2, .L51
 541 0004 1168     		ldr	r1, [r2]
 542 0006 0123     		movs	r3, #1
 543 0008 0B43     		orrs	r3, r1
 544 000a 1360     		str	r3, [r2]
 449:Generated_Source\PSoC4/Comp_0.c ****     Comp_0_TRIMA_REG = 0u;
 545              		.loc 1 449 0
 546 000c 0023     		movs	r3, #0
 547 000e 234A     		ldr	r2, .L51+4
 548 0010 1360     		str	r3, [r2]
 450:Generated_Source\PSoC4/Comp_0.c ****     Comp_0_TRIMB_REG = 0u;
 549              		.loc 1 450 0
 550 0012 234A     		ldr	r2, .L51+8
 551 0014 1360     		str	r3, [r2]
 451:Generated_Source\PSoC4/Comp_0.c **** 
 452:Generated_Source\PSoC4/Comp_0.c ****     CyDelayUs(1u);
 552              		.loc 1 452 0
 553 0016 0120     		movs	r0, #1
 554 0018 FFF7FEFF 		bl	CyDelayUs
 555              	.LVL32:
 453:Generated_Source\PSoC4/Comp_0.c **** 
 454:Generated_Source\PSoC4/Comp_0.c ****     cmpOut = Comp_0_GetCompare();
 556              		.loc 1 454 0
 557 001c FFF7FEFF 		bl	Comp_0_GetCompare
 558              	.LVL33:
 559 0020 051E     		subs	r5, r0, #0
 560              	.LVL34:
 455:Generated_Source\PSoC4/Comp_0.c **** 
 456:Generated_Source\PSoC4/Comp_0.c ****     if(0u != cmpOut)
 561              		.loc 1 456 0
 562 0022 02D0     		beq	.L43
 457:Generated_Source\PSoC4/Comp_0.c ****     {
 458:Generated_Source\PSoC4/Comp_0.c ****         Comp_0_TRIMA_REG = ((uint32) 0x01u << Comp_0_TRIMA_SIGNBIT);
ARM GAS  C:\Users\Ray\AppData\Local\Temp\cc0vTyt3.s 			page 19


 563              		.loc 1 458 0
 564 0024 1022     		movs	r2, #16
 565 0026 1D4B     		ldr	r3, .L51+4
 566 0028 1A60     		str	r2, [r3]
 567              	.L43:
 444:Generated_Source\PSoC4/Comp_0.c ****     uint32 cmpOut;
 568              		.loc 1 444 0 discriminator 1
 569 002a 1024     		movs	r4, #16
 570 002c 0BE0     		b	.L44
 571              	.LVL35:
 572              	.L46:
 459:Generated_Source\PSoC4/Comp_0.c ****     }
 460:Generated_Source\PSoC4/Comp_0.c **** 
 461:Generated_Source\PSoC4/Comp_0.c ****     for(i = (Comp_0_TRIMA_MAX_VALUE +1u ); i != 0u; i--)
 462:Generated_Source\PSoC4/Comp_0.c ****     {
 463:Generated_Source\PSoC4/Comp_0.c ****         Comp_0_TRIMA_REG++;
 573              		.loc 1 463 0
 574 002e 1B4A     		ldr	r2, .L51+4
 575 0030 1368     		ldr	r3, [r2]
 576 0032 0133     		adds	r3, r3, #1
 577 0034 1360     		str	r3, [r2]
 464:Generated_Source\PSoC4/Comp_0.c ****         CyDelayUs(1u);
 578              		.loc 1 464 0
 579 0036 0120     		movs	r0, #1
 580 0038 FFF7FEFF 		bl	CyDelayUs
 581              	.LVL36:
 465:Generated_Source\PSoC4/Comp_0.c ****         if(cmpOut != Comp_0_GetCompare())
 582              		.loc 1 465 0
 583 003c FFF7FEFF 		bl	Comp_0_GetCompare
 584              	.LVL37:
 585 0040 8542     		cmp	r5, r0
 586 0042 02D1     		bne	.L45
 461:Generated_Source\PSoC4/Comp_0.c ****     {
 587              		.loc 1 461 0 discriminator 2
 588 0044 013C     		subs	r4, r4, #1
 589              	.LVL38:
 590              	.L44:
 461:Generated_Source\PSoC4/Comp_0.c ****     {
 591              		.loc 1 461 0 is_stmt 0 discriminator 1
 592 0046 002C     		cmp	r4, #0
 593 0048 F1D1     		bne	.L46
 594              	.L45:
 466:Generated_Source\PSoC4/Comp_0.c ****         {
 467:Generated_Source\PSoC4/Comp_0.c ****             break;
 468:Generated_Source\PSoC4/Comp_0.c ****         }
 469:Generated_Source\PSoC4/Comp_0.c ****     }
 470:Generated_Source\PSoC4/Comp_0.c **** 
 471:Generated_Source\PSoC4/Comp_0.c ****     if(((uint32)(Comp_0_CONFIG_REG >> Comp_0_CONFIG_REG_SHIFT) &
 595              		.loc 1 471 0 is_stmt 1
 596 004a 164B     		ldr	r3, .L51+12
 597 004c 1B68     		ldr	r3, [r3]
 598 004e 9B07     		lsls	r3, r3, #30
 599 0050 16D1     		bne	.L47
 472:Generated_Source\PSoC4/Comp_0.c ****         Comp_0_SPEED_PARAM_MASK) == Comp_0_MED_SPEED)
 473:Generated_Source\PSoC4/Comp_0.c ****     {
 474:Generated_Source\PSoC4/Comp_0.c ****         cmpOut = Comp_0_GetCompare();
 600              		.loc 1 474 0
ARM GAS  C:\Users\Ray\AppData\Local\Temp\cc0vTyt3.s 			page 20


 601 0052 FFF7FEFF 		bl	Comp_0_GetCompare
 602              	.LVL39:
 603 0056 051E     		subs	r5, r0, #0
 604              	.LVL40:
 475:Generated_Source\PSoC4/Comp_0.c **** 
 476:Generated_Source\PSoC4/Comp_0.c ****         if(0u == cmpOut)
 605              		.loc 1 476 0
 606 0058 02D1     		bne	.L48
 477:Generated_Source\PSoC4/Comp_0.c ****         {
 478:Generated_Source\PSoC4/Comp_0.c ****             Comp_0_TRIMB_REG = ((uint32)1u << Comp_0_TRIMB_SIGNBIT);
 607              		.loc 1 478 0
 608 005a 1022     		movs	r2, #16
 609 005c 104B     		ldr	r3, .L51+8
 610 005e 1A60     		str	r2, [r3]
 611              	.L48:
 444:Generated_Source\PSoC4/Comp_0.c ****     uint32 cmpOut;
 612              		.loc 1 444 0 discriminator 1
 613 0060 1024     		movs	r4, #16
 614              	.LVL41:
 615 0062 0BE0     		b	.L49
 616              	.LVL42:
 617              	.L50:
 479:Generated_Source\PSoC4/Comp_0.c ****         }
 480:Generated_Source\PSoC4/Comp_0.c **** 
 481:Generated_Source\PSoC4/Comp_0.c ****         for(i = (Comp_0_TRIMB_MAX_VALUE +1u ); i != 0u; i--)
 482:Generated_Source\PSoC4/Comp_0.c ****         {
 483:Generated_Source\PSoC4/Comp_0.c ****             Comp_0_TRIMB_REG++;
 618              		.loc 1 483 0
 619 0064 0E4A     		ldr	r2, .L51+8
 620 0066 1368     		ldr	r3, [r2]
 621 0068 0133     		adds	r3, r3, #1
 622 006a 1360     		str	r3, [r2]
 484:Generated_Source\PSoC4/Comp_0.c ****             CyDelayUs(1u);
 623              		.loc 1 484 0
 624 006c 0120     		movs	r0, #1
 625 006e FFF7FEFF 		bl	CyDelayUs
 626              	.LVL43:
 485:Generated_Source\PSoC4/Comp_0.c ****             if(cmpOut != Comp_0_GetCompare())
 627              		.loc 1 485 0
 628 0072 FFF7FEFF 		bl	Comp_0_GetCompare
 629              	.LVL44:
 630 0076 8542     		cmp	r5, r0
 631 0078 02D1     		bne	.L47
 481:Generated_Source\PSoC4/Comp_0.c ****         {
 632              		.loc 1 481 0 discriminator 2
 633 007a 013C     		subs	r4, r4, #1
 634              	.LVL45:
 635              	.L49:
 481:Generated_Source\PSoC4/Comp_0.c ****         {
 636              		.loc 1 481 0 is_stmt 0 discriminator 1
 637 007c 002C     		cmp	r4, #0
 638 007e F1D1     		bne	.L50
 639              	.L47:
 486:Generated_Source\PSoC4/Comp_0.c ****             {
 487:Generated_Source\PSoC4/Comp_0.c ****                 break;
 488:Generated_Source\PSoC4/Comp_0.c ****             }
 489:Generated_Source\PSoC4/Comp_0.c ****         }
ARM GAS  C:\Users\Ray\AppData\Local\Temp\cc0vTyt3.s 			page 21


 490:Generated_Source\PSoC4/Comp_0.c ****     }
 491:Generated_Source\PSoC4/Comp_0.c **** 
 492:Generated_Source\PSoC4/Comp_0.c ****     Comp_0_DFT_REG &= ((uint32)~Comp_0_DFT_CAL_EN);
 640              		.loc 1 492 0 is_stmt 1
 641 0080 054A     		ldr	r2, .L51
 642 0082 1368     		ldr	r3, [r2]
 643 0084 0121     		movs	r1, #1
 644 0086 8B43     		bics	r3, r1
 645 0088 1360     		str	r3, [r2]
 493:Generated_Source\PSoC4/Comp_0.c **** 
 494:Generated_Source\PSoC4/Comp_0.c ****     return (Comp_0_TRIMA_REG | ((uint32)Comp_0_TRIMB_REG << Comp_0_TRIMB_SHIFT));
 646              		.loc 1 494 0
 647 008a 044B     		ldr	r3, .L51+4
 648 008c 1B68     		ldr	r3, [r3]
 649 008e 044A     		ldr	r2, .L51+8
 650 0090 1068     		ldr	r0, [r2]
 651 0092 0002     		lsls	r0, r0, #8
 652 0094 1843     		orrs	r0, r3
 495:Generated_Source\PSoC4/Comp_0.c **** }
 653              		.loc 1 495 0
 654              		@ sp needed
 655              	.LVL46:
 656              	.LVL47:
 657 0096 70BD     		pop	{r4, r5, r6, pc}
 658              	.L52:
 659              		.align	2
 660              	.L51:
 661 0098 08000A40 		.word	1074397192
 662 009c 00FF0A40 		.word	1074462464
 663 00a0 04FF0A40 		.word	1074462468
 664 00a4 04000A40 		.word	1074397188
 665              		.cfi_endproc
 666              	.LFE12:
 667              		.size	Comp_0_ZeroCal, .-Comp_0_ZeroCal
 668              		.section	.text.Comp_0_LoadTrim,"ax",%progbits
 669              		.align	2
 670              		.global	Comp_0_LoadTrim
 671              		.code	16
 672              		.thumb_func
 673              		.type	Comp_0_LoadTrim, %function
 674              	Comp_0_LoadTrim:
 675              	.LFB13:
 496:Generated_Source\PSoC4/Comp_0.c **** 
 497:Generated_Source\PSoC4/Comp_0.c **** 
 498:Generated_Source\PSoC4/Comp_0.c **** /*******************************************************************************
 499:Generated_Source\PSoC4/Comp_0.c **** * Function Name: Comp_0_LoadTrim
 500:Generated_Source\PSoC4/Comp_0.c **** ********************************************************************************
 501:Generated_Source\PSoC4/Comp_0.c **** *
 502:Generated_Source\PSoC4/Comp_0.c **** * Summary:
 503:Generated_Source\PSoC4/Comp_0.c **** *  This function writes a value into the comparator offset trim register.
 504:Generated_Source\PSoC4/Comp_0.c **** *
 505:Generated_Source\PSoC4/Comp_0.c **** * Parameters:
 506:Generated_Source\PSoC4/Comp_0.c **** *  trimVal: Value to be stored in the comparator offset trim register. This
 507:Generated_Source\PSoC4/Comp_0.c **** *  value has the same format as the parameter returned by the
 508:Generated_Source\PSoC4/Comp_0.c **** *  Comp_0_ZeroCal() API routine.
 509:Generated_Source\PSoC4/Comp_0.c **** *
 510:Generated_Source\PSoC4/Comp_0.c **** * Return:
ARM GAS  C:\Users\Ray\AppData\Local\Temp\cc0vTyt3.s 			page 22


 511:Generated_Source\PSoC4/Comp_0.c **** *  None
 512:Generated_Source\PSoC4/Comp_0.c **** *
 513:Generated_Source\PSoC4/Comp_0.c **** *******************************************************************************/
 514:Generated_Source\PSoC4/Comp_0.c **** void Comp_0_LoadTrim(uint32 trimVal)
 515:Generated_Source\PSoC4/Comp_0.c **** {
 676              		.loc 1 515 0
 677              		.cfi_startproc
 678              		@ args = 0, pretend = 0, frame = 0
 679              		@ frame_needed = 0, uses_anonymous_args = 0
 680              		@ link register save eliminated.
 681              	.LVL48:
 516:Generated_Source\PSoC4/Comp_0.c ****     Comp_0_TRIMA_REG = (trimVal & Comp_0_TRIMA_MASK);
 682              		.loc 1 516 0
 683 0000 1F23     		movs	r3, #31
 684 0002 1900     		movs	r1, r3
 685 0004 0140     		ands	r1, r0
 686 0006 034A     		ldr	r2, .L54
 687 0008 1160     		str	r1, [r2]
 517:Generated_Source\PSoC4/Comp_0.c ****     Comp_0_TRIMB_REG = ((trimVal >> Comp_0_TRIMB_SHIFT) & Comp_0_TRIMB_MASK);
 688              		.loc 1 517 0
 689 000a 000A     		lsrs	r0, r0, #8
 690              	.LVL49:
 691 000c 1840     		ands	r0, r3
 692 000e 024B     		ldr	r3, .L54+4
 693 0010 1860     		str	r0, [r3]
 518:Generated_Source\PSoC4/Comp_0.c **** }
 694              		.loc 1 518 0
 695              		@ sp needed
 696 0012 7047     		bx	lr
 697              	.L55:
 698              		.align	2
 699              	.L54:
 700 0014 00FF0A40 		.word	1074462464
 701 0018 04FF0A40 		.word	1074462468
 702              		.cfi_endproc
 703              	.LFE13:
 704              		.size	Comp_0_LoadTrim, .-Comp_0_LoadTrim
 705              		.global	Comp_0_initVar
 706              		.bss
 707              		.align	2
 708              		.set	.LANCHOR0,. + 0
 709              		.type	Comp_0_internalIntr, %object
 710              		.size	Comp_0_internalIntr, 4
 711              	Comp_0_internalIntr:
 712 0000 00000000 		.space	4
 713              		.type	Comp_0_initVar, %object
 714              		.size	Comp_0_initVar, 1
 715              	Comp_0_initVar:
 716 0004 00       		.space	1
 717              		.text
 718              	.Letext0:
 719              		.file 2 "Generated_Source\\PSoC4\\cytypes.h"
 720              		.file 3 "Generated_Source\\PSoC4\\CyLib.h"