ARM GAS  C:\Users\Ray\AppData\Local\Temp\ccPyLGeV.s 			page 1


   1              		.syntax unified
   2              		.cpu cortex-m0
   3              		.fpu softvfp
   4              		.eabi_attribute 20, 1
   5              		.eabi_attribute 21, 1
   6              		.eabi_attribute 23, 3
   7              		.eabi_attribute 24, 1
   8              		.eabi_attribute 25, 1
   9              		.eabi_attribute 26, 1
  10              		.eabi_attribute 30, 1
  11              		.eabi_attribute 34, 0
  12              		.eabi_attribute 18, 4
  13              		.thumb
  14              		.syntax unified
  15              		.file	"Comp_1.c"
  16              		.text
  17              	.Ltext0:
  18              		.cfi_sections	.debug_frame
  19              		.section	.text.Comp_1_Init,"ax",%progbits
  20              		.align	2
  21              		.global	Comp_1_Init
  22              		.code	16
  23              		.thumb_func
  24              		.type	Comp_1_Init, %function
  25              	Comp_1_Init:
  26              	.LFB1:
  27              		.file 1 "Generated_Source\\PSoC4\\Comp_1.c"
   1:Generated_Source\PSoC4/Comp_1.c **** /*******************************************************************************
   2:Generated_Source\PSoC4/Comp_1.c **** * File Name: Comp_1.c
   3:Generated_Source\PSoC4/Comp_1.c **** * Version 2.20
   4:Generated_Source\PSoC4/Comp_1.c **** *
   5:Generated_Source\PSoC4/Comp_1.c **** * Description:
   6:Generated_Source\PSoC4/Comp_1.c **** *  This file provides the source code to the API for the Low Power Comparator
   7:Generated_Source\PSoC4/Comp_1.c **** *  component.
   8:Generated_Source\PSoC4/Comp_1.c **** *
   9:Generated_Source\PSoC4/Comp_1.c **** * Note:
  10:Generated_Source\PSoC4/Comp_1.c **** *  None
  11:Generated_Source\PSoC4/Comp_1.c **** *
  12:Generated_Source\PSoC4/Comp_1.c **** ********************************************************************************
  13:Generated_Source\PSoC4/Comp_1.c **** * Copyright 2013-2016, Cypress Semiconductor Corporation.  All rights reserved.
  14:Generated_Source\PSoC4/Comp_1.c **** * You may use this file only in accordance with the license, terms, conditions,
  15:Generated_Source\PSoC4/Comp_1.c **** * disclaimers, and limitations in the end user license agreement accompanying
  16:Generated_Source\PSoC4/Comp_1.c **** * the software package with which this file was provided.
  17:Generated_Source\PSoC4/Comp_1.c **** *******************************************************************************/
  18:Generated_Source\PSoC4/Comp_1.c **** 
  19:Generated_Source\PSoC4/Comp_1.c **** #include "Comp_1.h"
  20:Generated_Source\PSoC4/Comp_1.c **** #include "CyLib.h"
  21:Generated_Source\PSoC4/Comp_1.c **** #include "cyPm.h"
  22:Generated_Source\PSoC4/Comp_1.c **** 
  23:Generated_Source\PSoC4/Comp_1.c **** uint8 Comp_1_initVar = 0u;
  24:Generated_Source\PSoC4/Comp_1.c **** static uint32 Comp_1_internalIntr = 0u;
  25:Generated_Source\PSoC4/Comp_1.c **** #if(Comp_1_CY_LPCOMP_V2)
  26:Generated_Source\PSoC4/Comp_1.c ****     #if(CY_IP_SRSSV2)
  27:Generated_Source\PSoC4/Comp_1.c ****         /* This variable saves INTR_MASK register since it get reset after wakeup 
  28:Generated_Source\PSoC4/Comp_1.c ****         * from Hibernate. Attribute CY_NOINIT puts SRAM variable in memory section 
  29:Generated_Source\PSoC4/Comp_1.c ****         * which is retained in low power modes 
  30:Generated_Source\PSoC4/Comp_1.c ****         */
ARM GAS  C:\Users\Ray\AppData\Local\Temp\ccPyLGeV.s 			page 2


  31:Generated_Source\PSoC4/Comp_1.c ****         CY_NOINIT static uint32 Comp_1_intrMaskRegState;
  32:Generated_Source\PSoC4/Comp_1.c ****     #endif /* (CY_IP_SRSSV2) */
  33:Generated_Source\PSoC4/Comp_1.c **** #endif /* (Comp_1_CY_LPCOMP_V2) */
  34:Generated_Source\PSoC4/Comp_1.c **** 
  35:Generated_Source\PSoC4/Comp_1.c **** 
  36:Generated_Source\PSoC4/Comp_1.c **** /*******************************************************************************
  37:Generated_Source\PSoC4/Comp_1.c **** * Function Name: Comp_1_Start
  38:Generated_Source\PSoC4/Comp_1.c **** ********************************************************************************
  39:Generated_Source\PSoC4/Comp_1.c **** *
  40:Generated_Source\PSoC4/Comp_1.c **** * Summary:
  41:Generated_Source\PSoC4/Comp_1.c **** *  Performs all of the required initialization for the component and enables
  42:Generated_Source\PSoC4/Comp_1.c **** *  power to the block. The first time the routine is executed, the component is
  43:Generated_Source\PSoC4/Comp_1.c **** *  initialized to the configuration from the customizer. When called to restart
  44:Generated_Source\PSoC4/Comp_1.c **** *  the comparator following a Comp_1_Stop() call, the current
  45:Generated_Source\PSoC4/Comp_1.c **** *  component parameter settings are retained.
  46:Generated_Source\PSoC4/Comp_1.c **** *
  47:Generated_Source\PSoC4/Comp_1.c **** * Parameters:
  48:Generated_Source\PSoC4/Comp_1.c **** *   None
  49:Generated_Source\PSoC4/Comp_1.c **** *
  50:Generated_Source\PSoC4/Comp_1.c **** * Return:
  51:Generated_Source\PSoC4/Comp_1.c **** *  None
  52:Generated_Source\PSoC4/Comp_1.c **** *
  53:Generated_Source\PSoC4/Comp_1.c **** * Global variables:
  54:Generated_Source\PSoC4/Comp_1.c **** *  Comp_1_initVar: Is modified when this function is called for the
  55:Generated_Source\PSoC4/Comp_1.c **** *   first time. Is used to ensure that initialization happens only once.
  56:Generated_Source\PSoC4/Comp_1.c **** *
  57:Generated_Source\PSoC4/Comp_1.c **** *******************************************************************************/
  58:Generated_Source\PSoC4/Comp_1.c **** void Comp_1_Start(void)
  59:Generated_Source\PSoC4/Comp_1.c **** {
  60:Generated_Source\PSoC4/Comp_1.c ****     if(0u == Comp_1_initVar)
  61:Generated_Source\PSoC4/Comp_1.c ****     {
  62:Generated_Source\PSoC4/Comp_1.c ****         Comp_1_Init();
  63:Generated_Source\PSoC4/Comp_1.c ****         Comp_1_initVar = 1u;
  64:Generated_Source\PSoC4/Comp_1.c ****     }
  65:Generated_Source\PSoC4/Comp_1.c ****     Comp_1_Enable();
  66:Generated_Source\PSoC4/Comp_1.c **** }
  67:Generated_Source\PSoC4/Comp_1.c **** 
  68:Generated_Source\PSoC4/Comp_1.c **** 
  69:Generated_Source\PSoC4/Comp_1.c **** /*******************************************************************************
  70:Generated_Source\PSoC4/Comp_1.c **** * Function Name: Comp_1_Init
  71:Generated_Source\PSoC4/Comp_1.c **** ********************************************************************************
  72:Generated_Source\PSoC4/Comp_1.c **** *
  73:Generated_Source\PSoC4/Comp_1.c **** * Summary:
  74:Generated_Source\PSoC4/Comp_1.c **** *  Initializes or restores the component according to the customizer settings.
  75:Generated_Source\PSoC4/Comp_1.c **** *  It is not necessary to call Comp_1_Init() because the
  76:Generated_Source\PSoC4/Comp_1.c **** *  Comp_1_Start() API calls this function and is the preferred method
  77:Generated_Source\PSoC4/Comp_1.c **** *  to begin component operation.
  78:Generated_Source\PSoC4/Comp_1.c **** *
  79:Generated_Source\PSoC4/Comp_1.c **** * Parameters:
  80:Generated_Source\PSoC4/Comp_1.c **** *  None
  81:Generated_Source\PSoC4/Comp_1.c **** *
  82:Generated_Source\PSoC4/Comp_1.c **** * Return:
  83:Generated_Source\PSoC4/Comp_1.c **** *  None
  84:Generated_Source\PSoC4/Comp_1.c **** *
  85:Generated_Source\PSoC4/Comp_1.c **** *******************************************************************************/
  86:Generated_Source\PSoC4/Comp_1.c **** void Comp_1_Init(void)
  87:Generated_Source\PSoC4/Comp_1.c **** {
ARM GAS  C:\Users\Ray\AppData\Local\Temp\ccPyLGeV.s 			page 3


  28              		.loc 1 87 0
  29              		.cfi_startproc
  30              		@ args = 0, pretend = 0, frame = 0
  31              		@ frame_needed = 0, uses_anonymous_args = 0
  32 0000 10B5     		push	{r4, lr}
  33              		.cfi_def_cfa_offset 8
  34              		.cfi_offset 4, -8
  35              		.cfi_offset 14, -4
  88:Generated_Source\PSoC4/Comp_1.c ****     uint8 enableInterrupts;
  89:Generated_Source\PSoC4/Comp_1.c **** 
  90:Generated_Source\PSoC4/Comp_1.c ****     enableInterrupts = CyEnterCriticalSection();
  36              		.loc 1 90 0
  37 0002 FFF7FEFF 		bl	CyEnterCriticalSection
  38              	.LVL0:
  91:Generated_Source\PSoC4/Comp_1.c ****     Comp_1_CONFIG_REG |= Comp_1_CONFIG_REG_DEFAULT;
  39              		.loc 1 91 0
  40 0006 064A     		ldr	r2, .L2
  41 0008 1368     		ldr	r3, [r2]
  42 000a A021     		movs	r1, #160
  43 000c C900     		lsls	r1, r1, #3
  44 000e 0B43     		orrs	r3, r1
  45 0010 1360     		str	r3, [r2]
  92:Generated_Source\PSoC4/Comp_1.c ****     Comp_1_internalIntr = Comp_1_GET_CONFIG_INTR(Comp_1_INTERRUPT);
  46              		.loc 1 92 0
  47 0012 C022     		movs	r2, #192
  48 0014 9201     		lsls	r2, r2, #6
  49 0016 034B     		ldr	r3, .L2+4
  50 0018 1A60     		str	r2, [r3]
  93:Generated_Source\PSoC4/Comp_1.c ****     
  94:Generated_Source\PSoC4/Comp_1.c ****     #if (Comp_1_CY_LPCOMP_V2)
  95:Generated_Source\PSoC4/Comp_1.c ****         #if(CY_IP_SRSSV2)
  96:Generated_Source\PSoC4/Comp_1.c ****             if (CySysPmGetResetReason() == CY_PM_RESET_REASON_WAKEUP_HIB)
  97:Generated_Source\PSoC4/Comp_1.c ****             {
  98:Generated_Source\PSoC4/Comp_1.c ****                 /* Restore the INTR_MASK register state since it get reset after 
  99:Generated_Source\PSoC4/Comp_1.c ****                 * wakeup from Hibernate.  
 100:Generated_Source\PSoC4/Comp_1.c ****                 */
 101:Generated_Source\PSoC4/Comp_1.c ****                 Comp_1_INTR_MASK_REG |= Comp_1_intrMaskRegState;  
 102:Generated_Source\PSoC4/Comp_1.c ****             }
 103:Generated_Source\PSoC4/Comp_1.c ****             else
 104:Generated_Source\PSoC4/Comp_1.c ****             {
 105:Generated_Source\PSoC4/Comp_1.c ****                 Comp_1_INTR_MASK_REG |= Comp_1_INTR_MASK_REG_DEFAULT;    
 106:Generated_Source\PSoC4/Comp_1.c ****                 Comp_1_intrMaskRegState = Comp_1_INTR_MASK_REG;
 107:Generated_Source\PSoC4/Comp_1.c ****             }
 108:Generated_Source\PSoC4/Comp_1.c ****         #else
 109:Generated_Source\PSoC4/Comp_1.c ****             Comp_1_INTR_MASK_REG |= Comp_1_INTR_MASK_REG_DEFAULT;
 110:Generated_Source\PSoC4/Comp_1.c ****         #endif /* (Comp_1_CY_LPCOMP_V2) */
 111:Generated_Source\PSoC4/Comp_1.c ****     #endif /* (Comp_1_CY_LPCOMP_V2) */
 112:Generated_Source\PSoC4/Comp_1.c ****     
 113:Generated_Source\PSoC4/Comp_1.c ****     CyExitCriticalSection(enableInterrupts);
  51              		.loc 1 113 0
  52 001a FFF7FEFF 		bl	CyExitCriticalSection
  53              	.LVL1:
 114:Generated_Source\PSoC4/Comp_1.c **** }
  54              		.loc 1 114 0
  55              		@ sp needed
  56 001e 10BD     		pop	{r4, pc}
  57              	.L3:
ARM GAS  C:\Users\Ray\AppData\Local\Temp\ccPyLGeV.s 			page 4


  58              		.align	2
  59              	.L2:
  60 0020 04000A40 		.word	1074397188
  61 0024 00000000 		.word	.LANCHOR0
  62              		.cfi_endproc
  63              	.LFE1:
  64              		.size	Comp_1_Init, .-Comp_1_Init
  65              		.section	.text.Comp_1_Enable,"ax",%progbits
  66              		.align	2
  67              		.global	Comp_1_Enable
  68              		.code	16
  69              		.thumb_func
  70              		.type	Comp_1_Enable, %function
  71              	Comp_1_Enable:
  72              	.LFB2:
 115:Generated_Source\PSoC4/Comp_1.c **** 
 116:Generated_Source\PSoC4/Comp_1.c **** 
 117:Generated_Source\PSoC4/Comp_1.c **** /*******************************************************************************
 118:Generated_Source\PSoC4/Comp_1.c **** * Function Name: Comp_1_Enable
 119:Generated_Source\PSoC4/Comp_1.c **** ********************************************************************************
 120:Generated_Source\PSoC4/Comp_1.c **** *
 121:Generated_Source\PSoC4/Comp_1.c **** * Summary:
 122:Generated_Source\PSoC4/Comp_1.c **** *  Activates the hardware and begins component operation. It is not necessary
 123:Generated_Source\PSoC4/Comp_1.c **** *  to call Comp_1_Enable() because the Comp_1_Start() API
 124:Generated_Source\PSoC4/Comp_1.c **** *  calls this function, which is the preferred method to begin component
 125:Generated_Source\PSoC4/Comp_1.c **** *  operation.
 126:Generated_Source\PSoC4/Comp_1.c **** *
 127:Generated_Source\PSoC4/Comp_1.c **** * Parameters:
 128:Generated_Source\PSoC4/Comp_1.c **** *  None
 129:Generated_Source\PSoC4/Comp_1.c **** *
 130:Generated_Source\PSoC4/Comp_1.c **** * Return:
 131:Generated_Source\PSoC4/Comp_1.c **** *  None
 132:Generated_Source\PSoC4/Comp_1.c **** *
 133:Generated_Source\PSoC4/Comp_1.c **** *******************************************************************************/
 134:Generated_Source\PSoC4/Comp_1.c **** void Comp_1_Enable(void)
 135:Generated_Source\PSoC4/Comp_1.c **** {
  73              		.loc 1 135 0
  74              		.cfi_startproc
  75              		@ args = 0, pretend = 0, frame = 0
  76              		@ frame_needed = 0, uses_anonymous_args = 0
  77 0000 10B5     		push	{r4, lr}
  78              		.cfi_def_cfa_offset 8
  79              		.cfi_offset 4, -8
  80              		.cfi_offset 14, -4
 136:Generated_Source\PSoC4/Comp_1.c ****     uint8 enableInterrupts;
 137:Generated_Source\PSoC4/Comp_1.c ****     
 138:Generated_Source\PSoC4/Comp_1.c ****     enableInterrupts = CyEnterCriticalSection();
  81              		.loc 1 138 0
  82 0002 FFF7FEFF 		bl	CyEnterCriticalSection
  83              	.LVL2:
 139:Generated_Source\PSoC4/Comp_1.c ****     Comp_1_CONFIG_REG |= Comp_1_CONFIG_EN;
  84              		.loc 1 139 0
  85 0006 074B     		ldr	r3, .L5
  86 0008 1A68     		ldr	r2, [r3]
  87 000a 8021     		movs	r1, #128
  88 000c 0902     		lsls	r1, r1, #8
  89 000e 0A43     		orrs	r2, r1
ARM GAS  C:\Users\Ray\AppData\Local\Temp\ccPyLGeV.s 			page 5


  90 0010 1A60     		str	r2, [r3]
 140:Generated_Source\PSoC4/Comp_1.c ****     
 141:Generated_Source\PSoC4/Comp_1.c ****     /*******************************************************
 142:Generated_Source\PSoC4/Comp_1.c ****     * When the Enable() API is called the CONFIG_EN bit is set. 
 143:Generated_Source\PSoC4/Comp_1.c ****     * This can cause fake interrupt because of the output delay 
 144:Generated_Source\PSoC4/Comp_1.c ****     * of the analog. This requires setting the CONFIG_INTR bits 
 145:Generated_Source\PSoC4/Comp_1.c ****     * after the CONFIG_EN bit is set.
 146:Generated_Source\PSoC4/Comp_1.c ****     *******************************************************/
 147:Generated_Source\PSoC4/Comp_1.c ****     Comp_1_CONFIG_REG |= Comp_1_internalIntr;
  91              		.loc 1 147 0
  92 0012 1968     		ldr	r1, [r3]
  93 0014 044A     		ldr	r2, .L5+4
  94 0016 1268     		ldr	r2, [r2]
  95 0018 0A43     		orrs	r2, r1
  96 001a 1A60     		str	r2, [r3]
 148:Generated_Source\PSoC4/Comp_1.c ****     CyExitCriticalSection(enableInterrupts);
  97              		.loc 1 148 0
  98 001c FFF7FEFF 		bl	CyExitCriticalSection
  99              	.LVL3:
 149:Generated_Source\PSoC4/Comp_1.c **** }
 100              		.loc 1 149 0
 101              		@ sp needed
 102 0020 10BD     		pop	{r4, pc}
 103              	.L6:
 104 0022 C046     		.align	2
 105              	.L5:
 106 0024 04000A40 		.word	1074397188
 107 0028 00000000 		.word	.LANCHOR0
 108              		.cfi_endproc
 109              	.LFE2:
 110              		.size	Comp_1_Enable, .-Comp_1_Enable
 111              		.section	.text.Comp_1_Start,"ax",%progbits
 112              		.align	2
 113              		.global	Comp_1_Start
 114              		.code	16
 115              		.thumb_func
 116              		.type	Comp_1_Start, %function
 117              	Comp_1_Start:
 118              	.LFB0:
  59:Generated_Source\PSoC4/Comp_1.c ****     if(0u == Comp_1_initVar)
 119              		.loc 1 59 0
 120              		.cfi_startproc
 121              		@ args = 0, pretend = 0, frame = 0
 122              		@ frame_needed = 0, uses_anonymous_args = 0
 123 0000 10B5     		push	{r4, lr}
 124              		.cfi_def_cfa_offset 8
 125              		.cfi_offset 4, -8
 126              		.cfi_offset 14, -4
  60:Generated_Source\PSoC4/Comp_1.c ****     {
 127              		.loc 1 60 0
 128 0002 064B     		ldr	r3, .L9
 129 0004 1B79     		ldrb	r3, [r3, #4]
 130 0006 002B     		cmp	r3, #0
 131 0008 04D1     		bne	.L8
  62:Generated_Source\PSoC4/Comp_1.c ****         Comp_1_initVar = 1u;
 132              		.loc 1 62 0
 133 000a FFF7FEFF 		bl	Comp_1_Init
ARM GAS  C:\Users\Ray\AppData\Local\Temp\ccPyLGeV.s 			page 6


 134              	.LVL4:
  63:Generated_Source\PSoC4/Comp_1.c ****     }
 135              		.loc 1 63 0
 136 000e 0122     		movs	r2, #1
 137 0010 024B     		ldr	r3, .L9
 138 0012 1A71     		strb	r2, [r3, #4]
 139              	.L8:
  65:Generated_Source\PSoC4/Comp_1.c **** }
 140              		.loc 1 65 0
 141 0014 FFF7FEFF 		bl	Comp_1_Enable
 142              	.LVL5:
  66:Generated_Source\PSoC4/Comp_1.c **** 
 143              		.loc 1 66 0
 144              		@ sp needed
 145 0018 10BD     		pop	{r4, pc}
 146              	.L10:
 147 001a C046     		.align	2
 148              	.L9:
 149 001c 00000000 		.word	.LANCHOR0
 150              		.cfi_endproc
 151              	.LFE0:
 152              		.size	Comp_1_Start, .-Comp_1_Start
 153              		.section	.text.Comp_1_Stop,"ax",%progbits
 154              		.align	2
 155              		.global	Comp_1_Stop
 156              		.code	16
 157              		.thumb_func
 158              		.type	Comp_1_Stop, %function
 159              	Comp_1_Stop:
 160              	.LFB3:
 150:Generated_Source\PSoC4/Comp_1.c **** 
 151:Generated_Source\PSoC4/Comp_1.c **** 
 152:Generated_Source\PSoC4/Comp_1.c **** /*******************************************************************************
 153:Generated_Source\PSoC4/Comp_1.c **** * Function Name: Comp_1_Stop
 154:Generated_Source\PSoC4/Comp_1.c **** ********************************************************************************
 155:Generated_Source\PSoC4/Comp_1.c **** *
 156:Generated_Source\PSoC4/Comp_1.c **** * Summary:
 157:Generated_Source\PSoC4/Comp_1.c **** *  Turns off the LP Comparator.
 158:Generated_Source\PSoC4/Comp_1.c **** *
 159:Generated_Source\PSoC4/Comp_1.c **** * Parameters:
 160:Generated_Source\PSoC4/Comp_1.c **** *  None
 161:Generated_Source\PSoC4/Comp_1.c **** *
 162:Generated_Source\PSoC4/Comp_1.c **** * Return:
 163:Generated_Source\PSoC4/Comp_1.c **** *  None
 164:Generated_Source\PSoC4/Comp_1.c **** *
 165:Generated_Source\PSoC4/Comp_1.c **** * Side Effects:
 166:Generated_Source\PSoC4/Comp_1.c **** *  The function doesn't change component Speed settings.
 167:Generated_Source\PSoC4/Comp_1.c **** *
 168:Generated_Source\PSoC4/Comp_1.c **** *******************************************************************************/
 169:Generated_Source\PSoC4/Comp_1.c **** void Comp_1_Stop(void)
 170:Generated_Source\PSoC4/Comp_1.c **** {
 161              		.loc 1 170 0
 162              		.cfi_startproc
 163              		@ args = 0, pretend = 0, frame = 0
 164              		@ frame_needed = 0, uses_anonymous_args = 0
 165 0000 10B5     		push	{r4, lr}
 166              		.cfi_def_cfa_offset 8
ARM GAS  C:\Users\Ray\AppData\Local\Temp\ccPyLGeV.s 			page 7


 167              		.cfi_offset 4, -8
 168              		.cfi_offset 14, -4
 171:Generated_Source\PSoC4/Comp_1.c ****     uint8 enableInterrupts;
 172:Generated_Source\PSoC4/Comp_1.c ****     
 173:Generated_Source\PSoC4/Comp_1.c ****     enableInterrupts = CyEnterCriticalSection();
 169              		.loc 1 173 0
 170 0002 FFF7FEFF 		bl	CyEnterCriticalSection
 171              	.LVL6:
 174:Generated_Source\PSoC4/Comp_1.c ****     #if (Comp_1_CY_LPCOMP_V0)
 175:Generated_Source\PSoC4/Comp_1.c ****         /*******************************************************
 176:Generated_Source\PSoC4/Comp_1.c ****         * When the Stop() API is called the CONFIG_EN bit is 
 177:Generated_Source\PSoC4/Comp_1.c ****         * cleared. This causes the output of the comparator to go 
 178:Generated_Source\PSoC4/Comp_1.c ****         * low. If the comparator output was high and the Interrupt 
 179:Generated_Source\PSoC4/Comp_1.c ****         * Configuration is set for Falling edge disabling the 
 180:Generated_Source\PSoC4/Comp_1.c ****         * comparator will cause an fake interrupt. This requires 
 181:Generated_Source\PSoC4/Comp_1.c ****         * to clear the CONFIG_INTR bits before the CONFIG_EN bit 
 182:Generated_Source\PSoC4/Comp_1.c ****         * is cleared.
 183:Generated_Source\PSoC4/Comp_1.c ****         *******************************************************/
 184:Generated_Source\PSoC4/Comp_1.c ****         Comp_1_CONFIG_REG &= (uint32)~Comp_1_CONFIG_INTR_MASK;
 172              		.loc 1 184 0
 173 0006 064B     		ldr	r3, .L12
 174 0008 1968     		ldr	r1, [r3]
 175 000a 064A     		ldr	r2, .L12+4
 176 000c 0A40     		ands	r2, r1
 177 000e 1A60     		str	r2, [r3]
 185:Generated_Source\PSoC4/Comp_1.c ****     #endif /* (Comp_1_CY_LPCOMP_V0) */
 186:Generated_Source\PSoC4/Comp_1.c **** 
 187:Generated_Source\PSoC4/Comp_1.c ****     Comp_1_CONFIG_REG &= (uint32)~Comp_1_CONFIG_EN;
 178              		.loc 1 187 0
 179 0010 1968     		ldr	r1, [r3]
 180 0012 054A     		ldr	r2, .L12+8
 181 0014 0A40     		ands	r2, r1
 182 0016 1A60     		str	r2, [r3]
 188:Generated_Source\PSoC4/Comp_1.c ****     CyExitCriticalSection(enableInterrupts);
 183              		.loc 1 188 0
 184 0018 FFF7FEFF 		bl	CyExitCriticalSection
 185              	.LVL7:
 189:Generated_Source\PSoC4/Comp_1.c **** }
 186              		.loc 1 189 0
 187              		@ sp needed
 188 001c 10BD     		pop	{r4, pc}
 189              	.L13:
 190 001e C046     		.align	2
 191              	.L12:
 192 0020 04000A40 		.word	1074397188
 193 0024 FFCFFFFF 		.word	-12289
 194 0028 FF7FFFFF 		.word	-32769
 195              		.cfi_endproc
 196              	.LFE3:
 197              		.size	Comp_1_Stop, .-Comp_1_Stop
 198              		.section	.text.Comp_1_SetSpeed,"ax",%progbits
 199              		.align	2
 200              		.global	Comp_1_SetSpeed
 201              		.code	16
 202              		.thumb_func
 203              		.type	Comp_1_SetSpeed, %function
 204              	Comp_1_SetSpeed:
ARM GAS  C:\Users\Ray\AppData\Local\Temp\ccPyLGeV.s 			page 8


 205              	.LFB4:
 190:Generated_Source\PSoC4/Comp_1.c **** 
 191:Generated_Source\PSoC4/Comp_1.c **** 
 192:Generated_Source\PSoC4/Comp_1.c **** /*******************************************************************************
 193:Generated_Source\PSoC4/Comp_1.c **** * Function Name: Comp_1_SetSpeed
 194:Generated_Source\PSoC4/Comp_1.c **** *
 195:Generated_Source\PSoC4/Comp_1.c **** * Summary:
 196:Generated_Source\PSoC4/Comp_1.c **** *  Sets the drive power and speed to one of three settings.
 197:Generated_Source\PSoC4/Comp_1.c **** *
 198:Generated_Source\PSoC4/Comp_1.c **** * Parameters:
 199:Generated_Source\PSoC4/Comp_1.c **** *  uint32 speed: Sets operation mode of the component:
 200:Generated_Source\PSoC4/Comp_1.c **** *   Comp_1_LOW_SPEED  - Slow/ultra low 
 201:Generated_Source\PSoC4/Comp_1.c **** *   Comp_1_MED_SPEED  - Medium/low 
 202:Generated_Source\PSoC4/Comp_1.c **** *   Comp_1_HIGH_SPEED - Fast/normal 
 203:Generated_Source\PSoC4/Comp_1.c **** *
 204:Generated_Source\PSoC4/Comp_1.c **** * Return:
 205:Generated_Source\PSoC4/Comp_1.c **** *  None
 206:Generated_Source\PSoC4/Comp_1.c **** *
 207:Generated_Source\PSoC4/Comp_1.c **** *******************************************************************************/
 208:Generated_Source\PSoC4/Comp_1.c **** void Comp_1_SetSpeed(uint32 speed)
 209:Generated_Source\PSoC4/Comp_1.c **** {
 206              		.loc 1 209 0
 207              		.cfi_startproc
 208              		@ args = 0, pretend = 0, frame = 0
 209              		@ frame_needed = 0, uses_anonymous_args = 0
 210              	.LVL8:
 211 0000 70B5     		push	{r4, r5, r6, lr}
 212              		.cfi_def_cfa_offset 16
 213              		.cfi_offset 4, -16
 214              		.cfi_offset 5, -12
 215              		.cfi_offset 6, -8
 216              		.cfi_offset 14, -4
 217 0002 0400     		movs	r4, r0
 210:Generated_Source\PSoC4/Comp_1.c ****     uint32 config;
 211:Generated_Source\PSoC4/Comp_1.c ****     uint8 enableInterrupts;
 212:Generated_Source\PSoC4/Comp_1.c ****     
 213:Generated_Source\PSoC4/Comp_1.c ****     enableInterrupts = CyEnterCriticalSection();
 218              		.loc 1 213 0
 219 0004 FFF7FEFF 		bl	CyEnterCriticalSection
 220              	.LVL9:
 214:Generated_Source\PSoC4/Comp_1.c ****     config = Comp_1_CONFIG_REG & (uint32)~Comp_1_CONFIG_SPEED_MODE_MASK;
 221              		.loc 1 214 0
 222 0008 064D     		ldr	r5, .L15
 223 000a 2B68     		ldr	r3, [r5]
 224 000c 064A     		ldr	r2, .L15+4
 225 000e 1340     		ands	r3, r2
 226 0010 1900     		movs	r1, r3
 227              	.LVL10:
 215:Generated_Source\PSoC4/Comp_1.c ****     Comp_1_CONFIG_REG = config | Comp_1_GET_CONFIG_SPEED_MODE(speed);
 228              		.loc 1 215 0
 229 0012 2302     		lsls	r3, r4, #8
 230 0014 C022     		movs	r2, #192
 231 0016 9200     		lsls	r2, r2, #2
 232 0018 1340     		ands	r3, r2
 233 001a 0B43     		orrs	r3, r1
 234 001c 2B60     		str	r3, [r5]
 216:Generated_Source\PSoC4/Comp_1.c ****     CyExitCriticalSection(enableInterrupts);
ARM GAS  C:\Users\Ray\AppData\Local\Temp\ccPyLGeV.s 			page 9


 235              		.loc 1 216 0
 236 001e FFF7FEFF 		bl	CyExitCriticalSection
 237              	.LVL11:
 217:Generated_Source\PSoC4/Comp_1.c **** }
 238              		.loc 1 217 0
 239              		@ sp needed
 240              	.LVL12:
 241 0022 70BD     		pop	{r4, r5, r6, pc}
 242              	.L16:
 243              		.align	2
 244              	.L15:
 245 0024 04000A40 		.word	1074397188
 246 0028 FFFCFFFF 		.word	-769
 247              		.cfi_endproc
 248              	.LFE4:
 249              		.size	Comp_1_SetSpeed, .-Comp_1_SetSpeed
 250              		.section	.text.Comp_1_SetInterruptMode,"ax",%progbits
 251              		.align	2
 252              		.global	Comp_1_SetInterruptMode
 253              		.code	16
 254              		.thumb_func
 255              		.type	Comp_1_SetInterruptMode, %function
 256              	Comp_1_SetInterruptMode:
 257              	.LFB5:
 218:Generated_Source\PSoC4/Comp_1.c **** 
 219:Generated_Source\PSoC4/Comp_1.c **** 
 220:Generated_Source\PSoC4/Comp_1.c **** /*******************************************************************************
 221:Generated_Source\PSoC4/Comp_1.c **** * Function Name: Comp_1_SetInterruptMode
 222:Generated_Source\PSoC4/Comp_1.c **** ********************************************************************************
 223:Generated_Source\PSoC4/Comp_1.c **** *
 224:Generated_Source\PSoC4/Comp_1.c **** * Summary:
 225:Generated_Source\PSoC4/Comp_1.c **** *  Sets the interrupt edge detect mode. This also controls the value provided
 226:Generated_Source\PSoC4/Comp_1.c **** *  on the output.
 227:Generated_Source\PSoC4/Comp_1.c **** *
 228:Generated_Source\PSoC4/Comp_1.c **** * Parameters:
 229:Generated_Source\PSoC4/Comp_1.c **** *  uint32 mode: Enumerated edge detect mode value:
 230:Generated_Source\PSoC4/Comp_1.c **** *  Comp_1_INTR_DISABLE - Disable
 231:Generated_Source\PSoC4/Comp_1.c **** *  Comp_1_INTR_RISING  - Rising edge detect
 232:Generated_Source\PSoC4/Comp_1.c **** *  Comp_1_INTR_FALLING - Falling edge detect
 233:Generated_Source\PSoC4/Comp_1.c **** *  Comp_1_INTR_BOTH    - Detect both edges
 234:Generated_Source\PSoC4/Comp_1.c **** *
 235:Generated_Source\PSoC4/Comp_1.c **** * Return:
 236:Generated_Source\PSoC4/Comp_1.c **** *  None
 237:Generated_Source\PSoC4/Comp_1.c **** *
 238:Generated_Source\PSoC4/Comp_1.c **** *******************************************************************************/
 239:Generated_Source\PSoC4/Comp_1.c **** void Comp_1_SetInterruptMode(uint32 mode)
 240:Generated_Source\PSoC4/Comp_1.c **** {
 258              		.loc 1 240 0
 259              		.cfi_startproc
 260              		@ args = 0, pretend = 0, frame = 0
 261              		@ frame_needed = 0, uses_anonymous_args = 0
 262              	.LVL13:
 263 0000 10B5     		push	{r4, lr}
 264              		.cfi_def_cfa_offset 8
 265              		.cfi_offset 4, -8
 266              		.cfi_offset 14, -4
 241:Generated_Source\PSoC4/Comp_1.c ****     uint32 config;
ARM GAS  C:\Users\Ray\AppData\Local\Temp\ccPyLGeV.s 			page 10


 242:Generated_Source\PSoC4/Comp_1.c ****     uint8 enableInterrupts;
 243:Generated_Source\PSoC4/Comp_1.c ****     
 244:Generated_Source\PSoC4/Comp_1.c ****     Comp_1_internalIntr = Comp_1_GET_CONFIG_INTR(mode);
 267              		.loc 1 244 0
 268 0002 0003     		lsls	r0, r0, #12
 269              	.LVL14:
 270 0004 C023     		movs	r3, #192
 271 0006 9B01     		lsls	r3, r3, #6
 272 0008 1840     		ands	r0, r3
 273 000a 074C     		ldr	r4, .L18
 274 000c 2060     		str	r0, [r4]
 245:Generated_Source\PSoC4/Comp_1.c **** 
 246:Generated_Source\PSoC4/Comp_1.c ****     enableInterrupts = CyEnterCriticalSection();
 275              		.loc 1 246 0
 276 000e FFF7FEFF 		bl	CyEnterCriticalSection
 277              	.LVL15:
 247:Generated_Source\PSoC4/Comp_1.c ****     config = Comp_1_CONFIG_REG & (uint32)~Comp_1_CONFIG_INTR_MASK;
 278              		.loc 1 247 0
 279 0012 0649     		ldr	r1, .L18+4
 280 0014 0A68     		ldr	r2, [r1]
 281 0016 064B     		ldr	r3, .L18+8
 282 0018 1340     		ands	r3, r2
 283              	.LVL16:
 248:Generated_Source\PSoC4/Comp_1.c ****     Comp_1_CONFIG_REG = config | Comp_1_internalIntr;
 284              		.loc 1 248 0
 285 001a 2268     		ldr	r2, [r4]
 286 001c 1343     		orrs	r3, r2
 287              	.LVL17:
 288 001e 0B60     		str	r3, [r1]
 249:Generated_Source\PSoC4/Comp_1.c ****     CyExitCriticalSection(enableInterrupts);
 289              		.loc 1 249 0
 290 0020 FFF7FEFF 		bl	CyExitCriticalSection
 291              	.LVL18:
 250:Generated_Source\PSoC4/Comp_1.c **** }
 292              		.loc 1 250 0
 293              		@ sp needed
 294 0024 10BD     		pop	{r4, pc}
 295              	.L19:
 296 0026 C046     		.align	2
 297              	.L18:
 298 0028 00000000 		.word	.LANCHOR0
 299 002c 04000A40 		.word	1074397188
 300 0030 FFCFFFFF 		.word	-12289
 301              		.cfi_endproc
 302              	.LFE5:
 303              		.size	Comp_1_SetInterruptMode, .-Comp_1_SetInterruptMode
 304              		.section	.text.Comp_1_GetInterruptSource,"ax",%progbits
 305              		.align	2
 306              		.global	Comp_1_GetInterruptSource
 307              		.code	16
 308              		.thumb_func
 309              		.type	Comp_1_GetInterruptSource, %function
 310              	Comp_1_GetInterruptSource:
 311              	.LFB6:
 251:Generated_Source\PSoC4/Comp_1.c **** 
 252:Generated_Source\PSoC4/Comp_1.c **** 
 253:Generated_Source\PSoC4/Comp_1.c **** /*******************************************************************************
ARM GAS  C:\Users\Ray\AppData\Local\Temp\ccPyLGeV.s 			page 11


 254:Generated_Source\PSoC4/Comp_1.c **** * Function Name: Comp_1_GetInterruptSource
 255:Generated_Source\PSoC4/Comp_1.c **** ********************************************************************************
 256:Generated_Source\PSoC4/Comp_1.c **** *
 257:Generated_Source\PSoC4/Comp_1.c **** * Summary:
 258:Generated_Source\PSoC4/Comp_1.c **** *  Gets the interrupt requests. This function is for use when using the combined
 259:Generated_Source\PSoC4/Comp_1.c **** *  interrupt signal from the global signal reference. This function from either
 260:Generated_Source\PSoC4/Comp_1.c **** *  component instance can be used to determine the interrupt source for both the
 261:Generated_Source\PSoC4/Comp_1.c **** *  interrupts combined.
 262:Generated_Source\PSoC4/Comp_1.c **** *
 263:Generated_Source\PSoC4/Comp_1.c **** * Parameters:
 264:Generated_Source\PSoC4/Comp_1.c **** *  None
 265:Generated_Source\PSoC4/Comp_1.c **** *
 266:Generated_Source\PSoC4/Comp_1.c **** * Return:
 267:Generated_Source\PSoC4/Comp_1.c **** *  uint32: Interrupt source. Each component instance has a mask value:
 268:Generated_Source\PSoC4/Comp_1.c **** *  Comp_1_INTR.
 269:Generated_Source\PSoC4/Comp_1.c **** *
 270:Generated_Source\PSoC4/Comp_1.c **** *******************************************************************************/
 271:Generated_Source\PSoC4/Comp_1.c **** uint32 Comp_1_GetInterruptSource(void)
 272:Generated_Source\PSoC4/Comp_1.c **** {
 312              		.loc 1 272 0
 313              		.cfi_startproc
 314              		@ args = 0, pretend = 0, frame = 0
 315              		@ frame_needed = 0, uses_anonymous_args = 0
 316              		@ link register save eliminated.
 273:Generated_Source\PSoC4/Comp_1.c ****     return (Comp_1_INTR_REG); 
 317              		.loc 1 273 0
 318 0000 014B     		ldr	r3, .L21
 319 0002 1868     		ldr	r0, [r3]
 274:Generated_Source\PSoC4/Comp_1.c **** }
 320              		.loc 1 274 0
 321              		@ sp needed
 322 0004 7047     		bx	lr
 323              	.L22:
 324 0006 C046     		.align	2
 325              	.L21:
 326 0008 0C000A40 		.word	1074397196
 327              		.cfi_endproc
 328              	.LFE6:
 329              		.size	Comp_1_GetInterruptSource, .-Comp_1_GetInterruptSource
 330              		.section	.text.Comp_1_ClearInterrupt,"ax",%progbits
 331              		.align	2
 332              		.global	Comp_1_ClearInterrupt
 333              		.code	16
 334              		.thumb_func
 335              		.type	Comp_1_ClearInterrupt, %function
 336              	Comp_1_ClearInterrupt:
 337              	.LFB7:
 275:Generated_Source\PSoC4/Comp_1.c **** 
 276:Generated_Source\PSoC4/Comp_1.c **** 
 277:Generated_Source\PSoC4/Comp_1.c **** /*******************************************************************************
 278:Generated_Source\PSoC4/Comp_1.c **** * Function Name: Comp_1_ClearInterrupt
 279:Generated_Source\PSoC4/Comp_1.c **** ********************************************************************************
 280:Generated_Source\PSoC4/Comp_1.c **** *
 281:Generated_Source\PSoC4/Comp_1.c **** * Summary:
 282:Generated_Source\PSoC4/Comp_1.c **** *  Clears the interrupt request. This function is for use when using the
 283:Generated_Source\PSoC4/Comp_1.c **** *  combined interrupt signal from the global signal reference. This function
 284:Generated_Source\PSoC4/Comp_1.c **** *  from either component instance can be used to clear either or both
ARM GAS  C:\Users\Ray\AppData\Local\Temp\ccPyLGeV.s 			page 12


 285:Generated_Source\PSoC4/Comp_1.c **** *  interrupts.
 286:Generated_Source\PSoC4/Comp_1.c **** *
 287:Generated_Source\PSoC4/Comp_1.c **** * Parameters:
 288:Generated_Source\PSoC4/Comp_1.c **** *  uint32 interruptMask: Mask of interrupts to clear. Each component instance
 289:Generated_Source\PSoC4/Comp_1.c **** *  has a mask value: Comp_1_INTR.
 290:Generated_Source\PSoC4/Comp_1.c **** *
 291:Generated_Source\PSoC4/Comp_1.c **** * Return:
 292:Generated_Source\PSoC4/Comp_1.c **** *  None
 293:Generated_Source\PSoC4/Comp_1.c **** *
 294:Generated_Source\PSoC4/Comp_1.c **** *******************************************************************************/
 295:Generated_Source\PSoC4/Comp_1.c **** void Comp_1_ClearInterrupt(uint32 interruptMask)
 296:Generated_Source\PSoC4/Comp_1.c **** {   
 338              		.loc 1 296 0
 339              		.cfi_startproc
 340              		@ args = 0, pretend = 0, frame = 0
 341              		@ frame_needed = 0, uses_anonymous_args = 0
 342              		@ link register save eliminated.
 343              	.LVL19:
 297:Generated_Source\PSoC4/Comp_1.c ****     Comp_1_INTR_REG = interruptMask;
 344              		.loc 1 297 0
 345 0000 014B     		ldr	r3, .L24
 346 0002 1860     		str	r0, [r3]
 298:Generated_Source\PSoC4/Comp_1.c **** }
 347              		.loc 1 298 0
 348              		@ sp needed
 349 0004 7047     		bx	lr
 350              	.L25:
 351 0006 C046     		.align	2
 352              	.L24:
 353 0008 0C000A40 		.word	1074397196
 354              		.cfi_endproc
 355              	.LFE7:
 356              		.size	Comp_1_ClearInterrupt, .-Comp_1_ClearInterrupt
 357              		.section	.text.Comp_1_SetInterrupt,"ax",%progbits
 358              		.align	2
 359              		.global	Comp_1_SetInterrupt
 360              		.code	16
 361              		.thumb_func
 362              		.type	Comp_1_SetInterrupt, %function
 363              	Comp_1_SetInterrupt:
 364              	.LFB8:
 299:Generated_Source\PSoC4/Comp_1.c **** 
 300:Generated_Source\PSoC4/Comp_1.c **** 
 301:Generated_Source\PSoC4/Comp_1.c **** /*******************************************************************************
 302:Generated_Source\PSoC4/Comp_1.c **** * Function Name: Comp_1_SetInterrupt
 303:Generated_Source\PSoC4/Comp_1.c **** ********************************************************************************
 304:Generated_Source\PSoC4/Comp_1.c **** *
 305:Generated_Source\PSoC4/Comp_1.c **** * Summary:
 306:Generated_Source\PSoC4/Comp_1.c **** *  Sets a software interrupt request. This function is for use when using the
 307:Generated_Source\PSoC4/Comp_1.c **** *  combined interrupt signal from the global signal reference. This function
 308:Generated_Source\PSoC4/Comp_1.c **** *  from either component instance can be used to trigger either or both software
 309:Generated_Source\PSoC4/Comp_1.c **** *  interrupts.
 310:Generated_Source\PSoC4/Comp_1.c **** *
 311:Generated_Source\PSoC4/Comp_1.c **** * Parameters:
 312:Generated_Source\PSoC4/Comp_1.c **** *  uint32 interruptMask: Mask of interrupts to set. Each component instance has
 313:Generated_Source\PSoC4/Comp_1.c **** *  a mask value: Comp_1_INTR_SET.
 314:Generated_Source\PSoC4/Comp_1.c **** *
ARM GAS  C:\Users\Ray\AppData\Local\Temp\ccPyLGeV.s 			page 13


 315:Generated_Source\PSoC4/Comp_1.c **** * Return:
 316:Generated_Source\PSoC4/Comp_1.c **** *  None
 317:Generated_Source\PSoC4/Comp_1.c **** *
 318:Generated_Source\PSoC4/Comp_1.c **** *******************************************************************************/
 319:Generated_Source\PSoC4/Comp_1.c **** void Comp_1_SetInterrupt(uint32 interruptMask)
 320:Generated_Source\PSoC4/Comp_1.c **** {
 365              		.loc 1 320 0
 366              		.cfi_startproc
 367              		@ args = 0, pretend = 0, frame = 0
 368              		@ frame_needed = 0, uses_anonymous_args = 0
 369              	.LVL20:
 370 0000 10B5     		push	{r4, lr}
 371              		.cfi_def_cfa_offset 8
 372              		.cfi_offset 4, -8
 373              		.cfi_offset 14, -4
 374 0002 0400     		movs	r4, r0
 321:Generated_Source\PSoC4/Comp_1.c ****     uint8 enableInterrupts;
 322:Generated_Source\PSoC4/Comp_1.c ****     
 323:Generated_Source\PSoC4/Comp_1.c ****     enableInterrupts = CyEnterCriticalSection();
 375              		.loc 1 323 0
 376 0004 FFF7FEFF 		bl	CyEnterCriticalSection
 377              	.LVL21:
 324:Generated_Source\PSoC4/Comp_1.c ****     Comp_1_INTR_SET_REG |= interruptMask;
 378              		.loc 1 324 0
 379 0008 034B     		ldr	r3, .L27
 380 000a 1A68     		ldr	r2, [r3]
 381 000c 1443     		orrs	r4, r2
 382              	.LVL22:
 383 000e 1C60     		str	r4, [r3]
 325:Generated_Source\PSoC4/Comp_1.c ****     CyExitCriticalSection(enableInterrupts);
 384              		.loc 1 325 0
 385 0010 FFF7FEFF 		bl	CyExitCriticalSection
 386              	.LVL23:
 326:Generated_Source\PSoC4/Comp_1.c **** }
 387              		.loc 1 326 0
 388              		@ sp needed
 389 0014 10BD     		pop	{r4, pc}
 390              	.L28:
 391 0016 C046     		.align	2
 392              	.L27:
 393 0018 10000A40 		.word	1074397200
 394              		.cfi_endproc
 395              	.LFE8:
 396              		.size	Comp_1_SetInterrupt, .-Comp_1_SetInterrupt
 397              		.section	.text.Comp_1_SetHysteresis,"ax",%progbits
 398              		.align	2
 399              		.global	Comp_1_SetHysteresis
 400              		.code	16
 401              		.thumb_func
 402              		.type	Comp_1_SetHysteresis, %function
 403              	Comp_1_SetHysteresis:
 404              	.LFB9:
 327:Generated_Source\PSoC4/Comp_1.c **** 
 328:Generated_Source\PSoC4/Comp_1.c **** 
 329:Generated_Source\PSoC4/Comp_1.c **** /*******************************************************************************
 330:Generated_Source\PSoC4/Comp_1.c **** * Function Name: Comp_1_SetHysteresis
 331:Generated_Source\PSoC4/Comp_1.c **** ********************************************************************************
ARM GAS  C:\Users\Ray\AppData\Local\Temp\ccPyLGeV.s 			page 14


 332:Generated_Source\PSoC4/Comp_1.c **** *
 333:Generated_Source\PSoC4/Comp_1.c **** * Summary:
 334:Generated_Source\PSoC4/Comp_1.c **** *  Enables or disables the hysteresis.
 335:Generated_Source\PSoC4/Comp_1.c **** *
 336:Generated_Source\PSoC4/Comp_1.c **** * Parameters:
 337:Generated_Source\PSoC4/Comp_1.c **** *  hysteresis: (uint32) Enables or disables the hysteresis setting.
 338:Generated_Source\PSoC4/Comp_1.c **** *  Comp_1_HYST_ENABLE     - Enable hysteresis
 339:Generated_Source\PSoC4/Comp_1.c **** *  Comp_1_HYST_DISABLE    - Disable hysteresis
 340:Generated_Source\PSoC4/Comp_1.c **** *
 341:Generated_Source\PSoC4/Comp_1.c **** * Return:
 342:Generated_Source\PSoC4/Comp_1.c **** *  None
 343:Generated_Source\PSoC4/Comp_1.c **** *
 344:Generated_Source\PSoC4/Comp_1.c **** *******************************************************************************/
 345:Generated_Source\PSoC4/Comp_1.c **** void Comp_1_SetHysteresis(uint32 hysteresis)
 346:Generated_Source\PSoC4/Comp_1.c **** {
 405              		.loc 1 346 0
 406              		.cfi_startproc
 407              		@ args = 0, pretend = 0, frame = 0
 408              		@ frame_needed = 0, uses_anonymous_args = 0
 409              	.LVL24:
 410 0000 10B5     		push	{r4, lr}
 411              		.cfi_def_cfa_offset 8
 412              		.cfi_offset 4, -8
 413              		.cfi_offset 14, -4
 414 0002 0400     		movs	r4, r0
 347:Generated_Source\PSoC4/Comp_1.c ****     uint8 enableInterrupts;
 348:Generated_Source\PSoC4/Comp_1.c ****     
 349:Generated_Source\PSoC4/Comp_1.c ****     enableInterrupts = CyEnterCriticalSection();
 415              		.loc 1 349 0
 416 0004 FFF7FEFF 		bl	CyEnterCriticalSection
 417              	.LVL25:
 350:Generated_Source\PSoC4/Comp_1.c ****     if(0u != hysteresis)
 418              		.loc 1 350 0
 419 0008 002C     		cmp	r4, #0
 420 000a 06D0     		beq	.L30
 351:Generated_Source\PSoC4/Comp_1.c ****     {
 352:Generated_Source\PSoC4/Comp_1.c ****         Comp_1_CONFIG_REG |= Comp_1_CONFIG_HYST;
 421              		.loc 1 352 0
 422 000c 074A     		ldr	r2, .L32
 423 000e 1368     		ldr	r3, [r2]
 424 0010 8021     		movs	r1, #128
 425 0012 C900     		lsls	r1, r1, #3
 426 0014 0B43     		orrs	r3, r1
 427 0016 1360     		str	r3, [r2]
 428 0018 04E0     		b	.L31
 429              	.L30:
 353:Generated_Source\PSoC4/Comp_1.c ****     }
 354:Generated_Source\PSoC4/Comp_1.c ****     else
 355:Generated_Source\PSoC4/Comp_1.c ****     {
 356:Generated_Source\PSoC4/Comp_1.c ****         Comp_1_CONFIG_REG &= (uint32)~Comp_1_CONFIG_HYST;
 430              		.loc 1 356 0
 431 001a 044A     		ldr	r2, .L32
 432 001c 1168     		ldr	r1, [r2]
 433 001e 044B     		ldr	r3, .L32+4
 434 0020 0B40     		ands	r3, r1
 435 0022 1360     		str	r3, [r2]
 436              	.L31:
ARM GAS  C:\Users\Ray\AppData\Local\Temp\ccPyLGeV.s 			page 15


 357:Generated_Source\PSoC4/Comp_1.c ****     }
 358:Generated_Source\PSoC4/Comp_1.c ****     CyExitCriticalSection(enableInterrupts);
 437              		.loc 1 358 0
 438 0024 FFF7FEFF 		bl	CyExitCriticalSection
 439              	.LVL26:
 359:Generated_Source\PSoC4/Comp_1.c **** }
 440              		.loc 1 359 0
 441              		@ sp needed
 442              	.LVL27:
 443 0028 10BD     		pop	{r4, pc}
 444              	.L33:
 445 002a C046     		.align	2
 446              	.L32:
 447 002c 04000A40 		.word	1074397188
 448 0030 FFFBFFFF 		.word	-1025
 449              		.cfi_endproc
 450              	.LFE9:
 451              		.size	Comp_1_SetHysteresis, .-Comp_1_SetHysteresis
 452              		.section	.text.Comp_1_SetFilter,"ax",%progbits
 453              		.align	2
 454              		.global	Comp_1_SetFilter
 455              		.code	16
 456              		.thumb_func
 457              		.type	Comp_1_SetFilter, %function
 458              	Comp_1_SetFilter:
 459              	.LFB10:
 360:Generated_Source\PSoC4/Comp_1.c **** 
 361:Generated_Source\PSoC4/Comp_1.c **** 
 362:Generated_Source\PSoC4/Comp_1.c **** /*******************************************************************************
 363:Generated_Source\PSoC4/Comp_1.c **** * Function Name: Comp_1_SetFilter
 364:Generated_Source\PSoC4/Comp_1.c **** ********************************************************************************
 365:Generated_Source\PSoC4/Comp_1.c **** *
 366:Generated_Source\PSoC4/Comp_1.c **** * Summary:
 367:Generated_Source\PSoC4/Comp_1.c **** *  Enables or disables the digital filter. This still exists for saving backward 
 368:Generated_Source\PSoC4/Comp_1.c **** *  compatibility, but not recommended for using.
 369:Generated_Source\PSoC4/Comp_1.c **** *  This API is DEPRECATED and should not be used in new projects.
 370:Generated_Source\PSoC4/Comp_1.c **** *
 371:Generated_Source\PSoC4/Comp_1.c **** * Parameters:
 372:Generated_Source\PSoC4/Comp_1.c **** *  uint32 filter: filter enable.
 373:Generated_Source\PSoC4/Comp_1.c **** *  Comp_1_FILT_ENABLE  - Enable filter
 374:Generated_Source\PSoC4/Comp_1.c **** *  Comp_1_FILT_DISABLE - Disable filter
 375:Generated_Source\PSoC4/Comp_1.c **** *
 376:Generated_Source\PSoC4/Comp_1.c **** * Return:
 377:Generated_Source\PSoC4/Comp_1.c **** *  None
 378:Generated_Source\PSoC4/Comp_1.c **** *
 379:Generated_Source\PSoC4/Comp_1.c **** *******************************************************************************/
 380:Generated_Source\PSoC4/Comp_1.c **** void Comp_1_SetFilter(uint32 filter)
 381:Generated_Source\PSoC4/Comp_1.c **** {
 460              		.loc 1 381 0
 461              		.cfi_startproc
 462              		@ args = 0, pretend = 0, frame = 0
 463              		@ frame_needed = 0, uses_anonymous_args = 0
 464              	.LVL28:
 465 0000 10B5     		push	{r4, lr}
 466              		.cfi_def_cfa_offset 8
 467              		.cfi_offset 4, -8
 468              		.cfi_offset 14, -4
ARM GAS  C:\Users\Ray\AppData\Local\Temp\ccPyLGeV.s 			page 16


 469 0002 0400     		movs	r4, r0
 382:Generated_Source\PSoC4/Comp_1.c ****     uint8 enableInterrupts;
 383:Generated_Source\PSoC4/Comp_1.c ****     
 384:Generated_Source\PSoC4/Comp_1.c ****     enableInterrupts = CyEnterCriticalSection();
 470              		.loc 1 384 0
 471 0004 FFF7FEFF 		bl	CyEnterCriticalSection
 472              	.LVL29:
 385:Generated_Source\PSoC4/Comp_1.c ****     if( 0u != filter)
 473              		.loc 1 385 0
 474 0008 002C     		cmp	r4, #0
 475 000a 06D0     		beq	.L35
 386:Generated_Source\PSoC4/Comp_1.c ****     {
 387:Generated_Source\PSoC4/Comp_1.c ****         Comp_1_CONFIG_REG |= Comp_1_CONFIG_FILT;
 476              		.loc 1 387 0
 477 000c 074A     		ldr	r2, .L37
 478 000e 1368     		ldr	r3, [r2]
 479 0010 8021     		movs	r1, #128
 480 0012 0901     		lsls	r1, r1, #4
 481 0014 0B43     		orrs	r3, r1
 482 0016 1360     		str	r3, [r2]
 483 0018 04E0     		b	.L36
 484              	.L35:
 388:Generated_Source\PSoC4/Comp_1.c ****     }
 389:Generated_Source\PSoC4/Comp_1.c ****     else
 390:Generated_Source\PSoC4/Comp_1.c ****     {
 391:Generated_Source\PSoC4/Comp_1.c ****         Comp_1_CONFIG_REG &= (uint32)~Comp_1_CONFIG_FILT;
 485              		.loc 1 391 0
 486 001a 044A     		ldr	r2, .L37
 487 001c 1168     		ldr	r1, [r2]
 488 001e 044B     		ldr	r3, .L37+4
 489 0020 0B40     		ands	r3, r1
 490 0022 1360     		str	r3, [r2]
 491              	.L36:
 392:Generated_Source\PSoC4/Comp_1.c ****     }
 393:Generated_Source\PSoC4/Comp_1.c ****     CyExitCriticalSection(enableInterrupts);
 492              		.loc 1 393 0
 493 0024 FFF7FEFF 		bl	CyExitCriticalSection
 494              	.LVL30:
 394:Generated_Source\PSoC4/Comp_1.c **** }
 495              		.loc 1 394 0
 496              		@ sp needed
 497              	.LVL31:
 498 0028 10BD     		pop	{r4, pc}
 499              	.L38:
 500 002a C046     		.align	2
 501              	.L37:
 502 002c 04000A40 		.word	1074397188
 503 0030 FFF7FFFF 		.word	-2049
 504              		.cfi_endproc
 505              	.LFE10:
 506              		.size	Comp_1_SetFilter, .-Comp_1_SetFilter
 507              		.section	.text.Comp_1_GetCompare,"ax",%progbits
 508              		.align	2
 509              		.global	Comp_1_GetCompare
 510              		.code	16
 511              		.thumb_func
 512              		.type	Comp_1_GetCompare, %function
ARM GAS  C:\Users\Ray\AppData\Local\Temp\ccPyLGeV.s 			page 17


 513              	Comp_1_GetCompare:
 514              	.LFB11:
 395:Generated_Source\PSoC4/Comp_1.c **** 
 396:Generated_Source\PSoC4/Comp_1.c **** 
 397:Generated_Source\PSoC4/Comp_1.c **** /*******************************************************************************
 398:Generated_Source\PSoC4/Comp_1.c **** * Function Name: Comp_1_GetCompare
 399:Generated_Source\PSoC4/Comp_1.c **** ********************************************************************************
 400:Generated_Source\PSoC4/Comp_1.c **** *
 401:Generated_Source\PSoC4/Comp_1.c **** * Summary:
 402:Generated_Source\PSoC4/Comp_1.c **** *  This function returns a nonzero value when the voltage connected to the
 403:Generated_Source\PSoC4/Comp_1.c **** *  positive input is greater than the negative input voltage.
 404:Generated_Source\PSoC4/Comp_1.c **** *  This function reads the direct (unflopped) comparator output which can also be 
 405:Generated_Source\PSoC4/Comp_1.c **** *  metastable (since it may result in incorrect data).
 406:Generated_Source\PSoC4/Comp_1.c **** *
 407:Generated_Source\PSoC4/Comp_1.c **** * Parameters:
 408:Generated_Source\PSoC4/Comp_1.c **** *  None
 409:Generated_Source\PSoC4/Comp_1.c **** *
 410:Generated_Source\PSoC4/Comp_1.c **** * Return:
 411:Generated_Source\PSoC4/Comp_1.c **** *  (uint32) Comparator output state. This value is not impacted by the interrupt
 412:Generated_Source\PSoC4/Comp_1.c **** *  edge detect setting:
 413:Generated_Source\PSoC4/Comp_1.c **** *   0 - if positive input is less than negative one.
 414:Generated_Source\PSoC4/Comp_1.c **** *   1 - if positive input greater than negative one.
 415:Generated_Source\PSoC4/Comp_1.c **** *
 416:Generated_Source\PSoC4/Comp_1.c **** *******************************************************************************/
 417:Generated_Source\PSoC4/Comp_1.c **** uint32 Comp_1_GetCompare(void)
 418:Generated_Source\PSoC4/Comp_1.c **** {
 515              		.loc 1 418 0
 516              		.cfi_startproc
 517              		@ args = 0, pretend = 0, frame = 0
 518              		@ frame_needed = 0, uses_anonymous_args = 0
 519              		@ link register save eliminated.
 419:Generated_Source\PSoC4/Comp_1.c ****     return((uint32)((0u == (Comp_1_CONFIG_REG & Comp_1_CONFIG_OUT)) ? 0u : 1u));
 520              		.loc 1 419 0
 521 0000 044B     		ldr	r3, .L40
 522 0002 1868     		ldr	r0, [r3]
 523 0004 8023     		movs	r3, #128
 524 0006 DB01     		lsls	r3, r3, #7
 525 0008 1840     		ands	r0, r3
 526 000a 431E     		subs	r3, r0, #1
 527 000c 9841     		sbcs	r0, r0, r3
 528 000e C0B2     		uxtb	r0, r0
 420:Generated_Source\PSoC4/Comp_1.c **** }
 529              		.loc 1 420 0
 530              		@ sp needed
 531 0010 7047     		bx	lr
 532              	.L41:
 533 0012 C046     		.align	2
 534              	.L40:
 535 0014 04000A40 		.word	1074397188
 536              		.cfi_endproc
 537              	.LFE11:
 538              		.size	Comp_1_GetCompare, .-Comp_1_GetCompare
 539              		.section	.text.Comp_1_ZeroCal,"ax",%progbits
 540              		.align	2
 541              		.global	Comp_1_ZeroCal
 542              		.code	16
 543              		.thumb_func
ARM GAS  C:\Users\Ray\AppData\Local\Temp\ccPyLGeV.s 			page 18


 544              		.type	Comp_1_ZeroCal, %function
 545              	Comp_1_ZeroCal:
 546              	.LFB12:
 421:Generated_Source\PSoC4/Comp_1.c **** 
 422:Generated_Source\PSoC4/Comp_1.c **** 
 423:Generated_Source\PSoC4/Comp_1.c **** /*******************************************************************************
 424:Generated_Source\PSoC4/Comp_1.c **** * Function Name: Comp_1_ZeroCal
 425:Generated_Source\PSoC4/Comp_1.c **** ********************************************************************************
 426:Generated_Source\PSoC4/Comp_1.c **** *
 427:Generated_Source\PSoC4/Comp_1.c **** * Summary:
 428:Generated_Source\PSoC4/Comp_1.c **** *  Performs custom calibration of the input offset to minimize error for a
 429:Generated_Source\PSoC4/Comp_1.c **** *  specific set of conditions: comparator reference voltage, supply voltage,
 430:Generated_Source\PSoC4/Comp_1.c **** *  and operating temperature. A reference voltage in the range at which the
 431:Generated_Source\PSoC4/Comp_1.c **** *  comparator will be used must be applied to one of the inputs. The two inputs
 432:Generated_Source\PSoC4/Comp_1.c **** *  will be shorted internally to perform the offset calibration.
 433:Generated_Source\PSoC4/Comp_1.c **** *
 434:Generated_Source\PSoC4/Comp_1.c **** * Parameters:
 435:Generated_Source\PSoC4/Comp_1.c **** *  None
 436:Generated_Source\PSoC4/Comp_1.c **** *
 437:Generated_Source\PSoC4/Comp_1.c **** * Return:
 438:Generated_Source\PSoC4/Comp_1.c **** *  The value from the comparator trim register after the offset calibration is
 439:Generated_Source\PSoC4/Comp_1.c **** *  complete. This value has the same format as the input parameter for the
 440:Generated_Source\PSoC4/Comp_1.c **** *  Comp_1_LoadTrim() API routine.
 441:Generated_Source\PSoC4/Comp_1.c **** *
 442:Generated_Source\PSoC4/Comp_1.c **** *******************************************************************************/
 443:Generated_Source\PSoC4/Comp_1.c **** uint32 Comp_1_ZeroCal(void)
 444:Generated_Source\PSoC4/Comp_1.c **** {
 547              		.loc 1 444 0
 548              		.cfi_startproc
 549              		@ args = 0, pretend = 0, frame = 0
 550              		@ frame_needed = 0, uses_anonymous_args = 0
 551 0000 70B5     		push	{r4, r5, r6, lr}
 552              		.cfi_def_cfa_offset 16
 553              		.cfi_offset 4, -16
 554              		.cfi_offset 5, -12
 555              		.cfi_offset 6, -8
 556              		.cfi_offset 14, -4
 445:Generated_Source\PSoC4/Comp_1.c ****     uint32 cmpOut;
 446:Generated_Source\PSoC4/Comp_1.c ****     uint32 i;
 447:Generated_Source\PSoC4/Comp_1.c **** 
 448:Generated_Source\PSoC4/Comp_1.c ****     Comp_1_DFT_REG |= Comp_1_DFT_CAL_EN;
 557              		.loc 1 448 0
 558 0002 264A     		ldr	r2, .L51
 559 0004 1168     		ldr	r1, [r2]
 560 0006 0123     		movs	r3, #1
 561 0008 0B43     		orrs	r3, r1
 562 000a 1360     		str	r3, [r2]
 449:Generated_Source\PSoC4/Comp_1.c ****     Comp_1_TRIMA_REG = 0u;
 563              		.loc 1 449 0
 564 000c 0023     		movs	r3, #0
 565 000e 244A     		ldr	r2, .L51+4
 566 0010 1360     		str	r3, [r2]
 450:Generated_Source\PSoC4/Comp_1.c ****     Comp_1_TRIMB_REG = 0u;
 567              		.loc 1 450 0
 568 0012 244A     		ldr	r2, .L51+8
 569 0014 1360     		str	r3, [r2]
 451:Generated_Source\PSoC4/Comp_1.c **** 
ARM GAS  C:\Users\Ray\AppData\Local\Temp\ccPyLGeV.s 			page 19


 452:Generated_Source\PSoC4/Comp_1.c ****     CyDelayUs(1u);
 570              		.loc 1 452 0
 571 0016 0120     		movs	r0, #1
 572 0018 FFF7FEFF 		bl	CyDelayUs
 573              	.LVL32:
 453:Generated_Source\PSoC4/Comp_1.c **** 
 454:Generated_Source\PSoC4/Comp_1.c ****     cmpOut = Comp_1_GetCompare();
 574              		.loc 1 454 0
 575 001c FFF7FEFF 		bl	Comp_1_GetCompare
 576              	.LVL33:
 577 0020 051E     		subs	r5, r0, #0
 578              	.LVL34:
 455:Generated_Source\PSoC4/Comp_1.c **** 
 456:Generated_Source\PSoC4/Comp_1.c ****     if(0u != cmpOut)
 579              		.loc 1 456 0
 580 0022 02D0     		beq	.L43
 457:Generated_Source\PSoC4/Comp_1.c ****     {
 458:Generated_Source\PSoC4/Comp_1.c ****         Comp_1_TRIMA_REG = ((uint32) 0x01u << Comp_1_TRIMA_SIGNBIT);
 581              		.loc 1 458 0
 582 0024 1022     		movs	r2, #16
 583 0026 1E4B     		ldr	r3, .L51+4
 584 0028 1A60     		str	r2, [r3]
 585              	.L43:
 444:Generated_Source\PSoC4/Comp_1.c ****     uint32 cmpOut;
 586              		.loc 1 444 0 discriminator 1
 587 002a 1024     		movs	r4, #16
 588 002c 0BE0     		b	.L44
 589              	.LVL35:
 590              	.L46:
 459:Generated_Source\PSoC4/Comp_1.c ****     }
 460:Generated_Source\PSoC4/Comp_1.c **** 
 461:Generated_Source\PSoC4/Comp_1.c ****     for(i = (Comp_1_TRIMA_MAX_VALUE +1u ); i != 0u; i--)
 462:Generated_Source\PSoC4/Comp_1.c ****     {
 463:Generated_Source\PSoC4/Comp_1.c ****         Comp_1_TRIMA_REG++;
 591              		.loc 1 463 0
 592 002e 1C4A     		ldr	r2, .L51+4
 593 0030 1368     		ldr	r3, [r2]
 594 0032 0133     		adds	r3, r3, #1
 595 0034 1360     		str	r3, [r2]
 464:Generated_Source\PSoC4/Comp_1.c ****         CyDelayUs(1u);
 596              		.loc 1 464 0
 597 0036 0120     		movs	r0, #1
 598 0038 FFF7FEFF 		bl	CyDelayUs
 599              	.LVL36:
 465:Generated_Source\PSoC4/Comp_1.c ****         if(cmpOut != Comp_1_GetCompare())
 600              		.loc 1 465 0
 601 003c FFF7FEFF 		bl	Comp_1_GetCompare
 602              	.LVL37:
 603 0040 8542     		cmp	r5, r0
 604 0042 02D1     		bne	.L45
 461:Generated_Source\PSoC4/Comp_1.c ****     {
 605              		.loc 1 461 0 discriminator 2
 606 0044 013C     		subs	r4, r4, #1
 607              	.LVL38:
 608              	.L44:
 461:Generated_Source\PSoC4/Comp_1.c ****     {
 609              		.loc 1 461 0 is_stmt 0 discriminator 1
ARM GAS  C:\Users\Ray\AppData\Local\Temp\ccPyLGeV.s 			page 20


 610 0046 002C     		cmp	r4, #0
 611 0048 F1D1     		bne	.L46
 612              	.L45:
 466:Generated_Source\PSoC4/Comp_1.c ****         {
 467:Generated_Source\PSoC4/Comp_1.c ****             break;
 468:Generated_Source\PSoC4/Comp_1.c ****         }
 469:Generated_Source\PSoC4/Comp_1.c ****     }
 470:Generated_Source\PSoC4/Comp_1.c **** 
 471:Generated_Source\PSoC4/Comp_1.c ****     if(((uint32)(Comp_1_CONFIG_REG >> Comp_1_CONFIG_REG_SHIFT) &
 613              		.loc 1 471 0 is_stmt 1
 614 004a 174B     		ldr	r3, .L51+12
 615 004c 1B68     		ldr	r3, [r3]
 616 004e 1B0A     		lsrs	r3, r3, #8
 617 0050 9B07     		lsls	r3, r3, #30
 618 0052 16D1     		bne	.L47
 472:Generated_Source\PSoC4/Comp_1.c ****         Comp_1_SPEED_PARAM_MASK) == Comp_1_MED_SPEED)
 473:Generated_Source\PSoC4/Comp_1.c ****     {
 474:Generated_Source\PSoC4/Comp_1.c ****         cmpOut = Comp_1_GetCompare();
 619              		.loc 1 474 0
 620 0054 FFF7FEFF 		bl	Comp_1_GetCompare
 621              	.LVL39:
 622 0058 051E     		subs	r5, r0, #0
 623              	.LVL40:
 475:Generated_Source\PSoC4/Comp_1.c **** 
 476:Generated_Source\PSoC4/Comp_1.c ****         if(0u == cmpOut)
 624              		.loc 1 476 0
 625 005a 02D1     		bne	.L48
 477:Generated_Source\PSoC4/Comp_1.c ****         {
 478:Generated_Source\PSoC4/Comp_1.c ****             Comp_1_TRIMB_REG = ((uint32)1u << Comp_1_TRIMB_SIGNBIT);
 626              		.loc 1 478 0
 627 005c 1022     		movs	r2, #16
 628 005e 114B     		ldr	r3, .L51+8
 629 0060 1A60     		str	r2, [r3]
 630              	.L48:
 444:Generated_Source\PSoC4/Comp_1.c ****     uint32 cmpOut;
 631              		.loc 1 444 0 discriminator 1
 632 0062 1024     		movs	r4, #16
 633              	.LVL41:
 634 0064 0BE0     		b	.L49
 635              	.LVL42:
 636              	.L50:
 479:Generated_Source\PSoC4/Comp_1.c ****         }
 480:Generated_Source\PSoC4/Comp_1.c **** 
 481:Generated_Source\PSoC4/Comp_1.c ****         for(i = (Comp_1_TRIMB_MAX_VALUE +1u ); i != 0u; i--)
 482:Generated_Source\PSoC4/Comp_1.c ****         {
 483:Generated_Source\PSoC4/Comp_1.c ****             Comp_1_TRIMB_REG++;
 637              		.loc 1 483 0
 638 0066 0F4A     		ldr	r2, .L51+8
 639 0068 1368     		ldr	r3, [r2]
 640 006a 0133     		adds	r3, r3, #1
 641 006c 1360     		str	r3, [r2]
 484:Generated_Source\PSoC4/Comp_1.c ****             CyDelayUs(1u);
 642              		.loc 1 484 0
 643 006e 0120     		movs	r0, #1
 644 0070 FFF7FEFF 		bl	CyDelayUs
 645              	.LVL43:
 485:Generated_Source\PSoC4/Comp_1.c ****             if(cmpOut != Comp_1_GetCompare())
ARM GAS  C:\Users\Ray\AppData\Local\Temp\ccPyLGeV.s 			page 21


 646              		.loc 1 485 0
 647 0074 FFF7FEFF 		bl	Comp_1_GetCompare
 648              	.LVL44:
 649 0078 8542     		cmp	r5, r0
 650 007a 02D1     		bne	.L47
 481:Generated_Source\PSoC4/Comp_1.c ****         {
 651              		.loc 1 481 0 discriminator 2
 652 007c 013C     		subs	r4, r4, #1
 653              	.LVL45:
 654              	.L49:
 481:Generated_Source\PSoC4/Comp_1.c ****         {
 655              		.loc 1 481 0 is_stmt 0 discriminator 1
 656 007e 002C     		cmp	r4, #0
 657 0080 F1D1     		bne	.L50
 658              	.L47:
 486:Generated_Source\PSoC4/Comp_1.c ****             {
 487:Generated_Source\PSoC4/Comp_1.c ****                 break;
 488:Generated_Source\PSoC4/Comp_1.c ****             }
 489:Generated_Source\PSoC4/Comp_1.c ****         }
 490:Generated_Source\PSoC4/Comp_1.c ****     }
 491:Generated_Source\PSoC4/Comp_1.c **** 
 492:Generated_Source\PSoC4/Comp_1.c ****     Comp_1_DFT_REG &= ((uint32)~Comp_1_DFT_CAL_EN);
 659              		.loc 1 492 0 is_stmt 1
 660 0082 064A     		ldr	r2, .L51
 661 0084 1368     		ldr	r3, [r2]
 662 0086 0121     		movs	r1, #1
 663 0088 8B43     		bics	r3, r1
 664 008a 1360     		str	r3, [r2]
 493:Generated_Source\PSoC4/Comp_1.c **** 
 494:Generated_Source\PSoC4/Comp_1.c ****     return (Comp_1_TRIMA_REG | ((uint32)Comp_1_TRIMB_REG << Comp_1_TRIMB_SHIFT));
 665              		.loc 1 494 0
 666 008c 044B     		ldr	r3, .L51+4
 667 008e 1B68     		ldr	r3, [r3]
 668 0090 044A     		ldr	r2, .L51+8
 669 0092 1068     		ldr	r0, [r2]
 670 0094 0002     		lsls	r0, r0, #8
 671 0096 1843     		orrs	r0, r3
 495:Generated_Source\PSoC4/Comp_1.c **** }
 672              		.loc 1 495 0
 673              		@ sp needed
 674              	.LVL46:
 675              	.LVL47:
 676 0098 70BD     		pop	{r4, r5, r6, pc}
 677              	.L52:
 678 009a C046     		.align	2
 679              	.L51:
 680 009c 08000A40 		.word	1074397192
 681 00a0 08FF0A40 		.word	1074462472
 682 00a4 0CFF0A40 		.word	1074462476
 683 00a8 04000A40 		.word	1074397188
 684              		.cfi_endproc
 685              	.LFE12:
 686              		.size	Comp_1_ZeroCal, .-Comp_1_ZeroCal
 687              		.section	.text.Comp_1_LoadTrim,"ax",%progbits
 688              		.align	2
 689              		.global	Comp_1_LoadTrim
 690              		.code	16
ARM GAS  C:\Users\Ray\AppData\Local\Temp\ccPyLGeV.s 			page 22


 691              		.thumb_func
 692              		.type	Comp_1_LoadTrim, %function
 693              	Comp_1_LoadTrim:
 694              	.LFB13:
 496:Generated_Source\PSoC4/Comp_1.c **** 
 497:Generated_Source\PSoC4/Comp_1.c **** 
 498:Generated_Source\PSoC4/Comp_1.c **** /*******************************************************************************
 499:Generated_Source\PSoC4/Comp_1.c **** * Function Name: Comp_1_LoadTrim
 500:Generated_Source\PSoC4/Comp_1.c **** ********************************************************************************
 501:Generated_Source\PSoC4/Comp_1.c **** *
 502:Generated_Source\PSoC4/Comp_1.c **** * Summary:
 503:Generated_Source\PSoC4/Comp_1.c **** *  This function writes a value into the comparator offset trim register.
 504:Generated_Source\PSoC4/Comp_1.c **** *
 505:Generated_Source\PSoC4/Comp_1.c **** * Parameters:
 506:Generated_Source\PSoC4/Comp_1.c **** *  trimVal: Value to be stored in the comparator offset trim register. This
 507:Generated_Source\PSoC4/Comp_1.c **** *  value has the same format as the parameter returned by the
 508:Generated_Source\PSoC4/Comp_1.c **** *  Comp_1_ZeroCal() API routine.
 509:Generated_Source\PSoC4/Comp_1.c **** *
 510:Generated_Source\PSoC4/Comp_1.c **** * Return:
 511:Generated_Source\PSoC4/Comp_1.c **** *  None
 512:Generated_Source\PSoC4/Comp_1.c **** *
 513:Generated_Source\PSoC4/Comp_1.c **** *******************************************************************************/
 514:Generated_Source\PSoC4/Comp_1.c **** void Comp_1_LoadTrim(uint32 trimVal)
 515:Generated_Source\PSoC4/Comp_1.c **** {
 695              		.loc 1 515 0
 696              		.cfi_startproc
 697              		@ args = 0, pretend = 0, frame = 0
 698              		@ frame_needed = 0, uses_anonymous_args = 0
 699              		@ link register save eliminated.
 700              	.LVL48:
 516:Generated_Source\PSoC4/Comp_1.c ****     Comp_1_TRIMA_REG = (trimVal & Comp_1_TRIMA_MASK);
 701              		.loc 1 516 0
 702 0000 1F23     		movs	r3, #31
 703 0002 1900     		movs	r1, r3
 704 0004 0140     		ands	r1, r0
 705 0006 034A     		ldr	r2, .L54
 706 0008 1160     		str	r1, [r2]
 517:Generated_Source\PSoC4/Comp_1.c ****     Comp_1_TRIMB_REG = ((trimVal >> Comp_1_TRIMB_SHIFT) & Comp_1_TRIMB_MASK);
 707              		.loc 1 517 0
 708 000a 000A     		lsrs	r0, r0, #8
 709              	.LVL49:
 710 000c 1840     		ands	r0, r3
 711 000e 024B     		ldr	r3, .L54+4
 712 0010 1860     		str	r0, [r3]
 518:Generated_Source\PSoC4/Comp_1.c **** }
 713              		.loc 1 518 0
 714              		@ sp needed
 715 0012 7047     		bx	lr
 716              	.L55:
 717              		.align	2
 718              	.L54:
 719 0014 08FF0A40 		.word	1074462472
 720 0018 0CFF0A40 		.word	1074462476
 721              		.cfi_endproc
 722              	.LFE13:
 723              		.size	Comp_1_LoadTrim, .-Comp_1_LoadTrim
 724              		.global	Comp_1_initVar
ARM GAS  C:\Users\Ray\AppData\Local\Temp\ccPyLGeV.s 			page 23


 725              		.bss
 726              		.align	2
 727              		.set	.LANCHOR0,. + 0
 728              		.type	Comp_1_internalIntr, %object
 729              		.size	Comp_1_internalIntr, 4
 730              	Comp_1_internalIntr:
 731 0000 00000000 		.space	4
 732              		.type	Comp_1_initVar, %object
 733              		.size	Comp_1_initVar, 1
 734              	Comp_1_initVar:
 735 0004 00       		.space	1
 736              		.text
 737              	.Letext0:
 738              		.file 2 "Generated_Source\\PSoC4\\cytypes.h"
 739              		.file 3 "Generated_Source\\PSoC4\\CyLib.h"