ARM GAS  C:\Users\Ray\AppData\Local\Temp\ccjiqdPJ.s 			page 1


   1              		.syntax unified
   2              		.cpu cortex-m0
   3              		.fpu softvfp
   4              		.eabi_attribute 20, 1
   5              		.eabi_attribute 21, 1
   6              		.eabi_attribute 23, 3
   7              		.eabi_attribute 24, 1
   8              		.eabi_attribute 25, 1
   9              		.eabi_attribute 26, 1
  10              		.eabi_attribute 30, 1
  11              		.eabi_attribute 34, 0
  12              		.eabi_attribute 18, 4
  13              		.thumb
  14              		.syntax unified
  15              		.file	"main.c"
  16              		.text
  17              	.Ltext0:
  18              		.cfi_sections	.debug_frame
  19              		.section	.text.bytes2hex,"ax",%progbits
  20              		.align	2
  21              		.global	bytes2hex
  22              		.code	16
  23              		.thumb_func
  24              		.type	bytes2hex, %function
  25              	bytes2hex:
  26              	.LFB33:
  27              		.file 1 "main.c"
   1:main.c        **** /* ========================================
   2:main.c        ****  *
   3:main.c        ****  * Copyright YOUR COMPANY, THE YEAR
   4:main.c        ****  * All Rights Reserved
   5:main.c        ****  * UNPUBLISHED, LICENSED SOFTWARE.
   6:main.c        ****  *
   7:main.c        ****  * CONFIDENTIAL AND PROPRIETARY INFORMATION
   8:main.c        ****  * WHICH IS THE PROPERTY OF your company.
   9:main.c        ****  *
  10:main.c        ****  * ========================================
  11:main.c        **** */
  12:main.c        **** #include <project.h>
  13:main.c        **** #include <strong-arm/aes.h>
  14:main.c        **** #include <stdio.h>
  15:main.c        **** 
  16:main.c        **** void bytes2hex(uint8_t byte, char* dest)
  17:main.c        **** {
  28              		.loc 1 17 0
  29              		.cfi_startproc
  30              		@ args = 0, pretend = 0, frame = 0
  31              		@ frame_needed = 0, uses_anonymous_args = 0
  32              	.LVL0:
  33 0000 10B5     		push	{r4, lr}
  34              		.cfi_def_cfa_offset 8
  35              		.cfi_offset 4, -8
  36              		.cfi_offset 14, -4
  37 0002 0200     		movs	r2, r0
  38 0004 0800     		movs	r0, r1
  39              	.LVL1:
  18:main.c        ****     sprintf(dest, "%02X", byte);
ARM GAS  C:\Users\Ray\AppData\Local\Temp\ccjiqdPJ.s 			page 2


  40              		.loc 1 18 0
  41 0006 0249     		ldr	r1, .L2
  42              	.LVL2:
  43 0008 FFF7FEFF 		bl	sprintf
  44              	.LVL3:
  19:main.c        **** }
  45              		.loc 1 19 0
  46              		@ sp needed
  47 000c 10BD     		pop	{r4, pc}
  48              	.L3:
  49 000e C046     		.align	2
  50              	.L2:
  51 0010 00000000 		.word	.LC0
  52              		.cfi_endproc
  53              	.LFE33:
  54              		.size	bytes2hex, .-bytes2hex
  55              		.section	.text.main,"ax",%progbits
  56              		.align	2
  57              		.global	main
  58              		.code	16
  59              		.thumb_func
  60              		.type	main, %function
  61              	main:
  62              	.LFB34:
  20:main.c        **** 
  21:main.c        **** int main()
  22:main.c        **** {
  63              		.loc 1 22 0
  64              		.cfi_startproc
  65              		@ args = 0, pretend = 0, frame = 24
  66              		@ frame_needed = 0, uses_anonymous_args = 0
  67 0000 10B5     		push	{r4, lr}
  68              		.cfi_def_cfa_offset 8
  69              		.cfi_offset 4, -8
  70              		.cfi_offset 14, -4
  71 0002 86B0     		sub	sp, sp, #24
  72              		.cfi_def_cfa_offset 32
  23:main.c        ****     CyGlobalIntEnable;      /* Enable global interrupts */
  73              		.loc 1 23 0
  74              		.syntax divided
  75              	@ 23 "main.c" 1
  76 0004 62B6     		CPSIE   i
  77              	@ 0 "" 2
  24:main.c        **** 
  25:main.c        ****     /* Place your initialization/startup code here (e.g. MyInst_Start()) */
  26:main.c        ****     USB_UART_Start();
  78              		.loc 1 26 0
  79              		.thumb
  80              		.syntax unified
  81 0006 FFF7FEFF 		bl	USB_UART_Start
  82              	.LVL4:
  83              	.L7:
  84              	.LBB2:
  27:main.c        **** //    char key[16] = "abcdefgh12345678";
  28:main.c        **** //    uint8_t plaintext[17];
  29:main.c        **** 
  30:main.c        ****     for(;;)
ARM GAS  C:\Users\Ray\AppData\Local\Temp\ccjiqdPJ.s 			page 3


  31:main.c        ****     {
  32:main.c        ****         Pin_Blue_Write(1);
  85              		.loc 1 32 0
  86 000a 0120     		movs	r0, #1
  87 000c FFF7FEFF 		bl	Pin_Blue_Write
  88              	.LVL5:
  33:main.c        **** //        aes256_encrypt_block(plaintext, key, "AAAAAAAAAAAAAAAA");
  34:main.c        **** //        aes256_encrypt_block(plaintext, key, "BBBBBBBBBBBBBBBB");
  35:main.c        **** //        aes256_encrypt_block(plaintext, key, "CCCCCCCCCCCCCCCC");
  36:main.c        ****         uint32_t unique_id[2];
  37:main.c        ****         CyGetUniqueId(unique_id);
  89              		.loc 1 37 0
  90 0010 6846     		mov	r0, sp
  91 0012 FFF7FEFF 		bl	CyGetUniqueId
  92              	.LVL6:
  93              	.LBB3:
  38:main.c        **** 
  39:main.c        ****         char id[16];
  40:main.c        ****         for (int i = 0; i < 8; i++){
  94              		.loc 1 40 0
  95 0016 0024     		movs	r4, #0
  96 0018 08E0     		b	.L5
  97              	.LVL7:
  98              	.L6:
  41:main.c        ****             bytes2hex(((uint8_t *)unique_id)[i], &id[2*i]);
  99              		.loc 1 41 0 discriminator 3
 100 001a 6100     		lsls	r1, r4, #1
 101 001c 02AB     		add	r3, sp, #8
 102 001e 9C46     		mov	ip, r3
 103 0020 6144     		add	r1, r1, ip
 104 0022 6B46     		mov	r3, sp
 105 0024 185D     		ldrb	r0, [r3, r4]
 106 0026 FFF7FEFF 		bl	bytes2hex
 107              	.LVL8:
  40:main.c        ****             bytes2hex(((uint8_t *)unique_id)[i], &id[2*i]);
 108              		.loc 1 40 0 discriminator 3
 109 002a 0134     		adds	r4, r4, #1
 110              	.LVL9:
 111              	.L5:
  40:main.c        ****             bytes2hex(((uint8_t *)unique_id)[i], &id[2*i]);
 112              		.loc 1 40 0 is_stmt 0 discriminator 1
 113 002c 072C     		cmp	r4, #7
 114 002e F4DD     		ble	.L6
 115              	.LBE3:
  42:main.c        ****         }
  43:main.c        **** 
  44:main.c        ****         USB_UART_UartPutString(id);
 116              		.loc 1 44 0 is_stmt 1
 117 0030 02A8     		add	r0, sp, #8
 118 0032 FFF7FEFF 		bl	USB_UART_UartPutString
 119              	.LVL10:
  45:main.c        ****         USB_UART_UartPutString("\r\n");
 120              		.loc 1 45 0
 121 0036 0548     		ldr	r0, .L8
 122 0038 FFF7FEFF 		bl	USB_UART_UartPutString
 123              	.LVL11:
  46:main.c        ****         Pin_Blue_Write(0);
ARM GAS  C:\Users\Ray\AppData\Local\Temp\ccjiqdPJ.s 			page 4


 124              		.loc 1 46 0
 125 003c 0020     		movs	r0, #0
 126 003e FFF7FEFF 		bl	Pin_Blue_Write
 127              	.LVL12:
  47:main.c        ****         CyDelay(1000);
 128              		.loc 1 47 0
 129 0042 FA20     		movs	r0, #250
 130 0044 8000     		lsls	r0, r0, #2
 131 0046 FFF7FEFF 		bl	CyDelay
 132              	.LVL13:
 133              	.LBE2:
  48:main.c        ****     }
 134              		.loc 1 48 0
 135 004a DEE7     		b	.L7
 136              	.L9:
 137              		.align	2
 138              	.L8:
 139 004c 08000000 		.word	.LC2
 140              		.cfi_endproc
 141              	.LFE34:
 142              		.size	main, .-main
 143              		.section	.rodata.str1.4,"aMS",%progbits,1
 144              		.align	2
 145              	.LC0:
 146 0000 25303258 		.ascii	"%02X\000"
 146      00
 147 0005 000000   		.space	3
 148              	.LC2:
 149 0008 0D0A00   		.ascii	"\015\012\000"
 150              		.text
 151              	.Letext0:
 152              		.file 2 "c:\\program files (x86)\\cypress\\psoc creator\\4.1\\psoc creator\\import\\gnu\\arm\\5.4.
 153              		.file 3 "c:\\program files (x86)\\cypress\\psoc creator\\4.1\\psoc creator\\import\\gnu\\arm\\5.4.
 154              		.file 4 "c:\\program files (x86)\\cypress\\psoc creator\\4.1\\psoc creator\\import\\gnu\\arm\\5.4.
 155              		.file 5 "Generated_Source\\PSoC4/Pin_Blue.h"
 156              		.file 6 "Generated_Source\\PSoC4/CyLib.h"
 157              		.file 7 "Generated_Source\\PSoC4/USB_UART_SPI_UART.h"
 158              		.file 8 "Generated_Source\\PSoC4/USB_UART.h"