ARM GAS  C:\Users\Ray\AppData\Local\Temp\ccvuhT2i.s 			page 1


   1              		.syntax unified
   2              		.cpu cortex-m0
   3              		.fpu softvfp
   4              		.eabi_attribute 20, 1
   5              		.eabi_attribute 21, 1
   6              		.eabi_attribute 23, 3
   7              		.eabi_attribute 24, 1
   8              		.eabi_attribute 25, 1
   9              		.eabi_attribute 26, 1
  10              		.eabi_attribute 30, 1
  11              		.eabi_attribute 34, 0
  12              		.eabi_attribute 18, 4
  13              		.thumb
  14              		.syntax unified
  15              		.file	"USB_UART_UART.c"
  16              		.text
  17              	.Ltext0:
  18              		.cfi_sections	.debug_frame
  19              		.section	.text.USB_UART_UartInit,"ax",%progbits
  20              		.align	2
  21              		.global	USB_UART_UartInit
  22              		.code	16
  23              		.thumb_func
  24              		.type	USB_UART_UartInit, %function
  25              	USB_UART_UartInit:
  26              	.LFB0:
  27              		.file 1 "Generated_Source\\PSoC4\\USB_UART_UART.c"
   1:Generated_Source\PSoC4/USB_UART_UART.c **** /***************************************************************************//**
   2:Generated_Source\PSoC4/USB_UART_UART.c **** * \file USB_UART_UART.c
   3:Generated_Source\PSoC4/USB_UART_UART.c **** * \version 3.20
   4:Generated_Source\PSoC4/USB_UART_UART.c **** *
   5:Generated_Source\PSoC4/USB_UART_UART.c **** * \brief
   6:Generated_Source\PSoC4/USB_UART_UART.c **** *  This file provides the source code to the API for the SCB Component in
   7:Generated_Source\PSoC4/USB_UART_UART.c **** *  UART mode.
   8:Generated_Source\PSoC4/USB_UART_UART.c **** *
   9:Generated_Source\PSoC4/USB_UART_UART.c **** * Note:
  10:Generated_Source\PSoC4/USB_UART_UART.c **** *
  11:Generated_Source\PSoC4/USB_UART_UART.c **** *******************************************************************************
  12:Generated_Source\PSoC4/USB_UART_UART.c **** * \copyright
  13:Generated_Source\PSoC4/USB_UART_UART.c **** * Copyright 2013-2016, Cypress Semiconductor Corporation.  All rights reserved.
  14:Generated_Source\PSoC4/USB_UART_UART.c **** * You may use this file only in accordance with the license, terms, conditions,
  15:Generated_Source\PSoC4/USB_UART_UART.c **** * disclaimers, and limitations in the end user license agreement accompanying
  16:Generated_Source\PSoC4/USB_UART_UART.c **** * the software package with which this file was provided.
  17:Generated_Source\PSoC4/USB_UART_UART.c **** *******************************************************************************/
  18:Generated_Source\PSoC4/USB_UART_UART.c **** 
  19:Generated_Source\PSoC4/USB_UART_UART.c **** #include "USB_UART_PVT.h"
  20:Generated_Source\PSoC4/USB_UART_UART.c **** #include "USB_UART_SPI_UART_PVT.h"
  21:Generated_Source\PSoC4/USB_UART_UART.c **** #include "cyapicallbacks.h"
  22:Generated_Source\PSoC4/USB_UART_UART.c **** 
  23:Generated_Source\PSoC4/USB_UART_UART.c **** #if (USB_UART_UART_WAKE_ENABLE_CONST && USB_UART_UART_RX_WAKEUP_IRQ)
  24:Generated_Source\PSoC4/USB_UART_UART.c ****     /**
  25:Generated_Source\PSoC4/USB_UART_UART.c ****     * \addtogroup group_globals
  26:Generated_Source\PSoC4/USB_UART_UART.c ****     * \{
  27:Generated_Source\PSoC4/USB_UART_UART.c ****     */
  28:Generated_Source\PSoC4/USB_UART_UART.c ****     /** This global variable determines whether to enable Skip Start
  29:Generated_Source\PSoC4/USB_UART_UART.c ****     * functionality when USB_UART_Sleep() function is called:
  30:Generated_Source\PSoC4/USB_UART_UART.c ****     * 0 – disable, other values – enable. Default value is 1.
ARM GAS  C:\Users\Ray\AppData\Local\Temp\ccvuhT2i.s 			page 2


  31:Generated_Source\PSoC4/USB_UART_UART.c ****     * It is only available when Enable wakeup from Deep Sleep Mode is enabled.
  32:Generated_Source\PSoC4/USB_UART_UART.c ****     */
  33:Generated_Source\PSoC4/USB_UART_UART.c ****     uint8 USB_UART_skipStart = 1u;
  34:Generated_Source\PSoC4/USB_UART_UART.c ****     /** \} globals */
  35:Generated_Source\PSoC4/USB_UART_UART.c **** #endif /* (USB_UART_UART_WAKE_ENABLE_CONST && USB_UART_UART_RX_WAKEUP_IRQ) */
  36:Generated_Source\PSoC4/USB_UART_UART.c **** 
  37:Generated_Source\PSoC4/USB_UART_UART.c **** #if(USB_UART_SCB_MODE_UNCONFIG_CONST_CFG)
  38:Generated_Source\PSoC4/USB_UART_UART.c **** 
  39:Generated_Source\PSoC4/USB_UART_UART.c ****     /***************************************
  40:Generated_Source\PSoC4/USB_UART_UART.c ****     *  Configuration Structure Initialization
  41:Generated_Source\PSoC4/USB_UART_UART.c ****     ***************************************/
  42:Generated_Source\PSoC4/USB_UART_UART.c **** 
  43:Generated_Source\PSoC4/USB_UART_UART.c ****     const USB_UART_UART_INIT_STRUCT USB_UART_configUart =
  44:Generated_Source\PSoC4/USB_UART_UART.c ****     {
  45:Generated_Source\PSoC4/USB_UART_UART.c ****         USB_UART_UART_SUB_MODE,
  46:Generated_Source\PSoC4/USB_UART_UART.c ****         USB_UART_UART_DIRECTION,
  47:Generated_Source\PSoC4/USB_UART_UART.c ****         USB_UART_UART_DATA_BITS_NUM,
  48:Generated_Source\PSoC4/USB_UART_UART.c ****         USB_UART_UART_PARITY_TYPE,
  49:Generated_Source\PSoC4/USB_UART_UART.c ****         USB_UART_UART_STOP_BITS_NUM,
  50:Generated_Source\PSoC4/USB_UART_UART.c ****         USB_UART_UART_OVS_FACTOR,
  51:Generated_Source\PSoC4/USB_UART_UART.c ****         USB_UART_UART_IRDA_LOW_POWER,
  52:Generated_Source\PSoC4/USB_UART_UART.c ****         USB_UART_UART_MEDIAN_FILTER_ENABLE,
  53:Generated_Source\PSoC4/USB_UART_UART.c ****         USB_UART_UART_RETRY_ON_NACK,
  54:Generated_Source\PSoC4/USB_UART_UART.c ****         USB_UART_UART_IRDA_POLARITY,
  55:Generated_Source\PSoC4/USB_UART_UART.c ****         USB_UART_UART_DROP_ON_PARITY_ERR,
  56:Generated_Source\PSoC4/USB_UART_UART.c ****         USB_UART_UART_DROP_ON_FRAME_ERR,
  57:Generated_Source\PSoC4/USB_UART_UART.c ****         USB_UART_UART_WAKE_ENABLE,
  58:Generated_Source\PSoC4/USB_UART_UART.c ****         0u,
  59:Generated_Source\PSoC4/USB_UART_UART.c ****         NULL,
  60:Generated_Source\PSoC4/USB_UART_UART.c ****         0u,
  61:Generated_Source\PSoC4/USB_UART_UART.c ****         NULL,
  62:Generated_Source\PSoC4/USB_UART_UART.c ****         USB_UART_UART_MP_MODE_ENABLE,
  63:Generated_Source\PSoC4/USB_UART_UART.c ****         USB_UART_UART_MP_ACCEPT_ADDRESS,
  64:Generated_Source\PSoC4/USB_UART_UART.c ****         USB_UART_UART_MP_RX_ADDRESS,
  65:Generated_Source\PSoC4/USB_UART_UART.c ****         USB_UART_UART_MP_RX_ADDRESS_MASK,
  66:Generated_Source\PSoC4/USB_UART_UART.c ****         (uint32) USB_UART_SCB_IRQ_INTERNAL,
  67:Generated_Source\PSoC4/USB_UART_UART.c ****         USB_UART_UART_INTR_RX_MASK,
  68:Generated_Source\PSoC4/USB_UART_UART.c ****         USB_UART_UART_RX_TRIGGER_LEVEL,
  69:Generated_Source\PSoC4/USB_UART_UART.c ****         USB_UART_UART_INTR_TX_MASK,
  70:Generated_Source\PSoC4/USB_UART_UART.c ****         USB_UART_UART_TX_TRIGGER_LEVEL,
  71:Generated_Source\PSoC4/USB_UART_UART.c ****         (uint8) USB_UART_UART_BYTE_MODE_ENABLE,
  72:Generated_Source\PSoC4/USB_UART_UART.c ****         (uint8) USB_UART_UART_CTS_ENABLE,
  73:Generated_Source\PSoC4/USB_UART_UART.c ****         (uint8) USB_UART_UART_CTS_POLARITY,
  74:Generated_Source\PSoC4/USB_UART_UART.c ****         (uint8) USB_UART_UART_RTS_POLARITY,
  75:Generated_Source\PSoC4/USB_UART_UART.c ****         (uint8) USB_UART_UART_RTS_FIFO_LEVEL
  76:Generated_Source\PSoC4/USB_UART_UART.c ****     };
  77:Generated_Source\PSoC4/USB_UART_UART.c **** 
  78:Generated_Source\PSoC4/USB_UART_UART.c **** 
  79:Generated_Source\PSoC4/USB_UART_UART.c ****     /*******************************************************************************
  80:Generated_Source\PSoC4/USB_UART_UART.c ****     * Function Name: USB_UART_UartInit
  81:Generated_Source\PSoC4/USB_UART_UART.c ****     ****************************************************************************//**
  82:Generated_Source\PSoC4/USB_UART_UART.c ****     *
  83:Generated_Source\PSoC4/USB_UART_UART.c ****     *  Configures the USB_UART for UART operation.
  84:Generated_Source\PSoC4/USB_UART_UART.c ****     *
  85:Generated_Source\PSoC4/USB_UART_UART.c ****     *  This function is intended specifically to be used when the USB_UART
  86:Generated_Source\PSoC4/USB_UART_UART.c ****     *  configuration is set to “Unconfigured USB_UART” in the customizer.
  87:Generated_Source\PSoC4/USB_UART_UART.c ****     *  After initializing the USB_UART in UART mode using this function,
ARM GAS  C:\Users\Ray\AppData\Local\Temp\ccvuhT2i.s 			page 3


  88:Generated_Source\PSoC4/USB_UART_UART.c ****     *  the component can be enabled using the USB_UART_Start() or
  89:Generated_Source\PSoC4/USB_UART_UART.c ****     * USB_UART_Enable() function.
  90:Generated_Source\PSoC4/USB_UART_UART.c ****     *  This function uses a pointer to a structure that provides the configuration
  91:Generated_Source\PSoC4/USB_UART_UART.c ****     *  settings. This structure contains the same information that would otherwise
  92:Generated_Source\PSoC4/USB_UART_UART.c ****     *  be provided by the customizer settings.
  93:Generated_Source\PSoC4/USB_UART_UART.c ****     *
  94:Generated_Source\PSoC4/USB_UART_UART.c ****     *  \param config: pointer to a structure that contains the following list of
  95:Generated_Source\PSoC4/USB_UART_UART.c ****     *   fields. These fields match the selections available in the customizer.
  96:Generated_Source\PSoC4/USB_UART_UART.c ****     *   Refer to the customizer for further description of the settings.
  97:Generated_Source\PSoC4/USB_UART_UART.c ****     *
  98:Generated_Source\PSoC4/USB_UART_UART.c ****     *******************************************************************************/
  99:Generated_Source\PSoC4/USB_UART_UART.c ****     void USB_UART_UartInit(const USB_UART_UART_INIT_STRUCT *config)
 100:Generated_Source\PSoC4/USB_UART_UART.c ****     {
 101:Generated_Source\PSoC4/USB_UART_UART.c ****         uint32 pinsConfig;
 102:Generated_Source\PSoC4/USB_UART_UART.c **** 
 103:Generated_Source\PSoC4/USB_UART_UART.c ****         if (NULL == config)
 104:Generated_Source\PSoC4/USB_UART_UART.c ****         {
 105:Generated_Source\PSoC4/USB_UART_UART.c ****             CYASSERT(0u != 0u); /* Halt execution due to bad function parameter */
 106:Generated_Source\PSoC4/USB_UART_UART.c ****         }
 107:Generated_Source\PSoC4/USB_UART_UART.c ****         else
 108:Generated_Source\PSoC4/USB_UART_UART.c ****         {
 109:Generated_Source\PSoC4/USB_UART_UART.c ****             /* Get direction to configure UART pins: TX, RX or TX+RX */
 110:Generated_Source\PSoC4/USB_UART_UART.c ****             pinsConfig  = config->direction;
 111:Generated_Source\PSoC4/USB_UART_UART.c **** 
 112:Generated_Source\PSoC4/USB_UART_UART.c ****         #if !(USB_UART_CY_SCBIP_V0 || USB_UART_CY_SCBIP_V1)
 113:Generated_Source\PSoC4/USB_UART_UART.c ****             /* Add RTS and CTS pins to configure */
 114:Generated_Source\PSoC4/USB_UART_UART.c ****             pinsConfig |= (0u != config->rtsRxFifoLevel) ? (USB_UART_UART_RTS_PIN_ENABLE) : (0u);
 115:Generated_Source\PSoC4/USB_UART_UART.c ****             pinsConfig |= (0u != config->enableCts)      ? (USB_UART_UART_CTS_PIN_ENABLE) : (0u);
 116:Generated_Source\PSoC4/USB_UART_UART.c ****         #endif /* !(USB_UART_CY_SCBIP_V0 || USB_UART_CY_SCBIP_V1) */
 117:Generated_Source\PSoC4/USB_UART_UART.c **** 
 118:Generated_Source\PSoC4/USB_UART_UART.c ****             /* Configure pins */
 119:Generated_Source\PSoC4/USB_UART_UART.c ****             USB_UART_SetPins(USB_UART_SCB_MODE_UART, config->mode, pinsConfig);
 120:Generated_Source\PSoC4/USB_UART_UART.c **** 
 121:Generated_Source\PSoC4/USB_UART_UART.c ****             /* Store internal configuration */
 122:Generated_Source\PSoC4/USB_UART_UART.c ****             USB_UART_scbMode       = (uint8) USB_UART_SCB_MODE_UART;
 123:Generated_Source\PSoC4/USB_UART_UART.c ****             USB_UART_scbEnableWake = (uint8) config->enableWake;
 124:Generated_Source\PSoC4/USB_UART_UART.c ****             USB_UART_scbEnableIntr = (uint8) config->enableInterrupt;
 125:Generated_Source\PSoC4/USB_UART_UART.c **** 
 126:Generated_Source\PSoC4/USB_UART_UART.c ****             /* Set RX direction internal variables */
 127:Generated_Source\PSoC4/USB_UART_UART.c ****             USB_UART_rxBuffer      =         config->rxBuffer;
 128:Generated_Source\PSoC4/USB_UART_UART.c ****             USB_UART_rxDataBits    = (uint8) config->dataBits;
 129:Generated_Source\PSoC4/USB_UART_UART.c ****             USB_UART_rxBufferSize  = (uint8) config->rxBufferSize;
 130:Generated_Source\PSoC4/USB_UART_UART.c **** 
 131:Generated_Source\PSoC4/USB_UART_UART.c ****             /* Set TX direction internal variables */
 132:Generated_Source\PSoC4/USB_UART_UART.c ****             USB_UART_txBuffer      =         config->txBuffer;
 133:Generated_Source\PSoC4/USB_UART_UART.c ****             USB_UART_txDataBits    = (uint8) config->dataBits;
 134:Generated_Source\PSoC4/USB_UART_UART.c ****             USB_UART_txBufferSize  = (uint8) config->txBufferSize;
 135:Generated_Source\PSoC4/USB_UART_UART.c **** 
 136:Generated_Source\PSoC4/USB_UART_UART.c ****             /* Configure UART interface */
 137:Generated_Source\PSoC4/USB_UART_UART.c ****             if(USB_UART_UART_MODE_IRDA == config->mode)
 138:Generated_Source\PSoC4/USB_UART_UART.c ****             {
 139:Generated_Source\PSoC4/USB_UART_UART.c ****                 /* OVS settings: IrDA */
 140:Generated_Source\PSoC4/USB_UART_UART.c ****                 USB_UART_CTRL_REG  = ((0u != config->enableIrdaLowPower) ?
 141:Generated_Source\PSoC4/USB_UART_UART.c ****                                                 (USB_UART_UART_GET_CTRL_OVS_IRDA_LP(config->oversam
 142:Generated_Source\PSoC4/USB_UART_UART.c ****                                                 (USB_UART_CTRL_OVS_IRDA_OVS16));
 143:Generated_Source\PSoC4/USB_UART_UART.c ****             }
 144:Generated_Source\PSoC4/USB_UART_UART.c ****             else
ARM GAS  C:\Users\Ray\AppData\Local\Temp\ccvuhT2i.s 			page 4


 145:Generated_Source\PSoC4/USB_UART_UART.c ****             {
 146:Generated_Source\PSoC4/USB_UART_UART.c ****                 /* OVS settings: UART and SmartCard */
 147:Generated_Source\PSoC4/USB_UART_UART.c ****                 USB_UART_CTRL_REG  = USB_UART_GET_CTRL_OVS(config->oversample);
 148:Generated_Source\PSoC4/USB_UART_UART.c ****             }
 149:Generated_Source\PSoC4/USB_UART_UART.c **** 
 150:Generated_Source\PSoC4/USB_UART_UART.c ****             USB_UART_CTRL_REG     |= USB_UART_GET_CTRL_BYTE_MODE  (config->enableByteMode)      |
 151:Generated_Source\PSoC4/USB_UART_UART.c ****                                              USB_UART_GET_CTRL_ADDR_ACCEPT(config->multiprocAcceptA
 152:Generated_Source\PSoC4/USB_UART_UART.c ****                                              USB_UART_CTRL_UART;
 153:Generated_Source\PSoC4/USB_UART_UART.c **** 
 154:Generated_Source\PSoC4/USB_UART_UART.c ****             /* Configure sub-mode: UART, SmartCard or IrDA */
 155:Generated_Source\PSoC4/USB_UART_UART.c ****             USB_UART_UART_CTRL_REG = USB_UART_GET_UART_CTRL_MODE(config->mode);
 156:Generated_Source\PSoC4/USB_UART_UART.c **** 
 157:Generated_Source\PSoC4/USB_UART_UART.c ****             /* Configure RX direction */
 158:Generated_Source\PSoC4/USB_UART_UART.c ****             USB_UART_UART_RX_CTRL_REG = USB_UART_GET_UART_RX_CTRL_MODE(config->stopBits)           
 159:Generated_Source\PSoC4/USB_UART_UART.c ****                                         USB_UART_GET_UART_RX_CTRL_POLARITY(config->enableInvertedRx
 160:Generated_Source\PSoC4/USB_UART_UART.c ****                                         USB_UART_GET_UART_RX_CTRL_MP_MODE(config->enableMultiproc) 
 161:Generated_Source\PSoC4/USB_UART_UART.c ****                                         USB_UART_GET_UART_RX_CTRL_DROP_ON_PARITY_ERR(config->dropOn
 162:Generated_Source\PSoC4/USB_UART_UART.c ****                                         USB_UART_GET_UART_RX_CTRL_DROP_ON_FRAME_ERR(config->dropOnF
 163:Generated_Source\PSoC4/USB_UART_UART.c **** 
 164:Generated_Source\PSoC4/USB_UART_UART.c ****             if(USB_UART_UART_PARITY_NONE != config->parity)
 165:Generated_Source\PSoC4/USB_UART_UART.c ****             {
 166:Generated_Source\PSoC4/USB_UART_UART.c ****                USB_UART_UART_RX_CTRL_REG |= USB_UART_GET_UART_RX_CTRL_PARITY(config->parity) |
 167:Generated_Source\PSoC4/USB_UART_UART.c ****                                                     USB_UART_UART_RX_CTRL_PARITY_ENABLED;
 168:Generated_Source\PSoC4/USB_UART_UART.c ****             }
 169:Generated_Source\PSoC4/USB_UART_UART.c **** 
 170:Generated_Source\PSoC4/USB_UART_UART.c ****             USB_UART_RX_CTRL_REG      = USB_UART_GET_RX_CTRL_DATA_WIDTH(config->dataBits)       |
 171:Generated_Source\PSoC4/USB_UART_UART.c ****                                                 USB_UART_GET_RX_CTRL_MEDIAN(config->enableMedianFil
 172:Generated_Source\PSoC4/USB_UART_UART.c ****                                                 USB_UART_GET_UART_RX_CTRL_ENABLED(config->direction
 173:Generated_Source\PSoC4/USB_UART_UART.c **** 
 174:Generated_Source\PSoC4/USB_UART_UART.c ****             USB_UART_RX_FIFO_CTRL_REG = USB_UART_GET_RX_FIFO_CTRL_TRIGGER_LEVEL(config->rxTriggerLe
 175:Generated_Source\PSoC4/USB_UART_UART.c **** 
 176:Generated_Source\PSoC4/USB_UART_UART.c ****             /* Configure MP address */
 177:Generated_Source\PSoC4/USB_UART_UART.c ****             USB_UART_RX_MATCH_REG     = USB_UART_GET_RX_MATCH_ADDR(config->multiprocAddr) |
 178:Generated_Source\PSoC4/USB_UART_UART.c ****                                                 USB_UART_GET_RX_MATCH_MASK(config->multiprocAddrMas
 179:Generated_Source\PSoC4/USB_UART_UART.c **** 
 180:Generated_Source\PSoC4/USB_UART_UART.c ****             /* Configure RX direction */
 181:Generated_Source\PSoC4/USB_UART_UART.c ****             USB_UART_UART_TX_CTRL_REG = USB_UART_GET_UART_TX_CTRL_MODE(config->stopBits) |
 182:Generated_Source\PSoC4/USB_UART_UART.c ****                                                 USB_UART_GET_UART_TX_CTRL_RETRY_NACK(config->enable
 183:Generated_Source\PSoC4/USB_UART_UART.c **** 
 184:Generated_Source\PSoC4/USB_UART_UART.c ****             if(USB_UART_UART_PARITY_NONE != config->parity)
 185:Generated_Source\PSoC4/USB_UART_UART.c ****             {
 186:Generated_Source\PSoC4/USB_UART_UART.c ****                USB_UART_UART_TX_CTRL_REG |= USB_UART_GET_UART_TX_CTRL_PARITY(config->parity) |
 187:Generated_Source\PSoC4/USB_UART_UART.c ****                                                     USB_UART_UART_TX_CTRL_PARITY_ENABLED;
 188:Generated_Source\PSoC4/USB_UART_UART.c ****             }
 189:Generated_Source\PSoC4/USB_UART_UART.c **** 
 190:Generated_Source\PSoC4/USB_UART_UART.c ****             USB_UART_TX_CTRL_REG      = USB_UART_GET_TX_CTRL_DATA_WIDTH(config->dataBits)    |
 191:Generated_Source\PSoC4/USB_UART_UART.c ****                                                 USB_UART_GET_UART_TX_CTRL_ENABLED(config->direction
 192:Generated_Source\PSoC4/USB_UART_UART.c **** 
 193:Generated_Source\PSoC4/USB_UART_UART.c ****             USB_UART_TX_FIFO_CTRL_REG = USB_UART_GET_TX_FIFO_CTRL_TRIGGER_LEVEL(config->txTriggerLe
 194:Generated_Source\PSoC4/USB_UART_UART.c **** 
 195:Generated_Source\PSoC4/USB_UART_UART.c ****         #if !(USB_UART_CY_SCBIP_V0 || USB_UART_CY_SCBIP_V1)
 196:Generated_Source\PSoC4/USB_UART_UART.c ****             USB_UART_UART_FLOW_CTRL_REG = USB_UART_GET_UART_FLOW_CTRL_CTS_ENABLE(config->enableCts)
 197:Generated_Source\PSoC4/USB_UART_UART.c ****                                             USB_UART_GET_UART_FLOW_CTRL_CTS_POLARITY (config->ctsPo
 198:Generated_Source\PSoC4/USB_UART_UART.c ****                                             USB_UART_GET_UART_FLOW_CTRL_RTS_POLARITY (config->rtsPo
 199:Generated_Source\PSoC4/USB_UART_UART.c ****                                             USB_UART_GET_UART_FLOW_CTRL_TRIGGER_LEVEL(config->rtsRx
 200:Generated_Source\PSoC4/USB_UART_UART.c ****         #endif /* !(USB_UART_CY_SCBIP_V0 || USB_UART_CY_SCBIP_V1) */
 201:Generated_Source\PSoC4/USB_UART_UART.c **** 
ARM GAS  C:\Users\Ray\AppData\Local\Temp\ccvuhT2i.s 			page 5


 202:Generated_Source\PSoC4/USB_UART_UART.c ****             /* Configure interrupt with UART handler but do not enable it */
 203:Generated_Source\PSoC4/USB_UART_UART.c ****             CyIntDisable    (USB_UART_ISR_NUMBER);
 204:Generated_Source\PSoC4/USB_UART_UART.c ****             CyIntSetPriority(USB_UART_ISR_NUMBER, USB_UART_ISR_PRIORITY);
 205:Generated_Source\PSoC4/USB_UART_UART.c ****             (void) CyIntSetVector(USB_UART_ISR_NUMBER, &USB_UART_SPI_UART_ISR);
 206:Generated_Source\PSoC4/USB_UART_UART.c **** 
 207:Generated_Source\PSoC4/USB_UART_UART.c ****             /* Configure WAKE interrupt */
 208:Generated_Source\PSoC4/USB_UART_UART.c ****         #if(USB_UART_UART_RX_WAKEUP_IRQ)
 209:Generated_Source\PSoC4/USB_UART_UART.c ****             CyIntDisable    (USB_UART_RX_WAKE_ISR_NUMBER);
 210:Generated_Source\PSoC4/USB_UART_UART.c ****             CyIntSetPriority(USB_UART_RX_WAKE_ISR_NUMBER, USB_UART_RX_WAKE_ISR_PRIORITY);
 211:Generated_Source\PSoC4/USB_UART_UART.c ****             (void) CyIntSetVector(USB_UART_RX_WAKE_ISR_NUMBER, &USB_UART_UART_WAKEUP_ISR);
 212:Generated_Source\PSoC4/USB_UART_UART.c ****         #endif /* (USB_UART_UART_RX_WAKEUP_IRQ) */
 213:Generated_Source\PSoC4/USB_UART_UART.c **** 
 214:Generated_Source\PSoC4/USB_UART_UART.c ****             /* Configure interrupt sources */
 215:Generated_Source\PSoC4/USB_UART_UART.c ****             USB_UART_INTR_I2C_EC_MASK_REG = USB_UART_NO_INTR_SOURCES;
 216:Generated_Source\PSoC4/USB_UART_UART.c ****             USB_UART_INTR_SPI_EC_MASK_REG = USB_UART_NO_INTR_SOURCES;
 217:Generated_Source\PSoC4/USB_UART_UART.c ****             USB_UART_INTR_SLAVE_MASK_REG  = USB_UART_NO_INTR_SOURCES;
 218:Generated_Source\PSoC4/USB_UART_UART.c ****             USB_UART_INTR_MASTER_MASK_REG = USB_UART_NO_INTR_SOURCES;
 219:Generated_Source\PSoC4/USB_UART_UART.c ****             USB_UART_INTR_RX_MASK_REG     = config->rxInterruptMask;
 220:Generated_Source\PSoC4/USB_UART_UART.c ****             USB_UART_INTR_TX_MASK_REG     = config->txInterruptMask;
 221:Generated_Source\PSoC4/USB_UART_UART.c ****         
 222:Generated_Source\PSoC4/USB_UART_UART.c ****             /* Configure TX interrupt sources to restore. */
 223:Generated_Source\PSoC4/USB_UART_UART.c ****             USB_UART_IntrTxMask = LO16(USB_UART_INTR_TX_MASK_REG);
 224:Generated_Source\PSoC4/USB_UART_UART.c **** 
 225:Generated_Source\PSoC4/USB_UART_UART.c ****             /* Clear RX buffer indexes */
 226:Generated_Source\PSoC4/USB_UART_UART.c ****             USB_UART_rxBufferHead     = 0u;
 227:Generated_Source\PSoC4/USB_UART_UART.c ****             USB_UART_rxBufferTail     = 0u;
 228:Generated_Source\PSoC4/USB_UART_UART.c ****             USB_UART_rxBufferOverflow = 0u;
 229:Generated_Source\PSoC4/USB_UART_UART.c **** 
 230:Generated_Source\PSoC4/USB_UART_UART.c ****             /* Clear TX buffer indexes */
 231:Generated_Source\PSoC4/USB_UART_UART.c ****             USB_UART_txBufferHead = 0u;
 232:Generated_Source\PSoC4/USB_UART_UART.c ****             USB_UART_txBufferTail = 0u;
 233:Generated_Source\PSoC4/USB_UART_UART.c ****         }
 234:Generated_Source\PSoC4/USB_UART_UART.c ****     }
 235:Generated_Source\PSoC4/USB_UART_UART.c **** 
 236:Generated_Source\PSoC4/USB_UART_UART.c **** #else
 237:Generated_Source\PSoC4/USB_UART_UART.c **** 
 238:Generated_Source\PSoC4/USB_UART_UART.c ****     /*******************************************************************************
 239:Generated_Source\PSoC4/USB_UART_UART.c ****     * Function Name: USB_UART_UartInit
 240:Generated_Source\PSoC4/USB_UART_UART.c ****     ****************************************************************************//**
 241:Generated_Source\PSoC4/USB_UART_UART.c ****     *
 242:Generated_Source\PSoC4/USB_UART_UART.c ****     *  Configures the SCB for the UART operation.
 243:Generated_Source\PSoC4/USB_UART_UART.c ****     *
 244:Generated_Source\PSoC4/USB_UART_UART.c ****     *******************************************************************************/
 245:Generated_Source\PSoC4/USB_UART_UART.c ****     void USB_UART_UartInit(void)
 246:Generated_Source\PSoC4/USB_UART_UART.c ****     {
  28              		.loc 1 246 0
  29              		.cfi_startproc
  30              		@ args = 0, pretend = 0, frame = 0
  31              		@ frame_needed = 0, uses_anonymous_args = 0
  32 0000 10B5     		push	{r4, lr}
  33              		.cfi_def_cfa_offset 8
  34              		.cfi_offset 4, -8
  35              		.cfi_offset 14, -4
 247:Generated_Source\PSoC4/USB_UART_UART.c ****         /* Configure UART interface */
 248:Generated_Source\PSoC4/USB_UART_UART.c ****         USB_UART_CTRL_REG = USB_UART_UART_DEFAULT_CTRL;
  36              		.loc 1 248 0
  37 0002 134A     		ldr	r2, .L2
ARM GAS  C:\Users\Ray\AppData\Local\Temp\ccvuhT2i.s 			page 6


  38 0004 134B     		ldr	r3, .L2+4
  39 0006 1A60     		str	r2, [r3]
 249:Generated_Source\PSoC4/USB_UART_UART.c **** 
 250:Generated_Source\PSoC4/USB_UART_UART.c ****         /* Configure sub-mode: UART, SmartCard or IrDA */
 251:Generated_Source\PSoC4/USB_UART_UART.c ****         USB_UART_UART_CTRL_REG = USB_UART_UART_DEFAULT_UART_CTRL;
  40              		.loc 1 251 0
  41 0008 0023     		movs	r3, #0
  42 000a 134A     		ldr	r2, .L2+8
  43 000c 1360     		str	r3, [r2]
 252:Generated_Source\PSoC4/USB_UART_UART.c **** 
 253:Generated_Source\PSoC4/USB_UART_UART.c ****         /* Configure RX direction */
 254:Generated_Source\PSoC4/USB_UART_UART.c ****         USB_UART_UART_RX_CTRL_REG = USB_UART_UART_DEFAULT_UART_RX_CTRL;
  44              		.loc 1 254 0
  45 000e 0121     		movs	r1, #1
  46 0010 124A     		ldr	r2, .L2+12
  47 0012 1160     		str	r1, [r2]
 255:Generated_Source\PSoC4/USB_UART_UART.c ****         USB_UART_RX_CTRL_REG      = USB_UART_UART_DEFAULT_RX_CTRL;
  48              		.loc 1 255 0
  49 0014 124A     		ldr	r2, .L2+16
  50 0016 1348     		ldr	r0, .L2+20
  51 0018 0260     		str	r2, [r0]
 256:Generated_Source\PSoC4/USB_UART_UART.c ****         USB_UART_RX_FIFO_CTRL_REG = USB_UART_UART_DEFAULT_RX_FIFO_CTRL;
  52              		.loc 1 256 0
  53 001a 0724     		movs	r4, #7
  54 001c 1248     		ldr	r0, .L2+24
  55 001e 0460     		str	r4, [r0]
 257:Generated_Source\PSoC4/USB_UART_UART.c ****         USB_UART_RX_MATCH_REG     = USB_UART_UART_DEFAULT_RX_MATCH_REG;
  56              		.loc 1 257 0
  57 0020 1248     		ldr	r0, .L2+28
  58 0022 0360     		str	r3, [r0]
 258:Generated_Source\PSoC4/USB_UART_UART.c **** 
 259:Generated_Source\PSoC4/USB_UART_UART.c ****         /* Configure TX direction */
 260:Generated_Source\PSoC4/USB_UART_UART.c ****         USB_UART_UART_TX_CTRL_REG = USB_UART_UART_DEFAULT_UART_TX_CTRL;
  59              		.loc 1 260 0
  60 0024 1248     		ldr	r0, .L2+32
  61 0026 0160     		str	r1, [r0]
 261:Generated_Source\PSoC4/USB_UART_UART.c ****         USB_UART_TX_CTRL_REG      = USB_UART_UART_DEFAULT_TX_CTRL;
  62              		.loc 1 261 0
  63 0028 1249     		ldr	r1, .L2+36
  64 002a 0A60     		str	r2, [r1]
 262:Generated_Source\PSoC4/USB_UART_UART.c ****         USB_UART_TX_FIFO_CTRL_REG = USB_UART_UART_DEFAULT_TX_FIFO_CTRL;
  65              		.loc 1 262 0
  66 002c 124A     		ldr	r2, .L2+40
  67 002e 1360     		str	r3, [r2]
 263:Generated_Source\PSoC4/USB_UART_UART.c **** 
 264:Generated_Source\PSoC4/USB_UART_UART.c ****     #if !(USB_UART_CY_SCBIP_V0 || USB_UART_CY_SCBIP_V1)
 265:Generated_Source\PSoC4/USB_UART_UART.c ****         USB_UART_UART_FLOW_CTRL_REG = USB_UART_UART_DEFAULT_FLOW_CTRL;
 266:Generated_Source\PSoC4/USB_UART_UART.c ****     #endif /* !(USB_UART_CY_SCBIP_V0 || USB_UART_CY_SCBIP_V1) */
 267:Generated_Source\PSoC4/USB_UART_UART.c **** 
 268:Generated_Source\PSoC4/USB_UART_UART.c ****         /* Configure interrupt with UART handler but do not enable it */
 269:Generated_Source\PSoC4/USB_UART_UART.c ****     #if(USB_UART_SCB_IRQ_INTERNAL)
 270:Generated_Source\PSoC4/USB_UART_UART.c ****         CyIntDisable    (USB_UART_ISR_NUMBER);
 271:Generated_Source\PSoC4/USB_UART_UART.c ****         CyIntSetPriority(USB_UART_ISR_NUMBER, USB_UART_ISR_PRIORITY);
 272:Generated_Source\PSoC4/USB_UART_UART.c ****         (void) CyIntSetVector(USB_UART_ISR_NUMBER, &USB_UART_SPI_UART_ISR);
 273:Generated_Source\PSoC4/USB_UART_UART.c ****     #endif /* (USB_UART_SCB_IRQ_INTERNAL) */
 274:Generated_Source\PSoC4/USB_UART_UART.c **** 
 275:Generated_Source\PSoC4/USB_UART_UART.c ****         /* Configure WAKE interrupt */
ARM GAS  C:\Users\Ray\AppData\Local\Temp\ccvuhT2i.s 			page 7


 276:Generated_Source\PSoC4/USB_UART_UART.c ****     #if(USB_UART_UART_RX_WAKEUP_IRQ)
 277:Generated_Source\PSoC4/USB_UART_UART.c ****         CyIntDisable    (USB_UART_RX_WAKE_ISR_NUMBER);
 278:Generated_Source\PSoC4/USB_UART_UART.c ****         CyIntSetPriority(USB_UART_RX_WAKE_ISR_NUMBER, USB_UART_RX_WAKE_ISR_PRIORITY);
 279:Generated_Source\PSoC4/USB_UART_UART.c ****         (void) CyIntSetVector(USB_UART_RX_WAKE_ISR_NUMBER, &USB_UART_UART_WAKEUP_ISR);
 280:Generated_Source\PSoC4/USB_UART_UART.c ****     #endif /* (USB_UART_UART_RX_WAKEUP_IRQ) */
 281:Generated_Source\PSoC4/USB_UART_UART.c **** 
 282:Generated_Source\PSoC4/USB_UART_UART.c ****         /* Configure interrupt sources */
 283:Generated_Source\PSoC4/USB_UART_UART.c ****         USB_UART_INTR_I2C_EC_MASK_REG = USB_UART_UART_DEFAULT_INTR_I2C_EC_MASK;
  68              		.loc 1 283 0
  69 0030 124A     		ldr	r2, .L2+44
  70 0032 1360     		str	r3, [r2]
 284:Generated_Source\PSoC4/USB_UART_UART.c ****         USB_UART_INTR_SPI_EC_MASK_REG = USB_UART_UART_DEFAULT_INTR_SPI_EC_MASK;
  71              		.loc 1 284 0
  72 0034 124A     		ldr	r2, .L2+48
  73 0036 1360     		str	r3, [r2]
 285:Generated_Source\PSoC4/USB_UART_UART.c ****         USB_UART_INTR_SLAVE_MASK_REG  = USB_UART_UART_DEFAULT_INTR_SLAVE_MASK;
  74              		.loc 1 285 0
  75 0038 124A     		ldr	r2, .L2+52
  76 003a 1360     		str	r3, [r2]
 286:Generated_Source\PSoC4/USB_UART_UART.c ****         USB_UART_INTR_MASTER_MASK_REG = USB_UART_UART_DEFAULT_INTR_MASTER_MASK;
  77              		.loc 1 286 0
  78 003c 124A     		ldr	r2, .L2+56
  79 003e 1360     		str	r3, [r2]
 287:Generated_Source\PSoC4/USB_UART_UART.c ****         USB_UART_INTR_RX_MASK_REG     = USB_UART_UART_DEFAULT_INTR_RX_MASK;
  80              		.loc 1 287 0
  81 0040 124A     		ldr	r2, .L2+60
  82 0042 1360     		str	r3, [r2]
 288:Generated_Source\PSoC4/USB_UART_UART.c ****         USB_UART_INTR_TX_MASK_REG     = USB_UART_UART_DEFAULT_INTR_TX_MASK;
  83              		.loc 1 288 0
  84 0044 124A     		ldr	r2, .L2+64
  85 0046 1360     		str	r3, [r2]
 289:Generated_Source\PSoC4/USB_UART_UART.c ****     
 290:Generated_Source\PSoC4/USB_UART_UART.c ****         /* Configure TX interrupt sources to restore. */
 291:Generated_Source\PSoC4/USB_UART_UART.c ****         USB_UART_IntrTxMask = LO16(USB_UART_INTR_TX_MASK_REG);
  86              		.loc 1 291 0
  87 0048 1268     		ldr	r2, [r2]
  88 004a 124B     		ldr	r3, .L2+68
  89 004c 1A80     		strh	r2, [r3]
 292:Generated_Source\PSoC4/USB_UART_UART.c **** 
 293:Generated_Source\PSoC4/USB_UART_UART.c ****     #if(USB_UART_INTERNAL_RX_SW_BUFFER_CONST)
 294:Generated_Source\PSoC4/USB_UART_UART.c ****         USB_UART_rxBufferHead     = 0u;
 295:Generated_Source\PSoC4/USB_UART_UART.c ****         USB_UART_rxBufferTail     = 0u;
 296:Generated_Source\PSoC4/USB_UART_UART.c ****         USB_UART_rxBufferOverflow = 0u;
 297:Generated_Source\PSoC4/USB_UART_UART.c ****     #endif /* (USB_UART_INTERNAL_RX_SW_BUFFER_CONST) */
 298:Generated_Source\PSoC4/USB_UART_UART.c **** 
 299:Generated_Source\PSoC4/USB_UART_UART.c ****     #if(USB_UART_INTERNAL_TX_SW_BUFFER_CONST)
 300:Generated_Source\PSoC4/USB_UART_UART.c ****         USB_UART_txBufferHead = 0u;
 301:Generated_Source\PSoC4/USB_UART_UART.c ****         USB_UART_txBufferTail = 0u;
 302:Generated_Source\PSoC4/USB_UART_UART.c ****     #endif /* (USB_UART_INTERNAL_TX_SW_BUFFER_CONST) */
 303:Generated_Source\PSoC4/USB_UART_UART.c ****     }
  90              		.loc 1 303 0
  91              		@ sp needed
  92 004e 10BD     		pop	{r4, pc}
  93              	.L3:
  94              		.align	2
  95              	.L2:
  96 0050 0B000002 		.word	33554443
ARM GAS  C:\Users\Ray\AppData\Local\Temp\ccvuhT2i.s 			page 8


  97 0054 00000640 		.word	1074135040
  98 0058 40000640 		.word	1074135104
  99 005c 48000640 		.word	1074135112
 100 0060 07000080 		.word	-2147483641
 101 0064 00030640 		.word	1074135808
 102 0068 04030640 		.word	1074135812
 103 006c 10030640 		.word	1074135824
 104 0070 44000640 		.word	1074135108
 105 0074 00020640 		.word	1074135552
 106 0078 04020640 		.word	1074135556
 107 007c 880E0640 		.word	1074138760
 108 0080 C80E0640 		.word	1074138824
 109 0084 480F0640 		.word	1074138952
 110 0088 080F0640 		.word	1074138888
 111 008c C80F0640 		.word	1074139080
 112 0090 880F0640 		.word	1074139016
 113 0094 00000000 		.word	USB_UART_IntrTxMask
 114              		.cfi_endproc
 115              	.LFE0:
 116              		.size	USB_UART_UartInit, .-USB_UART_UartInit
 117              		.section	.text.USB_UART_UartPostEnable,"ax",%progbits
 118              		.align	2
 119              		.global	USB_UART_UartPostEnable
 120              		.code	16
 121              		.thumb_func
 122              		.type	USB_UART_UartPostEnable, %function
 123              	USB_UART_UartPostEnable:
 124              	.LFB1:
 304:Generated_Source\PSoC4/USB_UART_UART.c **** #endif /* (USB_UART_SCB_MODE_UNCONFIG_CONST_CFG) */
 305:Generated_Source\PSoC4/USB_UART_UART.c **** 
 306:Generated_Source\PSoC4/USB_UART_UART.c **** 
 307:Generated_Source\PSoC4/USB_UART_UART.c **** /*******************************************************************************
 308:Generated_Source\PSoC4/USB_UART_UART.c **** * Function Name: USB_UART_UartPostEnable
 309:Generated_Source\PSoC4/USB_UART_UART.c **** ****************************************************************************//**
 310:Generated_Source\PSoC4/USB_UART_UART.c **** *
 311:Generated_Source\PSoC4/USB_UART_UART.c **** *  Restores HSIOM settings for the UART output pins (TX and/or RTS) to be
 312:Generated_Source\PSoC4/USB_UART_UART.c **** *  controlled by the SCB UART.
 313:Generated_Source\PSoC4/USB_UART_UART.c **** *
 314:Generated_Source\PSoC4/USB_UART_UART.c **** *******************************************************************************/
 315:Generated_Source\PSoC4/USB_UART_UART.c **** void USB_UART_UartPostEnable(void)
 316:Generated_Source\PSoC4/USB_UART_UART.c **** {
 125              		.loc 1 316 0
 126              		.cfi_startproc
 127              		@ args = 0, pretend = 0, frame = 0
 128              		@ frame_needed = 0, uses_anonymous_args = 0
 129              		@ link register save eliminated.
 317:Generated_Source\PSoC4/USB_UART_UART.c **** #if (USB_UART_SCB_MODE_UNCONFIG_CONST_CFG)
 318:Generated_Source\PSoC4/USB_UART_UART.c ****     #if (USB_UART_TX_SDA_MISO_PIN)
 319:Generated_Source\PSoC4/USB_UART_UART.c ****         if (USB_UART_CHECK_TX_SDA_MISO_PIN_USED)
 320:Generated_Source\PSoC4/USB_UART_UART.c ****         {
 321:Generated_Source\PSoC4/USB_UART_UART.c ****             /* Set SCB UART to drive the output pin */
 322:Generated_Source\PSoC4/USB_UART_UART.c ****             USB_UART_SET_HSIOM_SEL(USB_UART_TX_SDA_MISO_HSIOM_REG, USB_UART_TX_SDA_MISO_HSIOM_MASK,
 323:Generated_Source\PSoC4/USB_UART_UART.c ****                                            USB_UART_TX_SDA_MISO_HSIOM_POS, USB_UART_TX_SDA_MISO_HSI
 324:Generated_Source\PSoC4/USB_UART_UART.c ****         }
 325:Generated_Source\PSoC4/USB_UART_UART.c ****     #endif /* (USB_UART_TX_SDA_MISO_PIN_PIN) */
 326:Generated_Source\PSoC4/USB_UART_UART.c **** 
 327:Generated_Source\PSoC4/USB_UART_UART.c ****     #if !(USB_UART_CY_SCBIP_V0 || USB_UART_CY_SCBIP_V1)
ARM GAS  C:\Users\Ray\AppData\Local\Temp\ccvuhT2i.s 			page 9


 328:Generated_Source\PSoC4/USB_UART_UART.c ****         #if (USB_UART_SS0_PIN)
 329:Generated_Source\PSoC4/USB_UART_UART.c ****             if (USB_UART_CHECK_SS0_PIN_USED)
 330:Generated_Source\PSoC4/USB_UART_UART.c ****             {
 331:Generated_Source\PSoC4/USB_UART_UART.c ****                 /* Set SCB UART to drive the output pin */
 332:Generated_Source\PSoC4/USB_UART_UART.c ****                 USB_UART_SET_HSIOM_SEL(USB_UART_SS0_HSIOM_REG, USB_UART_SS0_HSIOM_MASK,
 333:Generated_Source\PSoC4/USB_UART_UART.c ****                                                USB_UART_SS0_HSIOM_POS, USB_UART_SS0_HSIOM_SEL_UART)
 334:Generated_Source\PSoC4/USB_UART_UART.c ****             }
 335:Generated_Source\PSoC4/USB_UART_UART.c ****         #endif /* (USB_UART_SS0_PIN) */
 336:Generated_Source\PSoC4/USB_UART_UART.c ****     #endif /* !(USB_UART_CY_SCBIP_V0 || USB_UART_CY_SCBIP_V1) */
 337:Generated_Source\PSoC4/USB_UART_UART.c **** 
 338:Generated_Source\PSoC4/USB_UART_UART.c **** #else
 339:Generated_Source\PSoC4/USB_UART_UART.c ****     #if (USB_UART_UART_TX_PIN)
 340:Generated_Source\PSoC4/USB_UART_UART.c ****          /* Set SCB UART to drive the output pin */
 341:Generated_Source\PSoC4/USB_UART_UART.c ****         USB_UART_SET_HSIOM_SEL(USB_UART_TX_HSIOM_REG, USB_UART_TX_HSIOM_MASK,
 130              		.loc 1 341 0
 131 0000 0549     		ldr	r1, .L5
 132 0002 0B68     		ldr	r3, [r1]
 133 0004 F022     		movs	r2, #240
 134 0006 9343     		bics	r3, r2
 135 0008 603A     		subs	r2, r2, #96
 136 000a 1343     		orrs	r3, r2
 137 000c 0B60     		str	r3, [r1]
 342:Generated_Source\PSoC4/USB_UART_UART.c ****                                        USB_UART_TX_HSIOM_POS, USB_UART_TX_HSIOM_SEL_UART);
 343:Generated_Source\PSoC4/USB_UART_UART.c ****     #endif /* (USB_UART_UART_TX_PIN) */
 344:Generated_Source\PSoC4/USB_UART_UART.c **** 
 345:Generated_Source\PSoC4/USB_UART_UART.c ****     #if (USB_UART_UART_RTS_PIN)
 346:Generated_Source\PSoC4/USB_UART_UART.c ****         /* Set SCB UART to drive the output pin */
 347:Generated_Source\PSoC4/USB_UART_UART.c ****         USB_UART_SET_HSIOM_SEL(USB_UART_RTS_HSIOM_REG, USB_UART_RTS_HSIOM_MASK,
 348:Generated_Source\PSoC4/USB_UART_UART.c ****                                        USB_UART_RTS_HSIOM_POS, USB_UART_RTS_HSIOM_SEL_UART);
 349:Generated_Source\PSoC4/USB_UART_UART.c ****     #endif /* (USB_UART_UART_RTS_PIN) */
 350:Generated_Source\PSoC4/USB_UART_UART.c **** #endif /* (USB_UART_SCB_MODE_UNCONFIG_CONST_CFG) */
 351:Generated_Source\PSoC4/USB_UART_UART.c **** 
 352:Generated_Source\PSoC4/USB_UART_UART.c ****     /* Restore TX interrupt sources. */
 353:Generated_Source\PSoC4/USB_UART_UART.c ****     USB_UART_SetTxInterruptMode(USB_UART_IntrTxMask);
 138              		.loc 1 353 0
 139 000e 034B     		ldr	r3, .L5+4
 140 0010 1A88     		ldrh	r2, [r3]
 141 0012 034B     		ldr	r3, .L5+8
 142 0014 1A60     		str	r2, [r3]
 354:Generated_Source\PSoC4/USB_UART_UART.c **** }
 143              		.loc 1 354 0
 144              		@ sp needed
 145 0016 7047     		bx	lr
 146              	.L6:
 147              		.align	2
 148              	.L5:
 149 0018 10000140 		.word	1073807376
 150 001c 00000000 		.word	USB_UART_IntrTxMask
 151 0020 880F0640 		.word	1074139016
 152              		.cfi_endproc
 153              	.LFE1:
 154              		.size	USB_UART_UartPostEnable, .-USB_UART_UartPostEnable
 155              		.section	.text.USB_UART_UartStop,"ax",%progbits
 156              		.align	2
 157              		.global	USB_UART_UartStop
 158              		.code	16
 159              		.thumb_func
ARM GAS  C:\Users\Ray\AppData\Local\Temp\ccvuhT2i.s 			page 10


 160              		.type	USB_UART_UartStop, %function
 161              	USB_UART_UartStop:
 162              	.LFB2:
 355:Generated_Source\PSoC4/USB_UART_UART.c **** 
 356:Generated_Source\PSoC4/USB_UART_UART.c **** 
 357:Generated_Source\PSoC4/USB_UART_UART.c **** /*******************************************************************************
 358:Generated_Source\PSoC4/USB_UART_UART.c **** * Function Name: USB_UART_UartStop
 359:Generated_Source\PSoC4/USB_UART_UART.c **** ****************************************************************************//**
 360:Generated_Source\PSoC4/USB_UART_UART.c **** *
 361:Generated_Source\PSoC4/USB_UART_UART.c **** *  Changes the HSIOM settings for the UART output pins (TX and/or RTS) to keep
 362:Generated_Source\PSoC4/USB_UART_UART.c **** *  them inactive after the block is disabled. The output pins are controlled by
 363:Generated_Source\PSoC4/USB_UART_UART.c **** *  the GPIO data register. Also, the function disables the skip start feature
 364:Generated_Source\PSoC4/USB_UART_UART.c **** *  to not cause it to trigger after the component is enabled.
 365:Generated_Source\PSoC4/USB_UART_UART.c **** *
 366:Generated_Source\PSoC4/USB_UART_UART.c **** *******************************************************************************/
 367:Generated_Source\PSoC4/USB_UART_UART.c **** void USB_UART_UartStop(void)
 368:Generated_Source\PSoC4/USB_UART_UART.c **** {
 163              		.loc 1 368 0
 164              		.cfi_startproc
 165              		@ args = 0, pretend = 0, frame = 0
 166              		@ frame_needed = 0, uses_anonymous_args = 0
 167              		@ link register save eliminated.
 369:Generated_Source\PSoC4/USB_UART_UART.c **** #if(USB_UART_SCB_MODE_UNCONFIG_CONST_CFG)
 370:Generated_Source\PSoC4/USB_UART_UART.c ****     #if (USB_UART_TX_SDA_MISO_PIN)
 371:Generated_Source\PSoC4/USB_UART_UART.c ****         if (USB_UART_CHECK_TX_SDA_MISO_PIN_USED)
 372:Generated_Source\PSoC4/USB_UART_UART.c ****         {
 373:Generated_Source\PSoC4/USB_UART_UART.c ****             /* Set GPIO to drive output pin */
 374:Generated_Source\PSoC4/USB_UART_UART.c ****             USB_UART_SET_HSIOM_SEL(USB_UART_TX_SDA_MISO_HSIOM_REG, USB_UART_TX_SDA_MISO_HSIOM_MASK,
 375:Generated_Source\PSoC4/USB_UART_UART.c ****                                            USB_UART_TX_SDA_MISO_HSIOM_POS, USB_UART_TX_SDA_MISO_HSI
 376:Generated_Source\PSoC4/USB_UART_UART.c ****         }
 377:Generated_Source\PSoC4/USB_UART_UART.c ****     #endif /* (USB_UART_TX_SDA_MISO_PIN_PIN) */
 378:Generated_Source\PSoC4/USB_UART_UART.c **** 
 379:Generated_Source\PSoC4/USB_UART_UART.c ****     #if !(USB_UART_CY_SCBIP_V0 || USB_UART_CY_SCBIP_V1)
 380:Generated_Source\PSoC4/USB_UART_UART.c ****         #if (USB_UART_SS0_PIN)
 381:Generated_Source\PSoC4/USB_UART_UART.c ****             if (USB_UART_CHECK_SS0_PIN_USED)
 382:Generated_Source\PSoC4/USB_UART_UART.c ****             {
 383:Generated_Source\PSoC4/USB_UART_UART.c ****                 /* Set output pin state after block is disabled */
 384:Generated_Source\PSoC4/USB_UART_UART.c ****                 USB_UART_spi_ss0_Write(USB_UART_GET_UART_RTS_INACTIVE);
 385:Generated_Source\PSoC4/USB_UART_UART.c **** 
 386:Generated_Source\PSoC4/USB_UART_UART.c ****                 /* Set GPIO to drive output pin */
 387:Generated_Source\PSoC4/USB_UART_UART.c ****                 USB_UART_SET_HSIOM_SEL(USB_UART_SS0_HSIOM_REG, USB_UART_SS0_HSIOM_MASK,
 388:Generated_Source\PSoC4/USB_UART_UART.c ****                                                USB_UART_SS0_HSIOM_POS, USB_UART_SS0_HSIOM_SEL_GPIO)
 389:Generated_Source\PSoC4/USB_UART_UART.c ****             }
 390:Generated_Source\PSoC4/USB_UART_UART.c ****         #endif /* (USB_UART_SS0_PIN) */
 391:Generated_Source\PSoC4/USB_UART_UART.c ****     #endif /* !(USB_UART_CY_SCBIP_V0 || USB_UART_CY_SCBIP_V1) */
 392:Generated_Source\PSoC4/USB_UART_UART.c **** 
 393:Generated_Source\PSoC4/USB_UART_UART.c **** #else
 394:Generated_Source\PSoC4/USB_UART_UART.c ****     #if (USB_UART_UART_TX_PIN)
 395:Generated_Source\PSoC4/USB_UART_UART.c ****         /* Set GPIO to drive output pin */
 396:Generated_Source\PSoC4/USB_UART_UART.c ****         USB_UART_SET_HSIOM_SEL(USB_UART_TX_HSIOM_REG, USB_UART_TX_HSIOM_MASK,
 168              		.loc 1 396 0
 169 0000 064A     		ldr	r2, .L8
 170 0002 1368     		ldr	r3, [r2]
 171 0004 F021     		movs	r1, #240
 172 0006 8B43     		bics	r3, r1
 173 0008 1360     		str	r3, [r2]
 397:Generated_Source\PSoC4/USB_UART_UART.c ****                                        USB_UART_TX_HSIOM_POS, USB_UART_TX_HSIOM_SEL_GPIO);
ARM GAS  C:\Users\Ray\AppData\Local\Temp\ccvuhT2i.s 			page 11


 398:Generated_Source\PSoC4/USB_UART_UART.c ****     #endif /* (USB_UART_UART_TX_PIN) */
 399:Generated_Source\PSoC4/USB_UART_UART.c **** 
 400:Generated_Source\PSoC4/USB_UART_UART.c ****     #if (USB_UART_UART_RTS_PIN)
 401:Generated_Source\PSoC4/USB_UART_UART.c ****         /* Set output pin state after block is disabled */
 402:Generated_Source\PSoC4/USB_UART_UART.c ****         USB_UART_rts_Write(USB_UART_GET_UART_RTS_INACTIVE);
 403:Generated_Source\PSoC4/USB_UART_UART.c **** 
 404:Generated_Source\PSoC4/USB_UART_UART.c ****         /* Set GPIO to drive output pin */
 405:Generated_Source\PSoC4/USB_UART_UART.c ****         USB_UART_SET_HSIOM_SEL(USB_UART_RTS_HSIOM_REG, USB_UART_RTS_HSIOM_MASK,
 406:Generated_Source\PSoC4/USB_UART_UART.c ****                                        USB_UART_RTS_HSIOM_POS, USB_UART_RTS_HSIOM_SEL_GPIO);
 407:Generated_Source\PSoC4/USB_UART_UART.c ****     #endif /* (USB_UART_UART_RTS_PIN) */
 408:Generated_Source\PSoC4/USB_UART_UART.c **** 
 409:Generated_Source\PSoC4/USB_UART_UART.c **** #endif /* (USB_UART_SCB_MODE_UNCONFIG_CONST_CFG) */
 410:Generated_Source\PSoC4/USB_UART_UART.c **** 
 411:Generated_Source\PSoC4/USB_UART_UART.c **** #if (USB_UART_UART_WAKE_ENABLE_CONST)
 412:Generated_Source\PSoC4/USB_UART_UART.c ****     /* Disable skip start feature used for wakeup */
 413:Generated_Source\PSoC4/USB_UART_UART.c ****     USB_UART_UART_RX_CTRL_REG &= (uint32) ~USB_UART_UART_RX_CTRL_SKIP_START;
 414:Generated_Source\PSoC4/USB_UART_UART.c **** #endif /* (USB_UART_UART_WAKE_ENABLE_CONST) */
 415:Generated_Source\PSoC4/USB_UART_UART.c **** 
 416:Generated_Source\PSoC4/USB_UART_UART.c ****     /* Store TX interrupt sources (exclude level triggered). */
 417:Generated_Source\PSoC4/USB_UART_UART.c ****     USB_UART_IntrTxMask = LO16(USB_UART_GetTxInterruptMode() & USB_UART_INTR_UART_TX_RESTORE);
 174              		.loc 1 417 0
 175 000a 054B     		ldr	r3, .L8+4
 176 000c 1A68     		ldr	r2, [r3]
 177 000e E423     		movs	r3, #228
 178 0010 DB00     		lsls	r3, r3, #3
 179 0012 1340     		ands	r3, r2
 180 0014 034A     		ldr	r2, .L8+8
 181 0016 1380     		strh	r3, [r2]
 418:Generated_Source\PSoC4/USB_UART_UART.c **** }
 182              		.loc 1 418 0
 183              		@ sp needed
 184 0018 7047     		bx	lr
 185              	.L9:
 186 001a C046     		.align	2
 187              	.L8:
 188 001c 10000140 		.word	1073807376
 189 0020 880F0640 		.word	1074139016
 190 0024 00000000 		.word	USB_UART_IntrTxMask
 191              		.cfi_endproc
 192              	.LFE2:
 193              		.size	USB_UART_UartStop, .-USB_UART_UartStop
 194              		.section	.text.USB_UART_UartSetRxAddress,"ax",%progbits
 195              		.align	2
 196              		.global	USB_UART_UartSetRxAddress
 197              		.code	16
 198              		.thumb_func
 199              		.type	USB_UART_UartSetRxAddress, %function
 200              	USB_UART_UartSetRxAddress:
 201              	.LFB3:
 419:Generated_Source\PSoC4/USB_UART_UART.c **** 
 420:Generated_Source\PSoC4/USB_UART_UART.c **** 
 421:Generated_Source\PSoC4/USB_UART_UART.c **** /*******************************************************************************
 422:Generated_Source\PSoC4/USB_UART_UART.c **** * Function Name: USB_UART_UartSetRxAddress
 423:Generated_Source\PSoC4/USB_UART_UART.c **** ****************************************************************************//**
 424:Generated_Source\PSoC4/USB_UART_UART.c **** *
 425:Generated_Source\PSoC4/USB_UART_UART.c **** *  Sets the hardware detectable receiver address for the UART in the
 426:Generated_Source\PSoC4/USB_UART_UART.c **** *  Multiprocessor mode.
ARM GAS  C:\Users\Ray\AppData\Local\Temp\ccvuhT2i.s 			page 12


 427:Generated_Source\PSoC4/USB_UART_UART.c **** *
 428:Generated_Source\PSoC4/USB_UART_UART.c **** *  \param address: Address for hardware address detection.
 429:Generated_Source\PSoC4/USB_UART_UART.c **** *
 430:Generated_Source\PSoC4/USB_UART_UART.c **** *******************************************************************************/
 431:Generated_Source\PSoC4/USB_UART_UART.c **** void USB_UART_UartSetRxAddress(uint32 address)
 432:Generated_Source\PSoC4/USB_UART_UART.c **** {
 202              		.loc 1 432 0
 203              		.cfi_startproc
 204              		@ args = 0, pretend = 0, frame = 0
 205              		@ frame_needed = 0, uses_anonymous_args = 0
 206              		@ link register save eliminated.
 207              	.LVL0:
 433:Generated_Source\PSoC4/USB_UART_UART.c ****      uint32 matchReg;
 434:Generated_Source\PSoC4/USB_UART_UART.c **** 
 435:Generated_Source\PSoC4/USB_UART_UART.c ****     matchReg = USB_UART_RX_MATCH_REG;
 208              		.loc 1 435 0
 209 0000 034A     		ldr	r2, .L11
 210 0002 1368     		ldr	r3, [r2]
 211              	.LVL1:
 436:Generated_Source\PSoC4/USB_UART_UART.c **** 
 437:Generated_Source\PSoC4/USB_UART_UART.c ****     matchReg &= ((uint32) ~USB_UART_RX_MATCH_ADDR_MASK); /* Clear address bits */
 212              		.loc 1 437 0
 213 0004 FF21     		movs	r1, #255
 214 0006 8B43     		bics	r3, r1
 215              	.LVL2:
 438:Generated_Source\PSoC4/USB_UART_UART.c ****     matchReg |= ((uint32)  (address & USB_UART_RX_MATCH_ADDR_MASK)); /* Set address  */
 216              		.loc 1 438 0
 217 0008 0840     		ands	r0, r1
 218              	.LVL3:
 219 000a 1843     		orrs	r0, r3
 220              	.LVL4:
 439:Generated_Source\PSoC4/USB_UART_UART.c **** 
 440:Generated_Source\PSoC4/USB_UART_UART.c ****     USB_UART_RX_MATCH_REG = matchReg;
 221              		.loc 1 440 0
 222 000c 1060     		str	r0, [r2]
 441:Generated_Source\PSoC4/USB_UART_UART.c **** }
 223              		.loc 1 441 0
 224              		@ sp needed
 225 000e 7047     		bx	lr
 226              	.L12:
 227              		.align	2
 228              	.L11:
 229 0010 10030640 		.word	1074135824
 230              		.cfi_endproc
 231              	.LFE3:
 232              		.size	USB_UART_UartSetRxAddress, .-USB_UART_UartSetRxAddress
 233              		.section	.text.USB_UART_UartSetRxAddressMask,"ax",%progbits
 234              		.align	2
 235              		.global	USB_UART_UartSetRxAddressMask
 236              		.code	16
 237              		.thumb_func
 238              		.type	USB_UART_UartSetRxAddressMask, %function
 239              	USB_UART_UartSetRxAddressMask:
 240              	.LFB4:
 442:Generated_Source\PSoC4/USB_UART_UART.c **** 
 443:Generated_Source\PSoC4/USB_UART_UART.c **** 
 444:Generated_Source\PSoC4/USB_UART_UART.c **** /*******************************************************************************
ARM GAS  C:\Users\Ray\AppData\Local\Temp\ccvuhT2i.s 			page 13


 445:Generated_Source\PSoC4/USB_UART_UART.c **** * Function Name: USB_UART_UartSetRxAddressMask
 446:Generated_Source\PSoC4/USB_UART_UART.c **** ****************************************************************************//**
 447:Generated_Source\PSoC4/USB_UART_UART.c **** *
 448:Generated_Source\PSoC4/USB_UART_UART.c **** *  Sets the hardware address mask for the UART in the Multiprocessor mode.
 449:Generated_Source\PSoC4/USB_UART_UART.c **** *
 450:Generated_Source\PSoC4/USB_UART_UART.c **** *  \param addressMask: Address mask.
 451:Generated_Source\PSoC4/USB_UART_UART.c **** *   - Bit value 0 – excludes bit from address comparison.
 452:Generated_Source\PSoC4/USB_UART_UART.c **** *   - Bit value 1 – the bit needs to match with the corresponding bit
 453:Generated_Source\PSoC4/USB_UART_UART.c **** *     of the address.
 454:Generated_Source\PSoC4/USB_UART_UART.c **** *
 455:Generated_Source\PSoC4/USB_UART_UART.c **** *******************************************************************************/
 456:Generated_Source\PSoC4/USB_UART_UART.c **** void USB_UART_UartSetRxAddressMask(uint32 addressMask)
 457:Generated_Source\PSoC4/USB_UART_UART.c **** {
 241              		.loc 1 457 0
 242              		.cfi_startproc
 243              		@ args = 0, pretend = 0, frame = 0
 244              		@ frame_needed = 0, uses_anonymous_args = 0
 245              		@ link register save eliminated.
 246              	.LVL5:
 458:Generated_Source\PSoC4/USB_UART_UART.c ****     uint32 matchReg;
 459:Generated_Source\PSoC4/USB_UART_UART.c **** 
 460:Generated_Source\PSoC4/USB_UART_UART.c ****     matchReg = USB_UART_RX_MATCH_REG;
 247              		.loc 1 460 0
 248 0000 034A     		ldr	r2, .L14
 249 0002 1168     		ldr	r1, [r2]
 250              	.LVL6:
 461:Generated_Source\PSoC4/USB_UART_UART.c **** 
 462:Generated_Source\PSoC4/USB_UART_UART.c ****     matchReg &= ((uint32) ~USB_UART_RX_MATCH_MASK_MASK); /* Clear address mask bits */
 251              		.loc 1 462 0
 252 0004 034B     		ldr	r3, .L14+4
 253 0006 0B40     		ands	r3, r1
 254              	.LVL7:
 463:Generated_Source\PSoC4/USB_UART_UART.c ****     matchReg |= ((uint32) (addressMask << USB_UART_RX_MATCH_MASK_POS));
 255              		.loc 1 463 0
 256 0008 0004     		lsls	r0, r0, #16
 257              	.LVL8:
 258 000a 1843     		orrs	r0, r3
 259              	.LVL9:
 464:Generated_Source\PSoC4/USB_UART_UART.c **** 
 465:Generated_Source\PSoC4/USB_UART_UART.c ****     USB_UART_RX_MATCH_REG = matchReg;
 260              		.loc 1 465 0
 261 000c 1060     		str	r0, [r2]
 466:Generated_Source\PSoC4/USB_UART_UART.c **** }
 262              		.loc 1 466 0
 263              		@ sp needed
 264 000e 7047     		bx	lr
 265              	.L15:
 266              		.align	2
 267              	.L14:
 268 0010 10030640 		.word	1074135824
 269 0014 FFFF00FF 		.word	-16711681
 270              		.cfi_endproc
 271              	.LFE4:
 272              		.size	USB_UART_UartSetRxAddressMask, .-USB_UART_UartSetRxAddressMask
 273              		.section	.text.USB_UART_UartGetChar,"ax",%progbits
 274              		.align	2
 275              		.global	USB_UART_UartGetChar
ARM GAS  C:\Users\Ray\AppData\Local\Temp\ccvuhT2i.s 			page 14


 276              		.code	16
 277              		.thumb_func
 278              		.type	USB_UART_UartGetChar, %function
 279              	USB_UART_UartGetChar:
 280              	.LFB5:
 467:Generated_Source\PSoC4/USB_UART_UART.c **** 
 468:Generated_Source\PSoC4/USB_UART_UART.c **** 
 469:Generated_Source\PSoC4/USB_UART_UART.c **** #if(USB_UART_UART_RX_DIRECTION)
 470:Generated_Source\PSoC4/USB_UART_UART.c ****     /*******************************************************************************
 471:Generated_Source\PSoC4/USB_UART_UART.c ****     * Function Name: USB_UART_UartGetChar
 472:Generated_Source\PSoC4/USB_UART_UART.c ****     ****************************************************************************//**
 473:Generated_Source\PSoC4/USB_UART_UART.c ****     *
 474:Generated_Source\PSoC4/USB_UART_UART.c ****     *  Retrieves next data element from receive buffer.
 475:Generated_Source\PSoC4/USB_UART_UART.c ****     *  This function is designed for ASCII characters and returns a char where
 476:Generated_Source\PSoC4/USB_UART_UART.c ****     *  1 to 255 are valid characters and 0 indicates an error occurred or no data
 477:Generated_Source\PSoC4/USB_UART_UART.c ****     *  is present.
 478:Generated_Source\PSoC4/USB_UART_UART.c ****     *  - RX software buffer is disabled: Returns data element retrieved from RX
 479:Generated_Source\PSoC4/USB_UART_UART.c ****     *    FIFO.
 480:Generated_Source\PSoC4/USB_UART_UART.c ****     *  - RX software buffer is enabled: Returns data element from the software
 481:Generated_Source\PSoC4/USB_UART_UART.c ****     *    receive buffer.
 482:Generated_Source\PSoC4/USB_UART_UART.c ****     *
 483:Generated_Source\PSoC4/USB_UART_UART.c ****     *  \return
 484:Generated_Source\PSoC4/USB_UART_UART.c ****     *   Next data element from the receive buffer. ASCII character values from
 485:Generated_Source\PSoC4/USB_UART_UART.c ****     *   1 to 255 are valid. A returned zero signifies an error condition or no
 486:Generated_Source\PSoC4/USB_UART_UART.c ****     *   data available.
 487:Generated_Source\PSoC4/USB_UART_UART.c ****     *
 488:Generated_Source\PSoC4/USB_UART_UART.c ****     *  \sideeffect
 489:Generated_Source\PSoC4/USB_UART_UART.c ****     *   The errors bits may not correspond with reading characters due to
 490:Generated_Source\PSoC4/USB_UART_UART.c ****     *   RX FIFO and software buffer usage.
 491:Generated_Source\PSoC4/USB_UART_UART.c ****     *   RX software buffer is enabled: The internal software buffer overflow
 492:Generated_Source\PSoC4/USB_UART_UART.c ****     *   is not treated as an error condition.
 493:Generated_Source\PSoC4/USB_UART_UART.c ****     *   Check USB_UART_rxBufferOverflow to capture that error condition.
 494:Generated_Source\PSoC4/USB_UART_UART.c ****     *
 495:Generated_Source\PSoC4/USB_UART_UART.c ****     *******************************************************************************/
 496:Generated_Source\PSoC4/USB_UART_UART.c ****     uint32 USB_UART_UartGetChar(void)
 497:Generated_Source\PSoC4/USB_UART_UART.c ****     {
 281              		.loc 1 497 0
 282              		.cfi_startproc
 283              		@ args = 0, pretend = 0, frame = 0
 284              		@ frame_needed = 0, uses_anonymous_args = 0
 285 0000 10B5     		push	{r4, lr}
 286              		.cfi_def_cfa_offset 8
 287              		.cfi_offset 4, -8
 288              		.cfi_offset 14, -4
 289              	.LVL10:
 498:Generated_Source\PSoC4/USB_UART_UART.c ****         uint32 rxData = 0u;
 499:Generated_Source\PSoC4/USB_UART_UART.c **** 
 500:Generated_Source\PSoC4/USB_UART_UART.c ****         /* Reads data only if there is data to read */
 501:Generated_Source\PSoC4/USB_UART_UART.c ****         if (0u != USB_UART_SpiUartGetRxBufferSize())
 290              		.loc 1 501 0
 291 0002 FFF7FEFF 		bl	USB_UART_SpiUartGetRxBufferSize
 292              	.LVL11:
 293 0006 0028     		cmp	r0, #0
 294 0008 02D0     		beq	.L19
 502:Generated_Source\PSoC4/USB_UART_UART.c ****         {
 503:Generated_Source\PSoC4/USB_UART_UART.c ****             rxData = USB_UART_SpiUartReadRxData();
 295              		.loc 1 503 0
ARM GAS  C:\Users\Ray\AppData\Local\Temp\ccvuhT2i.s 			page 15


 296 000a FFF7FEFF 		bl	USB_UART_SpiUartReadRxData
 297              	.LVL12:
 298 000e 00E0     		b	.L17
 299              	.LVL13:
 300              	.L19:
 498:Generated_Source\PSoC4/USB_UART_UART.c ****         uint32 rxData = 0u;
 301              		.loc 1 498 0
 302 0010 0020     		movs	r0, #0
 303              	.LVL14:
 304              	.L17:
 504:Generated_Source\PSoC4/USB_UART_UART.c ****         }
 505:Generated_Source\PSoC4/USB_UART_UART.c **** 
 506:Generated_Source\PSoC4/USB_UART_UART.c ****         if (USB_UART_CHECK_INTR_RX(USB_UART_INTR_RX_ERR))
 305              		.loc 1 506 0
 306 0012 054B     		ldr	r3, .L20
 307 0014 1A68     		ldr	r2, [r3]
 308 0016 D823     		movs	r3, #216
 309 0018 9B00     		lsls	r3, r3, #2
 310 001a 1A42     		tst	r2, r3
 311 001c 03D0     		beq	.L18
 312              	.LVL15:
 507:Generated_Source\PSoC4/USB_UART_UART.c ****         {
 508:Generated_Source\PSoC4/USB_UART_UART.c ****             rxData = 0u; /* Error occurred: returns zero */
 509:Generated_Source\PSoC4/USB_UART_UART.c ****             USB_UART_ClearRxInterruptSource(USB_UART_INTR_RX_ERR);
 313              		.loc 1 509 0
 314 001e 1A00     		movs	r2, r3
 315 0020 014B     		ldr	r3, .L20
 316 0022 1A60     		str	r2, [r3]
 508:Generated_Source\PSoC4/USB_UART_UART.c ****             USB_UART_ClearRxInterruptSource(USB_UART_INTR_RX_ERR);
 317              		.loc 1 508 0
 318 0024 0020     		movs	r0, #0
 319              	.LVL16:
 320              	.L18:
 510:Generated_Source\PSoC4/USB_UART_UART.c ****         }
 511:Generated_Source\PSoC4/USB_UART_UART.c **** 
 512:Generated_Source\PSoC4/USB_UART_UART.c ****         return (rxData);
 513:Generated_Source\PSoC4/USB_UART_UART.c ****     }
 321              		.loc 1 513 0
 322              		@ sp needed
 323 0026 10BD     		pop	{r4, pc}
 324              	.L21:
 325              		.align	2
 326              	.L20:
 327 0028 C00F0640 		.word	1074139072
 328              		.cfi_endproc
 329              	.LFE5:
 330              		.size	USB_UART_UartGetChar, .-USB_UART_UartGetChar
 331              		.section	.text.USB_UART_UartGetByte,"ax",%progbits
 332              		.align	2
 333              		.global	USB_UART_UartGetByte
 334              		.code	16
 335              		.thumb_func
 336              		.type	USB_UART_UartGetByte, %function
 337              	USB_UART_UartGetByte:
 338              	.LFB6:
 514:Generated_Source\PSoC4/USB_UART_UART.c **** 
 515:Generated_Source\PSoC4/USB_UART_UART.c **** 
ARM GAS  C:\Users\Ray\AppData\Local\Temp\ccvuhT2i.s 			page 16


 516:Generated_Source\PSoC4/USB_UART_UART.c ****     /*******************************************************************************
 517:Generated_Source\PSoC4/USB_UART_UART.c ****     * Function Name: USB_UART_UartGetByte
 518:Generated_Source\PSoC4/USB_UART_UART.c ****     ****************************************************************************//**
 519:Generated_Source\PSoC4/USB_UART_UART.c ****     *
 520:Generated_Source\PSoC4/USB_UART_UART.c ****     *  Retrieves the next data element from the receive buffer, returns the
 521:Generated_Source\PSoC4/USB_UART_UART.c ****     *  received byte and error condition.
 522:Generated_Source\PSoC4/USB_UART_UART.c ****     *   - The RX software buffer is disabled: returns the data element retrieved
 523:Generated_Source\PSoC4/USB_UART_UART.c ****     *     from the RX FIFO. Undefined data will be returned if the RX FIFO is
 524:Generated_Source\PSoC4/USB_UART_UART.c ****     *     empty.
 525:Generated_Source\PSoC4/USB_UART_UART.c ****     *   - The RX software buffer is enabled: returns data element from the
 526:Generated_Source\PSoC4/USB_UART_UART.c ****     *     software receive buffer.
 527:Generated_Source\PSoC4/USB_UART_UART.c ****     *
 528:Generated_Source\PSoC4/USB_UART_UART.c ****     *  \return
 529:Generated_Source\PSoC4/USB_UART_UART.c ****     *   Bits 7-0 contain the next data element from the receive buffer and
 530:Generated_Source\PSoC4/USB_UART_UART.c ****     *   other bits contain the error condition.
 531:Generated_Source\PSoC4/USB_UART_UART.c ****     *   - USB_UART_UART_RX_OVERFLOW - Attempt to write to a full
 532:Generated_Source\PSoC4/USB_UART_UART.c ****     *     receiver FIFO.
 533:Generated_Source\PSoC4/USB_UART_UART.c ****     *   - USB_UART_UART_RX_UNDERFLOW	Attempt to read from an empty
 534:Generated_Source\PSoC4/USB_UART_UART.c ****     *     receiver FIFO.
 535:Generated_Source\PSoC4/USB_UART_UART.c ****     *   - USB_UART_UART_RX_FRAME_ERROR - UART framing error detected.
 536:Generated_Source\PSoC4/USB_UART_UART.c ****     *   - USB_UART_UART_RX_PARITY_ERROR - UART parity error detected.
 537:Generated_Source\PSoC4/USB_UART_UART.c ****     *
 538:Generated_Source\PSoC4/USB_UART_UART.c ****     *  \sideeffect
 539:Generated_Source\PSoC4/USB_UART_UART.c ****     *   The errors bits may not correspond with reading characters due to
 540:Generated_Source\PSoC4/USB_UART_UART.c ****     *   RX FIFO and software buffer usage.
 541:Generated_Source\PSoC4/USB_UART_UART.c ****     *   RX software buffer is enabled: The internal software buffer overflow
 542:Generated_Source\PSoC4/USB_UART_UART.c ****     *   is not treated as an error condition.
 543:Generated_Source\PSoC4/USB_UART_UART.c ****     *   Check USB_UART_rxBufferOverflow to capture that error condition.
 544:Generated_Source\PSoC4/USB_UART_UART.c ****     *
 545:Generated_Source\PSoC4/USB_UART_UART.c ****     *******************************************************************************/
 546:Generated_Source\PSoC4/USB_UART_UART.c ****     uint32 USB_UART_UartGetByte(void)
 547:Generated_Source\PSoC4/USB_UART_UART.c ****     {
 339              		.loc 1 547 0
 340              		.cfi_startproc
 341              		@ args = 0, pretend = 0, frame = 0
 342              		@ frame_needed = 0, uses_anonymous_args = 0
 343 0000 10B5     		push	{r4, lr}
 344              		.cfi_def_cfa_offset 8
 345              		.cfi_offset 4, -8
 346              		.cfi_offset 14, -4
 548:Generated_Source\PSoC4/USB_UART_UART.c ****         uint32 rxData;
 549:Generated_Source\PSoC4/USB_UART_UART.c ****         uint32 tmpStatus;
 550:Generated_Source\PSoC4/USB_UART_UART.c **** 
 551:Generated_Source\PSoC4/USB_UART_UART.c ****         #if (USB_UART_CHECK_RX_SW_BUFFER)
 552:Generated_Source\PSoC4/USB_UART_UART.c ****         {
 553:Generated_Source\PSoC4/USB_UART_UART.c ****             USB_UART_DisableInt();
 554:Generated_Source\PSoC4/USB_UART_UART.c ****         }
 555:Generated_Source\PSoC4/USB_UART_UART.c ****         #endif
 556:Generated_Source\PSoC4/USB_UART_UART.c **** 
 557:Generated_Source\PSoC4/USB_UART_UART.c ****         if (0u != USB_UART_SpiUartGetRxBufferSize())
 347              		.loc 1 557 0
 348 0002 FFF7FEFF 		bl	USB_UART_SpiUartGetRxBufferSize
 349              	.LVL17:
 350 0006 0028     		cmp	r0, #0
 351 0008 02D0     		beq	.L23
 558:Generated_Source\PSoC4/USB_UART_UART.c ****         {
 559:Generated_Source\PSoC4/USB_UART_UART.c ****             /* Enables interrupt to receive more bytes: at least one byte is in
ARM GAS  C:\Users\Ray\AppData\Local\Temp\ccvuhT2i.s 			page 17


 560:Generated_Source\PSoC4/USB_UART_UART.c ****             * buffer.
 561:Generated_Source\PSoC4/USB_UART_UART.c ****             */
 562:Generated_Source\PSoC4/USB_UART_UART.c ****             #if (USB_UART_CHECK_RX_SW_BUFFER)
 563:Generated_Source\PSoC4/USB_UART_UART.c ****             {
 564:Generated_Source\PSoC4/USB_UART_UART.c ****                 USB_UART_EnableInt();
 565:Generated_Source\PSoC4/USB_UART_UART.c ****             }
 566:Generated_Source\PSoC4/USB_UART_UART.c ****             #endif
 567:Generated_Source\PSoC4/USB_UART_UART.c **** 
 568:Generated_Source\PSoC4/USB_UART_UART.c ****             /* Get received byte */
 569:Generated_Source\PSoC4/USB_UART_UART.c ****             rxData = USB_UART_SpiUartReadRxData();
 352              		.loc 1 569 0
 353 000a FFF7FEFF 		bl	USB_UART_SpiUartReadRxData
 354              	.LVL18:
 355 000e 01E0     		b	.L24
 356              	.LVL19:
 357              	.L23:
 570:Generated_Source\PSoC4/USB_UART_UART.c ****         }
 571:Generated_Source\PSoC4/USB_UART_UART.c ****         else
 572:Generated_Source\PSoC4/USB_UART_UART.c ****         {
 573:Generated_Source\PSoC4/USB_UART_UART.c ****             /* Reads a byte directly from RX FIFO: underflow is raised in the
 574:Generated_Source\PSoC4/USB_UART_UART.c ****             * case of empty. Otherwise the first received byte will be read.
 575:Generated_Source\PSoC4/USB_UART_UART.c ****             */
 576:Generated_Source\PSoC4/USB_UART_UART.c ****             rxData = USB_UART_RX_FIFO_RD_REG;
 358              		.loc 1 576 0
 359 0010 064B     		ldr	r3, .L25
 360 0012 1868     		ldr	r0, [r3]
 361              	.LVL20:
 362              	.L24:
 577:Generated_Source\PSoC4/USB_UART_UART.c **** 
 578:Generated_Source\PSoC4/USB_UART_UART.c **** 
 579:Generated_Source\PSoC4/USB_UART_UART.c ****             /* Enables interrupt to receive more bytes. */
 580:Generated_Source\PSoC4/USB_UART_UART.c ****             #if (USB_UART_CHECK_RX_SW_BUFFER)
 581:Generated_Source\PSoC4/USB_UART_UART.c ****             {
 582:Generated_Source\PSoC4/USB_UART_UART.c **** 
 583:Generated_Source\PSoC4/USB_UART_UART.c ****                 /* The byte has been read from RX FIFO. Clear RX interrupt to
 584:Generated_Source\PSoC4/USB_UART_UART.c ****                 * not involve interrupt handler when RX FIFO is empty.
 585:Generated_Source\PSoC4/USB_UART_UART.c ****                 */
 586:Generated_Source\PSoC4/USB_UART_UART.c ****                 USB_UART_ClearRxInterruptSource(USB_UART_INTR_RX_NOT_EMPTY);
 587:Generated_Source\PSoC4/USB_UART_UART.c **** 
 588:Generated_Source\PSoC4/USB_UART_UART.c ****                 USB_UART_EnableInt();
 589:Generated_Source\PSoC4/USB_UART_UART.c ****             }
 590:Generated_Source\PSoC4/USB_UART_UART.c ****             #endif
 591:Generated_Source\PSoC4/USB_UART_UART.c ****         }
 592:Generated_Source\PSoC4/USB_UART_UART.c **** 
 593:Generated_Source\PSoC4/USB_UART_UART.c ****         /* Get and clear RX error mask */
 594:Generated_Source\PSoC4/USB_UART_UART.c ****         tmpStatus = (USB_UART_GetRxInterruptSource() & USB_UART_INTR_RX_ERR);
 363              		.loc 1 594 0
 364 0014 064A     		ldr	r2, .L25+4
 365 0016 1368     		ldr	r3, [r2]
 366              	.LVL21:
 595:Generated_Source\PSoC4/USB_UART_UART.c ****         USB_UART_ClearRxInterruptSource(USB_UART_INTR_RX_ERR);
 367              		.loc 1 595 0
 368 0018 D821     		movs	r1, #216
 369 001a 8900     		lsls	r1, r1, #2
 370 001c 1160     		str	r1, [r2]
 596:Generated_Source\PSoC4/USB_UART_UART.c **** 
 597:Generated_Source\PSoC4/USB_UART_UART.c ****         /* Puts together data and error status:
ARM GAS  C:\Users\Ray\AppData\Local\Temp\ccvuhT2i.s 			page 18


 598:Generated_Source\PSoC4/USB_UART_UART.c ****         * MP mode and accept address: 9th bit is set to notify mark.
 599:Generated_Source\PSoC4/USB_UART_UART.c ****         */
 600:Generated_Source\PSoC4/USB_UART_UART.c ****         rxData |= ((uint32) (tmpStatus << 8u));
 371              		.loc 1 600 0
 372 001e 1B02     		lsls	r3, r3, #8
 373              	.LVL22:
 374 0020 D822     		movs	r2, #216
 375 0022 9202     		lsls	r2, r2, #10
 376 0024 1340     		ands	r3, r2
 377 0026 1843     		orrs	r0, r3
 378              	.LVL23:
 601:Generated_Source\PSoC4/USB_UART_UART.c **** 
 602:Generated_Source\PSoC4/USB_UART_UART.c ****         return (rxData);
 603:Generated_Source\PSoC4/USB_UART_UART.c ****     }
 379              		.loc 1 603 0
 380              		@ sp needed
 381 0028 10BD     		pop	{r4, pc}
 382              	.L26:
 383 002a C046     		.align	2
 384              	.L25:
 385 002c 40030640 		.word	1074135872
 386 0030 C00F0640 		.word	1074139072
 387              		.cfi_endproc
 388              	.LFE6:
 389              		.size	USB_UART_UartGetByte, .-USB_UART_UartGetByte
 390              		.section	.text.USB_UART_UartPutString,"ax",%progbits
 391              		.align	2
 392              		.global	USB_UART_UartPutString
 393              		.code	16
 394              		.thumb_func
 395              		.type	USB_UART_UartPutString, %function
 396              	USB_UART_UartPutString:
 397              	.LFB7:
 604:Generated_Source\PSoC4/USB_UART_UART.c **** 
 605:Generated_Source\PSoC4/USB_UART_UART.c **** 
 606:Generated_Source\PSoC4/USB_UART_UART.c ****     #if !(USB_UART_CY_SCBIP_V0 || USB_UART_CY_SCBIP_V1)
 607:Generated_Source\PSoC4/USB_UART_UART.c ****         /*******************************************************************************
 608:Generated_Source\PSoC4/USB_UART_UART.c ****         * Function Name: USB_UART_UartSetRtsPolarity
 609:Generated_Source\PSoC4/USB_UART_UART.c ****         ****************************************************************************//**
 610:Generated_Source\PSoC4/USB_UART_UART.c ****         *
 611:Generated_Source\PSoC4/USB_UART_UART.c ****         *  Sets active polarity of RTS output signal.
 612:Generated_Source\PSoC4/USB_UART_UART.c ****         *  Only available for PSoC 4100 BLE / PSoC 4200 BLE / PSoC 4100M / PSoC 4200M /
 613:Generated_Source\PSoC4/USB_UART_UART.c ****         *  PSoC 4200L / PSoC 4000S / PSoC 4100S / PSoC Analog Coprocessor devices.
 614:Generated_Source\PSoC4/USB_UART_UART.c ****         *
 615:Generated_Source\PSoC4/USB_UART_UART.c ****         *  \param polarity: Active polarity of RTS output signal.
 616:Generated_Source\PSoC4/USB_UART_UART.c ****         *   - USB_UART_UART_RTS_ACTIVE_LOW  - RTS signal is active low.
 617:Generated_Source\PSoC4/USB_UART_UART.c ****         *   - USB_UART_UART_RTS_ACTIVE_HIGH - RTS signal is active high.
 618:Generated_Source\PSoC4/USB_UART_UART.c ****         *
 619:Generated_Source\PSoC4/USB_UART_UART.c ****         *******************************************************************************/
 620:Generated_Source\PSoC4/USB_UART_UART.c ****         void USB_UART_UartSetRtsPolarity(uint32 polarity)
 621:Generated_Source\PSoC4/USB_UART_UART.c ****         {
 622:Generated_Source\PSoC4/USB_UART_UART.c ****             if(0u != polarity)
 623:Generated_Source\PSoC4/USB_UART_UART.c ****             {
 624:Generated_Source\PSoC4/USB_UART_UART.c ****                 USB_UART_UART_FLOW_CTRL_REG |= (uint32)  USB_UART_UART_FLOW_CTRL_RTS_POLARITY;
 625:Generated_Source\PSoC4/USB_UART_UART.c ****             }
 626:Generated_Source\PSoC4/USB_UART_UART.c ****             else
 627:Generated_Source\PSoC4/USB_UART_UART.c ****             {
ARM GAS  C:\Users\Ray\AppData\Local\Temp\ccvuhT2i.s 			page 19


 628:Generated_Source\PSoC4/USB_UART_UART.c ****                 USB_UART_UART_FLOW_CTRL_REG &= (uint32) ~USB_UART_UART_FLOW_CTRL_RTS_POLARITY;
 629:Generated_Source\PSoC4/USB_UART_UART.c ****             }
 630:Generated_Source\PSoC4/USB_UART_UART.c ****         }
 631:Generated_Source\PSoC4/USB_UART_UART.c **** 
 632:Generated_Source\PSoC4/USB_UART_UART.c **** 
 633:Generated_Source\PSoC4/USB_UART_UART.c ****         /*******************************************************************************
 634:Generated_Source\PSoC4/USB_UART_UART.c ****         * Function Name: USB_UART_UartSetRtsFifoLevel
 635:Generated_Source\PSoC4/USB_UART_UART.c ****         ****************************************************************************//**
 636:Generated_Source\PSoC4/USB_UART_UART.c ****         *
 637:Generated_Source\PSoC4/USB_UART_UART.c ****         *  Sets level in the RX FIFO for RTS signal activation.
 638:Generated_Source\PSoC4/USB_UART_UART.c ****         *  While the RX FIFO has fewer entries than the RX FIFO level the RTS signal
 639:Generated_Source\PSoC4/USB_UART_UART.c ****         *  remains active, otherwise the RTS signal becomes inactive.
 640:Generated_Source\PSoC4/USB_UART_UART.c ****         *  Only available for PSoC 4100 BLE / PSoC 4200 BLE / PSoC 4100M / PSoC 4200M /
 641:Generated_Source\PSoC4/USB_UART_UART.c ****         *  PSoC 4200L / PSoC 4000S / PSoC 4100S / PSoC Analog Coprocessor devices.
 642:Generated_Source\PSoC4/USB_UART_UART.c ****         *
 643:Generated_Source\PSoC4/USB_UART_UART.c ****         *  \param level: Level in the RX FIFO for RTS signal activation.
 644:Generated_Source\PSoC4/USB_UART_UART.c ****         *   The range of valid level values is between 0 and RX FIFO depth - 1.
 645:Generated_Source\PSoC4/USB_UART_UART.c ****         *   Setting level value to 0 disables RTS signal activation.
 646:Generated_Source\PSoC4/USB_UART_UART.c ****         *
 647:Generated_Source\PSoC4/USB_UART_UART.c ****         *******************************************************************************/
 648:Generated_Source\PSoC4/USB_UART_UART.c ****         void USB_UART_UartSetRtsFifoLevel(uint32 level)
 649:Generated_Source\PSoC4/USB_UART_UART.c ****         {
 650:Generated_Source\PSoC4/USB_UART_UART.c ****             uint32 uartFlowCtrl;
 651:Generated_Source\PSoC4/USB_UART_UART.c **** 
 652:Generated_Source\PSoC4/USB_UART_UART.c ****             uartFlowCtrl = USB_UART_UART_FLOW_CTRL_REG;
 653:Generated_Source\PSoC4/USB_UART_UART.c **** 
 654:Generated_Source\PSoC4/USB_UART_UART.c ****             uartFlowCtrl &= ((uint32) ~USB_UART_UART_FLOW_CTRL_TRIGGER_LEVEL_MASK); /* Clear level 
 655:Generated_Source\PSoC4/USB_UART_UART.c ****             uartFlowCtrl |= ((uint32) (USB_UART_UART_FLOW_CTRL_TRIGGER_LEVEL_MASK & level));
 656:Generated_Source\PSoC4/USB_UART_UART.c **** 
 657:Generated_Source\PSoC4/USB_UART_UART.c ****             USB_UART_UART_FLOW_CTRL_REG = uartFlowCtrl;
 658:Generated_Source\PSoC4/USB_UART_UART.c ****         }
 659:Generated_Source\PSoC4/USB_UART_UART.c ****     #endif /* !(USB_UART_CY_SCBIP_V0 || USB_UART_CY_SCBIP_V1) */
 660:Generated_Source\PSoC4/USB_UART_UART.c **** 
 661:Generated_Source\PSoC4/USB_UART_UART.c **** #endif /* (USB_UART_UART_RX_DIRECTION) */
 662:Generated_Source\PSoC4/USB_UART_UART.c **** 
 663:Generated_Source\PSoC4/USB_UART_UART.c **** 
 664:Generated_Source\PSoC4/USB_UART_UART.c **** #if(USB_UART_UART_TX_DIRECTION)
 665:Generated_Source\PSoC4/USB_UART_UART.c ****     /*******************************************************************************
 666:Generated_Source\PSoC4/USB_UART_UART.c ****     * Function Name: USB_UART_UartPutString
 667:Generated_Source\PSoC4/USB_UART_UART.c ****     ****************************************************************************//**
 668:Generated_Source\PSoC4/USB_UART_UART.c ****     *
 669:Generated_Source\PSoC4/USB_UART_UART.c ****     *  Places a NULL terminated string in the transmit buffer to be sent at the
 670:Generated_Source\PSoC4/USB_UART_UART.c ****     *  next available bus time.
 671:Generated_Source\PSoC4/USB_UART_UART.c ****     *  This function is blocking and waits until there is a space available to put
 672:Generated_Source\PSoC4/USB_UART_UART.c ****     *  requested data in transmit buffer.
 673:Generated_Source\PSoC4/USB_UART_UART.c ****     *
 674:Generated_Source\PSoC4/USB_UART_UART.c ****     *  \param string: pointer to the null terminated string array to be placed in the
 675:Generated_Source\PSoC4/USB_UART_UART.c ****     *   transmit buffer.
 676:Generated_Source\PSoC4/USB_UART_UART.c ****     *
 677:Generated_Source\PSoC4/USB_UART_UART.c ****     *******************************************************************************/
 678:Generated_Source\PSoC4/USB_UART_UART.c ****     void USB_UART_UartPutString(const char8 string[])
 679:Generated_Source\PSoC4/USB_UART_UART.c ****     {
 398              		.loc 1 679 0
 399              		.cfi_startproc
 400              		@ args = 0, pretend = 0, frame = 0
 401              		@ frame_needed = 0, uses_anonymous_args = 0
 402              	.LVL24:
ARM GAS  C:\Users\Ray\AppData\Local\Temp\ccvuhT2i.s 			page 20


 403 0000 70B5     		push	{r4, r5, r6, lr}
 404              		.cfi_def_cfa_offset 16
 405              		.cfi_offset 4, -16
 406              		.cfi_offset 5, -12
 407              		.cfi_offset 6, -8
 408              		.cfi_offset 14, -4
 409 0002 0500     		movs	r5, r0
 410              	.LVL25:
 680:Generated_Source\PSoC4/USB_UART_UART.c ****         uint32 bufIndex;
 681:Generated_Source\PSoC4/USB_UART_UART.c **** 
 682:Generated_Source\PSoC4/USB_UART_UART.c ****         bufIndex = 0u;
 411              		.loc 1 682 0
 412 0004 0024     		movs	r4, #0
 683:Generated_Source\PSoC4/USB_UART_UART.c **** 
 684:Generated_Source\PSoC4/USB_UART_UART.c ****         /* Blocks the control flow until all data has been sent */
 685:Generated_Source\PSoC4/USB_UART_UART.c ****         while(string[bufIndex] != ((char8) 0))
 413              		.loc 1 685 0
 414 0006 02E0     		b	.L28
 415              	.LVL26:
 416              	.L29:
 686:Generated_Source\PSoC4/USB_UART_UART.c ****         {
 687:Generated_Source\PSoC4/USB_UART_UART.c ****             USB_UART_UartPutChar((uint32) string[bufIndex]);
 417              		.loc 1 687 0
 418 0008 FFF7FEFF 		bl	USB_UART_SpiUartWriteTxData
 419              	.LVL27:
 688:Generated_Source\PSoC4/USB_UART_UART.c ****             bufIndex++;
 420              		.loc 1 688 0
 421 000c 0134     		adds	r4, r4, #1
 422              	.LVL28:
 423              	.L28:
 685:Generated_Source\PSoC4/USB_UART_UART.c ****         {
 424              		.loc 1 685 0
 425 000e 285D     		ldrb	r0, [r5, r4]
 426 0010 0028     		cmp	r0, #0
 427 0012 F9D1     		bne	.L29
 689:Generated_Source\PSoC4/USB_UART_UART.c ****         }
 690:Generated_Source\PSoC4/USB_UART_UART.c ****     }
 428              		.loc 1 690 0
 429              		@ sp needed
 430              	.LVL29:
 431              	.LVL30:
 432 0014 70BD     		pop	{r4, r5, r6, pc}
 433              		.cfi_endproc
 434              	.LFE7:
 435              		.size	USB_UART_UartPutString, .-USB_UART_UartPutString
 436 0016 C046     		.section	.text.USB_UART_UartPutCRLF,"ax",%progbits
 437              		.align	2
 438              		.global	USB_UART_UartPutCRLF
 439              		.code	16
 440              		.thumb_func
 441              		.type	USB_UART_UartPutCRLF, %function
 442              	USB_UART_UartPutCRLF:
 443              	.LFB8:
 691:Generated_Source\PSoC4/USB_UART_UART.c **** 
 692:Generated_Source\PSoC4/USB_UART_UART.c **** 
 693:Generated_Source\PSoC4/USB_UART_UART.c ****     /*******************************************************************************
 694:Generated_Source\PSoC4/USB_UART_UART.c ****     * Function Name: USB_UART_UartPutCRLF
ARM GAS  C:\Users\Ray\AppData\Local\Temp\ccvuhT2i.s 			page 21


 695:Generated_Source\PSoC4/USB_UART_UART.c ****     ****************************************************************************//**
 696:Generated_Source\PSoC4/USB_UART_UART.c ****     *
 697:Generated_Source\PSoC4/USB_UART_UART.c ****     *  Places byte of data followed by a carriage return (0x0D) and line feed
 698:Generated_Source\PSoC4/USB_UART_UART.c ****     *  (0x0A) in the transmit buffer.
 699:Generated_Source\PSoC4/USB_UART_UART.c ****     *  This function is blocking and waits until there is a space available to put
 700:Generated_Source\PSoC4/USB_UART_UART.c ****     *  all requested data in transmit buffer.
 701:Generated_Source\PSoC4/USB_UART_UART.c ****     *
 702:Generated_Source\PSoC4/USB_UART_UART.c ****     *  \param txDataByte: the data to be transmitted.
 703:Generated_Source\PSoC4/USB_UART_UART.c ****     *
 704:Generated_Source\PSoC4/USB_UART_UART.c ****     *******************************************************************************/
 705:Generated_Source\PSoC4/USB_UART_UART.c ****     void USB_UART_UartPutCRLF(uint32 txDataByte)
 706:Generated_Source\PSoC4/USB_UART_UART.c ****     {
 444              		.loc 1 706 0
 445              		.cfi_startproc
 446              		@ args = 0, pretend = 0, frame = 0
 447              		@ frame_needed = 0, uses_anonymous_args = 0
 448              	.LVL31:
 449 0000 10B5     		push	{r4, lr}
 450              		.cfi_def_cfa_offset 8
 451              		.cfi_offset 4, -8
 452              		.cfi_offset 14, -4
 707:Generated_Source\PSoC4/USB_UART_UART.c ****         USB_UART_UartPutChar(txDataByte);  /* Blocks control flow until all data has been sent */
 453              		.loc 1 707 0
 454 0002 FFF7FEFF 		bl	USB_UART_SpiUartWriteTxData
 455              	.LVL32:
 708:Generated_Source\PSoC4/USB_UART_UART.c ****         USB_UART_UartPutChar(0x0Du);       /* Blocks control flow until all data has been sent */
 456              		.loc 1 708 0
 457 0006 0D20     		movs	r0, #13
 458 0008 FFF7FEFF 		bl	USB_UART_SpiUartWriteTxData
 459              	.LVL33:
 709:Generated_Source\PSoC4/USB_UART_UART.c ****         USB_UART_UartPutChar(0x0Au);       /* Blocks control flow until all data has been sent */
 460              		.loc 1 709 0
 461 000c 0A20     		movs	r0, #10
 462 000e FFF7FEFF 		bl	USB_UART_SpiUartWriteTxData
 463              	.LVL34:
 710:Generated_Source\PSoC4/USB_UART_UART.c ****     }
 464              		.loc 1 710 0
 465              		@ sp needed
 466 0012 10BD     		pop	{r4, pc}
 467              		.cfi_endproc
 468              	.LFE8:
 469              		.size	USB_UART_UartPutCRLF, .-USB_UART_UartPutCRLF
 470              		.text
 471              	.Letext0:
 472              		.file 2 "Generated_Source\\PSoC4/cytypes.h"
 473              		.file 3 "Generated_Source\\PSoC4\\USB_UART_SPI_UART.h"
 474              		.file 4 "Generated_Source\\PSoC4\\USB_UART_PVT.h"