ARM GAS  C:\Users\Ray\AppData\Local\Temp\ccjGz0N9.s 			page 1


   1              		.syntax unified
   2              		.cpu cortex-m0
   3              		.fpu softvfp
   4              		.eabi_attribute 20, 1
   5              		.eabi_attribute 21, 1
   6              		.eabi_attribute 23, 3
   7              		.eabi_attribute 24, 1
   8              		.eabi_attribute 25, 1
   9              		.eabi_attribute 26, 1
  10              		.eabi_attribute 30, 4
  11              		.eabi_attribute 34, 0
  12              		.eabi_attribute 18, 4
  13              		.thumb
  14              		.syntax unified
  15              		.file	"main.c"
  16              		.text
  17              	.Ltext0:
  18              		.cfi_sections	.debug_frame
  19              		.section	.text.Reset_ISR,"ax",%progbits
  20              		.align	1
  21              		.global	Reset_ISR
  22              		.code	16
  23              		.thumb_func
  24              		.type	Reset_ISR, %function
  25              	Reset_ISR:
  26              	.LFB36:
  27              		.file 1 "main.c"
   1:main.c        **** /* ========================================
   2:main.c        ****  *
   3:main.c        ****  * Copyright YOUR COMPANY, THE YEAR
   4:main.c        ****  * All Rights Reserved
   5:main.c        ****  * UNPUBLISHED, LICENSED SOFTWARE.
   6:main.c        ****  *
   7:main.c        ****  * CONFIDENTIAL AND PROPRIETARY INFORMATION
   8:main.c        ****  * WHICH IS THE PROPERTY OF your company.
   9:main.c        ****  *
  10:main.c        ****  * ========================================
  11:main.c        **** */
  12:main.c        **** #include "project.h"
  13:main.c        **** #include <stdlib.h>
  14:main.c        **** #include <string.h>
  15:main.c        **** //This is needed for the default communication between the BANK and DISPLAY over the USB-UART
  16:main.c        **** #include "usbserialprotocol.h"
  17:main.c        **** #include "SW1.h"
  18:main.c        **** #include <strong-arm/sha256.h>
  19:main.c        **** #include <strong-arm/aes.h>
  20:main.c        **** #include <strong-arm/hmac.h>
  21:main.c        **** #include <stdio.h>
  22:main.c        **** 
  23:main.c        **** 
  24:main.c        **** // SECURITY MODULE
  25:main.c        **** 
  26:main.c        **** #define MAX_BILLS 128
  27:main.c        **** #define BILL_LEN 16
  28:main.c        **** #define UUID_LEN 36
  29:main.c        **** #define NONCE_LEN 4
  30:main.c        **** #define DECRYPT '1'
ARM GAS  C:\Users\Ray\AppData\Local\Temp\ccjGz0N9.s 			page 2


  31:main.c        **** #define DISPENSE_BILLS '2'
  32:main.c        **** #define GET_UUID '3'
  33:main.c        **** #define PROV_MSG "P"
  34:main.c        **** #define WITH_OK "K"
  35:main.c        **** #define WITH_BAD "BAD"
  36:main.c        **** #define RECV_OK "K"
  37:main.c        **** #define EMPTY "EMPTY"
  38:main.c        **** #define EMPTY_BILL "*****EMPTY*****"
  39:main.c        **** 
  40:main.c        **** /* 
  41:main.c        ****  * How to read from EEPROM (persistent memory):
  42:main.c        ****  * 
  43:main.c        ****  * // read variable:
  44:main.c        ****  * static const uint8 EEPROM_BUF_VAR[len] = { val1, val2, ... };
  45:main.c        ****  * // write variable:
  46:main.c        ****  * volatile const uint8 *ptr = EEPROM_BUF_VAR;
  47:main.c        ****  * 
  48:main.c        ****  * uint8 val1 = *ptr;
  49:main.c        ****  * uint8 buf[4] = { 0x01, 0x02, 0x03, 0x04 };
  50:main.c        ****  * USER_INFO_Write(message, EEPROM_BUF_VAR, 4u); 
  51:main.c        ****  */
  52:main.c        **** 
  53:main.c        **** // global EEPROM read variables
  54:main.c        **** static const uint8 MONEY[MAX_BILLS][BILL_LEN] = {EMPTY_BILL};
  55:main.c        **** static const uint8 UUID[UUID_LEN + 1] = {'b', 'l', 'a', 'n', 'k', ' ', 
  56:main.c        ****                                         'u', 'u', 'i', 'd', '!', 0x00 };
  57:main.c        **** static const uint8 BANK_AES_KEY[33] = { 0x00 };
  58:main.c        **** static const uint8 NONCE[5] = {'b', 'l', 'a', 'n', 0x00};
  59:main.c        **** static const uint8 BILLS_LEFT[1] = {0x00};
  60:main.c        **** 
  61:main.c        **** 
  62:main.c        **** uint8_t hex2byte(char upper_digit, char lower_digit)
  63:main.c        **** {
  64:main.c        ****     uint8_t value = 0;
  65:main.c        ****     
  66:main.c        ****     // Lower nybble.
  67:main.c        ****     if(lower_digit >= '0' && lower_digit <= '9')
  68:main.c        ****     {
  69:main.c        ****         value = lower_digit - '0';
  70:main.c        ****     }
  71:main.c        ****     else if(lower_digit >= 'a' && lower_digit <= 'f')
  72:main.c        ****     {
  73:main.c        ****         value = lower_digit - 'a' + 0xA;
  74:main.c        ****     }
  75:main.c        ****     else if(lower_digit >= 'A' && lower_digit <= 'F')
  76:main.c        ****     {
  77:main.c        ****         value = lower_digit - 'A' + 0xA;
  78:main.c        ****     }
  79:main.c        ****     
  80:main.c        ****     // Upper nybble.
  81:main.c        ****     if(upper_digit >= '0' && upper_digit <= '9')
  82:main.c        ****     {
  83:main.c        ****         value |= (upper_digit - '0') << 4;
  84:main.c        ****     }
  85:main.c        ****     else if(upper_digit >= 'a' && upper_digit <= 'f')
  86:main.c        ****     {
  87:main.c        ****         value |= (upper_digit - 'a' + 0xA) << 4;
ARM GAS  C:\Users\Ray\AppData\Local\Temp\ccjGz0N9.s 			page 3


  88:main.c        ****     }
  89:main.c        ****     else if(upper_digit >= 'A' && upper_digit <= 'F')
  90:main.c        ****     {
  91:main.c        ****         value |= (upper_digit - 'A' + 0xA) << 4;
  92:main.c        ****     }
  93:main.c        ****     
  94:main.c        ****     // Return result.
  95:main.c        ****     return value;
  96:main.c        **** }
  97:main.c        **** 
  98:main.c        **** void bytes2hex(uint8_t byte, char* dest)
  99:main.c        **** {       
 100:main.c        ****     sprintf(dest, "%02X", byte);
 101:main.c        **** }
 102:main.c        **** 
 103:main.c        **** /*
 104:main.c        **** * Returns 1 if they match, 0 if they don't
 105:main.c        **** */
 106:main.c        **** bool check_hmac(uint8 hmac_to_check[32], uint8 hmac_output[32]){
 107:main.c        ****     int match = 1;
 108:main.c        ****     for (int i = 0; i < 32; i++){
 109:main.c        ****         if (hmac_to_check[i] != hmac_output[i]) {
 110:main.c        ****             match = 0;
 111:main.c        ****         }
 112:main.c        ****     }
 113:main.c        **** 
 114:main.c        ****     return match;
 115:main.c        **** }
 116:main.c        **** 
 117:main.c        **** 
 118:main.c        **** // reset interrupt on button press
 119:main.c        **** CY_ISR(Reset_ISR)
 120:main.c        **** {
  28              		.loc 1 120 0
  29              		.cfi_startproc
  30              		@ args = 0, pretend = 0, frame = 0
  31              		@ frame_needed = 0, uses_anonymous_args = 0
  32 0000 10B5     		push	{r4, lr}
  33              		.cfi_def_cfa_offset 8
  34              		.cfi_offset 4, -8
  35              		.cfi_offset 14, -4
 121:main.c        ****     pushMessage((uint8*)"In interrupt\n", strlen("In interrupt\n"));
  36              		.loc 1 121 0
  37 0002 0D21     		movs	r1, #13
  38 0004 0348     		ldr	r0, .L2
  39 0006 FFF7FEFF 		bl	pushMessage
  40              	.LVL0:
 122:main.c        ****     SW1_ClearInterrupt();
 123:main.c        ****     CySoftwareReset();
 124:main.c        **** }
  41              		.loc 1 124 0
  42              		@ sp needed
 122:main.c        ****     SW1_ClearInterrupt();
  43              		.loc 1 122 0
  44 000a FFF7FEFF 		bl	SW1_ClearInterrupt
  45              	.LVL1:
 123:main.c        **** }
ARM GAS  C:\Users\Ray\AppData\Local\Temp\ccjGz0N9.s 			page 4


  46              		.loc 1 123 0
  47 000e FFF7FEFF 		bl	CySoftwareReset
  48              	.LVL2:
  49              		.loc 1 124 0
  50 0012 10BD     		pop	{r4, pc}
  51              	.L3:
  52              		.align	2
  53              	.L2:
  54 0014 00000000 		.word	.LC0
  55              		.cfi_endproc
  56              	.LFE36:
  57              		.size	Reset_ISR, .-Reset_ISR
  58              		.section	.text.hex2byte,"ax",%progbits
  59              		.align	1
  60              		.global	hex2byte
  61              		.code	16
  62              		.thumb_func
  63              		.type	hex2byte, %function
  64              	hex2byte:
  65              	.LFB33:
  63:main.c        ****     uint8_t value = 0;
  66              		.loc 1 63 0
  67              		.cfi_startproc
  68              		@ args = 0, pretend = 0, frame = 0
  69              		@ frame_needed = 0, uses_anonymous_args = 0
  70              		@ link register save eliminated.
  71              	.LVL3:
  63:main.c        ****     uint8_t value = 0;
  72              		.loc 1 63 0
  73 0000 0300     		movs	r3, r0
  67:main.c        ****     {
  74              		.loc 1 67 0
  75 0002 0800     		movs	r0, r1
  76              	.LVL4:
  77 0004 3038     		subs	r0, r0, #48
  78 0006 C0B2     		uxtb	r0, r0
  79 0008 0928     		cmp	r0, #9
  80 000a 0CD9     		bls	.L5
  71:main.c        ****     {
  81              		.loc 1 71 0
  82 000c 0A00     		movs	r2, r1
  83 000e 613A     		subs	r2, r2, #97
  84 0010 052A     		cmp	r2, #5
  85 0012 01D8     		bhi	.L6
  73:main.c        ****     }
  86              		.loc 1 73 0
  87 0014 5739     		subs	r1, r1, #87
  88              	.LVL5:
  89 0016 05E0     		b	.L11
  90              	.LVL6:
  91              	.L6:
  75:main.c        ****     {
  92              		.loc 1 75 0
  93 0018 0A00     		movs	r2, r1
  94 001a 413A     		subs	r2, r2, #65
  64:main.c        ****     
  95              		.loc 1 64 0
ARM GAS  C:\Users\Ray\AppData\Local\Temp\ccjGz0N9.s 			page 5


  96 001c 0020     		movs	r0, #0
  75:main.c        ****     {
  97              		.loc 1 75 0
  98 001e 052A     		cmp	r2, #5
  99 0020 01D8     		bhi	.L5
  77:main.c        ****     }
 100              		.loc 1 77 0
 101 0022 3739     		subs	r1, r1, #55
 102              	.LVL7:
 103              	.L11:
 104 0024 C8B2     		uxtb	r0, r1
 105              	.LVL8:
 106              	.L5:
  81:main.c        ****     {
 107              		.loc 1 81 0
 108 0026 1A00     		movs	r2, r3
 109 0028 303A     		subs	r2, r2, #48
 110 002a D1B2     		uxtb	r1, r2
 111 002c 0929     		cmp	r1, #9
 112 002e 03D8     		bhi	.L7
  83:main.c        ****     }
 113              		.loc 1 83 0
 114 0030 1201     		lsls	r2, r2, #4
 115 0032 0243     		orrs	r2, r0
 116 0034 1100     		movs	r1, r2
 117 0036 07E0     		b	.L12
 118              	.L7:
  85:main.c        ****     {
 119              		.loc 1 85 0
 120 0038 1A00     		movs	r2, r3
 121 003a 613A     		subs	r2, r2, #97
 122 003c 052A     		cmp	r2, #5
 123 003e 05D8     		bhi	.L9
  87:main.c        ****     }
 124              		.loc 1 87 0
 125 0040 573B     		subs	r3, r3, #87
 126 0042 1B01     		lsls	r3, r3, #4
 127 0044 0343     		orrs	r3, r0
 128 0046 1900     		movs	r1, r3
 129              	.L12:
 130 0048 C8B2     		uxtb	r0, r1
 131              	.LVL9:
 132 004a 07E0     		b	.L8
 133              	.L9:
  89:main.c        ****     {
 134              		.loc 1 89 0
 135 004c 1A00     		movs	r2, r3
 136 004e 413A     		subs	r2, r2, #65
 137 0050 052A     		cmp	r2, #5
 138 0052 03D8     		bhi	.L8
  91:main.c        ****     }
 139              		.loc 1 91 0
 140 0054 373B     		subs	r3, r3, #55
 141 0056 1B01     		lsls	r3, r3, #4
 142 0058 1843     		orrs	r0, r3
 143              	.LVL10:
 144 005a C0B2     		uxtb	r0, r0
ARM GAS  C:\Users\Ray\AppData\Local\Temp\ccjGz0N9.s 			page 6


 145              	.LVL11:
 146              	.L8:
  96:main.c        **** 
 147              		.loc 1 96 0
 148              		@ sp needed
 149 005c 7047     		bx	lr
 150              		.cfi_endproc
 151              	.LFE33:
 152              		.size	hex2byte, .-hex2byte
 153              		.section	.text.bytes2hex,"ax",%progbits
 154              		.align	1
 155              		.global	bytes2hex
 156              		.code	16
 157              		.thumb_func
 158              		.type	bytes2hex, %function
 159              	bytes2hex:
 160              	.LFB34:
  99:main.c        ****     sprintf(dest, "%02X", byte);
 161              		.loc 1 99 0
 162              		.cfi_startproc
 163              		@ args = 0, pretend = 0, frame = 0
 164              		@ frame_needed = 0, uses_anonymous_args = 0
 165              	.LVL12:
 166 0000 10B5     		push	{r4, lr}
 167              		.cfi_def_cfa_offset 8
 168              		.cfi_offset 4, -8
 169              		.cfi_offset 14, -4
  99:main.c        ****     sprintf(dest, "%02X", byte);
 170              		.loc 1 99 0
 171 0002 0200     		movs	r2, r0
 172 0004 0800     		movs	r0, r1
 173              	.LVL13:
 100:main.c        **** }
 174              		.loc 1 100 0
 175 0006 0249     		ldr	r1, .L15
 176              	.LVL14:
 177 0008 FFF7FEFF 		bl	sprintf
 178              	.LVL15:
 101:main.c        **** 
 179              		.loc 1 101 0
 180              		@ sp needed
 181 000c 10BD     		pop	{r4, pc}
 182              	.L16:
 183 000e C046     		.align	2
 184              	.L15:
 185 0010 0E000000 		.word	.LC2
 186              		.cfi_endproc
 187              	.LFE34:
 188              		.size	bytes2hex, .-bytes2hex
 189              		.section	.text.check_hmac,"ax",%progbits
 190              		.align	1
 191              		.global	check_hmac
 192              		.code	16
 193              		.thumb_func
 194              		.type	check_hmac, %function
 195              	check_hmac:
 196              	.LFB35:
ARM GAS  C:\Users\Ray\AppData\Local\Temp\ccjGz0N9.s 			page 7


 106:main.c        ****     int match = 1;
 197              		.loc 1 106 0
 198              		.cfi_startproc
 199              		@ args = 0, pretend = 0, frame = 0
 200              		@ frame_needed = 0, uses_anonymous_args = 0
 201              	.LVL16:
 202              	.LBB2:
 108:main.c        ****         if (hmac_to_check[i] != hmac_output[i]) {
 203              		.loc 1 108 0
 204 0000 0023     		movs	r3, #0
 205              	.LBE2:
 107:main.c        ****     for (int i = 0; i < 32; i++){
 206              		.loc 1 107 0
 207 0002 0122     		movs	r2, #1
 106:main.c        ****     int match = 1;
 208              		.loc 1 106 0
 209 0004 30B5     		push	{r4, r5, lr}
 210              		.cfi_def_cfa_offset 12
 211              		.cfi_offset 4, -12
 212              		.cfi_offset 5, -8
 213              		.cfi_offset 14, -4
 214              	.LVL17:
 215              	.L19:
 216              	.LBB3:
 109:main.c        ****             match = 0;
 217              		.loc 1 109 0
 218 0006 C55C     		ldrb	r5, [r0, r3]
 219 0008 CC5C     		ldrb	r4, [r1, r3]
 220 000a A542     		cmp	r5, r4
 221 000c 00D0     		beq	.L18
 110:main.c        ****         }
 222              		.loc 1 110 0
 223 000e 0022     		movs	r2, #0
 224              	.LVL18:
 225              	.L18:
 108:main.c        ****         if (hmac_to_check[i] != hmac_output[i]) {
 226              		.loc 1 108 0 discriminator 2
 227 0010 0133     		adds	r3, r3, #1
 228              	.LVL19:
 229 0012 202B     		cmp	r3, #32
 230 0014 F7D1     		bne	.L19
 231              	.LBE3:
 114:main.c        **** }
 232              		.loc 1 114 0
 233 0016 1000     		movs	r0, r2
 234              	.LVL20:
 115:main.c        **** 
 235              		.loc 1 115 0
 236              		@ sp needed
 237 0018 30BD     		pop	{r4, r5, pc}
 238              		.cfi_endproc
 239              	.LFE35:
 240              		.size	check_hmac, .-check_hmac
 241              		.section	.text.provision,"ax",%progbits
 242              		.align	1
 243              		.global	provision
 244              		.code	16
ARM GAS  C:\Users\Ray\AppData\Local\Temp\ccjGz0N9.s 			page 8


 245              		.thumb_func
 246              		.type	provision, %function
 247              	provision:
 248              	.LFB37:
 125:main.c        **** 
 126:main.c        **** // provisions HSM (should only ever be called once)
 127:main.c        **** void provision()
 128:main.c        **** {
 249              		.loc 1 128 0
 250              		.cfi_startproc
 251              		@ args = 0, pretend = 0, frame = 224
 252              		@ frame_needed = 0, uses_anonymous_args = 0
 253 0000 F0B5     		push	{r4, r5, r6, r7, lr}
 254              		.cfi_def_cfa_offset 20
 255              		.cfi_offset 4, -20
 256              		.cfi_offset 5, -16
 257              		.cfi_offset 6, -12
 258              		.cfi_offset 7, -8
 259              		.cfi_offset 14, -4
 260 0002 B9B0     		sub	sp, sp, #228
 261              		.cfi_def_cfa_offset 248
 129:main.c        ****     int i;
 130:main.c        ****     uint8 message[109] = {0x00};
 262              		.loc 1 130 0
 263 0004 1CAC     		add	r4, sp, #112
 264 0006 6D22     		movs	r2, #109
 265 0008 0021     		movs	r1, #0
 266 000a 2000     		movs	r0, r4
 131:main.c        ****     uint8 numbills;
 132:main.c        ****     
 133:main.c        ****     for(i = 0; i < 128; i++) {
 267              		.loc 1 133 0
 268 000c 8026     		movs	r6, #128
 130:main.c        ****     uint8 numbills;
 269              		.loc 1 130 0
 270 000e FFF7FEFF 		bl	memset
 271              	.LVL21:
 272 0012 0025     		movs	r5, #0
 273              		.loc 1 133 0
 274 0014 3601     		lsls	r6, r6, #4
 275              	.LVL22:
 276              	.L22:
 134:main.c        ****         PIGGY_BANK_Write((uint8*)EMPTY_BILL, MONEY[i], BILL_LEN);
 277              		.loc 1 134 0 discriminator 3
 278 0016 314F     		ldr	r7, .L29
 279 0018 1022     		movs	r2, #16
 280 001a 7919     		adds	r1, r7, r5
 281 001c 3048     		ldr	r0, .L29+4
 282 001e 1035     		adds	r5, r5, #16
 283 0020 FFF7FEFF 		bl	PIGGY_BANK_Write
 284              	.LVL23:
 285 0024 0197     		str	r7, [sp, #4]
 133:main.c        ****         PIGGY_BANK_Write((uint8*)EMPTY_BILL, MONEY[i], BILL_LEN);
 286              		.loc 1 133 0 discriminator 3
 287 0026 B542     		cmp	r5, r6
 288 0028 F5D1     		bne	.L22
 135:main.c        ****     }
ARM GAS  C:\Users\Ray\AppData\Local\Temp\ccjGz0N9.s 			page 9


 136:main.c        ****     
 137:main.c        ****     // synchronize with atm
 138:main.c        ****     syncConnection(SYNC_PROV);
 289              		.loc 1 138 0
 290 002a 0120     		movs	r0, #1
 291 002c FFF7FEFF 		bl	syncConnection
 292              	.LVL24:
 139:main.c        ****  
 140:main.c        ****     strcpy((char*)message, PROV_MSG);
 293              		.loc 1 140 0
 294 0030 2C49     		ldr	r1, .L29+8
 295 0032 2000     		movs	r0, r4
 296 0034 FFF7FEFF 		bl	strcpy
 297              	.LVL25:
 141:main.c        ****     pushMessage(message, (uint8)strlen(PROV_MSG));
 298              		.loc 1 141 0
 299 0038 0121     		movs	r1, #1
 300 003a 2000     		movs	r0, r4
 301 003c FFF7FEFF 		bl	pushMessage
 302              	.LVL26:
 142:main.c        ****     
 143:main.c        ****         
 144:main.c        ****     // Set blob
 145:main.c        ****     pullMessage(message);
 146:main.c        ****     char hex_bank_key[64];
 147:main.c        ****     memcpy(hex_bank_key, message, sizeof(hex_bank_key));
 303              		.loc 1 147 0
 304 0040 0CAE     		add	r6, sp, #48
 145:main.c        ****     char hex_bank_key[64];
 305              		.loc 1 145 0
 306 0042 2000     		movs	r0, r4
 307 0044 FFF7FEFF 		bl	pullMessage
 308              	.LVL27:
 309              		.loc 1 147 0
 310 0048 4022     		movs	r2, #64
 311 004a 2100     		movs	r1, r4
 312 004c 3000     		movs	r0, r6
 313 004e FFF7FEFF 		bl	memcpy
 314              	.LVL28:
 315              	.LBB4:
 148:main.c        **** 
 149:main.c        ****     uint8 bank_key[32];
 150:main.c        **** 
 151:main.c        ****     for(int i = 0; i < 32; ++i)
 316              		.loc 1 151 0
 317 0052 0025     		movs	r5, #0
 318              	.LVL29:
 319              	.L23:
 320 0054 6B00     		lsls	r3, r5, #1
 152:main.c        ****     {
 153:main.c        ****         bank_key[i] = hex2byte(hex_bank_key[2*i], hex_bank_key[2*i + 1]);
 321              		.loc 1 153 0 discriminator 3
 322 0056 F218     		adds	r2, r6, r3
 323 0058 F05C     		ldrb	r0, [r6, r3]
 324 005a 5178     		ldrb	r1, [r2, #1]
 325 005c FFF7FEFF 		bl	hex2byte
 326              	.LVL30:
ARM GAS  C:\Users\Ray\AppData\Local\Temp\ccjGz0N9.s 			page 10


 327 0060 04AB     		add	r3, sp, #16
 328 0062 E854     		strb	r0, [r5, r3]
 151:main.c        ****     {
 329              		.loc 1 151 0 discriminator 3
 330 0064 0135     		adds	r5, r5, #1
 331              	.LVL31:
 332 0066 202D     		cmp	r5, #32
 333 0068 F4D1     		bne	.L23
 334              	.LBE4:
 154:main.c        ****     }
 155:main.c        **** 
 156:main.c        ****     PIGGY_BANK_Write(bank_key, BANK_AES_KEY, sizeof(bank_key));
 335              		.loc 1 156 0
 336 006a 1F4E     		ldr	r6, .L29+12
 337 006c 1800     		movs	r0, r3
 338 006e 2A00     		movs	r2, r5
 339 0070 3100     		movs	r1, r6
 340 0072 FFF7FEFF 		bl	PIGGY_BANK_Write
 341              	.LVL32:
 157:main.c        ****     PIGGY_BANK_Write(message + sizeof(hex_bank_key), UUID, UUID_LEN);
 342              		.loc 1 157 0
 343 0076 3100     		movs	r1, r6
 344 0078 2422     		movs	r2, #36
 345 007a 2131     		adds	r1, r1, #33
 346 007c 2CA8     		add	r0, sp, #176
 347 007e FFF7FEFF 		bl	PIGGY_BANK_Write
 348              	.LVL33:
 158:main.c        **** 
 159:main.c        ****     pushMessage((uint8*)RECV_OK, strlen(RECV_OK));
 349              		.loc 1 159 0
 350 0082 1A4D     		ldr	r5, .L29+16
 351              	.LVL34:
 352 0084 0121     		movs	r1, #1
 353 0086 2800     		movs	r0, r5
 354 0088 FFF7FEFF 		bl	pushMessage
 355              	.LVL35:
 160:main.c        ****     
 161:main.c        ****     // Get numbills
 162:main.c        ****     pullMessage(message);
 356              		.loc 1 162 0
 357 008c 2000     		movs	r0, r4
 358 008e FFF7FEFF 		bl	pullMessage
 359              	.LVL36:
 163:main.c        ****     numbills = message[0];
 164:main.c        ****     PIGGY_BANK_Write(&numbills, BILLS_LEFT, 1u);
 360              		.loc 1 164 0
 361 0092 3100     		movs	r1, r6
 163:main.c        ****     numbills = message[0];
 362              		.loc 1 163 0
 363 0094 02AB     		add	r3, sp, #8
 364 0096 DF1D     		adds	r7, r3, #7
 365 0098 2378     		ldrb	r3, [r4]
 366              		.loc 1 164 0
 367 009a 4631     		adds	r1, r1, #70
 368 009c 0122     		movs	r2, #1
 369 009e 3800     		movs	r0, r7
 163:main.c        ****     numbills = message[0];
ARM GAS  C:\Users\Ray\AppData\Local\Temp\ccjGz0N9.s 			page 11


 370              		.loc 1 163 0
 371 00a0 3B70     		strb	r3, [r7]
 372              		.loc 1 164 0
 373 00a2 FFF7FEFF 		bl	PIGGY_BANK_Write
 374              	.LVL37:
 165:main.c        ****     pushMessage((uint8*)RECV_OK, strlen(RECV_OK));
 375              		.loc 1 165 0
 376 00a6 0121     		movs	r1, #1
 377 00a8 2800     		movs	r0, r5
 378 00aa FFF7FEFF 		bl	pushMessage
 379              	.LVL38:
 166:main.c        ****     
 167:main.c        ****     // Load bills
 168:main.c        ****     for (i = 0; i < numbills; i++) {
 380              		.loc 1 168 0
 381 00ae 0026     		movs	r6, #0
 382              	.LVL39:
 383              	.L24:
 384              		.loc 1 168 0 is_stmt 0 discriminator 1
 385 00b0 3B78     		ldrb	r3, [r7]
 386 00b2 9E42     		cmp	r6, r3
 387 00b4 0FDA     		bge	.L28
 169:main.c        ****         pullMessage(message);
 388              		.loc 1 169 0 is_stmt 1 discriminator 3
 389 00b6 2000     		movs	r0, r4
 390 00b8 FFF7FEFF 		bl	pullMessage
 391              	.LVL40:
 170:main.c        ****         PIGGY_BANK_Write(message, MONEY[i], BILL_LEN);
 392              		.loc 1 170 0 discriminator 3
 393 00bc 019B     		ldr	r3, [sp, #4]
 394 00be 3101     		lsls	r1, r6, #4
 395 00c0 5918     		adds	r1, r3, r1
 396 00c2 1022     		movs	r2, #16
 397 00c4 2000     		movs	r0, r4
 398 00c6 FFF7FEFF 		bl	PIGGY_BANK_Write
 399              	.LVL41:
 171:main.c        ****         pushMessage((uint8*)RECV_OK, strlen(RECV_OK));
 400              		.loc 1 171 0 discriminator 3
 401 00ca 0121     		movs	r1, #1
 402 00cc 2800     		movs	r0, r5
 403 00ce FFF7FEFF 		bl	pushMessage
 404              	.LVL42:
 168:main.c        ****         pullMessage(message);
 405              		.loc 1 168 0 discriminator 3
 406 00d2 0136     		adds	r6, r6, #1
 407              	.LVL43:
 408 00d4 ECE7     		b	.L24
 409              	.L28:
 172:main.c        ****     }
 173:main.c        **** }
 410              		.loc 1 173 0
 411 00d6 39B0     		add	sp, sp, #228
 412              		@ sp needed
 413              	.LVL44:
 414 00d8 F0BD     		pop	{r4, r5, r6, r7, pc}
 415              	.L30:
 416 00da C046     		.align	2
ARM GAS  C:\Users\Ray\AppData\Local\Temp\ccjGz0N9.s 			page 12


 417              	.L29:
 418 00dc 00000000 		.word	.LANCHOR0
 419 00e0 13000000 		.word	.LC7
 420 00e4 23000000 		.word	.LC9
 421 00e8 00080000 		.word	.LANCHOR1
 422 00ec 25000000 		.word	.LC12
 423              		.cfi_endproc
 424              	.LFE37:
 425              		.size	provision, .-provision
 426              		.section	.text.dispenseBill,"ax",%progbits
 427              		.align	1
 428              		.global	dispenseBill
 429              		.code	16
 430              		.thumb_func
 431              		.type	dispenseBill, %function
 432              	dispenseBill:
 433              	.LFB38:
 174:main.c        **** 
 175:main.c        **** 
 176:main.c        **** void dispenseBill()
 177:main.c        **** {
 434              		.loc 1 177 0
 435              		.cfi_startproc
 436              		@ args = 0, pretend = 0, frame = 16
 437              		@ frame_needed = 0, uses_anonymous_args = 0
 438              	.LVL45:
 439 0000 7FB5     		push	{r0, r1, r2, r3, r4, r5, r6, lr}
 440              		.cfi_def_cfa_offset 32
 441              		.cfi_offset 0, -32
 442              		.cfi_offset 1, -28
 443              		.cfi_offset 2, -24
 444              		.cfi_offset 3, -20
 445              		.cfi_offset 4, -16
 446              		.cfi_offset 5, -12
 447              		.cfi_offset 6, -8
 448              		.cfi_offset 14, -4
 178:main.c        ****     static uint8 stackloc = 0;
 179:main.c        ****     uint8 message[16];
 180:main.c        ****     volatile const uint8* ptr; 
 181:main.c        ****     
 182:main.c        ****     ptr = MONEY[stackloc];
 183:main.c        ****     
 184:main.c        ****     memset(message, 0u, 16);
 185:main.c        ****     memcpy(message, (void*)ptr, BILL_LEN);
 449              		.loc 1 185 0
 450 0002 1025     		movs	r5, #16
 182:main.c        ****     
 451              		.loc 1 182 0
 452 0004 0C4C     		ldr	r4, .L32
 453              		.loc 1 185 0
 454 0006 0D4E     		ldr	r6, .L32+4
 455 0008 2178     		ldrb	r1, [r4]
 456 000a 2A00     		movs	r2, r5
 457 000c 0901     		lsls	r1, r1, #4
 458 000e 7118     		adds	r1, r6, r1
 459 0010 6846     		mov	r0, sp
 460 0012 FFF7FEFF 		bl	memcpy
ARM GAS  C:\Users\Ray\AppData\Local\Temp\ccjGz0N9.s 			page 13


 461              	.LVL46:
 186:main.c        **** 
 187:main.c        ****     pushMessage(message, BILL_LEN);
 462              		.loc 1 187 0
 463 0016 2900     		movs	r1, r5
 464 0018 6846     		mov	r0, sp
 465 001a FFF7FEFF 		bl	pushMessage
 466              	.LVL47:
 188:main.c        ****     
 189:main.c        ****     PIGGY_BANK_Write((uint8*)EMPTY_BILL, MONEY[stackloc], 16);
 467              		.loc 1 189 0
 468 001e 2178     		ldrb	r1, [r4]
 469 0020 2A00     		movs	r2, r5
 470 0022 0901     		lsls	r1, r1, #4
 471 0024 7118     		adds	r1, r6, r1
 472 0026 0648     		ldr	r0, .L32+8
 473 0028 FFF7FEFF 		bl	PIGGY_BANK_Write
 474              	.LVL48:
 190:main.c        ****     stackloc = (stackloc + 1) % 128;
 475              		.loc 1 190 0
 476 002c 7F22     		movs	r2, #127
 477 002e 2378     		ldrb	r3, [r4]
 191:main.c        **** }
 478              		.loc 1 191 0
 479              		@ sp needed
 190:main.c        ****     stackloc = (stackloc + 1) % 128;
 480              		.loc 1 190 0
 481 0030 0133     		adds	r3, r3, #1
 482 0032 1340     		ands	r3, r2
 483 0034 2370     		strb	r3, [r4]
 484              		.loc 1 191 0
 485 0036 7FBD     		pop	{r0, r1, r2, r3, r4, r5, r6, pc}
 486              	.L33:
 487              		.align	2
 488              	.L32:
 489 0038 00000000 		.word	.LANCHOR2
 490 003c 00000000 		.word	.LANCHOR0
 491 0040 13000000 		.word	.LC7
 492              		.cfi_endproc
 493              	.LFE38:
 494              		.size	dispenseBill, .-dispenseBill
 495              		.section	.text.update_nonce,"ax",%progbits
 496              		.align	1
 497              		.global	update_nonce
 498              		.code	16
 499              		.thumb_func
 500              		.type	update_nonce, %function
 501              	update_nonce:
 502              	.LFB39:
 192:main.c        **** 
 193:main.c        **** void update_nonce(){
 503              		.loc 1 193 0
 504              		.cfi_startproc
 505              		@ args = 0, pretend = 0, frame = 8
 506              		@ frame_needed = 0, uses_anonymous_args = 0
 507 0000 07B5     		push	{r0, r1, r2, lr}
 508              		.cfi_def_cfa_offset 16
ARM GAS  C:\Users\Ray\AppData\Local\Temp\ccjGz0N9.s 			page 14


 509              		.cfi_offset 0, -16
 510              		.cfi_offset 1, -12
 511              		.cfi_offset 2, -8
 512              		.cfi_offset 14, -4
 194:main.c        ****     int nonce = rand();
 513              		.loc 1 194 0
 514 0002 FFF7FEFF 		bl	rand
 515              	.LVL49:
 195:main.c        ****     uint8 *nonceptr = (uint8*)&nonce;
 196:main.c        ****     PIGGY_BANK_Write(nonceptr, NONCE, sizeof(nonce));
 516              		.loc 1 196 0
 517 0006 0449     		ldr	r1, .L35
 194:main.c        ****     int nonce = rand();
 518              		.loc 1 194 0
 519 0008 0190     		str	r0, [sp, #4]
 520              	.LVL50:
 521              		.loc 1 196 0
 522 000a 0422     		movs	r2, #4
 523 000c 4731     		adds	r1, r1, #71
 524 000e 01A8     		add	r0, sp, #4
 525              	.LVL51:
 526 0010 FFF7FEFF 		bl	PIGGY_BANK_Write
 527              	.LVL52:
 197:main.c        **** }
 528              		.loc 1 197 0
 529              		@ sp needed
 530 0014 07BD     		pop	{r0, r1, r2, pc}
 531              	.L36:
 532 0016 C046     		.align	2
 533              	.L35:
 534 0018 00080000 		.word	.LANCHOR1
 535              		.cfi_endproc
 536              	.LFE39:
 537              		.size	update_nonce, .-update_nonce
 538              		.section	.text.startup.main,"ax",%progbits
 539              		.align	1
 540              		.global	main
 541              		.code	16
 542              		.thumb_func
 543              		.type	main, %function
 544              	main:
 545              	.LFB40:
 198:main.c        **** 
 199:main.c        **** 
 200:main.c        **** int main(void)
 201:main.c        **** {
 546              		.loc 1 201 0
 547              		.cfi_startproc
 548              		@ args = 0, pretend = 0, frame = 232
 549              		@ frame_needed = 0, uses_anonymous_args = 0
 550 0000 F0B5     		push	{r4, r5, r6, r7, lr}
 551              		.cfi_def_cfa_offset 20
 552              		.cfi_offset 4, -20
 553              		.cfi_offset 5, -16
 554              		.cfi_offset 6, -12
 555              		.cfi_offset 7, -8
 556              		.cfi_offset 14, -4
ARM GAS  C:\Users\Ray\AppData\Local\Temp\ccjGz0N9.s 			page 15


 557 0002 BDB0     		sub	sp, sp, #244
 558              		.cfi_def_cfa_offset 264
 202:main.c        ****     CyGlobalIntEnable; /* Enable global interrupts. */
 559              		.loc 1 202 0
 560              		.syntax divided
 561              	@ 202 "main.c" 1
 562 0004 62B6     		CPSIE   i
 563              	@ 0 "" 2
 203:main.c        ****     uint32_t unique_id[2];
 204:main.c        ****     CyGetUniqueId(unique_id);
 564              		.loc 1 204 0
 565              		.thumb
 566              		.syntax unified
 567 0006 04A8     		add	r0, sp, #16
 568 0008 FFF7FEFF 		bl	CyGetUniqueId
 569              	.LVL53:
 205:main.c        **** 
 206:main.c        ****     // Initialize RNG and nonce
 207:main.c        ****     srand(unique_id[0] ^ unique_id[1]);
 570              		.loc 1 207 0
 571 000c 049B     		ldr	r3, [sp, #16]
 572 000e 0598     		ldr	r0, [sp, #20]
 573 0010 5840     		eors	r0, r3
 574 0012 FFF7FEFF 		bl	srand
 575              	.LVL54:
 208:main.c        ****     int nonce = rand();
 576              		.loc 1 208 0
 577 0016 FFF7FEFF 		bl	rand
 578              	.LVL55:
 209:main.c        ****     uint8 *nonceptr = (uint8*)&nonce;
 210:main.c        ****     PIGGY_BANK_Write(nonceptr, NONCE, sizeof(nonce));
 579              		.loc 1 210 0
 580 001a 614C     		ldr	r4, .L50
 581 001c 0422     		movs	r2, #4
 582 001e 2100     		movs	r1, r4
 208:main.c        ****     int nonce = rand();
 583              		.loc 1 208 0
 584 0020 0390     		str	r0, [sp, #12]
 585              	.LVL56:
 586              		.loc 1 210 0
 587 0022 4731     		adds	r1, r1, #71
 588 0024 03A8     		add	r0, sp, #12
 589              	.LVL57:
 590 0026 FFF7FEFF 		bl	PIGGY_BANK_Write
 591              	.LVL58:
 211:main.c        **** 
 212:main.c        ****     // start reset button
 213:main.c        ****     Reset_isr_StartEx(Reset_ISR);
 214:main.c        ****     
 215:main.c        ****     /* Declare variables here */
 216:main.c        ****     
 217:main.c        ****     uint8 numbills, i, bills_left;
 218:main.c        ****     uint8 message[64];
 219:main.c        ****     
 220:main.c        ****     /*
 221:main.c        ****      * Note:
 222:main.c        ****      *  To write to EEPROM, write to static const uint8 []
ARM GAS  C:\Users\Ray\AppData\Local\Temp\ccjGz0N9.s 			page 16


 223:main.c        ****      *  To read from EEPROM, read from volatile const uint8 * 
 224:main.c        ****      *      set to write variable
 225:main.c        ****      *
 226:main.c        ****      * PSoC EEPROM is very finnicky if this format is not followed
 227:main.c        ****      */
 228:main.c        ****     static const uint8 PROVISIONED[1] = {0x00}; // write variable
 229:main.c        ****     volatile const uint8* ptr = PROVISIONED;    // read variable
 230:main.c        ****     
 231:main.c        ****     
 232:main.c        ****     /* Place your initialization/startup code here (e.g. MyInst_Start()) */
 233:main.c        ****     
 234:main.c        ****     PIGGY_BANK_Start();
 235:main.c        ****     DB_UART_Start();
 236:main.c        ****     
 237:main.c        ****     // provision security module on first boot
 238:main.c        ****     if(*ptr == 0x00)
 592              		.loc 1 238 0
 593 002a 4C34     		adds	r4, r4, #76
 213:main.c        ****     
 594              		.loc 1 213 0
 595 002c 5D48     		ldr	r0, .L50+4
 596 002e FFF7FEFF 		bl	Reset_isr_StartEx
 597              	.LVL59:
 234:main.c        ****     DB_UART_Start();
 598              		.loc 1 234 0
 599 0032 FFF7FEFF 		bl	PIGGY_BANK_Start
 600              	.LVL60:
 235:main.c        ****     
 601              		.loc 1 235 0
 602 0036 FFF7FEFF 		bl	DB_UART_Start
 603              	.LVL61:
 604              		.loc 1 238 0
 605 003a 2378     		ldrb	r3, [r4]
 606 003c 002B     		cmp	r3, #0
 607 003e 08D1     		bne	.L38
 239:main.c        ****     {
 240:main.c        ****         provision();
 608              		.loc 1 240 0
 609 0040 FFF7FEFF 		bl	provision
 610              	.LVL62:
 241:main.c        ****         
 242:main.c        ****         // Mark as provisioned
 243:main.c        ****         i = 0x01;
 611              		.loc 1 243 0
 612 0044 0A20     		movs	r0, #10
 613 0046 0122     		movs	r2, #1
 614 0048 6844     		add	r0, r0, sp
 244:main.c        ****         PIGGY_BANK_Write(&i, PROVISIONED,1u);
 615              		.loc 1 244 0
 616 004a 2100     		movs	r1, r4
 243:main.c        ****         PIGGY_BANK_Write(&i, PROVISIONED,1u);
 617              		.loc 1 243 0
 618 004c 0270     		strb	r2, [r0]
 619              		.loc 1 244 0
 620 004e FFF7FEFF 		bl	PIGGY_BANK_Write
 621              	.LVL63:
 622              	.L38:
ARM GAS  C:\Users\Ray\AppData\Local\Temp\ccjGz0N9.s 			page 17


 623              	.LBB5:
 245:main.c        ****     }
 246:main.c        ****     
 247:main.c        ****     // Go into infinite loop
 248:main.c        ****     while (1) {
 249:main.c        ****         /* Place your application code here. */
 250:main.c        **** 
 251:main.c        ****         // synchronize with bank
 252:main.c        ****         syncConnection(SYNC_NORM);
 253:main.c        **** 
 254:main.c        ****         // Get command to perform 
 255:main.c        ****         pullMessage(message);
 256:main.c        ****         pushMessage((uint8*)RECV_OK, strlen(RECV_OK));
 257:main.c        **** 
 258:main.c        ****         if (message[0] == DECRYPT){
 259:main.c        **** 
 260:main.c        ****             //First, check hmac 
 261:main.c        ****             pullMessage(message);
 262:main.c        ****             uint8_t hmac_to_check[32] = {0};
 263:main.c        ****             memcpy(hmac_to_check, message, sizeof(hmac_to_check));
 264:main.c        **** 
 265:main.c        ****             // Get IV 
 266:main.c        ****             pullMessage(message);
 267:main.c        ****             uint8_t iv[16] = {0};
 268:main.c        ****             memcpy(iv, message, sizeof(iv));
 624              		.loc 1 268 0
 625 0052 1027     		movs	r7, #16
 626              	.LVL64:
 627              	.L39:
 628              	.LBE5:
 252:main.c        **** 
 629              		.loc 1 252 0
 630 0054 0020     		movs	r0, #0
 255:main.c        ****         pushMessage((uint8*)RECV_OK, strlen(RECV_OK));
 631              		.loc 1 255 0
 632 0056 2CAC     		add	r4, sp, #176
 252:main.c        **** 
 633              		.loc 1 252 0
 634 0058 FFF7FEFF 		bl	syncConnection
 635              	.LVL65:
 255:main.c        ****         pushMessage((uint8*)RECV_OK, strlen(RECV_OK));
 636              		.loc 1 255 0
 637 005c 2000     		movs	r0, r4
 638 005e FFF7FEFF 		bl	pullMessage
 639              	.LVL66:
 256:main.c        **** 
 640              		.loc 1 256 0
 641 0062 514E     		ldr	r6, .L50+8
 642 0064 0121     		movs	r1, #1
 643 0066 3000     		movs	r0, r6
 644 0068 FFF7FEFF 		bl	pushMessage
 645              	.LVL67:
 258:main.c        **** 
 646              		.loc 1 258 0
 647 006c 2378     		ldrb	r3, [r4]
 648 006e 312B     		cmp	r3, #49
 649 0070 47D1     		bne	.L40
ARM GAS  C:\Users\Ray\AppData\Local\Temp\ccjGz0N9.s 			page 18


 650              	.LBB6:
 261:main.c        ****             uint8_t hmac_to_check[32] = {0};
 651              		.loc 1 261 0
 652 0072 2000     		movs	r0, r4
 653 0074 FFF7FEFF 		bl	pullMessage
 654              	.LVL68:
 263:main.c        **** 
 655              		.loc 1 263 0
 656 0078 2100     		movs	r1, r4
 657 007a 2022     		movs	r2, #32
 658 007c 12A8     		add	r0, sp, #72
 659 007e FFF7FEFF 		bl	memcpy
 660              	.LVL69:
 266:main.c        ****             uint8_t iv[16] = {0};
 661              		.loc 1 266 0
 662 0082 2000     		movs	r0, r4
 663 0084 FFF7FEFF 		bl	pullMessage
 664              	.LVL70:
 665              		.loc 1 268 0
 666 0088 2100     		movs	r1, r4
 667 008a 1022     		movs	r2, #16
 668 008c 06A8     		add	r0, sp, #24
 669 008e FFF7FEFF 		bl	memcpy
 670              	.LVL71:
 269:main.c        **** 
 270:main.c        ****             // Get ciphertext
 271:main.c        ****             pullMessage(message);
 671              		.loc 1 271 0
 672 0092 2000     		movs	r0, r4
 673 0094 FFF7FEFF 		bl	pullMessage
 674              	.LVL72:
 272:main.c        ****             uint8_t ciphertext[16] = {0};
 273:main.c        ****             memcpy(ciphertext, message, sizeof(ciphertext));
 675              		.loc 1 273 0
 676 0098 2100     		movs	r1, r4
 677 009a 1022     		movs	r2, #16
 678 009c 0AA8     		add	r0, sp, #40
 679 009e FFF7FEFF 		bl	memcpy
 680              	.LVL73:
 274:main.c        **** 
 275:main.c        ****             uint8_t hmac_output[32];
 276:main.c        ****             uint8_t hmac_data[36];
 277:main.c        **** 
 278:main.c        ****             memcpy(hmac_data, ciphertext, sizeof(ciphertext));
 681              		.loc 1 278 0
 682 00a2 1022     		movs	r2, #16
 683 00a4 0AA9     		add	r1, sp, #40
 684 00a6 22A8     		add	r0, sp, #136
 685 00a8 FFF7FEFF 		bl	memcpy
 686              	.LVL74:
 279:main.c        ****             memcpy(hmac_data + sizeof(ciphertext), iv, sizeof(iv));
 687              		.loc 1 279 0
 688 00ac 1022     		movs	r2, #16
 689 00ae 06A9     		add	r1, sp, #24
 690 00b0 26A8     		add	r0, sp, #152
 691 00b2 FFF7FEFF 		bl	memcpy
 692              	.LVL75:
ARM GAS  C:\Users\Ray\AppData\Local\Temp\ccjGz0N9.s 			page 19


 280:main.c        ****             memcpy(hmac_data + sizeof(ciphertext) + sizeof(iv), NONCE, sizeof(NONCE));
 693              		.loc 1 280 0
 694 00b6 3A4C     		ldr	r4, .L50
 695 00b8 0522     		movs	r2, #5
 696 00ba 2100     		movs	r1, r4
 697 00bc 2AA8     		add	r0, sp, #168
 698 00be 4731     		adds	r1, r1, #71
 699 00c0 FFF7FEFF 		bl	memcpy
 700              	.LVL76:
 281:main.c        **** 
 282:main.c        ****             // Update nonce
 283:main.c        ****             update_nonce();
 701              		.loc 1 283 0
 702 00c4 FFF7FEFF 		bl	update_nonce
 703              	.LVL77:
 284:main.c        **** 
 285:main.c        ****             HMAC(hmac_output, BANK_AES_KEY, 32, hmac_data, sizeof(hmac_data));
 704              		.loc 1 285 0
 705 00c8 2423     		movs	r3, #36
 706 00ca 2100     		movs	r1, r4
 707 00cc 0093     		str	r3, [sp]
 708 00ce 1AA8     		add	r0, sp, #104
 709 00d0 22AB     		add	r3, sp, #136
 710 00d2 2022     		movs	r2, #32
 711 00d4 FFF7FEFF 		bl	HMAC
 712              	.LVL78:
 286:main.c        ****             
 287:main.c        ****             if (!check_hmac(hmac_to_check, hmac_output)) {
 713              		.loc 1 287 0
 714 00d8 1AA9     		add	r1, sp, #104
 715 00da 12A8     		add	r0, sp, #72
 716 00dc FFF7FEFF 		bl	check_hmac
 717              	.LVL79:
 718 00e0 0028     		cmp	r0, #0
 719 00e2 3ED0     		beq	.L48
 288:main.c        ****                 pushMessage((uint8 *) WITH_BAD, strlen(WITH_BAD));
 289:main.c        ****                 continue;
 290:main.c        ****             }
 291:main.c        **** 
 292:main.c        ****             // Decrypt message
 293:main.c        ****             uint8_t plaintext[16] = {0};
 720              		.loc 1 293 0
 721 00e4 1022     		movs	r2, #16
 722 00e6 0021     		movs	r1, #0
 723 00e8 0EA8     		add	r0, sp, #56
 724 00ea FFF7FEFF 		bl	memset
 725              	.LVL80:
 294:main.c        ****             aes256_crypt_ctr(plaintext, BANK_AES_KEY, iv, ciphertext, sizeof(ciphertext));
 726              		.loc 1 294 0
 727 00ee 2100     		movs	r1, r4
 728 00f0 0EA8     		add	r0, sp, #56
 729 00f2 0097     		str	r7, [sp]
 730 00f4 0AAB     		add	r3, sp, #40
 731 00f6 06AA     		add	r2, sp, #24
 732 00f8 FFF7FEFF 		bl	aes256_crypt_ctr
 733              	.LVL81:
 295:main.c        **** 
ARM GAS  C:\Users\Ray\AppData\Local\Temp\ccjGz0N9.s 			page 20


 296:main.c        ****             // Return plaintext 
 297:main.c        ****             pushMessage(plaintext, sizeof(plaintext));
 734              		.loc 1 297 0
 735 00fc 1021     		movs	r1, #16
 736 00fe 0EA8     		add	r0, sp, #56
 737 0100 31E0     		b	.L47
 738              	.L40:
 739              	.LBE6:
 298:main.c        **** 
 299:main.c        ****         } else if (message[0] == GET_UUID){
 740              		.loc 1 299 0
 741 0102 332B     		cmp	r3, #51
 742 0104 09D1     		bne	.L43
 300:main.c        ****             pushMessage(UUID, UUID_LEN);
 743              		.loc 1 300 0
 744 0106 264C     		ldr	r4, .L50
 745 0108 2421     		movs	r1, #36
 746 010a 2000     		movs	r0, r4
 747 010c 2130     		adds	r0, r0, #33
 748 010e FFF7FEFF 		bl	pushMessage
 749              	.LVL82:
 301:main.c        ****             pushMessage(NONCE, NONCE_LEN);
 750              		.loc 1 301 0
 751 0112 2000     		movs	r0, r4
 752 0114 0421     		movs	r1, #4
 753 0116 4730     		adds	r0, r0, #71
 754 0118 25E0     		b	.L47
 755              	.L43:
 302:main.c        ****         } else if (message[0] == DISPENSE_BILLS) {
 756              		.loc 1 302 0
 757 011a 322B     		cmp	r3, #50
 758 011c 9AD1     		bne	.L39
 759              	.LBB7:
 303:main.c        ****             // Get HMAC
 304:main.c        ****             pullMessage(message);
 760              		.loc 1 304 0
 761 011e 2000     		movs	r0, r4
 762 0120 FFF7FEFF 		bl	pullMessage
 763              	.LVL83:
 305:main.c        ****             uint8_t hmac_to_check[32] = {0};
 306:main.c        ****             memcpy(hmac_to_check, message, sizeof(hmac_to_check));
 307:main.c        **** 
 308:main.c        ****             // get number of bills
 309:main.c        ****             pullMessage(message);
 764              		.loc 1 309 0
 765 0124 2000     		movs	r0, r4
 766 0126 FFF7FEFF 		bl	pullMessage
 767              	.LVL84:
 310:main.c        ****             numbills = message[0];
 768              		.loc 1 310 0
 769 012a 2578     		ldrb	r5, [r4]
 770              	.LVL85:
 311:main.c        **** 
 312:main.c        ****             uint8 hmac_output[32];
 313:main.c        ****             uint8 hmac_data[40];
 314:main.c        ****             memcpy(hmac_data, UUID, UUID_LEN);
 771              		.loc 1 314 0
ARM GAS  C:\Users\Ray\AppData\Local\Temp\ccjGz0N9.s 			page 21


 772 012c 1C4C     		ldr	r4, .L50
 773 012e 2422     		movs	r2, #36
 774 0130 2100     		movs	r1, r4
 775 0132 22A8     		add	r0, sp, #136
 776 0134 2131     		adds	r1, r1, #33
 777 0136 FFF7FEFF 		bl	memcpy
 778              	.LVL86:
 315:main.c        ****             memcpy(hmac_data + UUID_LEN, NONCE, NONCE_LEN);
 779              		.loc 1 315 0
 780 013a 2100     		movs	r1, r4
 781 013c 0422     		movs	r2, #4
 782 013e 4731     		adds	r1, r1, #71
 783 0140 2BA8     		add	r0, sp, #172
 784 0142 FFF7FEFF 		bl	memcpy
 785              	.LVL87:
 316:main.c        **** 
 317:main.c        ****             // Update nonce
 318:main.c        ****             update_nonce();
 786              		.loc 1 318 0
 787 0146 FFF7FEFF 		bl	update_nonce
 788              	.LVL88:
 319:main.c        **** 
 320:main.c        ****             // Check HMAC
 321:main.c        ****             HMAC(hmac_output, BANK_AES_KEY, 32, hmac_data, sizeof(hmac_data));
 789              		.loc 1 321 0
 790 014a 2823     		movs	r3, #40
 791 014c 2100     		movs	r1, r4
 792 014e 0093     		str	r3, [sp]
 793 0150 2022     		movs	r2, #32
 794 0152 22AB     		add	r3, sp, #136
 795 0154 1AA8     		add	r0, sp, #104
 322:main.c        **** 
 323:main.c        **** //            if (!check_hmac(hmac_to_check, hmac_output)) {
 324:main.c        **** //                pushMessage((uint8 *) WITH_BAD, strlen(WITH_BAD));
 325:main.c        **** //                continue;
 326:main.c        **** //            }
 327:main.c        **** 
 328:main.c        ****             // Actually dispense bills
 329:main.c        ****             ptr = BILLS_LEFT;
 330:main.c        ****             if (*ptr < numbills) {
 796              		.loc 1 330 0
 797 0156 4634     		adds	r4, r4, #70
 321:main.c        **** 
 798              		.loc 1 321 0
 799 0158 FFF7FEFF 		bl	HMAC
 800              	.LVL89:
 801              		.loc 1 330 0
 802 015c 2378     		ldrb	r3, [r4]
 803 015e 9D42     		cmp	r5, r3
 804 0160 04D9     		bls	.L44
 805              	.LVL90:
 806              	.L48:
 331:main.c        ****                 pushMessage((uint8 *) WITH_BAD, strlen(WITH_BAD));
 807              		.loc 1 331 0
 808 0162 0321     		movs	r1, #3
 809 0164 1148     		ldr	r0, .L50+12
 810              	.L47:
ARM GAS  C:\Users\Ray\AppData\Local\Temp\ccjGz0N9.s 			page 22


 811 0166 FFF7FEFF 		bl	pushMessage
 812              	.LVL91:
 813 016a 73E7     		b	.L39
 814              	.LVL92:
 815              	.L44:
 332:main.c        ****                 continue;
 333:main.c        ****             } else {
 334:main.c        ****                 pushMessage((uint8 *) WITH_OK, strlen(WITH_OK));
 816              		.loc 1 334 0
 817 016c 0121     		movs	r1, #1
 818 016e 3000     		movs	r0, r6
 819 0170 FFF7FEFF 		bl	pushMessage
 820              	.LVL93:
 335:main.c        ****                 bills_left = *ptr - numbills;
 821              		.loc 1 335 0
 822 0174 0B20     		movs	r0, #11
 823 0176 2378     		ldrb	r3, [r4]
 824 0178 6844     		add	r0, r0, sp
 825 017a 5B1B     		subs	r3, r3, r5
 336:main.c        ****                 PIGGY_BANK_Write(&bills_left, BILLS_LEFT, 0x01);
 826              		.loc 1 336 0
 827 017c 2100     		movs	r1, r4
 828 017e 0122     		movs	r2, #1
 337:main.c        ****             }
 338:main.c        **** 
 339:main.c        ****             for (i = 0; i < numbills; i++) {
 829              		.loc 1 339 0
 830 0180 0A24     		movs	r4, #10
 335:main.c        ****                 PIGGY_BANK_Write(&bills_left, BILLS_LEFT, 0x01);
 831              		.loc 1 335 0
 832 0182 0370     		strb	r3, [r0]
 336:main.c        ****                 PIGGY_BANK_Write(&bills_left, BILLS_LEFT, 0x01);
 833              		.loc 1 336 0
 834 0184 FFF7FEFF 		bl	PIGGY_BANK_Write
 835              	.LVL94:
 836              		.loc 1 339 0
 837 0188 0023     		movs	r3, #0
 838 018a 6C44     		add	r4, r4, sp
 839              	.L49:
 840              		.loc 1 339 0 is_stmt 0 discriminator 3
 841 018c 2370     		strb	r3, [r4]
 842 018e 2378     		ldrb	r3, [r4]
 843 0190 AB42     		cmp	r3, r5
 844 0192 00D3     		bcc	.LCB723
 845 0194 5EE7     		b	.L39	@long jump
 846              	.LCB723:
 340:main.c        ****                 dispenseBill();
 847              		.loc 1 340 0 is_stmt 1 discriminator 3
 848 0196 FFF7FEFF 		bl	dispenseBill
 849              	.LVL95:
 339:main.c        ****                 dispenseBill();
 850              		.loc 1 339 0 discriminator 3
 851 019a 2378     		ldrb	r3, [r4]
 852 019c 0133     		adds	r3, r3, #1
 853 019e F5E7     		b	.L49
 854              	.L51:
 855              		.align	2
ARM GAS  C:\Users\Ray\AppData\Local\Temp\ccjGz0N9.s 			page 23


 856              	.L50:
 857 01a0 00080000 		.word	.LANCHOR1
 858 01a4 00000000 		.word	Reset_ISR
 859 01a8 25000000 		.word	.LC12
 860 01ac 27000000 		.word	.LC23
 861              	.LBE7:
 862              		.cfi_endproc
 863              	.LFE40:
 864              		.size	main, .-main
 865              		.section	.rodata
 866              		.set	.LANCHOR0,. + 0
 867              		.set	.LANCHOR1,. + 2048
 868              		.type	MONEY, %object
 869              		.size	MONEY, 2048
 870              	MONEY:
 871 0000 2A2A2A2A 		.ascii	"*****EMPTY*****\000"
 871      2A454D50 
 871      54592A2A 
 871      2A2A2A00 
 872 0010 00000000 		.space	2032
 872      00000000 
 872      00000000 
 872      00000000 
 872      00000000 
 873              		.type	BANK_AES_KEY, %object
 874              		.size	BANK_AES_KEY, 33
 875              	BANK_AES_KEY:
 876 0800 00000000 		.space	33
 876      00000000 
 876      00000000 
 876      00000000 
 876      00000000 
 877              		.type	UUID, %object
 878              		.size	UUID, 37
 879              	UUID:
 880 0821 62       		.byte	98
 881 0822 6C       		.byte	108
 882 0823 61       		.byte	97
 883 0824 6E       		.byte	110
 884 0825 6B       		.byte	107
 885 0826 20       		.byte	32
 886 0827 75       		.byte	117
 887 0828 75       		.byte	117
 888 0829 69       		.byte	105
 889 082a 64       		.byte	100
 890 082b 21       		.byte	33
 891 082c 00       		.byte	0
 892 082d 00000000 		.space	25
 892      00000000 
 892      00000000 
 892      00000000 
 892      00000000 
 893              		.type	BILLS_LEFT, %object
 894              		.size	BILLS_LEFT, 1
 895              	BILLS_LEFT:
 896 0846 00       		.space	1
 897              		.type	NONCE, %object
ARM GAS  C:\Users\Ray\AppData\Local\Temp\ccjGz0N9.s 			page 24


 898              		.size	NONCE, 5
 899              	NONCE:
 900 0847 62       		.byte	98
 901 0848 6C       		.byte	108
 902 0849 61       		.byte	97
 903 084a 6E       		.byte	110
 904 084b 00       		.byte	0
 905              		.type	PROVISIONED.6693, %object
 906              		.size	PROVISIONED.6693, 1
 907              	PROVISIONED.6693:
 908 084c 00       		.space	1
 909              		.section	.rodata.str1.1,"aMS",%progbits,1
 910              	.LC0:
 911 0000 496E2069 		.ascii	"In interrupt\012\000"
 911      6E746572 
 911      72757074 
 911      0A00
 912              	.LC2:
 913 000e 25303258 		.ascii	"%02X\000"
 913      00
 914              	.LC7:
 915 0013 2A2A2A2A 		.ascii	"*****EMPTY*****\000"
 915      2A454D50 
 915      54592A2A 
 915      2A2A2A00 
 916              	.LC9:
 917 0023 5000     		.ascii	"P\000"
 918              	.LC12:
 919 0025 4B00     		.ascii	"K\000"
 920              	.LC23:
 921 0027 42414400 		.ascii	"BAD\000"
 922              		.bss
 923              		.set	.LANCHOR2,. + 0
 924              		.type	stackloc.6676, %object
 925              		.size	stackloc.6676, 1
 926              	stackloc.6676:
 927 0000 00       		.space	1
 928              		.text
 929              	.Letext0:
 930              		.file 2 "c:\\program files (x86)\\cypress\\psoc creator\\4.1\\psoc creator\\import\\gnu\\arm\\5.4.
 931              		.file 3 "c:\\program files (x86)\\cypress\\psoc creator\\4.1\\psoc creator\\import\\gnu\\arm\\5.4.
 932              		.file 4 "Generated_Source\\PSoC4/cytypes.h"
 933              		.file 5 "usbserialprotocol.h"
 934              		.file 6 "Generated_Source\\PSoC4/SW1.h"
 935              		.file 7 "Generated_Source\\PSoC4/CyLib.h"
 936              		.file 8 "c:\\program files (x86)\\cypress\\psoc creator\\4.1\\psoc creator\\import\\gnu\\arm\\5.4.
 937              		.file 9 "Generated_Source\\PSoC4/PIGGY_BANK.h"
 938              		.file 10 "c:\\program files (x86)\\cypress\\psoc creator\\4.1\\psoc creator\\import\\gnu\\arm\\5.4
 939              		.file 11 "c:\\program files (x86)\\cypress\\psoc creator\\4.1\\psoc creator\\import\\gnu\\arm\\5.4
 940              		.file 12 "..\\strong-arm.cylib\\strong-arm\\include/strong-arm/hmac.h"
 941              		.file 13 "..\\strong-arm.cylib\\strong-arm\\include/strong-arm/aes.h"
 942              		.file 14 "Generated_Source\\PSoC4/Reset_isr.h"
 943              		.file 15 "Generated_Source\\PSoC4/DB_UART.h"