ARM GAS  C:\Users\Ray\AppData\Local\Temp\ccXJmGfZ.s 			page 1


   1              		.syntax unified
   2              		.cpu cortex-m0
   3              		.fpu softvfp
   4              		.eabi_attribute 20, 1
   5              		.eabi_attribute 21, 1
   6              		.eabi_attribute 23, 3
   7              		.eabi_attribute 24, 1
   8              		.eabi_attribute 25, 1
   9              		.eabi_attribute 26, 1
  10              		.eabi_attribute 30, 1
  11              		.eabi_attribute 34, 0
  12              		.eabi_attribute 18, 4
  13              		.thumb
  14              		.syntax unified
  15              		.file	"main.c"
  16              		.text
  17              	.Ltext0:
  18              		.cfi_sections	.debug_frame
  19              		.section	.text.Reset_ISR,"ax",%progbits
  20              		.align	2
  21              		.global	Reset_ISR
  22              		.code	16
  23              		.thumb_func
  24              		.type	Reset_ISR, %function
  25              	Reset_ISR:
  26              	.LFB39:
  27              		.file 1 "main.c"
   1:main.c        **** /* ========================================
   2:main.c        ****  *
   3:main.c        ****  * Copyright YOUR COMPANY, THE YEAR
   4:main.c        ****  * All Rights Reserved
   5:main.c        ****  * UNPUBLISHED, LICENSED SOFTWARE.
   6:main.c        ****  *
   7:main.c        ****  * CONFIDENTIAL AND PROPRIETARY INFORMATION
   8:main.c        ****  * WHICH IS THE PROPERTY OF your company.
   9:main.c        ****  *
  10:main.c        ****  * ========================================
  11:main.c        **** */
  12:main.c        **** #include "project.h"
  13:main.c        **** #include <stdlib.h>
  14:main.c        **** #include <string.h>
  15:main.c        **** //This is needed for the default communication between the BANK and DISPLAY over the USB-UART
  16:main.c        **** #include "usbserialprotocol.h"
  17:main.c        **** #include "SW1.h"
  18:main.c        **** #include <strong-arm/sha256.h>
  19:main.c        **** #include <strong-arm/aes.h>
  20:main.c        **** #include <strong-arm/hmac.h>
  21:main.c        **** #include <stdio.h>
  22:main.c        **** 
  23:main.c        **** 
  24:main.c        **** // SECURITY MODULE
  25:main.c        **** 
  26:main.c        **** #define MAX_BILLS 128
  27:main.c        **** #define BILL_LEN 16
  28:main.c        **** #define UUID_LEN 36
  29:main.c        **** #define DECRYPT '1'
  30:main.c        **** #define DISPENSE_BILLS '2'
ARM GAS  C:\Users\Ray\AppData\Local\Temp\ccXJmGfZ.s 			page 2


  31:main.c        **** #define GET_UUID '3'
  32:main.c        **** #define PROV_MSG "P"
  33:main.c        **** #define WITH_OK "K"
  34:main.c        **** #define WITH_BAD "BAD"
  35:main.c        **** #define WITH_BAF "BAF"
  36:main.c        **** #define WITH_BAE "BAE"
  37:main.c        **** #define RECV_OK "K"
  38:main.c        **** #define EMPTY "EMPTY"
  39:main.c        **** #define EMPTY_BILL "*****EMPTY*****"
  40:main.c        **** 
  41:main.c        **** /* 
  42:main.c        ****  * How to read from EEPROM (persistent memory):
  43:main.c        ****  * 
  44:main.c        ****  * // read variable:
  45:main.c        ****  * static const uint8 EEPROM_BUF_VAR[len] = { val1, val2, ... };
  46:main.c        ****  * // write variable:
  47:main.c        ****  * volatile const uint8 *ptr = EEPROM_BUF_VAR;
  48:main.c        ****  * 
  49:main.c        ****  * uint8 val1 = *ptr;
  50:main.c        ****  * uint8 buf[4] = { 0x01, 0x02, 0x03, 0x04 };
  51:main.c        ****  * USER_INFO_Write(message, EEPROM_BUF_VAR, 4u); 
  52:main.c        ****  */
  53:main.c        **** 
  54:main.c        **** // global EEPROM read variables
  55:main.c        **** static const uint8 MONEY[MAX_BILLS][BILL_LEN] = {EMPTY_BILL};
  56:main.c        **** static const uint8 UUID[UUID_LEN + 1] = {'b', 'l', 'a', 'n', 'k', ' ', 
  57:main.c        ****                                         'u', 'u', 'i', 'd', '!', 0x00 };
  58:main.c        **** static const uint8 BANK_AES_KEY[33] = { 0x00 };
  59:main.c        **** static const uint8 NONCE[5] = {'b', 'l', 'a', 'n', 0x00};
  60:main.c        **** static const uint8 BILLS_LEFT[1] = {0x00};
  61:main.c        **** 
  62:main.c        **** 
  63:main.c        **** uint8_t hex2byte(char upper_digit, char lower_digit)
  64:main.c        **** {
  65:main.c        ****     uint8_t value = 0;
  66:main.c        ****     
  67:main.c        ****     // Lower nybble.
  68:main.c        ****     if(lower_digit >= '0' && lower_digit <= '9')
  69:main.c        ****     {
  70:main.c        ****         value = lower_digit - '0';
  71:main.c        ****     }
  72:main.c        ****     else if(lower_digit >= 'a' && lower_digit <= 'f')
  73:main.c        ****     {
  74:main.c        ****         value = lower_digit - 'a' + 0xA;
  75:main.c        ****     }
  76:main.c        ****     else if(lower_digit >= 'A' && lower_digit <= 'F')
  77:main.c        ****     {
  78:main.c        ****         value = lower_digit - 'A' + 0xA;
  79:main.c        ****     }
  80:main.c        ****     
  81:main.c        ****     // Upper nybble.
  82:main.c        ****     if(upper_digit >= '0' && upper_digit <= '9')
  83:main.c        ****     {
  84:main.c        ****         value |= (upper_digit - '0') << 4;
  85:main.c        ****     }
  86:main.c        ****     else if(upper_digit >= 'a' && upper_digit <= 'f')
  87:main.c        ****     {
ARM GAS  C:\Users\Ray\AppData\Local\Temp\ccXJmGfZ.s 			page 3


  88:main.c        ****         value |= (upper_digit - 'a' + 0xA) << 4;
  89:main.c        ****     }
  90:main.c        ****     else if(upper_digit >= 'A' && upper_digit <= 'F')
  91:main.c        ****     {
  92:main.c        ****         value |= (upper_digit - 'A' + 0xA) << 4;
  93:main.c        ****     }
  94:main.c        ****     
  95:main.c        ****     // Return result.
  96:main.c        ****     return value;
  97:main.c        **** }
  98:main.c        **** 
  99:main.c        **** void bytes2hex(uint8_t byte, char* dest)
 100:main.c        **** {       
 101:main.c        ****     sprintf(dest, "%02X", byte);
 102:main.c        **** }
 103:main.c        **** 
 104:main.c        **** /* Increment a Big-Endian counter */
 105:main.c        **** static void increment_replay_nonce(uint8_t counter[4])
 106:main.c        **** {
 107:main.c        ****     for (int i = 3; i >= 0; --i)
 108:main.c        ****     {
 109:main.c        ****         if ((counter[i] += 1) != 0)
 110:main.c        ****             break;
 111:main.c        ****     }
 112:main.c        **** }
 113:main.c        **** 
 114:main.c        **** /*
 115:main.c        **** * Returns 1 if they match, 0 if they don't
 116:main.c        **** */
 117:main.c        **** bool check_hmac(uint8 hmac_to_check[32], uint8 hmac_output[32]){
 118:main.c        ****     int match = 1;
 119:main.c        ****     for (int i = 0; i < 32; i++){
 120:main.c        ****         if (hmac_to_check[i] != hmac_output[i]) {
 121:main.c        ****             match = 0;
 122:main.c        ****         }
 123:main.c        ****     }
 124:main.c        **** 
 125:main.c        ****     return match;
 126:main.c        **** }
 127:main.c        **** 
 128:main.c        **** 
 129:main.c        **** // reset interrupt on button press
 130:main.c        **** CY_ISR(Reset_ISR)
 131:main.c        **** {
  28              		.loc 1 131 0
  29              		.cfi_startproc
  30              		@ args = 0, pretend = 0, frame = 0
  31              		@ frame_needed = 0, uses_anonymous_args = 0
  32 0000 10B5     		push	{r4, lr}
  33              		.cfi_def_cfa_offset 8
  34              		.cfi_offset 4, -8
  35              		.cfi_offset 14, -4
 132:main.c        ****     pushMessage((uint8*)"In interrupt\n", strlen("In interrupt\n"));
  36              		.loc 1 132 0
  37 0002 0D21     		movs	r1, #13
  38 0004 0348     		ldr	r0, .L2
  39 0006 FFF7FEFF 		bl	pushMessage
ARM GAS  C:\Users\Ray\AppData\Local\Temp\ccXJmGfZ.s 			page 4


  40              	.LVL0:
 133:main.c        ****     SW1_ClearInterrupt();
  41              		.loc 1 133 0
  42 000a FFF7FEFF 		bl	SW1_ClearInterrupt
  43              	.LVL1:
 134:main.c        ****     CySoftwareReset();
  44              		.loc 1 134 0
  45 000e FFF7FEFF 		bl	CySoftwareReset
  46              	.LVL2:
 135:main.c        **** }
  47              		.loc 1 135 0
  48              		@ sp needed
  49 0012 10BD     		pop	{r4, pc}
  50              	.L3:
  51              		.align	2
  52              	.L2:
  53 0014 00000000 		.word	.LC0
  54              		.cfi_endproc
  55              	.LFE39:
  56              		.size	Reset_ISR, .-Reset_ISR
  57              		.section	.text.hex2byte,"ax",%progbits
  58              		.align	2
  59              		.global	hex2byte
  60              		.code	16
  61              		.thumb_func
  62              		.type	hex2byte, %function
  63              	hex2byte:
  64              	.LFB35:
  64:main.c        ****     uint8_t value = 0;
  65              		.loc 1 64 0
  66              		.cfi_startproc
  67              		@ args = 0, pretend = 0, frame = 0
  68              		@ frame_needed = 0, uses_anonymous_args = 0
  69              		@ link register save eliminated.
  70              	.LVL3:
  71 0000 0300     		movs	r3, r0
  72              	.LVL4:
  68:main.c        ****     {
  73              		.loc 1 68 0
  74 0002 0800     		movs	r0, r1
  75              	.LVL5:
  76 0004 3038     		subs	r0, r0, #48
  77 0006 C0B2     		uxtb	r0, r0
  78 0008 0928     		cmp	r0, #9
  79 000a 10D9     		bls	.L5
  72:main.c        ****     {
  80              		.loc 1 72 0
  81 000c 0A00     		movs	r2, r1
  82 000e 613A     		subs	r2, r2, #97
  83 0010 D2B2     		uxtb	r2, r2
  84 0012 052A     		cmp	r2, #5
  85 0014 02D8     		bhi	.L6
  74:main.c        ****     }
  86              		.loc 1 74 0
  87 0016 5739     		subs	r1, r1, #87
  88              	.LVL6:
  89 0018 C8B2     		uxtb	r0, r1
ARM GAS  C:\Users\Ray\AppData\Local\Temp\ccXJmGfZ.s 			page 5


  90              	.LVL7:
  91 001a 08E0     		b	.L5
  92              	.LVL8:
  93              	.L6:
  76:main.c        ****     {
  94              		.loc 1 76 0
  95 001c 0A00     		movs	r2, r1
  96 001e 413A     		subs	r2, r2, #65
  97 0020 D2B2     		uxtb	r2, r2
  98 0022 052A     		cmp	r2, #5
  99 0024 02D8     		bhi	.L10
  78:main.c        ****     }
 100              		.loc 1 78 0
 101 0026 3739     		subs	r1, r1, #55
 102              	.LVL9:
 103 0028 C8B2     		uxtb	r0, r1
 104              	.LVL10:
 105 002a 00E0     		b	.L5
 106              	.LVL11:
 107              	.L10:
  65:main.c        ****     
 108              		.loc 1 65 0
 109 002c 0020     		movs	r0, #0
 110              	.LVL12:
 111              	.L5:
  82:main.c        ****     {
 112              		.loc 1 82 0
 113 002e 1A00     		movs	r2, r3
 114 0030 303A     		subs	r2, r2, #48
 115 0032 D2B2     		uxtb	r2, r2
 116 0034 092A     		cmp	r2, #9
 117 0036 04D8     		bhi	.L7
  84:main.c        ****     }
 118              		.loc 1 84 0
 119 0038 303B     		subs	r3, r3, #48
 120 003a 1B01     		lsls	r3, r3, #4
 121 003c 1843     		orrs	r0, r3
 122              	.LVL13:
 123 003e C0B2     		uxtb	r0, r0
 124              	.LVL14:
 125 0040 12E0     		b	.L8
 126              	.L7:
  86:main.c        ****     {
 127              		.loc 1 86 0
 128 0042 1A00     		movs	r2, r3
 129 0044 613A     		subs	r2, r2, #97
 130 0046 D2B2     		uxtb	r2, r2
 131 0048 052A     		cmp	r2, #5
 132 004a 04D8     		bhi	.L9
  88:main.c        ****     }
 133              		.loc 1 88 0
 134 004c 573B     		subs	r3, r3, #87
 135 004e 1B01     		lsls	r3, r3, #4
 136 0050 1843     		orrs	r0, r3
 137              	.LVL15:
 138 0052 C0B2     		uxtb	r0, r0
 139              	.LVL16:
ARM GAS  C:\Users\Ray\AppData\Local\Temp\ccXJmGfZ.s 			page 6


 140 0054 08E0     		b	.L8
 141              	.L9:
  90:main.c        ****     {
 142              		.loc 1 90 0
 143 0056 1A00     		movs	r2, r3
 144 0058 413A     		subs	r2, r2, #65
 145 005a D2B2     		uxtb	r2, r2
 146 005c 052A     		cmp	r2, #5
 147 005e 03D8     		bhi	.L8
  92:main.c        ****     }
 148              		.loc 1 92 0
 149 0060 373B     		subs	r3, r3, #55
 150 0062 1B01     		lsls	r3, r3, #4
 151 0064 1843     		orrs	r0, r3
 152              	.LVL17:
 153 0066 C0B2     		uxtb	r0, r0
 154              	.LVL18:
 155              	.L8:
  97:main.c        **** 
 156              		.loc 1 97 0
 157              		@ sp needed
 158 0068 7047     		bx	lr
 159              		.cfi_endproc
 160              	.LFE35:
 161              		.size	hex2byte, .-hex2byte
 162 006a C046     		.section	.text.bytes2hex,"ax",%progbits
 163              		.align	2
 164              		.global	bytes2hex
 165              		.code	16
 166              		.thumb_func
 167              		.type	bytes2hex, %function
 168              	bytes2hex:
 169              	.LFB36:
 100:main.c        ****     sprintf(dest, "%02X", byte);
 170              		.loc 1 100 0
 171              		.cfi_startproc
 172              		@ args = 0, pretend = 0, frame = 0
 173              		@ frame_needed = 0, uses_anonymous_args = 0
 174              	.LVL19:
 175 0000 10B5     		push	{r4, lr}
 176              		.cfi_def_cfa_offset 8
 177              		.cfi_offset 4, -8
 178              		.cfi_offset 14, -4
 179 0002 0200     		movs	r2, r0
 180 0004 0800     		movs	r0, r1
 181              	.LVL20:
 101:main.c        **** }
 182              		.loc 1 101 0
 183 0006 0249     		ldr	r1, .L12
 184              	.LVL21:
 185 0008 FFF7FEFF 		bl	sprintf
 186              	.LVL22:
 102:main.c        **** 
 187              		.loc 1 102 0
 188              		@ sp needed
 189 000c 10BD     		pop	{r4, pc}
 190              	.L13:
ARM GAS  C:\Users\Ray\AppData\Local\Temp\ccXJmGfZ.s 			page 7


 191 000e C046     		.align	2
 192              	.L12:
 193 0010 10000000 		.word	.LC2
 194              		.cfi_endproc
 195              	.LFE36:
 196              		.size	bytes2hex, .-bytes2hex
 197              		.section	.text.check_hmac,"ax",%progbits
 198              		.align	2
 199              		.global	check_hmac
 200              		.code	16
 201              		.thumb_func
 202              		.type	check_hmac, %function
 203              	check_hmac:
 204              	.LFB38:
 117:main.c        ****     int match = 1;
 205              		.loc 1 117 0
 206              		.cfi_startproc
 207              		@ args = 0, pretend = 0, frame = 0
 208              		@ frame_needed = 0, uses_anonymous_args = 0
 209              	.LVL23:
 210 0000 30B5     		push	{r4, r5, lr}
 211              		.cfi_def_cfa_offset 12
 212              		.cfi_offset 4, -12
 213              		.cfi_offset 5, -8
 214              		.cfi_offset 14, -4
 215              	.LVL24:
 216              	.LBB2:
 119:main.c        ****         if (hmac_to_check[i] != hmac_output[i]) {
 217              		.loc 1 119 0
 218 0002 0023     		movs	r3, #0
 219              	.LBE2:
 118:main.c        ****     for (int i = 0; i < 32; i++){
 220              		.loc 1 118 0
 221 0004 0125     		movs	r5, #1
 222              	.LBB3:
 119:main.c        ****         if (hmac_to_check[i] != hmac_output[i]) {
 223              		.loc 1 119 0
 224 0006 05E0     		b	.L15
 225              	.LVL25:
 226              	.L17:
 120:main.c        ****             match = 0;
 227              		.loc 1 120 0
 228 0008 C45C     		ldrb	r4, [r0, r3]
 229 000a CA5C     		ldrb	r2, [r1, r3]
 230 000c 9442     		cmp	r4, r2
 231 000e 00D0     		beq	.L16
 121:main.c        ****         }
 232              		.loc 1 121 0
 233 0010 0025     		movs	r5, #0
 234              	.LVL26:
 235              	.L16:
 119:main.c        ****         if (hmac_to_check[i] != hmac_output[i]) {
 236              		.loc 1 119 0 discriminator 2
 237 0012 0133     		adds	r3, r3, #1
 238              	.LVL27:
 239              	.L15:
 119:main.c        ****         if (hmac_to_check[i] != hmac_output[i]) {
ARM GAS  C:\Users\Ray\AppData\Local\Temp\ccXJmGfZ.s 			page 8


 240              		.loc 1 119 0 is_stmt 0 discriminator 1
 241 0014 1F2B     		cmp	r3, #31
 242 0016 F7DD     		ble	.L17
 243              	.LBE3:
 125:main.c        **** }
 244              		.loc 1 125 0 is_stmt 1
 245 0018 2800     		movs	r0, r5
 246              	.LVL28:
 126:main.c        **** 
 247              		.loc 1 126 0
 248              		@ sp needed
 249              	.LVL29:
 250 001a 30BD     		pop	{r4, r5, pc}
 251              		.cfi_endproc
 252              	.LFE38:
 253              		.size	check_hmac, .-check_hmac
 254              		.section	.text.provision,"ax",%progbits
 255              		.align	2
 256              		.global	provision
 257              		.code	16
 258              		.thumb_func
 259              		.type	provision, %function
 260              	provision:
 261              	.LFB40:
 136:main.c        **** 
 137:main.c        **** // provisions HSM (should only ever be called once)
 138:main.c        **** void provision()
 139:main.c        **** {
 262              		.loc 1 139 0
 263              		.cfi_startproc
 264              		@ args = 0, pretend = 0, frame = 224
 265              		@ frame_needed = 0, uses_anonymous_args = 0
 266 0000 70B5     		push	{r4, r5, r6, lr}
 267              		.cfi_def_cfa_offset 16
 268              		.cfi_offset 4, -16
 269              		.cfi_offset 5, -12
 270              		.cfi_offset 6, -8
 271              		.cfi_offset 14, -4
 272 0002 B8B0     		sub	sp, sp, #224
 273              		.cfi_def_cfa_offset 240
 140:main.c        ****     int i;
 141:main.c        ****     uint8 message[109] = {0x00};
 274              		.loc 1 141 0
 275 0004 6D22     		movs	r2, #109
 276 0006 0021     		movs	r1, #0
 277 0008 1CA8     		add	r0, sp, #112
 278 000a FFF7FEFF 		bl	memset
 279              	.LVL30:
 142:main.c        ****     uint8 numbills;
 143:main.c        ****     
 144:main.c        ****     for(i = 0; i < 128; i++) {
 280              		.loc 1 144 0
 281 000e 0024     		movs	r4, #0
 282 0010 07E0     		b	.L20
 283              	.LVL31:
 284              	.L21:
 145:main.c        ****         PIGGY_BANK_Write((uint8*)EMPTY_BILL, MONEY[i], BILL_LEN);
ARM GAS  C:\Users\Ray\AppData\Local\Temp\ccXJmGfZ.s 			page 9


 285              		.loc 1 145 0 discriminator 3
 286 0012 2301     		lsls	r3, r4, #4
 287 0014 3D49     		ldr	r1, .L28
 288 0016 C918     		adds	r1, r1, r3
 289 0018 1022     		movs	r2, #16
 290 001a 3D48     		ldr	r0, .L28+4
 291 001c FFF7FEFF 		bl	PIGGY_BANK_Write
 292              	.LVL32:
 144:main.c        ****         PIGGY_BANK_Write((uint8*)EMPTY_BILL, MONEY[i], BILL_LEN);
 293              		.loc 1 144 0 discriminator 3
 294 0020 0134     		adds	r4, r4, #1
 295              	.LVL33:
 296              	.L20:
 144:main.c        ****         PIGGY_BANK_Write((uint8*)EMPTY_BILL, MONEY[i], BILL_LEN);
 297              		.loc 1 144 0 is_stmt 0 discriminator 1
 298 0022 7F2C     		cmp	r4, #127
 299 0024 F5DD     		ble	.L21
 146:main.c        ****     }
 147:main.c        ****     
 148:main.c        ****     // synchronize with atm
 149:main.c        ****     syncConnection(SYNC_PROV);
 300              		.loc 1 149 0 is_stmt 1
 301 0026 0120     		movs	r0, #1
 302 0028 FFF7FEFF 		bl	syncConnection
 303              	.LVL34:
 150:main.c        ****  
 151:main.c        ****     strcpy((char*)message, PROV_MSG);
 304              		.loc 1 151 0
 305 002c 1CAC     		add	r4, sp, #112
 306              	.LVL35:
 307 002e 5023     		movs	r3, #80
 308 0030 2380     		strh	r3, [r4]
 152:main.c        ****     pushMessage(message, (uint8)strlen(PROV_MSG));
 309              		.loc 1 152 0
 310 0032 0121     		movs	r1, #1
 311 0034 2000     		movs	r0, r4
 312 0036 FFF7FEFF 		bl	pushMessage
 313              	.LVL36:
 153:main.c        ****     
 154:main.c        ****         
 155:main.c        ****     // Set blob
 156:main.c        ****     pullMessage(message);
 314              		.loc 1 156 0
 315 003a 2000     		movs	r0, r4
 316 003c FFF7FEFF 		bl	pullMessage
 317              	.LVL37:
 157:main.c        **** 
 158:main.c        ****     char hex_bank_key[64];
 159:main.c        ****     char hex_nonce[8];
 160:main.c        ****     memcpy(hex_bank_key, message, sizeof(hex_bank_key));
 318              		.loc 1 160 0
 319 0040 4022     		movs	r2, #64
 320 0042 2100     		movs	r1, r4
 321 0044 0BA8     		add	r0, sp, #44
 322 0046 FFF7FEFF 		bl	memcpy
 323              	.LVL38:
 161:main.c        ****     memcpy(hex_nonce, message + sizeof(hex_bank_key), sizeof(hex_nonce));
ARM GAS  C:\Users\Ray\AppData\Local\Temp\ccXJmGfZ.s 			page 10


 324              		.loc 1 161 0
 325 004a 09AA     		add	r2, sp, #36
 326 004c 2CAB     		add	r3, sp, #176
 327 004e 03CB     		ldmia	r3!, {r0, r1}
 328 0050 03C2     		stmia	r2!, {r0, r1}
 329              	.LVL39:
 330              	.LBB4:
 162:main.c        **** 
 163:main.c        ****     uint8 bank_key[32];
 164:main.c        ****     uint8 nonce[4];
 165:main.c        **** 
 166:main.c        ****     for(int i = 0; i < 32; ++i)
 331              		.loc 1 166 0
 332 0052 0024     		movs	r4, #0
 333 0054 09E0     		b	.L22
 334              	.LVL40:
 335              	.L23:
 167:main.c        ****     {
 168:main.c        ****         bank_key[i] = hex2byte(hex_bank_key[2*i], hex_bank_key[2*i + 1]);
 336              		.loc 1 168 0 discriminator 3
 337 0056 6300     		lsls	r3, r4, #1
 338 0058 591C     		adds	r1, r3, #1
 339 005a 0BAA     		add	r2, sp, #44
 340 005c 515C     		ldrb	r1, [r2, r1]
 341 005e D05C     		ldrb	r0, [r2, r3]
 342 0060 FFF7FEFF 		bl	hex2byte
 343              	.LVL41:
 344 0064 01AB     		add	r3, sp, #4
 345 0066 1855     		strb	r0, [r3, r4]
 166:main.c        ****     {
 346              		.loc 1 166 0 discriminator 3
 347 0068 0134     		adds	r4, r4, #1
 348              	.LVL42:
 349              	.L22:
 166:main.c        ****     {
 350              		.loc 1 166 0 is_stmt 0 discriminator 1
 351 006a 1F2C     		cmp	r4, #31
 352 006c F3DD     		ble	.L23
 353 006e 0024     		movs	r4, #0
 354              	.LVL43:
 355 0070 09E0     		b	.L24
 356              	.LVL44:
 357              	.L25:
 358              	.LBE4:
 359              	.LBB5:
 169:main.c        ****     }
 170:main.c        **** 
 171:main.c        ****     for(int i = 0; i < 4; ++i)
 172:main.c        ****     {
 173:main.c        ****         nonce[i] = hex2byte(hex_nonce[2*i], hex_nonce[2*i + 1]);
 360              		.loc 1 173 0 is_stmt 1 discriminator 3
 361 0072 6300     		lsls	r3, r4, #1
 362 0074 591C     		adds	r1, r3, #1
 363 0076 09AA     		add	r2, sp, #36
 364 0078 515C     		ldrb	r1, [r2, r1]
 365 007a D05C     		ldrb	r0, [r2, r3]
 366 007c FFF7FEFF 		bl	hex2byte
ARM GAS  C:\Users\Ray\AppData\Local\Temp\ccXJmGfZ.s 			page 11


 367              	.LVL45:
 368 0080 6B46     		mov	r3, sp
 369 0082 1855     		strb	r0, [r3, r4]
 171:main.c        ****     {
 370              		.loc 1 171 0 discriminator 3
 371 0084 0134     		adds	r4, r4, #1
 372              	.LVL46:
 373              	.L24:
 171:main.c        ****     {
 374              		.loc 1 171 0 is_stmt 0 discriminator 1
 375 0086 032C     		cmp	r4, #3
 376 0088 F3DD     		ble	.L25
 377              	.LBE5:
 174:main.c        ****     }
 175:main.c        **** 
 176:main.c        ****     PIGGY_BANK_Write(bank_key, BANK_AES_KEY, sizeof(bank_key));
 378              		.loc 1 176 0 is_stmt 1
 379 008a 224C     		ldr	r4, .L28+8
 380              	.LVL47:
 381 008c 2022     		movs	r2, #32
 382 008e 2100     		movs	r1, r4
 383 0090 01A8     		add	r0, sp, #4
 384 0092 FFF7FEFF 		bl	PIGGY_BANK_Write
 385              	.LVL48:
 177:main.c        ****     PIGGY_BANK_Write(nonce, NONCE, sizeof(nonce));
 386              		.loc 1 177 0
 387 0096 2100     		movs	r1, r4
 388 0098 2431     		adds	r1, r1, #36
 389 009a 0422     		movs	r2, #4
 390 009c 6846     		mov	r0, sp
 391 009e FFF7FEFF 		bl	PIGGY_BANK_Write
 392              	.LVL49:
 178:main.c        ****     PIGGY_BANK_Write(message + sizeof(hex_bank_key) + sizeof(hex_nonce), UUID, UUID_LEN);
 393              		.loc 1 178 0
 394 00a2 2100     		movs	r1, r4
 395 00a4 2C31     		adds	r1, r1, #44
 396 00a6 1CAE     		add	r6, sp, #112
 397 00a8 2422     		movs	r2, #36
 398 00aa 2EA8     		add	r0, sp, #184
 399 00ac FFF7FEFF 		bl	PIGGY_BANK_Write
 400              	.LVL50:
 179:main.c        **** 
 180:main.c        ****     pushMessage((uint8*)RECV_OK, strlen(RECV_OK));
 401              		.loc 1 180 0
 402 00b0 194D     		ldr	r5, .L28+12
 403 00b2 0121     		movs	r1, #1
 404 00b4 2800     		movs	r0, r5
 405 00b6 FFF7FEFF 		bl	pushMessage
 406              	.LVL51:
 181:main.c        ****     
 182:main.c        ****     // Get numbills
 183:main.c        ****     pullMessage(message);
 407              		.loc 1 183 0
 408 00ba 3000     		movs	r0, r6
 409 00bc FFF7FEFF 		bl	pullMessage
 410              	.LVL52:
 184:main.c        ****     numbills = message[0];
ARM GAS  C:\Users\Ray\AppData\Local\Temp\ccXJmGfZ.s 			page 12


 411              		.loc 1 184 0
 412 00c0 3378     		ldrb	r3, [r6]
 413 00c2 6F20     		movs	r0, #111
 414 00c4 6844     		add	r0, r0, sp
 415 00c6 0370     		strb	r3, [r0]
 185:main.c        ****     PIGGY_BANK_Write(&numbills, BILLS_LEFT, 1u);
 416              		.loc 1 185 0
 417 00c8 2100     		movs	r1, r4
 418 00ca 5431     		adds	r1, r1, #84
 419 00cc 0122     		movs	r2, #1
 420 00ce FFF7FEFF 		bl	PIGGY_BANK_Write
 421              	.LVL53:
 186:main.c        ****     pushMessage((uint8*)RECV_OK, strlen(RECV_OK));
 422              		.loc 1 186 0
 423 00d2 0121     		movs	r1, #1
 424 00d4 2800     		movs	r0, r5
 425 00d6 FFF7FEFF 		bl	pushMessage
 426              	.LVL54:
 187:main.c        ****     
 188:main.c        ****     // Load bills
 189:main.c        ****     for (i = 0; i < numbills; i++) {
 427              		.loc 1 189 0
 428 00da 0024     		movs	r4, #0
 429 00dc 0EE0     		b	.L26
 430              	.LVL55:
 431              	.L27:
 190:main.c        ****         pullMessage(message);
 432              		.loc 1 190 0 discriminator 3
 433 00de 1CA8     		add	r0, sp, #112
 434 00e0 FFF7FEFF 		bl	pullMessage
 435              	.LVL56:
 191:main.c        ****         PIGGY_BANK_Write(message, MONEY[i], BILL_LEN);
 436              		.loc 1 191 0 discriminator 3
 437 00e4 2301     		lsls	r3, r4, #4
 438 00e6 0949     		ldr	r1, .L28
 439 00e8 C918     		adds	r1, r1, r3
 440 00ea 1022     		movs	r2, #16
 441 00ec 1CA8     		add	r0, sp, #112
 442 00ee FFF7FEFF 		bl	PIGGY_BANK_Write
 443              	.LVL57:
 192:main.c        ****         pushMessage((uint8*)RECV_OK, strlen(RECV_OK));
 444              		.loc 1 192 0 discriminator 3
 445 00f2 0121     		movs	r1, #1
 446 00f4 0848     		ldr	r0, .L28+12
 447 00f6 FFF7FEFF 		bl	pushMessage
 448              	.LVL58:
 189:main.c        ****         pullMessage(message);
 449              		.loc 1 189 0 discriminator 3
 450 00fa 0134     		adds	r4, r4, #1
 451              	.LVL59:
 452              	.L26:
 189:main.c        ****         pullMessage(message);
 453              		.loc 1 189 0 is_stmt 0 discriminator 1
 454 00fc 6F23     		movs	r3, #111
 455 00fe 6B44     		add	r3, r3, sp
 456 0100 1B78     		ldrb	r3, [r3]
 457 0102 9C42     		cmp	r4, r3
ARM GAS  C:\Users\Ray\AppData\Local\Temp\ccXJmGfZ.s 			page 13


 458 0104 EBDB     		blt	.L27
 193:main.c        ****     }
 194:main.c        **** }
 459              		.loc 1 194 0 is_stmt 1
 460 0106 38B0     		add	sp, sp, #224
 461              		@ sp needed
 462              	.LVL60:
 463 0108 70BD     		pop	{r4, r5, r6, pc}
 464              	.L29:
 465 010a C046     		.align	2
 466              	.L28:
 467 010c 00000000 		.word	.LANCHOR0
 468 0110 18000000 		.word	.LC5
 469 0114 00080000 		.word	.LANCHOR1
 470 0118 28000000 		.word	.LC8
 471              		.cfi_endproc
 472              	.LFE40:
 473              		.size	provision, .-provision
 474              		.section	.text.dispenseBill,"ax",%progbits
 475              		.align	2
 476              		.global	dispenseBill
 477              		.code	16
 478              		.thumb_func
 479              		.type	dispenseBill, %function
 480              	dispenseBill:
 481              	.LFB41:
 195:main.c        **** 
 196:main.c        **** 
 197:main.c        **** void dispenseBill()
 198:main.c        **** {
 482              		.loc 1 198 0
 483              		.cfi_startproc
 484              		@ args = 0, pretend = 0, frame = 16
 485              		@ frame_needed = 0, uses_anonymous_args = 0
 486 0000 F0B5     		push	{r4, r5, r6, r7, lr}
 487              		.cfi_def_cfa_offset 20
 488              		.cfi_offset 4, -20
 489              		.cfi_offset 5, -16
 490              		.cfi_offset 6, -12
 491              		.cfi_offset 7, -8
 492              		.cfi_offset 14, -4
 493 0002 85B0     		sub	sp, sp, #20
 494              		.cfi_def_cfa_offset 40
 199:main.c        ****     static uint8 stackloc = 0;
 200:main.c        ****     uint8 message[16];
 201:main.c        ****     volatile const uint8* ptr; 
 202:main.c        ****     
 203:main.c        ****     ptr = MONEY[stackloc];
 495              		.loc 1 203 0
 496 0004 124D     		ldr	r5, .L31
 497 0006 2C78     		ldrb	r4, [r5]
 498              	.LVL61:
 204:main.c        ****     
 205:main.c        ****     memset(message, 0u, 16);
 499              		.loc 1 205 0
 500 0008 1022     		movs	r2, #16
 501 000a 0021     		movs	r1, #0
ARM GAS  C:\Users\Ray\AppData\Local\Temp\ccXJmGfZ.s 			page 14


 502 000c 6846     		mov	r0, sp
 503 000e FFF7FEFF 		bl	memset
 504              	.LVL62:
 206:main.c        ****     memcpy(message, (void*)ptr, BILL_LEN);
 505              		.loc 1 206 0
 506 0012 104F     		ldr	r7, .L31+4
 507 0014 2301     		lsls	r3, r4, #4
 508 0016 6A46     		mov	r2, sp
 509 0018 FB18     		adds	r3, r7, r3
 510 001a 13CB     		ldmia	r3!, {r0, r1, r4}
 511 001c 13C2     		stmia	r2!, {r0, r1, r4}
 512              	.LVL63:
 513 001e 1B68     		ldr	r3, [r3]
 514 0020 1360     		str	r3, [r2]
 207:main.c        **** 
 208:main.c        ****     pushMessage(message, BILL_LEN);
 515              		.loc 1 208 0
 516 0022 1021     		movs	r1, #16
 517 0024 6846     		mov	r0, sp
 518 0026 FFF7FEFF 		bl	pushMessage
 519              	.LVL64:
 209:main.c        ****     
 210:main.c        ****     PIGGY_BANK_Write((uint8*)EMPTY_BILL, MONEY[stackloc], 16);
 520              		.loc 1 210 0
 521 002a 2978     		ldrb	r1, [r5]
 522 002c 0901     		lsls	r1, r1, #4
 523 002e 7918     		adds	r1, r7, r1
 524 0030 1022     		movs	r2, #16
 525 0032 0948     		ldr	r0, .L31+8
 526 0034 FFF7FEFF 		bl	PIGGY_BANK_Write
 527              	.LVL65:
 211:main.c        ****     stackloc = (stackloc + 1) % 128;
 528              		.loc 1 211 0
 529 0038 2B78     		ldrb	r3, [r5]
 530 003a 0133     		adds	r3, r3, #1
 531 003c DA17     		asrs	r2, r3, #31
 532 003e 520E     		lsrs	r2, r2, #25
 533 0040 9B18     		adds	r3, r3, r2
 534 0042 7F21     		movs	r1, #127
 535 0044 0B40     		ands	r3, r1
 536 0046 9B1A     		subs	r3, r3, r2
 537 0048 2B70     		strb	r3, [r5]
 212:main.c        **** }
 538              		.loc 1 212 0
 539 004a 05B0     		add	sp, sp, #20
 540              		@ sp needed
 541 004c F0BD     		pop	{r4, r5, r6, r7, pc}
 542              	.L32:
 543 004e C046     		.align	2
 544              	.L31:
 545 0050 00000000 		.word	.LANCHOR2
 546 0054 00000000 		.word	.LANCHOR0
 547 0058 18000000 		.word	.LC5
 548              		.cfi_endproc
 549              	.LFE41:
 550              		.size	dispenseBill, .-dispenseBill
 551              		.section	.text.main,"ax",%progbits
ARM GAS  C:\Users\Ray\AppData\Local\Temp\ccXJmGfZ.s 			page 15


 552              		.align	2
 553              		.global	main
 554              		.code	16
 555              		.thumb_func
 556              		.type	main, %function
 557              	main:
 558              	.LFB42:
 213:main.c        **** 
 214:main.c        **** 
 215:main.c        **** int main(void)
 216:main.c        **** {
 559              		.loc 1 216 0
 560              		.cfi_startproc
 561              		@ args = 0, pretend = 0, frame = 200
 562              		@ frame_needed = 0, uses_anonymous_args = 0
 563 0000 F0B5     		push	{r4, r5, r6, r7, lr}
 564              		.cfi_def_cfa_offset 20
 565              		.cfi_offset 4, -20
 566              		.cfi_offset 5, -16
 567              		.cfi_offset 6, -12
 568              		.cfi_offset 7, -8
 569              		.cfi_offset 14, -4
 570 0002 4F46     		mov	r7, r9
 571 0004 4646     		mov	r6, r8
 572 0006 C0B4     		push	{r6, r7}
 573              		.cfi_def_cfa_offset 28
 574              		.cfi_offset 8, -28
 575              		.cfi_offset 9, -24
 576 0008 B5B0     		sub	sp, sp, #212
 577              		.cfi_def_cfa_offset 240
 217:main.c        ****     CyGlobalIntEnable; /* Enable global interrupts. */
 578              		.loc 1 217 0
 579              		.syntax divided
 580              	@ 217 "main.c" 1
 581 000a 62B6     		CPSIE   i
 582              	@ 0 "" 2
 218:main.c        ****     
 219:main.c        ****     // start reset button
 220:main.c        ****     Reset_isr_StartEx(Reset_ISR);
 583              		.loc 1 220 0
 584              		.thumb
 585              		.syntax unified
 586 000c 6248     		ldr	r0, .L43
 587 000e FFF7FEFF 		bl	Reset_isr_StartEx
 588              	.LVL66:
 221:main.c        ****     
 222:main.c        ****     /* Declare vairables here */
 223:main.c        ****     
 224:main.c        ****     uint8 numbills, i, bills_left;
 225:main.c        ****     uint8 message[64];
 226:main.c        ****     
 227:main.c        ****     /*
 228:main.c        ****      * Note:
 229:main.c        ****      *  To write to EEPROM, write to static const uint8 []
 230:main.c        ****      *  To read from EEPROM, read from volatile const uint8 * 
 231:main.c        ****      *      set to write variable
 232:main.c        ****      *
ARM GAS  C:\Users\Ray\AppData\Local\Temp\ccXJmGfZ.s 			page 16


 233:main.c        ****      * PSoC EEPROM is very finnicky if this format is not followed
 234:main.c        ****      */
 235:main.c        ****     static const uint8 PROVISIONED[1] = {0x00}; // write variable
 236:main.c        ****     volatile const uint8* ptr = PROVISIONED;    // read variable
 237:main.c        ****     
 238:main.c        ****     
 239:main.c        ****     /* Place your initialization/startup code here (e.g. MyInst_Start()) */
 240:main.c        ****     
 241:main.c        ****     PIGGY_BANK_Start();
 589              		.loc 1 241 0
 590 0012 FFF7FEFF 		bl	PIGGY_BANK_Start
 591              	.LVL67:
 242:main.c        ****     DB_UART_Start();
 592              		.loc 1 242 0
 593 0016 FFF7FEFF 		bl	DB_UART_Start
 594              	.LVL68:
 243:main.c        ****     
 244:main.c        ****     // provision security module on first boot
 245:main.c        ****     if(*ptr == 0x00)
 595              		.loc 1 245 0
 596 001a 5823     		movs	r3, #88
 597 001c 5F4A     		ldr	r2, .L43+4
 598 001e D35C     		ldrb	r3, [r2, r3]
 599 0020 002B     		cmp	r3, #0
 600 0022 0AD1     		bne	.L35
 246:main.c        ****     {
 247:main.c        ****         provision();
 601              		.loc 1 247 0
 602 0024 FFF7FEFF 		bl	provision
 603              	.LVL69:
 248:main.c        ****         
 249:main.c        ****         // Mark as provisioned
 250:main.c        ****         i = 0x01;
 604              		.loc 1 250 0
 605 0028 CF20     		movs	r0, #207
 606 002a 6844     		add	r0, r0, sp
 607 002c 0123     		movs	r3, #1
 608 002e 0370     		strb	r3, [r0]
 251:main.c        ****         PIGGY_BANK_Write(&i, PROVISIONED,1u);
 609              		.loc 1 251 0
 610 0030 0122     		movs	r2, #1
 611 0032 5A49     		ldr	r1, .L43+4
 612 0034 5831     		adds	r1, r1, #88
 613 0036 FFF7FEFF 		bl	PIGGY_BANK_Write
 614              	.LVL70:
 615              	.L35:
 252:main.c        ****     }
 253:main.c        ****     
 254:main.c        ****     // Go into infinite loop
 255:main.c        ****     while (1) {
 256:main.c        ****         /* Place your application code here. */
 257:main.c        **** 
 258:main.c        ****         // synchronize with bank
 259:main.c        ****         syncConnection(SYNC_NORM);
 616              		.loc 1 259 0
 617 003a 0020     		movs	r0, #0
 618 003c FFF7FEFF 		bl	syncConnection
ARM GAS  C:\Users\Ray\AppData\Local\Temp\ccXJmGfZ.s 			page 17


 619              	.LVL71:
 260:main.c        **** 
 261:main.c        ****         // Get command to perform 
 262:main.c        ****         pullMessage(message);
 620              		.loc 1 262 0
 621 0040 23AC     		add	r4, sp, #140
 622 0042 2000     		movs	r0, r4
 623 0044 FFF7FEFF 		bl	pullMessage
 624              	.LVL72:
 263:main.c        ****         pushMessage((uint8*)RECV_OK, strlen(RECV_OK));
 625              		.loc 1 263 0
 626 0048 0121     		movs	r1, #1
 627 004a 5548     		ldr	r0, .L43+8
 628 004c FFF7FEFF 		bl	pushMessage
 629              	.LVL73:
 264:main.c        **** 
 265:main.c        ****         if (message[0] == DECRYPT){
 630              		.loc 1 265 0
 631 0050 2378     		ldrb	r3, [r4]
 632 0052 312B     		cmp	r3, #49
 633 0054 5ED1     		bne	.L36
 634              	.LBB6:
 266:main.c        **** 
 267:main.c        ****             //First, check hmac 
 268:main.c        ****             pullMessage(message);
 635              		.loc 1 268 0
 636 0056 23AC     		add	r4, sp, #140
 637 0058 2000     		movs	r0, r4
 638 005a FFF7FEFF 		bl	pullMessage
 639              	.LVL74:
 269:main.c        ****             uint8_t hmac_to_check[32] = {0};
 640              		.loc 1 269 0
 641 005e 0BAF     		add	r7, sp, #44
 642 0060 2022     		movs	r2, #32
 643 0062 0021     		movs	r1, #0
 644 0064 3800     		movs	r0, r7
 645 0066 FFF7FEFF 		bl	memset
 646              	.LVL75:
 270:main.c        ****             memcpy(hmac_to_check, message, sizeof(hmac_to_check));
 647              		.loc 1 270 0
 648 006a 3B00     		movs	r3, r7
 649 006c 2200     		movs	r2, r4
 650 006e 23CA     		ldmia	r2!, {r0, r1, r5}
 651 0070 23C3     		stmia	r3!, {r0, r1, r5}
 652 0072 23CA     		ldmia	r2!, {r0, r1, r5}
 653 0074 23C3     		stmia	r3!, {r0, r1, r5}
 654 0076 03CA     		ldmia	r2!, {r0, r1}
 655 0078 03C3     		stmia	r3!, {r0, r1}
 271:main.c        **** 
 272:main.c        ****             // Get IV 
 273:main.c        ****             pullMessage(message);
 656              		.loc 1 273 0
 657 007a 2000     		movs	r0, r4
 658 007c FFF7FEFF 		bl	pullMessage
 659              	.LVL76:
 274:main.c        ****             uint8_t iv[16] = {0};
 660              		.loc 1 274 0
ARM GAS  C:\Users\Ray\AppData\Local\Temp\ccXJmGfZ.s 			page 18


 661 0080 03AD     		add	r5, sp, #12
 662 0082 1022     		movs	r2, #16
 663 0084 0021     		movs	r1, #0
 664 0086 2800     		movs	r0, r5
 665 0088 FFF7FEFF 		bl	memset
 666              	.LVL77:
 275:main.c        ****             memcpy(iv, message, sizeof(iv));
 667              		.loc 1 275 0
 668 008c 2B00     		movs	r3, r5
 669 008e 2200     		movs	r2, r4
 670 0090 43CA     		ldmia	r2!, {r0, r1, r6}
 671 0092 43C3     		stmia	r3!, {r0, r1, r6}
 672 0094 9146     		mov	r9, r2
 673 0096 9846     		mov	r8, r3
 674 0098 1268     		ldr	r2, [r2]
 675 009a 1A60     		str	r2, [r3]
 276:main.c        **** 
 277:main.c        ****             // Get ciphertext
 278:main.c        ****             pullMessage(message);
 676              		.loc 1 278 0
 677 009c 2000     		movs	r0, r4
 678 009e FFF7FEFF 		bl	pullMessage
 679              	.LVL78:
 279:main.c        ****             uint8_t ciphertext[16] = {0};
 680              		.loc 1 279 0
 681 00a2 07AE     		add	r6, sp, #28
 682 00a4 1022     		movs	r2, #16
 683 00a6 0021     		movs	r1, #0
 684 00a8 3000     		movs	r0, r6
 685 00aa FFF7FEFF 		bl	memset
 686              	.LVL79:
 280:main.c        ****             memcpy(ciphertext, message, sizeof(ciphertext));  
 687              		.loc 1 280 0
 688 00ae 3300     		movs	r3, r6
 689 00b0 07CC     		ldmia	r4!, {r0, r1, r2}
 690 00b2 07C3     		stmia	r3!, {r0, r1, r2}
 691 00b4 4A46     		mov	r2, r9
 692 00b6 1268     		ldr	r2, [r2]
 693 00b8 1A60     		str	r2, [r3]
 281:main.c        **** 
 282:main.c        ****             uint8_t hmac_output[32];
 283:main.c        ****             uint8_t hmac_data[32];
 284:main.c        **** 
 285:main.c        ****             memcpy(hmac_data, ciphertext, sizeof(ciphertext));
 694              		.loc 1 285 0
 695 00ba 1BAB     		add	r3, sp, #108
 696 00bc 9C46     		mov	ip, r3
 697 00be 1900     		movs	r1, r3
 698 00c0 19CE     		ldmia	r6!, {r0, r3, r4}
 699 00c2 19C1     		stmia	r1!, {r0, r3, r4}
 700 00c4 0A60     		str	r2, [r1]
 286:main.c        ****             memcpy(hmac_data + sizeof(ciphertext), iv, sizeof(iv));
 701              		.loc 1 286 0
 702 00c6 1FAA     		add	r2, sp, #124
 703 00c8 0BCD     		ldmia	r5!, {r0, r1, r3}
 704 00ca 0BC2     		stmia	r2!, {r0, r1, r3}
 705 00cc 4146     		mov	r1, r8
ARM GAS  C:\Users\Ray\AppData\Local\Temp\ccXJmGfZ.s 			page 19


 706 00ce 0968     		ldr	r1, [r1]
 707 00d0 1160     		str	r1, [r2]
 287:main.c        **** 
 288:main.c        ****             HMAC(hmac_output, BANK_AES_KEY, 32, hmac_data, sizeof(hmac_data));
 708              		.loc 1 288 0
 709 00d2 2022     		movs	r2, #32
 710 00d4 0092     		str	r2, [sp]
 711 00d6 6346     		mov	r3, ip
 712 00d8 3049     		ldr	r1, .L43+4
 713 00da 13A8     		add	r0, sp, #76
 714 00dc FFF7FEFF 		bl	HMAC
 715              	.LVL80:
 289:main.c        ****             
 290:main.c        ****             if (!check_hmac(hmac_to_check, hmac_output)) {
 716              		.loc 1 290 0
 717 00e0 13A9     		add	r1, sp, #76
 718 00e2 3800     		movs	r0, r7
 719 00e4 FFF7FEFF 		bl	check_hmac
 720              	.LVL81:
 721 00e8 0028     		cmp	r0, #0
 722 00ea 04D1     		bne	.L37
 291:main.c        ****                 
 292:main.c        ****                 pushMessage(hmac_output, sizeof(hmac_output));
 723              		.loc 1 292 0
 724 00ec 2021     		movs	r1, #32
 725 00ee 13A8     		add	r0, sp, #76
 726 00f0 FFF7FEFF 		bl	pushMessage
 727              	.LVL82:
 728 00f4 A1E7     		b	.L35
 729              	.L37:
 293:main.c        ****                 continue;
 294:main.c        ****             }
 295:main.c        **** 
 296:main.c        ****             // Decrypt message
 297:main.c        ****             uint8_t plaintext[4] = {0};
 730              		.loc 1 297 0
 731 00f6 0023     		movs	r3, #0
 732 00f8 0293     		str	r3, [sp, #8]
 298:main.c        ****             aes256_crypt_ctr(plaintext, BANK_AES_KEY, iv, ciphertext, sizeof(ciphertext));
 733              		.loc 1 298 0
 734 00fa 1033     		adds	r3, r3, #16
 735 00fc 0093     		str	r3, [sp]
 736 00fe 07AB     		add	r3, sp, #28
 737 0100 03AA     		add	r2, sp, #12
 738 0102 2649     		ldr	r1, .L43+4
 739 0104 02A8     		add	r0, sp, #8
 740 0106 FFF7FEFF 		bl	aes256_crypt_ctr
 741              	.LVL83:
 299:main.c        **** 
 300:main.c        ****             // Return plaintext 
 301:main.c        ****             pushMessage(plaintext, sizeof(plaintext));
 742              		.loc 1 301 0
 743 010a 0421     		movs	r1, #4
 744 010c 02A8     		add	r0, sp, #8
 745 010e FFF7FEFF 		bl	pushMessage
 746              	.LVL84:
 747              	.LBE6:
ARM GAS  C:\Users\Ray\AppData\Local\Temp\ccXJmGfZ.s 			page 20


 748 0112 92E7     		b	.L35
 749              	.L36:
 302:main.c        **** 
 303:main.c        ****         } else if (message[0] == GET_UUID){
 750              		.loc 1 303 0
 751 0114 332B     		cmp	r3, #51
 752 0116 08D1     		bne	.L39
 304:main.c        ****             pullMessage(message);
 753              		.loc 1 304 0
 754 0118 23A8     		add	r0, sp, #140
 755 011a FFF7FEFF 		bl	pullMessage
 756              	.LVL85:
 305:main.c        **** 
 306:main.c        ****             pushMessage(UUID, UUID_LEN);
 757              		.loc 1 306 0
 758 011e 2421     		movs	r1, #36
 759 0120 1E48     		ldr	r0, .L43+4
 760 0122 2C30     		adds	r0, r0, #44
 761 0124 FFF7FEFF 		bl	pushMessage
 762              	.LVL86:
 763 0128 87E7     		b	.L35
 764              	.L39:
 307:main.c        ****         }
 308:main.c        ****         else if (message[0] == DISPENSE_BILLS) {
 765              		.loc 1 308 0
 766 012a 322B     		cmp	r3, #50
 767 012c 85D1     		bne	.L35
 309:main.c        ****             pushMessage((uint8*)WITH_OK, strlen(WITH_OK));
 768              		.loc 1 309 0
 769 012e 0121     		movs	r1, #1
 770 0130 1B48     		ldr	r0, .L43+8
 771 0132 FFF7FEFF 		bl	pushMessage
 772              	.LVL87:
 310:main.c        ****             
 311:main.c        ****             // get number of bills
 312:main.c        ****             pullMessage(message);
 773              		.loc 1 312 0
 774 0136 23AC     		add	r4, sp, #140
 775 0138 2000     		movs	r0, r4
 776 013a FFF7FEFF 		bl	pullMessage
 777              	.LVL88:
 313:main.c        ****             numbills = message[0];
 778              		.loc 1 313 0
 779 013e 2478     		ldrb	r4, [r4]
 780              	.LVL89:
 314:main.c        ****             
 315:main.c        ****             ptr = BILLS_LEFT;
 316:main.c        ****             if (*ptr < numbills) {
 781              		.loc 1 316 0
 782 0140 5423     		movs	r3, #84
 783 0142 164A     		ldr	r2, .L43+4
 784 0144 D35C     		ldrb	r3, [r2, r3]
 785 0146 DBB2     		uxtb	r3, r3
 786 0148 9C42     		cmp	r4, r3
 787 014a 04D9     		bls	.L40
 317:main.c        ****                 pushMessage((uint8*)WITH_BAE, strlen(WITH_BAE));
 788              		.loc 1 317 0
ARM GAS  C:\Users\Ray\AppData\Local\Temp\ccXJmGfZ.s 			page 21


 789 014c 0321     		movs	r1, #3
 790 014e 1548     		ldr	r0, .L43+12
 791 0150 FFF7FEFF 		bl	pushMessage
 792              	.LVL90:
 318:main.c        ****                 continue;
 793              		.loc 1 318 0
 794 0154 71E7     		b	.L35
 795              	.L40:
 319:main.c        ****             } else {
 320:main.c        ****                 pushMessage((uint8*)WITH_OK, strlen(WITH_OK));
 796              		.loc 1 320 0
 797 0156 0121     		movs	r1, #1
 798 0158 1148     		ldr	r0, .L43+8
 799 015a FFF7FEFF 		bl	pushMessage
 800              	.LVL91:
 321:main.c        ****                 bills_left = *ptr - numbills;
 801              		.loc 1 321 0
 802 015e 0F49     		ldr	r1, .L43+4
 803 0160 5423     		movs	r3, #84
 804 0162 CB5C     		ldrb	r3, [r1, r3]
 805 0164 CE20     		movs	r0, #206
 806 0166 6844     		add	r0, r0, sp
 807 0168 1B1B     		subs	r3, r3, r4
 808 016a 0370     		strb	r3, [r0]
 322:main.c        ****                 PIGGY_BANK_Write(&bills_left, BILLS_LEFT, 0x01);
 809              		.loc 1 322 0
 810 016c 5431     		adds	r1, r1, #84
 811 016e 0122     		movs	r2, #1
 812 0170 FFF7FEFF 		bl	PIGGY_BANK_Write
 813              	.LVL92:
 323:main.c        ****             }
 324:main.c        ****             
 325:main.c        ****             for (i = 0; i < numbills; i++) {
 814              		.loc 1 325 0
 815 0174 0022     		movs	r2, #0
 816 0176 CF23     		movs	r3, #207
 817 0178 6B44     		add	r3, r3, sp
 818 017a 1A70     		strb	r2, [r3]
 819 017c 06E0     		b	.L41
 820              	.L42:
 326:main.c        ****                 dispenseBill();
 821              		.loc 1 326 0 discriminator 3
 822 017e FFF7FEFF 		bl	dispenseBill
 823              	.LVL93:
 325:main.c        ****                 dispenseBill();
 824              		.loc 1 325 0 discriminator 3
 825 0182 CF22     		movs	r2, #207
 826 0184 6A44     		add	r2, r2, sp
 827 0186 1378     		ldrb	r3, [r2]
 828 0188 0133     		adds	r3, r3, #1
 829 018a 1370     		strb	r3, [r2]
 830              	.L41:
 325:main.c        ****                 dispenseBill();
 831              		.loc 1 325 0 is_stmt 0 discriminator 1
 832 018c CF23     		movs	r3, #207
 833 018e 6B44     		add	r3, r3, sp
 834 0190 1B78     		ldrb	r3, [r3]
ARM GAS  C:\Users\Ray\AppData\Local\Temp\ccXJmGfZ.s 			page 22


 835 0192 9C42     		cmp	r4, r3
 836 0194 F3D8     		bhi	.L42
 837 0196 50E7     		b	.L35
 838              	.L44:
 839              		.align	2
 840              	.L43:
 841 0198 00000000 		.word	Reset_ISR
 842 019c 00080000 		.word	.LANCHOR1
 843 01a0 28000000 		.word	.LC8
 844 01a4 2C000000 		.word	.LC19
 845              		.cfi_endproc
 846              	.LFE42:
 847              		.size	main, .-main
 848              		.section	.rodata
 849              		.align	2
 850              		.set	.LANCHOR0,. + 0
 851              		.set	.LANCHOR1,. + 2048
 852              		.type	MONEY, %object
 853              		.size	MONEY, 2048
 854              	MONEY:
 855 0000 2A2A2A2A 		.ascii	"*****EMPTY*****\000"
 855      2A454D50 
 855      54592A2A 
 855      2A2A2A00 
 856 0010 00000000 		.space	2032
 856      00000000 
 856      00000000 
 856      00000000 
 856      00000000 
 857              		.type	BANK_AES_KEY, %object
 858              		.size	BANK_AES_KEY, 33
 859              	BANK_AES_KEY:
 860 0800 00000000 		.space	33
 860      00000000 
 860      00000000 
 860      00000000 
 860      00000000 
 861 0821 000000   		.space	3
 862              		.type	NONCE, %object
 863              		.size	NONCE, 5
 864              	NONCE:
 865 0824 62       		.byte	98
 866 0825 6C       		.byte	108
 867 0826 61       		.byte	97
 868 0827 6E       		.byte	110
 869 0828 00       		.byte	0
 870 0829 000000   		.space	3
 871              		.type	UUID, %object
 872              		.size	UUID, 37
 873              	UUID:
 874 082c 62       		.byte	98
 875 082d 6C       		.byte	108
 876 082e 61       		.byte	97
 877 082f 6E       		.byte	110
 878 0830 6B       		.byte	107
 879 0831 20       		.byte	32
 880 0832 75       		.byte	117
ARM GAS  C:\Users\Ray\AppData\Local\Temp\ccXJmGfZ.s 			page 23


 881 0833 75       		.byte	117
 882 0834 69       		.byte	105
 883 0835 64       		.byte	100
 884 0836 21       		.byte	33
 885 0837 00       		.byte	0
 886 0838 00000000 		.space	25
 886      00000000 
 886      00000000 
 886      00000000 
 886      00000000 
 887 0851 000000   		.space	3
 888              		.type	BILLS_LEFT, %object
 889              		.size	BILLS_LEFT, 1
 890              	BILLS_LEFT:
 891 0854 00       		.space	1
 892 0855 000000   		.space	3
 893              		.type	PROVISIONED.6700, %object
 894              		.size	PROVISIONED.6700, 1
 895              	PROVISIONED.6700:
 896 0858 00       		.space	1
 897              		.section	.rodata.str1.4,"aMS",%progbits,1
 898              		.align	2
 899              	.LC0:
 900 0000 496E2069 		.ascii	"In interrupt\012\000"
 900      6E746572 
 900      72757074 
 900      0A00
 901 000e 0000     		.space	2
 902              	.LC2:
 903 0010 25303258 		.ascii	"%02X\000"
 903      00
 904 0015 000000   		.space	3
 905              	.LC5:
 906 0018 2A2A2A2A 		.ascii	"*****EMPTY*****\000"
 906      2A454D50 
 906      54592A2A 
 906      2A2A2A00 
 907              	.LC8:
 908 0028 4B00     		.ascii	"K\000"
 909 002a 0000     		.space	2
 910              	.LC19:
 911 002c 42414500 		.ascii	"BAE\000"
 912              		.bss
 913              		.set	.LANCHOR2,. + 0
 914              		.type	stackloc.6690, %object
 915              		.size	stackloc.6690, 1
 916              	stackloc.6690:
 917 0000 00       		.space	1
 918              		.text
 919              	.Letext0:
 920              		.file 2 "c:\\program files (x86)\\cypress\\psoc creator\\4.1\\psoc creator\\import\\gnu\\arm\\5.4.
 921              		.file 3 "c:\\program files (x86)\\cypress\\psoc creator\\4.1\\psoc creator\\import\\gnu\\arm\\5.4.
 922              		.file 4 "Generated_Source\\PSoC4/cytypes.h"
 923              		.file 5 "usbserialprotocol.h"
 924              		.file 6 "Generated_Source\\PSoC4/SW1.h"
 925              		.file 7 "Generated_Source\\PSoC4/CyLib.h"
 926              		.file 8 "c:\\program files (x86)\\cypress\\psoc creator\\4.1\\psoc creator\\import\\gnu\\arm\\5.4.
ARM GAS  C:\Users\Ray\AppData\Local\Temp\ccXJmGfZ.s 			page 24


 927              		.file 9 "Generated_Source\\PSoC4/PIGGY_BANK.h"
 928              		.file 10 "..\\strong-arm.cylib\\strong-arm\\include/strong-arm/hmac.h"
 929              		.file 11 "..\\strong-arm.cylib\\strong-arm\\include/strong-arm/aes.h"
 930              		.file 12 "Generated_Source\\PSoC4/Reset_isr.h"
 931              		.file 13 "Generated_Source\\PSoC4/DB_UART.h"