ARM GAS  C:\Users\Ray\AppData\Local\Temp\ccI6quwJ.s 			page 1


   1              		.syntax unified
   2              		.cpu cortex-m0
   3              		.fpu softvfp
   4              		.eabi_attribute 20, 1
   5              		.eabi_attribute 21, 1
   6              		.eabi_attribute 23, 3
   7              		.eabi_attribute 24, 1
   8              		.eabi_attribute 25, 1
   9              		.eabi_attribute 26, 1
  10              		.eabi_attribute 30, 1
  11              		.eabi_attribute 34, 0
  12              		.eabi_attribute 18, 4
  13              		.thumb
  14              		.syntax unified
  15              		.file	"main.c"
  16              		.text
  17              	.Ltext0:
  18              		.cfi_sections	.debug_frame
  19              		.section	.text.Reset_ISR,"ax",%progbits
  20              		.align	2
  21              		.global	Reset_ISR
  22              		.code	16
  23              		.thumb_func
  24              		.type	Reset_ISR, %function
  25              	Reset_ISR:
  26              	.LFB37:
  27              		.file 1 "main.c"
   1:main.c        **** /* ========================================
   2:main.c        ****  *
   3:main.c        ****  * Copyright YOUR COMPANY, THE YEAR
   4:main.c        ****  * All Rights Reserved
   5:main.c        ****  * UNPUBLISHED, LICENSED SOFTWARE.
   6:main.c        ****  *
   7:main.c        ****  * CONFIDENTIAL AND PROPRIETARY INFORMATION
   8:main.c        ****  * WHICH IS THE PROPERTY OF your company.
   9:main.c        ****  *
  10:main.c        ****  * ========================================
  11:main.c        **** */
  12:main.c        **** 
  13:main.c        **** #include "project.h"
  14:main.c        **** #include <stdlib.h>
  15:main.c        **** #include "usbserialprotocol.h"
  16:main.c        **** #include "SW1.h"
  17:main.c        **** #include "Reset_isr.h"
  18:main.c        **** #include <strong-arm/sha256.h>
  19:main.c        **** #include <strong-arm/aes.h>
  20:main.c        **** #include <strong-arm/random.h>
  21:main.c        **** #include <strong-arm/hmac.h>
  22:main.c        **** #include <stdio.h>
  23:main.c        **** 
  24:main.c        **** #define PIN_LEN 8
  25:main.c        **** #define UUID_LEN 36
  26:main.c        **** #define PINCHG_SUC "SUCCESS"
  27:main.c        **** #define PROV_MSG "P"
  28:main.c        **** #define RECV_OK "K"
  29:main.c        **** #define NONCE_OK "OK"
  30:main.c        **** #define COMPUTE_HMAC '2'
ARM GAS  C:\Users\Ray\AppData\Local\Temp\ccI6quwJ.s 			page 2


  31:main.c        **** #define GET_UUID '3'
  32:main.c        **** 
  33:main.c        **** //CARD
  34:main.c        **** 
  35:main.c        **** /* 
  36:main.c        ****  * How to read from EEPROM (persistent memory):
  37:main.c        ****  * 
  38:main.c        ****  * // read variable:
  39:main.c        ****  * static const uint8 EEPROM_BUF_VAR[len] = { val1, val2, ... };
  40:main.c        ****  * // write variable:
  41:main.c        ****  * volatile const uint8 *ptr = EEPROM_BUF_VAR;
  42:main.c        ****  * 
  43:main.c        ****  * uint8 val1 = *ptr;
  44:main.c        ****  * uint8 buf[4] = { 0x01, 0x02, 0x03, 0x04 };
  45:main.c        ****  * USER_INFO_Write(message, EEPROM_BUF_VAR, 4u); 
  46:main.c        ****  */
  47:main.c        **** 
  48:main.c        **** // global EEPROM read variables
  49:main.c        **** static const uint8 PIN[PIN_LEN] = {0x36, 0x35, 0x34, 0x33, 0x35, 0x34, 0x34, 0x36}; //eCTF
  50:main.c        **** static const uint8 UUID[UUID_LEN] = {0x37, 0x33, 0x36, 0x35, 0x36, 0x33, 0x37, 0x35, 0x37, 0x32, 0x
  51:main.c        **** static const uint8 BANK_AES_KEY[33] = { 0x00 };
  52:main.c        **** 
  53:main.c        **** 
  54:main.c        **** uint8_t hex2byte(char upper_digit, char lower_digit)
  55:main.c        **** {
  56:main.c        ****     uint8_t value = 0;
  57:main.c        ****     
  58:main.c        ****     // Lower nybble.
  59:main.c        ****     if(lower_digit >= '0' && lower_digit <= '9')
  60:main.c        ****     {
  61:main.c        ****         value = lower_digit - '0';
  62:main.c        ****     }
  63:main.c        ****     else if(lower_digit >= 'a' && lower_digit <= 'f')
  64:main.c        ****     {
  65:main.c        ****         value = lower_digit - 'a' + 0xA;
  66:main.c        ****     }
  67:main.c        ****     else if(lower_digit >= 'A' && lower_digit <= 'F')
  68:main.c        ****     {
  69:main.c        ****         value = lower_digit - 'A' + 0xA;
  70:main.c        ****     }
  71:main.c        ****     
  72:main.c        ****     // Upper nybble.
  73:main.c        ****     if(upper_digit >= '0' && upper_digit <= '9')
  74:main.c        ****     {
  75:main.c        ****         value |= (upper_digit - '0') << 4;
  76:main.c        ****     }
  77:main.c        ****     else if(upper_digit >= 'a' && upper_digit <= 'f')
  78:main.c        ****     {
  79:main.c        ****         value |= (upper_digit - 'a' + 0xA) << 4;
  80:main.c        ****     }
  81:main.c        ****     else if(upper_digit >= 'A' && upper_digit <= 'F')
  82:main.c        ****     {
  83:main.c        ****         value |= (upper_digit - 'A' + 0xA) << 4;
  84:main.c        ****     }
  85:main.c        ****     
  86:main.c        ****     // Return result.
  87:main.c        ****     return value;
ARM GAS  C:\Users\Ray\AppData\Local\Temp\ccI6quwJ.s 			page 3


  88:main.c        **** }
  89:main.c        **** 
  90:main.c        **** void bytes2hex(uint8_t byte, char* dest)
  91:main.c        **** {       
  92:main.c        ****     sprintf(dest, "%02X", byte);
  93:main.c        **** }
  94:main.c        **** 
  95:main.c        **** 
  96:main.c        **** // reset interrupt on button press
  97:main.c        **** CY_ISR(Reset_ISR)
  98:main.c        **** {
  28              		.loc 1 98 0
  29              		.cfi_startproc
  30              		@ args = 0, pretend = 0, frame = 0
  31              		@ frame_needed = 0, uses_anonymous_args = 0
  32 0000 10B5     		push	{r4, lr}
  33              		.cfi_def_cfa_offset 8
  34              		.cfi_offset 4, -8
  35              		.cfi_offset 14, -4
  99:main.c        ****     pushMessage((uint8*)"In interrupt\n", strlen("In interrupt\n"));
  36              		.loc 1 99 0
  37 0002 0D21     		movs	r1, #13
  38 0004 0348     		ldr	r0, .L2
  39 0006 FFF7FEFF 		bl	pushMessage
  40              	.LVL0:
 100:main.c        ****     SW1_ClearInterrupt();
  41              		.loc 1 100 0
  42 000a FFF7FEFF 		bl	SW1_ClearInterrupt
  43              	.LVL1:
 101:main.c        ****     CySoftwareReset();
  44              		.loc 1 101 0
  45 000e FFF7FEFF 		bl	CySoftwareReset
  46              	.LVL2:
 102:main.c        **** }
  47              		.loc 1 102 0
  48              		@ sp needed
  49 0012 10BD     		pop	{r4, pc}
  50              	.L3:
  51              		.align	2
  52              	.L2:
  53 0014 00000000 		.word	.LC0
  54              		.cfi_endproc
  55              	.LFE37:
  56              		.size	Reset_ISR, .-Reset_ISR
  57              		.section	.text.hex2byte,"ax",%progbits
  58              		.align	2
  59              		.global	hex2byte
  60              		.code	16
  61              		.thumb_func
  62              		.type	hex2byte, %function
  63              	hex2byte:
  64              	.LFB35:
  55:main.c        ****     uint8_t value = 0;
  65              		.loc 1 55 0
  66              		.cfi_startproc
  67              		@ args = 0, pretend = 0, frame = 0
  68              		@ frame_needed = 0, uses_anonymous_args = 0
ARM GAS  C:\Users\Ray\AppData\Local\Temp\ccI6quwJ.s 			page 4


  69              		@ link register save eliminated.
  70              	.LVL3:
  71 0000 0300     		movs	r3, r0
  72              	.LVL4:
  59:main.c        ****     {
  73              		.loc 1 59 0
  74 0002 0800     		movs	r0, r1
  75              	.LVL5:
  76 0004 3038     		subs	r0, r0, #48
  77 0006 C0B2     		uxtb	r0, r0
  78 0008 0928     		cmp	r0, #9
  79 000a 10D9     		bls	.L5
  63:main.c        ****     {
  80              		.loc 1 63 0
  81 000c 0A00     		movs	r2, r1
  82 000e 613A     		subs	r2, r2, #97
  83 0010 D2B2     		uxtb	r2, r2
  84 0012 052A     		cmp	r2, #5
  85 0014 02D8     		bhi	.L6
  65:main.c        ****     }
  86              		.loc 1 65 0
  87 0016 5739     		subs	r1, r1, #87
  88              	.LVL6:
  89 0018 C8B2     		uxtb	r0, r1
  90              	.LVL7:
  91 001a 08E0     		b	.L5
  92              	.LVL8:
  93              	.L6:
  67:main.c        ****     {
  94              		.loc 1 67 0
  95 001c 0A00     		movs	r2, r1
  96 001e 413A     		subs	r2, r2, #65
  97 0020 D2B2     		uxtb	r2, r2
  98 0022 052A     		cmp	r2, #5
  99 0024 02D8     		bhi	.L10
  69:main.c        ****     }
 100              		.loc 1 69 0
 101 0026 3739     		subs	r1, r1, #55
 102              	.LVL9:
 103 0028 C8B2     		uxtb	r0, r1
 104              	.LVL10:
 105 002a 00E0     		b	.L5
 106              	.LVL11:
 107              	.L10:
  56:main.c        ****     
 108              		.loc 1 56 0
 109 002c 0020     		movs	r0, #0
 110              	.LVL12:
 111              	.L5:
  73:main.c        ****     {
 112              		.loc 1 73 0
 113 002e 1A00     		movs	r2, r3
 114 0030 303A     		subs	r2, r2, #48
 115 0032 D2B2     		uxtb	r2, r2
 116 0034 092A     		cmp	r2, #9
 117 0036 04D8     		bhi	.L7
  75:main.c        ****     }
ARM GAS  C:\Users\Ray\AppData\Local\Temp\ccI6quwJ.s 			page 5


 118              		.loc 1 75 0
 119 0038 303B     		subs	r3, r3, #48
 120 003a 1B01     		lsls	r3, r3, #4
 121 003c 1843     		orrs	r0, r3
 122              	.LVL13:
 123 003e C0B2     		uxtb	r0, r0
 124              	.LVL14:
 125 0040 12E0     		b	.L8
 126              	.L7:
  77:main.c        ****     {
 127              		.loc 1 77 0
 128 0042 1A00     		movs	r2, r3
 129 0044 613A     		subs	r2, r2, #97
 130 0046 D2B2     		uxtb	r2, r2
 131 0048 052A     		cmp	r2, #5
 132 004a 04D8     		bhi	.L9
  79:main.c        ****     }
 133              		.loc 1 79 0
 134 004c 573B     		subs	r3, r3, #87
 135 004e 1B01     		lsls	r3, r3, #4
 136 0050 1843     		orrs	r0, r3
 137              	.LVL15:
 138 0052 C0B2     		uxtb	r0, r0
 139              	.LVL16:
 140 0054 08E0     		b	.L8
 141              	.L9:
  81:main.c        ****     {
 142              		.loc 1 81 0
 143 0056 1A00     		movs	r2, r3
 144 0058 413A     		subs	r2, r2, #65
 145 005a D2B2     		uxtb	r2, r2
 146 005c 052A     		cmp	r2, #5
 147 005e 03D8     		bhi	.L8
  83:main.c        ****     }
 148              		.loc 1 83 0
 149 0060 373B     		subs	r3, r3, #55
 150 0062 1B01     		lsls	r3, r3, #4
 151 0064 1843     		orrs	r0, r3
 152              	.LVL17:
 153 0066 C0B2     		uxtb	r0, r0
 154              	.LVL18:
 155              	.L8:
  88:main.c        **** 
 156              		.loc 1 88 0
 157              		@ sp needed
 158 0068 7047     		bx	lr
 159              		.cfi_endproc
 160              	.LFE35:
 161              		.size	hex2byte, .-hex2byte
 162 006a C046     		.section	.text.bytes2hex,"ax",%progbits
 163              		.align	2
 164              		.global	bytes2hex
 165              		.code	16
 166              		.thumb_func
 167              		.type	bytes2hex, %function
 168              	bytes2hex:
 169              	.LFB36:
ARM GAS  C:\Users\Ray\AppData\Local\Temp\ccI6quwJ.s 			page 6


  91:main.c        ****     sprintf(dest, "%02X", byte);
 170              		.loc 1 91 0
 171              		.cfi_startproc
 172              		@ args = 0, pretend = 0, frame = 0
 173              		@ frame_needed = 0, uses_anonymous_args = 0
 174              	.LVL19:
 175 0000 10B5     		push	{r4, lr}
 176              		.cfi_def_cfa_offset 8
 177              		.cfi_offset 4, -8
 178              		.cfi_offset 14, -4
 179 0002 0200     		movs	r2, r0
 180 0004 0800     		movs	r0, r1
 181              	.LVL20:
  92:main.c        **** }
 182              		.loc 1 92 0
 183 0006 0249     		ldr	r1, .L12
 184              	.LVL21:
 185 0008 FFF7FEFF 		bl	sprintf
 186              	.LVL22:
  93:main.c        **** 
 187              		.loc 1 93 0
 188              		@ sp needed
 189 000c 10BD     		pop	{r4, pc}
 190              	.L13:
 191 000e C046     		.align	2
 192              	.L12:
 193 0010 10000000 		.word	.LC2
 194              		.cfi_endproc
 195              	.LFE36:
 196              		.size	bytes2hex, .-bytes2hex
 197              		.section	.text.provision,"ax",%progbits
 198              		.align	2
 199              		.global	provision
 200              		.code	16
 201              		.thumb_func
 202              		.type	provision, %function
 203              	provision:
 204              	.LFB38:
 103:main.c        **** 
 104:main.c        **** // provisions card (should only ever be called once)
 105:main.c        **** void provision()
 106:main.c        **** {
 205              		.loc 1 106 0
 206              		.cfi_startproc
 207              		@ args = 0, pretend = 0, frame = 208
 208              		@ frame_needed = 0, uses_anonymous_args = 0
 209 0000 10B5     		push	{r4, lr}
 210              		.cfi_def_cfa_offset 8
 211              		.cfi_offset 4, -8
 212              		.cfi_offset 14, -4
 213 0002 B4B0     		sub	sp, sp, #208
 214              		.cfi_def_cfa_offset 216
 107:main.c        ****     uint8 message[109] = {0x00};
 215              		.loc 1 107 0
 216 0004 6D22     		movs	r2, #109
 217 0006 0021     		movs	r1, #0
 218 0008 18A8     		add	r0, sp, #96
ARM GAS  C:\Users\Ray\AppData\Local\Temp\ccI6quwJ.s 			page 7


 219 000a FFF7FEFF 		bl	memset
 220              	.LVL23:
 108:main.c        ****     
 109:main.c        ****     // synchronize with bank
 110:main.c        ****     syncConnection(SYNC_PROV);
 221              		.loc 1 110 0
 222 000e 0120     		movs	r0, #1
 223 0010 FFF7FEFF 		bl	syncConnection
 224              	.LVL24:
 111:main.c        ****  
 112:main.c        ****     pushMessage((uint8*)PROV_MSG, (uint8)strlen(PROV_MSG));
 225              		.loc 1 112 0
 226 0014 0121     		movs	r1, #1
 227 0016 1548     		ldr	r0, .L17
 228 0018 FFF7FEFF 		bl	pushMessage
 229              	.LVL25:
 113:main.c        ****         
 114:main.c        ****     // set PIN
 115:main.c        ****     // pullMessage(message);
 116:main.c        ****     // USER_INFO_Write(message, PIN, PIN_LEN);
 117:main.c        ****     // pushMessage((uint8*)RECV_OK, strlen(RECV_OK));
 118:main.c        ****     
 119:main.c        ****     // set account number
 120:main.c        ****     pullMessage(message);
 230              		.loc 1 120 0
 231 001c 18A8     		add	r0, sp, #96
 232 001e FFF7FEFF 		bl	pullMessage
 233              	.LVL26:
 121:main.c        ****     char hex_bank_key[64];
 122:main.c        ****     memcpy(hex_bank_key, message, sizeof(hex_bank_key));
 234              		.loc 1 122 0
 235 0022 4022     		movs	r2, #64
 236 0024 18A9     		add	r1, sp, #96
 237 0026 08A8     		add	r0, sp, #32
 238 0028 FFF7FEFF 		bl	memcpy
 239              	.LVL27:
 240              	.LBB2:
 123:main.c        **** 
 124:main.c        ****     uint8_t bank_key[32];
 125:main.c        **** 
 126:main.c        ****     for(int i = 0; i < 32; ++i)
 241              		.loc 1 126 0
 242 002c 0024     		movs	r4, #0
 243 002e 09E0     		b	.L15
 244              	.LVL28:
 245              	.L16:
 127:main.c        ****     {
 128:main.c        ****         bank_key[i] = hex2byte(hex_bank_key[2*i], hex_bank_key[2*i + 1]);
 246              		.loc 1 128 0 discriminator 3
 247 0030 6300     		lsls	r3, r4, #1
 248 0032 591C     		adds	r1, r3, #1
 249 0034 08AA     		add	r2, sp, #32
 250 0036 515C     		ldrb	r1, [r2, r1]
 251 0038 D05C     		ldrb	r0, [r2, r3]
 252 003a FFF7FEFF 		bl	hex2byte
 253              	.LVL29:
 254 003e 6B46     		mov	r3, sp
ARM GAS  C:\Users\Ray\AppData\Local\Temp\ccI6quwJ.s 			page 8


 255 0040 1855     		strb	r0, [r3, r4]
 126:main.c        ****     {
 256              		.loc 1 126 0 discriminator 3
 257 0042 0134     		adds	r4, r4, #1
 258              	.LVL30:
 259              	.L15:
 126:main.c        ****     {
 260              		.loc 1 126 0 is_stmt 0 discriminator 1
 261 0044 1F2C     		cmp	r4, #31
 262 0046 F3DD     		ble	.L16
 263              	.LBE2:
 129:main.c        ****     }
 130:main.c        **** 
 131:main.c        ****     USER_INFO_Write(bank_key, BANK_AES_KEY, sizeof(bank_key));
 264              		.loc 1 131 0 is_stmt 1
 265 0048 094C     		ldr	r4, .L17+4
 266              	.LVL31:
 267 004a 2022     		movs	r2, #32
 268 004c 2100     		movs	r1, r4
 269 004e 6846     		mov	r0, sp
 270 0050 FFF7FEFF 		bl	USER_INFO_Write
 271              	.LVL32:
 132:main.c        ****     USER_INFO_Write(message + sizeof(hex_bank_key), UUID, UUID_LEN);
 272              		.loc 1 132 0
 273 0054 2100     		movs	r1, r4
 274 0056 2431     		adds	r1, r1, #36
 275 0058 2422     		movs	r2, #36
 276 005a 28A8     		add	r0, sp, #160
 277 005c FFF7FEFF 		bl	USER_INFO_Write
 278              	.LVL33:
 133:main.c        **** 
 134:main.c        ****     pushMessage((uint8*)RECV_OK, strlen(RECV_OK));
 279              		.loc 1 134 0
 280 0060 0121     		movs	r1, #1
 281 0062 0448     		ldr	r0, .L17+8
 282 0064 FFF7FEFF 		bl	pushMessage
 283              	.LVL34:
 135:main.c        **** }
 284              		.loc 1 135 0
 285 0068 34B0     		add	sp, sp, #208
 286              		@ sp needed
 287 006a 10BD     		pop	{r4, pc}
 288              	.L18:
 289              		.align	2
 290              	.L17:
 291 006c 18000000 		.word	.LC4
 292 0070 00000000 		.word	.LANCHOR0
 293 0074 1C000000 		.word	.LC7
 294              		.cfi_endproc
 295              	.LFE38:
 296              		.size	provision, .-provision
 297              		.section	.text.main,"ax",%progbits
 298              		.align	2
 299              		.global	main
 300              		.code	16
 301              		.thumb_func
 302              		.type	main, %function
ARM GAS  C:\Users\Ray\AppData\Local\Temp\ccI6quwJ.s 			page 9


 303              	main:
 304              	.LFB39:
 136:main.c        **** 
 137:main.c        **** 
 138:main.c        **** int main(void)
 139:main.c        **** {
 305              		.loc 1 139 0
 306              		.cfi_startproc
 307              		@ args = 0, pretend = 0, frame = 208
 308              		@ frame_needed = 0, uses_anonymous_args = 0
 309 0000 70B5     		push	{r4, r5, r6, lr}
 310              		.cfi_def_cfa_offset 16
 311              		.cfi_offset 4, -16
 312              		.cfi_offset 5, -12
 313              		.cfi_offset 6, -8
 314              		.cfi_offset 14, -4
 315 0002 B6B0     		sub	sp, sp, #216
 316              		.cfi_def_cfa_offset 232
 140:main.c        ****     // enable global interrupts -- DO NOT DELETE
 141:main.c        ****     CyGlobalIntEnable;
 317              		.loc 1 141 0
 318              		.syntax divided
 319              	@ 141 "main.c" 1
 320 0004 62B6     		CPSIE   i
 321              	@ 0 "" 2
 142:main.c        ****     
 143:main.c        ****     // start reset button
 144:main.c        ****     Reset_isr_StartEx(Reset_ISR);
 322              		.loc 1 144 0
 323              		.thumb
 324              		.syntax unified
 325 0006 2748     		ldr	r0, .L24
 326 0008 FFF7FEFF 		bl	Reset_isr_StartEx
 327              	.LVL35:
 145:main.c        ****     
 146:main.c        ****     /* Declare vairables here */
 147:main.c        ****     uint8 i;
 148:main.c        ****     uint8 message[128];
 149:main.c        ****     
 150:main.c        ****     // local EEPROM read variable
 151:main.c        ****     static const uint8 PROVISIONED[1] = {0x00};
 152:main.c        ****     
 153:main.c        ****     // EEPROM write variable
 154:main.c        ****     volatile const uint8 *ptr = PROVISIONED;
 155:main.c        ****     
 156:main.c        ****     /* Place your initialization/startup code here (e.g. MyInst_Start()) */
 157:main.c        ****     USER_INFO_Start();
 328              		.loc 1 157 0
 329 000c FFF7FEFF 		bl	USER_INFO_Start
 330              	.LVL36:
 158:main.c        ****     USB_UART_Start();
 331              		.loc 1 158 0
 332 0010 FFF7FEFF 		bl	USB_UART_Start
 333              	.LVL37:
 159:main.c        ****     
 160:main.c        ****     // Provision card if on first boot
 161:main.c        ****     // ptr = PROVISIONED;
ARM GAS  C:\Users\Ray\AppData\Local\Temp\ccI6quwJ.s 			page 10


 162:main.c        ****     if (*ptr == 0x00) {
 334              		.loc 1 162 0
 335 0014 4823     		movs	r3, #72
 336 0016 244A     		ldr	r2, .L24+4
 337 0018 D35C     		ldrb	r3, [r2, r3]
 338 001a 002B     		cmp	r3, #0
 339 001c 0AD1     		bne	.L21
 163:main.c        ****         provision();
 340              		.loc 1 163 0
 341 001e FFF7FEFF 		bl	provision
 342              	.LVL38:
 164:main.c        ****         
 165:main.c        ****         // Mark as provisioned
 166:main.c        ****         i = 0x01;
 343              		.loc 1 166 0
 344 0022 D720     		movs	r0, #215
 345 0024 6844     		add	r0, r0, sp
 346 0026 0123     		movs	r3, #1
 347 0028 0370     		strb	r3, [r0]
 167:main.c        ****         USER_INFO_Write(&i,PROVISIONED, 1u);
 348              		.loc 1 167 0
 349 002a 0122     		movs	r2, #1
 350 002c 1E49     		ldr	r1, .L24+4
 351 002e 4831     		adds	r1, r1, #72
 352 0030 FFF7FEFF 		bl	USER_INFO_Write
 353              	.LVL39:
 354              	.L21:
 168:main.c        ****     }
 169:main.c        **** 
 170:main.c        ****     // USB_UART_UartPutString("Provisioned!\r\n");
 171:main.c        ****     
 172:main.c        ****     // Go into infinite loop
 173:main.c        ****     while (1) {
 174:main.c        ****                /* Place your application code here. */
 175:main.c        ****         
 176:main.c        ****         // syncronize communication with bank
 177:main.c        ****         syncConnection(SYNC_NORM);
 355              		.loc 1 177 0
 356 0034 0020     		movs	r0, #0
 357 0036 FFF7FEFF 		bl	syncConnection
 358              	.LVL40:
 178:main.c        **** 
 179:main.c        ****         // get command
 180:main.c        ****         pullMessage(message);
 359              		.loc 1 180 0
 360 003a 15AC     		add	r4, sp, #84
 361 003c 2000     		movs	r0, r4
 362 003e FFF7FEFF 		bl	pullMessage
 363              	.LVL41:
 181:main.c        ****         pushMessage((uint8*)RECV_OK, strlen(RECV_OK));
 364              		.loc 1 181 0
 365 0042 0121     		movs	r1, #1
 366 0044 1948     		ldr	r0, .L24+8
 367 0046 FFF7FEFF 		bl	pushMessage
 368              	.LVL42:
 182:main.c        **** 
 183:main.c        ****         if (message[0] == GET_UUID) {
ARM GAS  C:\Users\Ray\AppData\Local\Temp\ccI6quwJ.s 			page 11


 369              		.loc 1 183 0
 370 004a 2378     		ldrb	r3, [r4]
 371 004c 332B     		cmp	r3, #51
 372 004e 05D1     		bne	.L22
 184:main.c        ****             pushMessage(UUID, UUID_LEN);
 373              		.loc 1 184 0
 374 0050 2421     		movs	r1, #36
 375 0052 1548     		ldr	r0, .L24+4
 376 0054 2430     		adds	r0, r0, #36
 377 0056 FFF7FEFF 		bl	pushMessage
 378              	.LVL43:
 379 005a EBE7     		b	.L21
 380              	.L22:
 185:main.c        ****         } else if (message[0] == COMPUTE_HMAC) {
 381              		.loc 1 185 0
 382 005c 322B     		cmp	r3, #50
 383 005e E9D1     		bne	.L21
 384              	.LBB3:
 186:main.c        ****             // receive challenge nonce from ATM
 187:main.c        ****             uint8_t nonce[4];
 188:main.c        ****             pullMessage(message);
 385              		.loc 1 188 0
 386 0060 15A8     		add	r0, sp, #84
 387 0062 FFF7FEFF 		bl	pullMessage
 388              	.LVL44:
 189:main.c        ****             memcpy(nonce, message, sizeof(nonce));
 389              		.loc 1 189 0
 390 0066 159B     		ldr	r3, [sp, #84]
 391 0068 0293     		str	r3, [sp, #8]
 190:main.c        ****             pushMessage((uint8*)NONCE_OK, strlen(NONCE_OK));
 392              		.loc 1 190 0
 393 006a 0221     		movs	r1, #2
 394 006c 1048     		ldr	r0, .L24+12
 395 006e FFF7FEFF 		bl	pushMessage
 396              	.LVL45:
 191:main.c        **** 
 192:main.c        ****             //Send HMAC
 193:main.c        ****             uint8_t hmac_output[32];
 194:main.c        ****             uint8_t hmac_data[40];
 195:main.c        **** 
 196:main.c        ****             memcpy(hmac_data, UUID, UUID_LEN);
 397              		.loc 1 196 0
 398 0072 0BAB     		add	r3, sp, #44
 399 0074 0C49     		ldr	r1, .L24+4
 400 0076 1800     		movs	r0, r3
 401 0078 0A00     		movs	r2, r1
 402 007a 2432     		adds	r2, r2, #36
 403 007c 70CA     		ldmia	r2!, {r4, r5, r6}
 404 007e 70C0     		stmia	r0!, {r4, r5, r6}
 405 0080 70CA     		ldmia	r2!, {r4, r5, r6}
 406 0082 70C0     		stmia	r0!, {r4, r5, r6}
 407 0084 70CA     		ldmia	r2!, {r4, r5, r6}
 408 0086 70C0     		stmia	r0!, {r4, r5, r6}
 197:main.c        ****             memcpy(hmac_data + UUID_LEN, nonce, sizeof(nonce));
 409              		.loc 1 197 0
 410 0088 029A     		ldr	r2, [sp, #8]
 411 008a 5A62     		str	r2, [r3, #36]
ARM GAS  C:\Users\Ray\AppData\Local\Temp\ccI6quwJ.s 			page 12


 198:main.c        **** 
 199:main.c        ****             HMAC(hmac_output, BANK_AES_KEY, 32, hmac_data, sizeof(hmac_data));
 412              		.loc 1 199 0
 413 008c 2822     		movs	r2, #40
 414 008e 0092     		str	r2, [sp]
 415 0090 083A     		subs	r2, r2, #8
 416 0092 03A8     		add	r0, sp, #12
 417 0094 FFF7FEFF 		bl	HMAC
 418              	.LVL46:
 200:main.c        **** 
 201:main.c        ****             // Push UUID so that bank can look up AES Key for comm
 202:main.c        ****             pushMessage(hmac_output, sizeof(hmac_output));
 419              		.loc 1 202 0
 420 0098 2021     		movs	r1, #32
 421 009a 03A8     		add	r0, sp, #12
 422 009c FFF7FEFF 		bl	pushMessage
 423              	.LVL47:
 424 00a0 C8E7     		b	.L21
 425              	.L25:
 426 00a2 C046     		.align	2
 427              	.L24:
 428 00a4 00000000 		.word	Reset_ISR
 429 00a8 00000000 		.word	.LANCHOR0
 430 00ac 1C000000 		.word	.LC7
 431 00b0 20000000 		.word	.LC13
 432              	.LBE3:
 433              		.cfi_endproc
 434              	.LFE39:
 435              		.size	main, .-main
 436              		.section	.rodata
 437              		.align	2
 438              		.set	.LANCHOR0,. + 0
 439              		.type	BANK_AES_KEY, %object
 440              		.size	BANK_AES_KEY, 33
 441              	BANK_AES_KEY:
 442 0000 00000000 		.space	33
 442      00000000 
 442      00000000 
 442      00000000 
 442      00000000 
 443 0021 000000   		.space	3
 444              		.type	UUID, %object
 445              		.size	UUID, 36
 446              	UUID:
 447 0024 37       		.byte	55
 448 0025 33       		.byte	51
 449 0026 36       		.byte	54
 450 0027 35       		.byte	53
 451 0028 36       		.byte	54
 452 0029 33       		.byte	51
 453 002a 37       		.byte	55
 454 002b 35       		.byte	53
 455 002c 37       		.byte	55
 456 002d 32       		.byte	50
 457 002e 36       		.byte	54
 458 002f 39       		.byte	57
 459 0030 37       		.byte	55
ARM GAS  C:\Users\Ray\AppData\Local\Temp\ccI6quwJ.s 			page 13


 460 0031 34       		.byte	52
 461 0032 37       		.byte	55
 462 0033 39       		.byte	57
 463 0034 00000000 		.space	20
 463      00000000 
 463      00000000 
 463      00000000 
 463      00000000 
 464              		.type	PROVISIONED.6668, %object
 465              		.size	PROVISIONED.6668, 1
 466              	PROVISIONED.6668:
 467 0048 00       		.space	1
 468              		.section	.rodata.str1.4,"aMS",%progbits,1
 469              		.align	2
 470              	.LC0:
 471 0000 496E2069 		.ascii	"In interrupt\012\000"
 471      6E746572 
 471      72757074 
 471      0A00
 472 000e 0000     		.space	2
 473              	.LC2:
 474 0010 25303258 		.ascii	"%02X\000"
 474      00
 475 0015 000000   		.space	3
 476              	.LC4:
 477 0018 5000     		.ascii	"P\000"
 478 001a 0000     		.space	2
 479              	.LC7:
 480 001c 4B00     		.ascii	"K\000"
 481 001e 0000     		.space	2
 482              	.LC13:
 483 0020 4F4B00   		.ascii	"OK\000"
 484              		.text
 485              	.Letext0:
 486              		.file 2 "c:\\program files (x86)\\cypress\\psoc creator\\4.1\\psoc creator\\import\\gnu\\arm\\5.4.
 487              		.file 3 "c:\\program files (x86)\\cypress\\psoc creator\\4.1\\psoc creator\\import\\gnu\\arm\\5.4.
 488              		.file 4 "Generated_Source\\PSoC4/cytypes.h"
 489              		.file 5 "usbserialprotocol.h"
 490              		.file 6 "Generated_Source\\PSoC4/SW1.h"
 491              		.file 7 "Generated_Source\\PSoC4/CyLib.h"
 492              		.file 8 "c:\\program files (x86)\\cypress\\psoc creator\\4.1\\psoc creator\\import\\gnu\\arm\\5.4.
 493              		.file 9 "Generated_Source\\PSoC4/USER_INFO.h"
 494              		.file 10 "..\\strong-arm.cylib\\strong-arm\\include/strong-arm/hmac.h"
 495              		.file 11 "Generated_Source\\PSoC4/Reset_isr.h"
 496              		.file 12 "Generated_Source\\PSoC4/USB_UART.h"