ARM GAS  C:\Users\Ray\AppData\Local\Temp\ccD3e27e.s 			page 1


   1              		.syntax unified
   2              		.cpu cortex-m0
   3              		.fpu softvfp
   4              		.eabi_attribute 20, 1
   5              		.eabi_attribute 21, 1
   6              		.eabi_attribute 23, 3
   7              		.eabi_attribute 24, 1
   8              		.eabi_attribute 25, 1
   9              		.eabi_attribute 26, 1
  10              		.eabi_attribute 30, 1
  11              		.eabi_attribute 34, 0
  12              		.eabi_attribute 18, 4
  13              		.thumb
  14              		.syntax unified
  15              		.file	"aes256.c"
  16              		.text
  17              	.Ltext0:
  18              		.cfi_sections	.debug_frame
  19              		.section	.text.setup_mix,"ax",%progbits
  20              		.align	2
  21              		.code	16
  22              		.thumb_func
  23              		.type	setup_mix, %function
  24              	setup_mix:
  25              	.LFB0:
  26              		.file 1 "strong-arm\\src\\aes\\aes256.c"
   1:strong-arm\src\aes/aes256.c **** /*
   2:strong-arm\src\aes/aes256.c ****  * Inspired by and copied in part from LibTomCrypt:
   3:strong-arm\src\aes/aes256.c ****  * https://github.com/libtom/libtomcrypt
   4:strong-arm\src\aes/aes256.c ****  *
   5:strong-arm\src\aes/aes256.c ****  */
   6:strong-arm\src\aes/aes256.c **** #include <string.h>
   7:strong-arm\src\aes/aes256.c **** #include <strong-arm/aes.h>
   8:strong-arm\src\aes/aes256.c **** #include "aes256_tables.h"
   9:strong-arm\src\aes/aes256.c **** 
  10:strong-arm\src\aes/aes256.c **** 
  11:strong-arm\src\aes/aes256.c **** #define ROR_C(x, n) (((x) >> (n)) | ((x) << (32 - (n))))
  12:strong-arm\src\aes/aes256.c **** 
  13:strong-arm\src\aes/aes256.c **** 
  14:strong-arm\src\aes/aes256.c **** static uint32_t setup_mix (uint32_t temp)
  15:strong-arm\src\aes/aes256.c **** {
  27              		.loc 1 15 0
  28              		.cfi_startproc
  29              		@ args = 0, pretend = 0, frame = 0
  30              		@ frame_needed = 0, uses_anonymous_args = 0
  31              	.LVL0:
  32 0000 F0B5     		push	{r4, r5, r6, r7, lr}
  33              		.cfi_def_cfa_offset 20
  34              		.cfi_offset 4, -20
  35              		.cfi_offset 5, -16
  36              		.cfi_offset 6, -12
  37              		.cfi_offset 7, -8
  38              		.cfi_offset 14, -4
  16:strong-arm\src\aes/aes256.c **** 	return (Te4[(temp >> 16) & 0xFF] & 0xFF000000) ^
  39              		.loc 1 16 0
  40 0002 030C     		lsrs	r3, r0, #16
  41 0004 FF26     		movs	r6, #255
ARM GAS  C:\Users\Ray\AppData\Local\Temp\ccD3e27e.s 			page 2


  42 0006 3340     		ands	r3, r6
  43 0008 0E4F     		ldr	r7, .L2
  44 000a 9B00     		lsls	r3, r3, #2
  45 000c DC59     		ldr	r4, [r3, r7]
  46 000e 240E     		lsrs	r4, r4, #24
  47 0010 2506     		lsls	r5, r4, #24
  17:strong-arm\src\aes/aes256.c ****                (Te4[(temp >> 8) & 0xFF] & 0x00FF0000) ^
  48              		.loc 1 17 0
  49 0012 030A     		lsrs	r3, r0, #8
  50 0014 3340     		ands	r3, r6
  51 0016 9B00     		lsls	r3, r3, #2
  52 0018 DA59     		ldr	r2, [r3, r7]
  53 001a FF21     		movs	r1, #255
  54 001c 0904     		lsls	r1, r1, #16
  55 001e 0A40     		ands	r2, r1
  16:strong-arm\src\aes/aes256.c **** 	return (Te4[(temp >> 16) & 0xFF] & 0xFF000000) ^
  56              		.loc 1 16 0
  57 0020 2C00     		movs	r4, r5
  58 0022 5440     		eors	r4, r2
  18:strong-arm\src\aes/aes256.c **** 	       (Te4[temp & 0xFF] & 0x0000FF00) ^
  59              		.loc 1 18 0
  60 0024 3300     		movs	r3, r6
  61 0026 0340     		ands	r3, r0
  62 0028 9B00     		lsls	r3, r3, #2
  63 002a DA59     		ldr	r2, [r3, r7]
  64 002c FF21     		movs	r1, #255
  65 002e 0902     		lsls	r1, r1, #8
  66 0030 1140     		ands	r1, r2
  17:strong-arm\src\aes/aes256.c ****                (Te4[(temp >> 8) & 0xFF] & 0x00FF0000) ^
  67              		.loc 1 17 0
  68 0032 2200     		movs	r2, r4
  69 0034 4A40     		eors	r2, r1
  19:strong-arm\src\aes/aes256.c **** 	       (Te4[(temp >> 24) & 0xFF] & 0x000000FF);
  70              		.loc 1 19 0
  71 0036 030E     		lsrs	r3, r0, #24
  72 0038 9B00     		lsls	r3, r3, #2
  73 003a DB59     		ldr	r3, [r3, r7]
  74 003c 3340     		ands	r3, r6
  16:strong-arm\src\aes/aes256.c ****                (Te4[(temp >> 8) & 0xFF] & 0x00FF0000) ^
  75              		.loc 1 16 0
  76 003e 5A40     		eors	r2, r3
  77 0040 1000     		movs	r0, r2
  78              	.LVL1:
  20:strong-arm\src\aes/aes256.c **** }
  79              		.loc 1 20 0
  80              		@ sp needed
  81 0042 F0BD     		pop	{r4, r5, r6, r7, pc}
  82              	.L3:
  83              		.align	2
  84              	.L2:
  85 0044 00000000 		.word	.LANCHOR0
  86              		.cfi_endproc
  87              	.LFE0:
  88              		.size	setup_mix, .-setup_mix
  89              		.section	.text.final_mix,"ax",%progbits
  90              		.align	2
  91              		.code	16
ARM GAS  C:\Users\Ray\AppData\Local\Temp\ccD3e27e.s 			page 3


  92              		.thumb_func
  93              		.type	final_mix, %function
  94              	final_mix:
  95              	.LFB1:
  21:strong-arm\src\aes/aes256.c **** 
  22:strong-arm\src\aes/aes256.c **** 
  23:strong-arm\src\aes/aes256.c **** static uint32_t final_mix (uint8_t a, uint8_t b, uint8_t c, uint8_t d)
  24:strong-arm\src\aes/aes256.c **** {
  96              		.loc 1 24 0
  97              		.cfi_startproc
  98              		@ args = 0, pretend = 0, frame = 0
  99              		@ frame_needed = 0, uses_anonymous_args = 0
 100              	.LVL2:
 101 0000 30B5     		push	{r4, r5, lr}
 102              		.cfi_def_cfa_offset 12
 103              		.cfi_offset 4, -12
 104              		.cfi_offset 5, -8
 105              		.cfi_offset 14, -4
  25:strong-arm\src\aes/aes256.c **** 	return (Te4[a] & 0xFF000000) ^
 106              		.loc 1 25 0
 107 0002 0C4D     		ldr	r5, .L5
 108 0004 8000     		lsls	r0, r0, #2
 109              	.LVL3:
 110 0006 4059     		ldr	r0, [r0, r5]
 111 0008 000E     		lsrs	r0, r0, #24
 112 000a 0406     		lsls	r4, r0, #24
  26:strong-arm\src\aes/aes256.c ****                (Te4[b] & 0x00FF0000) ^
 113              		.loc 1 26 0
 114 000c 8900     		lsls	r1, r1, #2
 115              	.LVL4:
 116 000e 4859     		ldr	r0, [r1, r5]
 117 0010 FF21     		movs	r1, #255
 118 0012 0904     		lsls	r1, r1, #16
 119 0014 0840     		ands	r0, r1
  25:strong-arm\src\aes/aes256.c **** 	return (Te4[a] & 0xFF000000) ^
 120              		.loc 1 25 0
 121 0016 6040     		eors	r0, r4
  27:strong-arm\src\aes/aes256.c **** 	       (Te4[c] & 0x0000FF00) ^
 122              		.loc 1 27 0
 123 0018 9200     		lsls	r2, r2, #2
 124              	.LVL5:
 125 001a 5259     		ldr	r2, [r2, r5]
 126 001c FF21     		movs	r1, #255
 127 001e 0902     		lsls	r1, r1, #8
 128 0020 1140     		ands	r1, r2
  26:strong-arm\src\aes/aes256.c ****                (Te4[b] & 0x00FF0000) ^
 129              		.loc 1 26 0
 130 0022 0200     		movs	r2, r0
 131 0024 4A40     		eors	r2, r1
  28:strong-arm\src\aes/aes256.c **** 	       (Te4[d] & 0x000000FF);
 132              		.loc 1 28 0
 133 0026 9B00     		lsls	r3, r3, #2
 134              	.LVL6:
 135 0028 5B59     		ldr	r3, [r3, r5]
 136 002a FF20     		movs	r0, #255
 137 002c 0340     		ands	r3, r0
  25:strong-arm\src\aes/aes256.c ****                (Te4[b] & 0x00FF0000) ^
ARM GAS  C:\Users\Ray\AppData\Local\Temp\ccD3e27e.s 			page 4


 138              		.loc 1 25 0
 139 002e 5A40     		eors	r2, r3
 140 0030 1000     		movs	r0, r2
  29:strong-arm\src\aes/aes256.c **** }
 141              		.loc 1 29 0
 142              		@ sp needed
 143 0032 30BD     		pop	{r4, r5, pc}
 144              	.L6:
 145              		.align	2
 146              	.L5:
 147 0034 00000000 		.word	.LANCHOR0
 148              		.cfi_endproc
 149              	.LFE1:
 150              		.size	final_mix, .-final_mix
 151              		.section	.text.load_big_endian,"ax",%progbits
 152              		.align	2
 153              		.code	16
 154              		.thumb_func
 155              		.type	load_big_endian, %function
 156              	load_big_endian:
 157              	.LFB2:
  30:strong-arm\src\aes/aes256.c **** 
  31:strong-arm\src\aes/aes256.c **** 
  32:strong-arm\src\aes/aes256.c **** static uint32_t load_big_endian (uint8_t const buf[static 4])
  33:strong-arm\src\aes/aes256.c **** {
 158              		.loc 1 33 0
 159              		.cfi_startproc
 160              		@ args = 0, pretend = 0, frame = 0
 161              		@ frame_needed = 0, uses_anonymous_args = 0
 162              		@ link register save eliminated.
 163              	.LVL7:
  34:strong-arm\src\aes/aes256.c **** 	return (buf[0] << 24) | (buf[1] << 16) | (buf[2] << 8) | buf[3];
 164              		.loc 1 34 0
 165 0000 0378     		ldrb	r3, [r0]
 166 0002 1A06     		lsls	r2, r3, #24
 167 0004 4378     		ldrb	r3, [r0, #1]
 168 0006 1B04     		lsls	r3, r3, #16
 169 0008 1343     		orrs	r3, r2
 170 000a 8278     		ldrb	r2, [r0, #2]
 171 000c 1202     		lsls	r2, r2, #8
 172 000e 1343     		orrs	r3, r2
 173 0010 C078     		ldrb	r0, [r0, #3]
 174              	.LVL8:
 175 0012 1843     		orrs	r0, r3
  35:strong-arm\src\aes/aes256.c **** }
 176              		.loc 1 35 0
 177              		@ sp needed
 178 0014 7047     		bx	lr
 179              		.cfi_endproc
 180              	.LFE2:
 181              		.size	load_big_endian, .-load_big_endian
 182 0016 C046     		.section	.text.save_big_endian,"ax",%progbits
 183              		.align	2
 184              		.code	16
 185              		.thumb_func
 186              		.type	save_big_endian, %function
 187              	save_big_endian:
ARM GAS  C:\Users\Ray\AppData\Local\Temp\ccD3e27e.s 			page 5


 188              	.LFB3:
  36:strong-arm\src\aes/aes256.c **** 
  37:strong-arm\src\aes/aes256.c **** 
  38:strong-arm\src\aes/aes256.c **** static void save_big_endian (uint8_t buf[static 4], uint32_t word)
  39:strong-arm\src\aes/aes256.c **** {
 189              		.loc 1 39 0
 190              		.cfi_startproc
 191              		@ args = 0, pretend = 0, frame = 0
 192              		@ frame_needed = 0, uses_anonymous_args = 0
 193              		@ link register save eliminated.
 194              	.LVL9:
  40:strong-arm\src\aes/aes256.c **** 	buf[0] = word >> 24;
 195              		.loc 1 40 0
 196 0000 0B0E     		lsrs	r3, r1, #24
 197 0002 0370     		strb	r3, [r0]
  41:strong-arm\src\aes/aes256.c **** 	buf[1] = word >> 16;
 198              		.loc 1 41 0
 199 0004 0B0C     		lsrs	r3, r1, #16
 200 0006 4370     		strb	r3, [r0, #1]
  42:strong-arm\src\aes/aes256.c **** 	buf[2] = word >> 8;
 201              		.loc 1 42 0
 202 0008 0B0A     		lsrs	r3, r1, #8
 203 000a 8370     		strb	r3, [r0, #2]
  43:strong-arm\src\aes/aes256.c **** 	buf[3] = word;
 204              		.loc 1 43 0
 205 000c C170     		strb	r1, [r0, #3]
  44:strong-arm\src\aes/aes256.c **** }
 206              		.loc 1 44 0
 207              		@ sp needed
 208 000e 7047     		bx	lr
 209              		.cfi_endproc
 210              	.LFE3:
 211              		.size	save_big_endian, .-save_big_endian
 212              		.section	.text.increment_counter,"ax",%progbits
 213              		.align	2
 214              		.code	16
 215              		.thumb_func
 216              		.type	increment_counter, %function
 217              	increment_counter:
 218              	.LFB5:
  45:strong-arm\src\aes/aes256.c **** 
  46:strong-arm\src\aes/aes256.c **** 
  47:strong-arm\src\aes/aes256.c **** void aes256_encrypt_block (uint8_t ciphertext[static 16], uint8_t const key[static 32], uint8_t con
  48:strong-arm\src\aes/aes256.c **** {
  49:strong-arm\src\aes/aes256.c **** 	uint32_t eK[60];
  50:strong-arm\src\aes/aes256.c **** 	uint32_t t0, t1, t2, t3;
  51:strong-arm\src\aes/aes256.c **** 
  52:strong-arm\src\aes/aes256.c **** 	/* Key Scheduling */
  53:strong-arm\src\aes/aes256.c **** 	for (int i = 0; i < 8; ++i)
  54:strong-arm\src\aes/aes256.c **** 		eK[i] = load_big_endian (key + i * 4);
  55:strong-arm\src\aes/aes256.c **** 
  56:strong-arm\src\aes/aes256.c **** 	for (int i = 0; i < 64-8; i += 8)
  57:strong-arm\src\aes/aes256.c **** 	{
  58:strong-arm\src\aes/aes256.c **** 		eK[i+8] = eK[i] ^ setup_mix (eK[i+7]) ^ rcon[i/8];
  59:strong-arm\src\aes/aes256.c **** 		eK[i+9] = eK[i+1] ^ eK[i+8];
  60:strong-arm\src\aes/aes256.c **** 		eK[i+10] = eK[i+2] ^ eK[i+9];
  61:strong-arm\src\aes/aes256.c **** 		eK[i+11] = eK[i+3] ^ eK[i+10];
ARM GAS  C:\Users\Ray\AppData\Local\Temp\ccD3e27e.s 			page 6


  62:strong-arm\src\aes/aes256.c **** 
  63:strong-arm\src\aes/aes256.c **** 		if (i == 48)
  64:strong-arm\src\aes/aes256.c **** 			break;
  65:strong-arm\src\aes/aes256.c **** 
  66:strong-arm\src\aes/aes256.c **** 		eK[i+12] = eK[i+4] ^ setup_mix (ROR_C (eK[i+11], 8));
  67:strong-arm\src\aes/aes256.c **** 		eK[i+13] = eK[i+5] ^ eK[i+12];
  68:strong-arm\src\aes/aes256.c **** 		eK[i+14] = eK[i+6] ^ eK[i+13];
  69:strong-arm\src\aes/aes256.c **** 		eK[i+15] = eK[i+7] ^ eK[i+14];
  70:strong-arm\src\aes/aes256.c **** 	}
  71:strong-arm\src\aes/aes256.c **** 
  72:strong-arm\src\aes/aes256.c **** 	/* Encryption */
  73:strong-arm\src\aes/aes256.c **** 	uint32_t s0 = load_big_endian (plaintext);
  74:strong-arm\src\aes/aes256.c **** 	uint32_t s1 = load_big_endian (plaintext + 4);
  75:strong-arm\src\aes/aes256.c **** 	uint32_t s2 = load_big_endian (plaintext + 8);
  76:strong-arm\src\aes/aes256.c **** 	uint32_t s3 = load_big_endian (plaintext + 12);
  77:strong-arm\src\aes/aes256.c **** 
  78:strong-arm\src\aes/aes256.c **** 	s0 ^= eK[0];
  79:strong-arm\src\aes/aes256.c **** 	s1 ^= eK[1];
  80:strong-arm\src\aes/aes256.c **** 	s2 ^= eK[2];
  81:strong-arm\src\aes/aes256.c **** 	s3 ^= eK[3];
  82:strong-arm\src\aes/aes256.c **** 
  83:strong-arm\src\aes/aes256.c **** 	for (int r = 1; ; ++r)
  84:strong-arm\src\aes/aes256.c **** 	{
  85:strong-arm\src\aes/aes256.c **** 		t0 = TE0[(s0 >> 24) & 0xFF] ^
  86:strong-arm\src\aes/aes256.c **** 		     ROR_C (TE0[(s1 >> 16) & 0xFF], 8) ^
  87:strong-arm\src\aes/aes256.c **** 		     ROR_C (TE0[(s2 >> 8) & 0xFF], 16) ^
  88:strong-arm\src\aes/aes256.c **** 		     ROR_C (TE0[s3 & 0xFF], 24) ^
  89:strong-arm\src\aes/aes256.c **** 		     eK[r*4];
  90:strong-arm\src\aes/aes256.c **** 
  91:strong-arm\src\aes/aes256.c **** 		t1 = TE0[(s1 >> 24) & 0xFF] ^
  92:strong-arm\src\aes/aes256.c **** 		     ROR_C (TE0[(s2 >> 16) & 0xFF], 8) ^
  93:strong-arm\src\aes/aes256.c **** 		     ROR_C (TE0[(s3 >> 8) & 0xFF], 16) ^
  94:strong-arm\src\aes/aes256.c **** 		     ROR_C (TE0[s0 & 0xFF], 24) ^
  95:strong-arm\src\aes/aes256.c **** 		     eK[r*4 + 1];
  96:strong-arm\src\aes/aes256.c **** 
  97:strong-arm\src\aes/aes256.c **** 		t2 = TE0[(s2 >> 24) & 0xFF] ^
  98:strong-arm\src\aes/aes256.c **** 		     ROR_C (TE0[(s3 >> 16) & 0xFF], 8) ^
  99:strong-arm\src\aes/aes256.c **** 		     ROR_C (TE0[(s0 >> 8) & 0xFF], 16) ^
 100:strong-arm\src\aes/aes256.c **** 		     ROR_C (TE0[s1 & 0xFF], 24) ^
 101:strong-arm\src\aes/aes256.c **** 		     eK[r*4 + 2];
 102:strong-arm\src\aes/aes256.c **** 
 103:strong-arm\src\aes/aes256.c **** 		t3 = TE0[(s3 >> 24) & 0xFF] ^
 104:strong-arm\src\aes/aes256.c **** 		     ROR_C (TE0[(s0 >> 16) & 0xFF], 8) ^
 105:strong-arm\src\aes/aes256.c **** 		     ROR_C (TE0[(s1 >> 8) & 0xFF], 16) ^
 106:strong-arm\src\aes/aes256.c **** 		     ROR_C (TE0[s2 & 0xFF], 24) ^
 107:strong-arm\src\aes/aes256.c **** 		     eK[r*4 + 3];
 108:strong-arm\src\aes/aes256.c **** 
 109:strong-arm\src\aes/aes256.c **** 		if (r == 13)
 110:strong-arm\src\aes/aes256.c **** 			break;
 111:strong-arm\src\aes/aes256.c **** 
 112:strong-arm\src\aes/aes256.c **** 		s0 = t0; s1 = t1; s2 = t2; s3 = t3;
 113:strong-arm\src\aes/aes256.c **** 	}
 114:strong-arm\src\aes/aes256.c **** 
 115:strong-arm\src\aes/aes256.c **** 
 116:strong-arm\src\aes/aes256.c **** 	s0 = final_mix (t0 >> 24, t1 >> 16, t2 >> 8, t3) ^ eK[56];
 117:strong-arm\src\aes/aes256.c **** 	save_big_endian (ciphertext, s0);
 118:strong-arm\src\aes/aes256.c **** 
ARM GAS  C:\Users\Ray\AppData\Local\Temp\ccD3e27e.s 			page 7


 119:strong-arm\src\aes/aes256.c **** 	s1 = final_mix (t1 >> 24, t2 >> 16, t3 >> 8, t0) ^ eK[57];
 120:strong-arm\src\aes/aes256.c **** 	save_big_endian (ciphertext + 4, s1);
 121:strong-arm\src\aes/aes256.c **** 
 122:strong-arm\src\aes/aes256.c **** 	s2 = final_mix (t2 >> 24, t3 >> 16, t0 >> 8, t1) ^ eK[58];
 123:strong-arm\src\aes/aes256.c **** 	save_big_endian (ciphertext + 8, s2);
 124:strong-arm\src\aes/aes256.c **** 
 125:strong-arm\src\aes/aes256.c **** 	s3 = final_mix (t3 >> 24, t0 >> 16, t1 >> 8, t2) ^ eK[59];
 126:strong-arm\src\aes/aes256.c **** 	save_big_endian (ciphertext + 12, s3);
 127:strong-arm\src\aes/aes256.c **** }
 128:strong-arm\src\aes/aes256.c **** 
 129:strong-arm\src\aes/aes256.c **** 
 130:strong-arm\src\aes/aes256.c **** /* Increment a Big-Endian counter */
 131:strong-arm\src\aes/aes256.c **** static void increment_counter (uint8_t counter[static 16])
 132:strong-arm\src\aes/aes256.c **** {
 219              		.loc 1 132 0
 220              		.cfi_startproc
 221              		@ args = 0, pretend = 0, frame = 0
 222              		@ frame_needed = 0, uses_anonymous_args = 0
 223              		@ link register save eliminated.
 224              	.LVL10:
 225              	.LBB2:
 133:strong-arm\src\aes/aes256.c **** 	for (int i = 15; i >= 0; --i)
 226              		.loc 1 133 0
 227 0000 0F22     		movs	r2, #15
 228 0002 07E0     		b	.L10
 229              	.LVL11:
 230              	.L12:
 134:strong-arm\src\aes/aes256.c **** 	{
 135:strong-arm\src\aes/aes256.c **** 		if ((counter[i] += 1) != 0)
 231              		.loc 1 135 0
 232 0004 8118     		adds	r1, r0, r2
 233 0006 0B78     		ldrb	r3, [r1]
 234 0008 0133     		adds	r3, r3, #1
 235 000a DBB2     		uxtb	r3, r3
 236 000c 0B70     		strb	r3, [r1]
 237 000e 002B     		cmp	r3, #0
 238 0010 02D1     		bne	.L9
 133:strong-arm\src\aes/aes256.c **** 	for (int i = 15; i >= 0; --i)
 239              		.loc 1 133 0 discriminator 2
 240 0012 013A     		subs	r2, r2, #1
 241              	.LVL12:
 242              	.L10:
 133:strong-arm\src\aes/aes256.c **** 	for (int i = 15; i >= 0; --i)
 243              		.loc 1 133 0 is_stmt 0 discriminator 1
 244 0014 002A     		cmp	r2, #0
 245 0016 F5DA     		bge	.L12
 246              	.L9:
 247              	.LBE2:
 136:strong-arm\src\aes/aes256.c **** 			break;
 137:strong-arm\src\aes/aes256.c **** 	}
 138:strong-arm\src\aes/aes256.c **** }
 248              		.loc 1 138 0 is_stmt 1
 249              		@ sp needed
 250 0018 7047     		bx	lr
 251              		.cfi_endproc
 252              	.LFE5:
 253              		.size	increment_counter, .-increment_counter
ARM GAS  C:\Users\Ray\AppData\Local\Temp\ccD3e27e.s 			page 8


 254 001a C046     		.section	.text.aes256_encrypt_block,"ax",%progbits
 255              		.align	2
 256              		.global	aes256_encrypt_block
 257              		.code	16
 258              		.thumb_func
 259              		.type	aes256_encrypt_block, %function
 260              	aes256_encrypt_block:
 261              	.LFB4:
  48:strong-arm\src\aes/aes256.c **** 	uint32_t eK[60];
 262              		.loc 1 48 0
 263              		.cfi_startproc
 264              		@ args = 0, pretend = 0, frame = 264
 265              		@ frame_needed = 0, uses_anonymous_args = 0
 266              	.LVL13:
 267 0000 F0B5     		push	{r4, r5, r6, r7, lr}
 268              		.cfi_def_cfa_offset 20
 269              		.cfi_offset 4, -20
 270              		.cfi_offset 5, -16
 271              		.cfi_offset 6, -12
 272              		.cfi_offset 7, -8
 273              		.cfi_offset 14, -4
 274 0002 5F46     		mov	r7, fp
 275 0004 5646     		mov	r6, r10
 276 0006 4D46     		mov	r5, r9
 277 0008 4446     		mov	r4, r8
 278 000a F0B4     		push	{r4, r5, r6, r7}
 279              		.cfi_def_cfa_offset 36
 280              		.cfi_offset 8, -36
 281              		.cfi_offset 9, -32
 282              		.cfi_offset 10, -28
 283              		.cfi_offset 11, -24
 284 000c C3B0     		sub	sp, sp, #268
 285              		.cfi_def_cfa_offset 304
 286 000e 0590     		str	r0, [sp, #20]
 287 0010 0E00     		movs	r6, r1
 288 0012 9246     		mov	r10, r2
 289              	.LVL14:
 290              	.LBB3:
  53:strong-arm\src\aes/aes256.c **** 		eK[i] = load_big_endian (key + i * 4);
 291              		.loc 1 53 0
 292 0014 0024     		movs	r4, #0
 293 0016 06E0     		b	.L14
 294              	.LVL15:
 295              	.L15:
  54:strong-arm\src\aes/aes256.c **** 
 296              		.loc 1 54 0 discriminator 3
 297 0018 A500     		lsls	r5, r4, #2
 298 001a 7019     		adds	r0, r6, r5
 299 001c FFF7FEFF 		bl	load_big_endian
 300              	.LVL16:
 301 0020 06AB     		add	r3, sp, #24
 302 0022 E850     		str	r0, [r5, r3]
  53:strong-arm\src\aes/aes256.c **** 		eK[i] = load_big_endian (key + i * 4);
 303              		.loc 1 53 0 discriminator 3
 304 0024 0134     		adds	r4, r4, #1
 305              	.LVL17:
 306              	.L14:
ARM GAS  C:\Users\Ray\AppData\Local\Temp\ccD3e27e.s 			page 9


  53:strong-arm\src\aes/aes256.c **** 		eK[i] = load_big_endian (key + i * 4);
 307              		.loc 1 53 0 is_stmt 0 discriminator 1
 308 0026 072C     		cmp	r4, #7
 309 0028 F6DD     		ble	.L15
 310 002a 0024     		movs	r4, #0
 311              	.LVL18:
 312 002c 57E0     		b	.L16
 313              	.LVL19:
 314              	.L18:
 315              	.LBE3:
 316              	.LBB4:
  58:strong-arm\src\aes/aes256.c **** 		eK[i+9] = eK[i+1] ^ eK[i+8];
 317              		.loc 1 58 0 is_stmt 1
 318 002e 2600     		movs	r6, r4
 319 0030 0836     		adds	r6, r6, #8
 320 0032 A300     		lsls	r3, r4, #2
 321 0034 06AA     		add	r2, sp, #24
 322 0036 9F58     		ldr	r7, [r3, r2]
 323 0038 E51D     		adds	r5, r4, #7
 324 003a AB00     		lsls	r3, r5, #2
 325 003c 9858     		ldr	r0, [r3, r2]
 326 003e FFF7FEFF 		bl	setup_mix
 327              	.LVL20:
 328 0042 7840     		eors	r0, r7
 329 0044 E317     		asrs	r3, r4, #31
 330 0046 0722     		movs	r2, #7
 331 0048 1340     		ands	r3, r2
 332 004a 1B19     		adds	r3, r3, r4
 333 004c DB10     		asrs	r3, r3, #3
 334 004e 9B00     		lsls	r3, r3, #2
 335 0050 BA4A     		ldr	r2, .L21
 336 0052 9B58     		ldr	r3, [r3, r2]
 337 0054 5840     		eors	r0, r3
 338 0056 B300     		lsls	r3, r6, #2
 339 0058 06AA     		add	r2, sp, #24
 340 005a 9850     		str	r0, [r3, r2]
  59:strong-arm\src\aes/aes256.c **** 		eK[i+10] = eK[i+2] ^ eK[i+9];
 341              		.loc 1 59 0
 342 005c 631C     		adds	r3, r4, #1
 343 005e 9B00     		lsls	r3, r3, #2
 344 0060 9B58     		ldr	r3, [r3, r2]
 345 0062 5840     		eors	r0, r3
 346 0064 2300     		movs	r3, r4
 347 0066 0933     		adds	r3, r3, #9
 348 0068 9B00     		lsls	r3, r3, #2
 349 006a 9850     		str	r0, [r3, r2]
  60:strong-arm\src\aes/aes256.c **** 		eK[i+11] = eK[i+3] ^ eK[i+10];
 350              		.loc 1 60 0
 351 006c A31C     		adds	r3, r4, #2
 352 006e 9B00     		lsls	r3, r3, #2
 353 0070 9B58     		ldr	r3, [r3, r2]
 354 0072 5840     		eors	r0, r3
 355 0074 2300     		movs	r3, r4
 356 0076 0A33     		adds	r3, r3, #10
 357 0078 9B00     		lsls	r3, r3, #2
 358 007a 9850     		str	r0, [r3, r2]
  61:strong-arm\src\aes/aes256.c **** 
ARM GAS  C:\Users\Ray\AppData\Local\Temp\ccD3e27e.s 			page 10


 359              		.loc 1 61 0
 360 007c E31C     		adds	r3, r4, #3
 361 007e 9B00     		lsls	r3, r3, #2
 362 0080 9B58     		ldr	r3, [r3, r2]
 363 0082 5840     		eors	r0, r3
 364 0084 2300     		movs	r3, r4
 365 0086 0B33     		adds	r3, r3, #11
 366 0088 9B00     		lsls	r3, r3, #2
 367 008a 9850     		str	r0, [r3, r2]
  63:strong-arm\src\aes/aes256.c **** 			break;
 368              		.loc 1 63 0
 369 008c 302C     		cmp	r4, #48
 370 008e 28D0     		beq	.L17
  66:strong-arm\src\aes/aes256.c **** 		eK[i+13] = eK[i+5] ^ eK[i+12];
 371              		.loc 1 66 0 discriminator 2
 372 0090 2700     		movs	r7, r4
 373 0092 0C37     		adds	r7, r7, #12
 374 0094 231D     		adds	r3, r4, #4
 375 0096 9B00     		lsls	r3, r3, #2
 376 0098 9B58     		ldr	r3, [r3, r2]
 377 009a 9846     		mov	r8, r3
 378 009c 0823     		movs	r3, #8
 379 009e D841     		rors	r0, r0, r3
 380 00a0 FFF7FEFF 		bl	setup_mix
 381              	.LVL21:
 382 00a4 4346     		mov	r3, r8
 383 00a6 5840     		eors	r0, r3
 384 00a8 BF00     		lsls	r7, r7, #2
 385 00aa 06AB     		add	r3, sp, #24
 386 00ac F850     		str	r0, [r7, r3]
  67:strong-arm\src\aes/aes256.c **** 		eK[i+14] = eK[i+6] ^ eK[i+13];
 387              		.loc 1 67 0 discriminator 2
 388 00ae 2200     		movs	r2, r4
 389 00b0 0D32     		adds	r2, r2, #13
 390 00b2 631D     		adds	r3, r4, #5
 391 00b4 9B00     		lsls	r3, r3, #2
 392 00b6 06A9     		add	r1, sp, #24
 393 00b8 5B58     		ldr	r3, [r3, r1]
 394 00ba 5840     		eors	r0, r3
 395 00bc 9300     		lsls	r3, r2, #2
 396 00be 5850     		str	r0, [r3, r1]
  68:strong-arm\src\aes/aes256.c **** 		eK[i+15] = eK[i+7] ^ eK[i+14];
 397              		.loc 1 68 0 discriminator 2
 398 00c0 2200     		movs	r2, r4
 399 00c2 0E32     		adds	r2, r2, #14
 400 00c4 A31D     		adds	r3, r4, #6
 401 00c6 9B00     		lsls	r3, r3, #2
 402 00c8 5B58     		ldr	r3, [r3, r1]
 403 00ca 5840     		eors	r0, r3
 404 00cc 9300     		lsls	r3, r2, #2
 405 00ce 5850     		str	r0, [r3, r1]
  69:strong-arm\src\aes/aes256.c **** 	}
 406              		.loc 1 69 0 discriminator 2
 407 00d0 0F34     		adds	r4, r4, #15
 408              	.LVL22:
 409 00d2 AD00     		lsls	r5, r5, #2
 410 00d4 6B58     		ldr	r3, [r5, r1]
ARM GAS  C:\Users\Ray\AppData\Local\Temp\ccD3e27e.s 			page 11


 411 00d6 5840     		eors	r0, r3
 412 00d8 A400     		lsls	r4, r4, #2
 413              	.LVL23:
 414 00da 6050     		str	r0, [r4, r1]
 415              	.LVL24:
  56:strong-arm\src\aes/aes256.c **** 	{
 416              		.loc 1 56 0 discriminator 2
 417 00dc 3400     		movs	r4, r6
 418              	.LVL25:
 419              	.L16:
  56:strong-arm\src\aes/aes256.c **** 	{
 420              		.loc 1 56 0 is_stmt 0 discriminator 1
 421 00de 372C     		cmp	r4, #55
 422 00e0 A5DD     		ble	.L18
 423              	.L17:
 424              	.LBE4:
  73:strong-arm\src\aes/aes256.c **** 	uint32_t s1 = load_big_endian (plaintext + 4);
 425              		.loc 1 73 0 is_stmt 1
 426 00e2 5046     		mov	r0, r10
 427 00e4 FFF7FEFF 		bl	load_big_endian
 428              	.LVL26:
 429 00e8 0500     		movs	r5, r0
 430              	.LVL27:
  74:strong-arm\src\aes/aes256.c **** 	uint32_t s2 = load_big_endian (plaintext + 8);
 431              		.loc 1 74 0
 432 00ea 5346     		mov	r3, r10
 433 00ec 181D     		adds	r0, r3, #4
 434              	.LVL28:
 435 00ee FFF7FEFF 		bl	load_big_endian
 436              	.LVL29:
 437 00f2 0400     		movs	r4, r0
 438              	.LVL30:
  75:strong-arm\src\aes/aes256.c **** 	uint32_t s3 = load_big_endian (plaintext + 12);
 439              		.loc 1 75 0
 440 00f4 5046     		mov	r0, r10
 441              	.LVL31:
 442 00f6 0830     		adds	r0, r0, #8
 443 00f8 FFF7FEFF 		bl	load_big_endian
 444              	.LVL32:
 445 00fc 0600     		movs	r6, r0
 446              	.LVL33:
  76:strong-arm\src\aes/aes256.c **** 
 447              		.loc 1 76 0
 448 00fe 5046     		mov	r0, r10
 449              	.LVL34:
 450 0100 0C30     		adds	r0, r0, #12
 451 0102 FFF7FEFF 		bl	load_big_endian
 452              	.LVL35:
  78:strong-arm\src\aes/aes256.c **** 	s1 ^= eK[1];
 453              		.loc 1 78 0
 454 0106 069B     		ldr	r3, [sp, #24]
 455 0108 6B40     		eors	r3, r5
 456              	.LVL36:
  79:strong-arm\src\aes/aes256.c **** 	s2 ^= eK[2];
 457              		.loc 1 79 0
 458 010a 079A     		ldr	r2, [sp, #28]
 459 010c 1100     		movs	r1, r2
ARM GAS  C:\Users\Ray\AppData\Local\Temp\ccD3e27e.s 			page 12


 460 010e 6140     		eors	r1, r4
 461              	.LVL37:
  80:strong-arm\src\aes/aes256.c **** 	s3 ^= eK[3];
 462              		.loc 1 80 0
 463 0110 089A     		ldr	r2, [sp, #32]
 464 0112 5640     		eors	r6, r2
 465              	.LVL38:
  81:strong-arm\src\aes/aes256.c **** 
 466              		.loc 1 81 0
 467 0114 099A     		ldr	r2, [sp, #36]
 468 0116 5040     		eors	r0, r2
 469              	.LVL39:
 470              	.LBB5:
  83:strong-arm\src\aes/aes256.c **** 	{
 471              		.loc 1 83 0
 472 0118 0122     		movs	r2, #1
 473 011a 9346     		mov	fp, r2
 474 011c 0193     		str	r3, [sp, #4]
 475 011e B246     		mov	r10, r6
 476              	.LVL40:
 477 0120 0090     		str	r0, [sp]
 478              	.LVL41:
 479              	.L20:
  85:strong-arm\src\aes/aes256.c **** 		     ROR_C (TE0[(s1 >> 16) & 0xFF], 8) ^
 480              		.loc 1 85 0
 481 0122 019F     		ldr	r7, [sp, #4]
 482 0124 3A0E     		lsrs	r2, r7, #24
 483 0126 8548     		ldr	r0, .L21
 484 0128 9200     		lsls	r2, r2, #2
 485 012a 8218     		adds	r2, r0, r2
 486 012c 966A     		ldr	r6, [r2, #40]
  86:strong-arm\src\aes/aes256.c **** 		     ROR_C (TE0[(s2 >> 8) & 0xFF], 16) ^
 487              		.loc 1 86 0
 488 012e 0C0C     		lsrs	r4, r1, #16
 489 0130 FF22     		movs	r2, #255
 490 0132 1440     		ands	r4, r2
 491 0134 A400     		lsls	r4, r4, #2
 492 0136 0419     		adds	r4, r0, r4
 493 0138 A56A     		ldr	r5, [r4, #40]
 494 013a 0823     		movs	r3, #8
 495 013c 9946     		mov	r9, r3
 496 013e DD41     		rors	r5, r5, r3
  85:strong-arm\src\aes/aes256.c **** 		     ROR_C (TE0[(s1 >> 16) & 0xFF], 8) ^
 497              		.loc 1 85 0
 498 0140 7540     		eors	r5, r6
  87:strong-arm\src\aes/aes256.c **** 		     ROR_C (TE0[s3 & 0xFF], 24) ^
 499              		.loc 1 87 0
 500 0142 5346     		mov	r3, r10
 501 0144 1C0A     		lsrs	r4, r3, #8
 502 0146 1440     		ands	r4, r2
 503 0148 A400     		lsls	r4, r4, #2
 504 014a 0419     		adds	r4, r0, r4
 505 014c A46A     		ldr	r4, [r4, #40]
 506 014e 1023     		movs	r3, #16
 507 0150 9C46     		mov	ip, r3
 508 0152 DC41     		rors	r4, r4, r3
  86:strong-arm\src\aes/aes256.c **** 		     ROR_C (TE0[(s2 >> 8) & 0xFF], 16) ^
ARM GAS  C:\Users\Ray\AppData\Local\Temp\ccD3e27e.s 			page 13


 509              		.loc 1 86 0
 510 0154 6540     		eors	r5, r4
  88:strong-arm\src\aes/aes256.c **** 		     eK[r*4];
 511              		.loc 1 88 0
 512 0156 1400     		movs	r4, r2
 513 0158 009B     		ldr	r3, [sp]
 514 015a 1C40     		ands	r4, r3
 515 015c A400     		lsls	r4, r4, #2
 516 015e 0419     		adds	r4, r0, r4
 517 0160 A46A     		ldr	r4, [r4, #40]
 518 0162 1823     		movs	r3, #24
 519 0164 DC41     		rors	r4, r4, r3
  87:strong-arm\src\aes/aes256.c **** 		     ROR_C (TE0[s3 & 0xFF], 24) ^
 520              		.loc 1 87 0
 521 0166 6540     		eors	r5, r4
  89:strong-arm\src\aes/aes256.c **** 
 522              		.loc 1 89 0
 523 0168 5B46     		mov	r3, fp
 524 016a 9C00     		lsls	r4, r3, #2
 525 016c 1B01     		lsls	r3, r3, #4
 526 016e 9846     		mov	r8, r3
 527 0170 06AB     		add	r3, sp, #24
 528 0172 4646     		mov	r6, r8
 529 0174 F358     		ldr	r3, [r6, r3]
  85:strong-arm\src\aes/aes256.c **** 		     ROR_C (TE0[(s1 >> 16) & 0xFF], 8) ^
 530              		.loc 1 85 0
 531 0176 1E00     		movs	r6, r3
 532 0178 6E40     		eors	r6, r5
 533 017a 0296     		str	r6, [sp, #8]
 534 017c 0496     		str	r6, [sp, #16]
 535              	.LVL42:
  91:strong-arm\src\aes/aes256.c **** 		     ROR_C (TE0[(s2 >> 16) & 0xFF], 8) ^
 536              		.loc 1 91 0
 537 017e 0D0E     		lsrs	r5, r1, #24
 538 0180 AD00     		lsls	r5, r5, #2
 539 0182 4519     		adds	r5, r0, r5
 540 0184 AB6A     		ldr	r3, [r5, #40]
 541 0186 9846     		mov	r8, r3
  92:strong-arm\src\aes/aes256.c **** 		     ROR_C (TE0[(s3 >> 8) & 0xFF], 16) ^
 542              		.loc 1 92 0
 543 0188 5346     		mov	r3, r10
 544 018a 1D0C     		lsrs	r5, r3, #16
 545 018c 1540     		ands	r5, r2
 546 018e AD00     		lsls	r5, r5, #2
 547 0190 4519     		adds	r5, r0, r5
 548 0192 AD6A     		ldr	r5, [r5, #40]
 549 0194 4B46     		mov	r3, r9
 550 0196 DD41     		rors	r5, r5, r3
  91:strong-arm\src\aes/aes256.c **** 		     ROR_C (TE0[(s2 >> 16) & 0xFF], 8) ^
 551              		.loc 1 91 0
 552 0198 4346     		mov	r3, r8
 553 019a 6B40     		eors	r3, r5
 554 019c 9846     		mov	r8, r3
  93:strong-arm\src\aes/aes256.c **** 		     ROR_C (TE0[s0 & 0xFF], 24) ^
 555              		.loc 1 93 0
 556 019e 009D     		ldr	r5, [sp]
 557 01a0 2D0A     		lsrs	r5, r5, #8
ARM GAS  C:\Users\Ray\AppData\Local\Temp\ccD3e27e.s 			page 14


 558 01a2 1540     		ands	r5, r2
 559 01a4 AD00     		lsls	r5, r5, #2
 560 01a6 4519     		adds	r5, r0, r5
 561 01a8 AD6A     		ldr	r5, [r5, #40]
 562 01aa 6346     		mov	r3, ip
 563 01ac DD41     		rors	r5, r5, r3
  92:strong-arm\src\aes/aes256.c **** 		     ROR_C (TE0[(s3 >> 8) & 0xFF], 16) ^
 564              		.loc 1 92 0
 565 01ae 4346     		mov	r3, r8
 566 01b0 5D40     		eors	r5, r3
  94:strong-arm\src\aes/aes256.c **** 		     eK[r*4 + 1];
 567              		.loc 1 94 0
 568 01b2 1300     		movs	r3, r2
 569 01b4 3B40     		ands	r3, r7
 570 01b6 9B00     		lsls	r3, r3, #2
 571 01b8 9846     		mov	r8, r3
 572 01ba 8044     		add	r8, r8, r0
 573 01bc 4346     		mov	r3, r8
 574 01be 9B6A     		ldr	r3, [r3, #40]
 575 01c0 1826     		movs	r6, #24
 576              	.LVL43:
 577 01c2 F341     		rors	r3, r3, r6
  93:strong-arm\src\aes/aes256.c **** 		     ROR_C (TE0[s0 & 0xFF], 24) ^
 578              		.loc 1 93 0
 579 01c4 5D40     		eors	r5, r3
  95:strong-arm\src\aes/aes256.c **** 
 580              		.loc 1 95 0
 581 01c6 2600     		movs	r6, r4
 582 01c8 631C     		adds	r3, r4, #1
 583 01ca 9B00     		lsls	r3, r3, #2
 584 01cc 9846     		mov	r8, r3
 585 01ce 06AB     		add	r3, sp, #24
 586 01d0 4446     		mov	r4, r8
 587 01d2 E358     		ldr	r3, [r4, r3]
  91:strong-arm\src\aes/aes256.c **** 		     ROR_C (TE0[(s2 >> 16) & 0xFF], 8) ^
 588              		.loc 1 91 0
 589 01d4 6B40     		eors	r3, r5
 590 01d6 0393     		str	r3, [sp, #12]
 591              	.LVL44:
  97:strong-arm\src\aes/aes256.c **** 		     ROR_C (TE0[(s3 >> 16) & 0xFF], 8) ^
 592              		.loc 1 97 0
 593 01d8 5446     		mov	r4, r10
 594 01da 250E     		lsrs	r5, r4, #24
 595 01dc AD00     		lsls	r5, r5, #2
 596 01de 4519     		adds	r5, r0, r5
 597 01e0 AC6A     		ldr	r4, [r5, #40]
 598 01e2 A046     		mov	r8, r4
  98:strong-arm\src\aes/aes256.c **** 		     ROR_C (TE0[(s0 >> 8) & 0xFF], 16) ^
 599              		.loc 1 98 0
 600 01e4 009C     		ldr	r4, [sp]
 601 01e6 250C     		lsrs	r5, r4, #16
 602 01e8 1540     		ands	r5, r2
 603 01ea AD00     		lsls	r5, r5, #2
 604 01ec 4519     		adds	r5, r0, r5
 605 01ee AD6A     		ldr	r5, [r5, #40]
 606 01f0 4C46     		mov	r4, r9
 607 01f2 E541     		rors	r5, r5, r4
ARM GAS  C:\Users\Ray\AppData\Local\Temp\ccD3e27e.s 			page 15


  97:strong-arm\src\aes/aes256.c **** 		     ROR_C (TE0[(s3 >> 16) & 0xFF], 8) ^
 608              		.loc 1 97 0
 609 01f4 4346     		mov	r3, r8
 610              	.LVL45:
 611 01f6 6B40     		eors	r3, r5
 612 01f8 9846     		mov	r8, r3
  99:strong-arm\src\aes/aes256.c **** 		     ROR_C (TE0[s1 & 0xFF], 24) ^
 613              		.loc 1 99 0
 614 01fa 3D0A     		lsrs	r5, r7, #8
 615 01fc 1540     		ands	r5, r2
 616 01fe AD00     		lsls	r5, r5, #2
 617 0200 4519     		adds	r5, r0, r5
 618 0202 AD6A     		ldr	r5, [r5, #40]
 619 0204 6446     		mov	r4, ip
 620 0206 E541     		rors	r5, r5, r4
  98:strong-arm\src\aes/aes256.c **** 		     ROR_C (TE0[(s0 >> 8) & 0xFF], 16) ^
 621              		.loc 1 98 0
 622 0208 4446     		mov	r4, r8
 623 020a 6540     		eors	r5, r4
 100:strong-arm\src\aes/aes256.c **** 		     eK[r*4 + 2];
 624              		.loc 1 100 0
 625 020c 1300     		movs	r3, r2
 626 020e 0B40     		ands	r3, r1
 627 0210 9C00     		lsls	r4, r3, #2
 628 0212 A046     		mov	r8, r4
 629 0214 8044     		add	r8, r8, r0
 630 0216 4446     		mov	r4, r8
 631 0218 A46A     		ldr	r4, [r4, #40]
 632 021a 2300     		movs	r3, r4
 633 021c 1827     		movs	r7, #24
 634 021e FB41     		rors	r3, r3, r7
  99:strong-arm\src\aes/aes256.c **** 		     ROR_C (TE0[s1 & 0xFF], 24) ^
 635              		.loc 1 99 0
 636 0220 5D40     		eors	r5, r3
 101:strong-arm\src\aes/aes256.c **** 
 637              		.loc 1 101 0
 638 0222 3400     		movs	r4, r6
 639 0224 0234     		adds	r4, r4, #2
 640 0226 A400     		lsls	r4, r4, #2
 641 0228 A046     		mov	r8, r4
 642 022a 06AC     		add	r4, sp, #24
 643 022c 4346     		mov	r3, r8
 644 022e 1C59     		ldr	r4, [r3, r4]
  97:strong-arm\src\aes/aes256.c **** 		     ROR_C (TE0[(s3 >> 16) & 0xFF], 8) ^
 645              		.loc 1 97 0
 646 0230 6540     		eors	r5, r4
 647              	.LVL46:
 103:strong-arm\src\aes/aes256.c **** 		     ROR_C (TE0[(s0 >> 16) & 0xFF], 8) ^
 648              		.loc 1 103 0
 649 0232 009C     		ldr	r4, [sp]
 650 0234 270E     		lsrs	r7, r4, #24
 651 0236 BF00     		lsls	r7, r7, #2
 652 0238 C719     		adds	r7, r0, r7
 653 023a BF6A     		ldr	r7, [r7, #40]
 104:strong-arm\src\aes/aes256.c **** 		     ROR_C (TE0[(s1 >> 8) & 0xFF], 16) ^
 654              		.loc 1 104 0
 655 023c 019B     		ldr	r3, [sp, #4]
ARM GAS  C:\Users\Ray\AppData\Local\Temp\ccD3e27e.s 			page 16


 656 023e 1B0C     		lsrs	r3, r3, #16
 657 0240 1340     		ands	r3, r2
 658 0242 9B00     		lsls	r3, r3, #2
 659 0244 C318     		adds	r3, r0, r3
 660 0246 9B6A     		ldr	r3, [r3, #40]
 661 0248 4C46     		mov	r4, r9
 662 024a E341     		rors	r3, r3, r4
 103:strong-arm\src\aes/aes256.c **** 		     ROR_C (TE0[(s0 >> 16) & 0xFF], 8) ^
 663              		.loc 1 103 0
 664 024c 5F40     		eors	r7, r3
 105:strong-arm\src\aes/aes256.c **** 		     ROR_C (TE0[s2 & 0xFF], 24) ^
 665              		.loc 1 105 0
 666 024e 090A     		lsrs	r1, r1, #8
 667              	.LVL47:
 668 0250 1140     		ands	r1, r2
 669 0252 8900     		lsls	r1, r1, #2
 670 0254 4118     		adds	r1, r0, r1
 671 0256 8B6A     		ldr	r3, [r1, #40]
 672 0258 6446     		mov	r4, ip
 673 025a E341     		rors	r3, r3, r4
 104:strong-arm\src\aes/aes256.c **** 		     ROR_C (TE0[(s1 >> 8) & 0xFF], 16) ^
 674              		.loc 1 104 0
 675 025c 5F40     		eors	r7, r3
 106:strong-arm\src\aes/aes256.c **** 		     eK[r*4 + 3];
 676              		.loc 1 106 0
 677 025e 5446     		mov	r4, r10
 678 0260 2240     		ands	r2, r4
 679 0262 9200     		lsls	r2, r2, #2
 680 0264 8018     		adds	r0, r0, r2
 681 0266 836A     		ldr	r3, [r0, #40]
 682 0268 1822     		movs	r2, #24
 683 026a D341     		rors	r3, r3, r2
 105:strong-arm\src\aes/aes256.c **** 		     ROR_C (TE0[s2 & 0xFF], 24) ^
 684              		.loc 1 105 0
 685 026c 5F40     		eors	r7, r3
 107:strong-arm\src\aes/aes256.c **** 
 686              		.loc 1 107 0
 687 026e 3400     		movs	r4, r6
 688 0270 0334     		adds	r4, r4, #3
 689 0272 A400     		lsls	r4, r4, #2
 690 0274 06AA     		add	r2, sp, #24
 691 0276 A358     		ldr	r3, [r4, r2]
 103:strong-arm\src\aes/aes256.c **** 		     ROR_C (TE0[(s0 >> 16) & 0xFF], 8) ^
 692              		.loc 1 103 0
 693 0278 5F40     		eors	r7, r3
 694 027a 0097     		str	r7, [sp]
 695              	.LVL48:
 109:strong-arm\src\aes/aes256.c **** 			break;
 696              		.loc 1 109 0
 697 027c 5A46     		mov	r2, fp
 698 027e 0D2A     		cmp	r2, #13
 699 0280 07D0     		beq	.L19
 700              	.LVL49:
  83:strong-arm\src\aes/aes256.c **** 	{
 701              		.loc 1 83 0
 702 0282 0122     		movs	r2, #1
 703 0284 9446     		mov	ip, r2
ARM GAS  C:\Users\Ray\AppData\Local\Temp\ccD3e27e.s 			page 17


 704 0286 E344     		add	fp, fp, ip
 705              	.LVL50:
 112:strong-arm\src\aes/aes256.c **** 	}
 706              		.loc 1 112 0
 707 0288 029B     		ldr	r3, [sp, #8]
 708 028a 0193     		str	r3, [sp, #4]
 709 028c 0399     		ldr	r1, [sp, #12]
 710 028e AA46     		mov	r10, r5
 113:strong-arm\src\aes/aes256.c **** 
 711              		.loc 1 113 0
 712 0290 47E7     		b	.L20
 713              	.LVL51:
 714              	.L19:
 715 0292 009F     		ldr	r7, [sp]
 716              	.LVL52:
 717 0294 A846     		mov	r8, r5
 718              	.LBE5:
 116:strong-arm\src\aes/aes256.c **** 	save_big_endian (ciphertext, s0);
 719              		.loc 1 116 0
 720 0296 039D     		ldr	r5, [sp, #12]
 721              	.LVL53:
 722 0298 290C     		lsrs	r1, r5, #16
 723 029a 4346     		mov	r3, r8
 724 029c 1A0A     		lsrs	r2, r3, #8
 725              	.LVL54:
 726 029e FBB2     		uxtb	r3, r7
 727 02a0 D2B2     		uxtb	r2, r2
 728 02a2 C9B2     		uxtb	r1, r1
 729 02a4 049E     		ldr	r6, [sp, #16]
 730 02a6 300E     		lsrs	r0, r6, #24
 731 02a8 FFF7FEFF 		bl	final_mix
 732              	.LVL55:
 733 02ac E023     		movs	r3, #224
 734 02ae 06AA     		add	r2, sp, #24
 735 02b0 D358     		ldr	r3, [r2, r3]
 736 02b2 0100     		movs	r1, r0
 737 02b4 5940     		eors	r1, r3
 738              	.LVL56:
 117:strong-arm\src\aes/aes256.c **** 
 739              		.loc 1 117 0
 740 02b6 059C     		ldr	r4, [sp, #20]
 741 02b8 2000     		movs	r0, r4
 742 02ba FFF7FEFF 		bl	save_big_endian
 743              	.LVL57:
 119:strong-arm\src\aes/aes256.c **** 	save_big_endian (ciphertext + 4, s1);
 744              		.loc 1 119 0
 745 02be 4246     		mov	r2, r8
 746 02c0 110C     		lsrs	r1, r2, #16
 747 02c2 3A0A     		lsrs	r2, r7, #8
 748 02c4 F3B2     		uxtb	r3, r6
 749 02c6 D2B2     		uxtb	r2, r2
 750 02c8 C9B2     		uxtb	r1, r1
 751 02ca 280E     		lsrs	r0, r5, #24
 752 02cc FFF7FEFF 		bl	final_mix
 753              	.LVL58:
 754 02d0 E423     		movs	r3, #228
 755 02d2 06AA     		add	r2, sp, #24
ARM GAS  C:\Users\Ray\AppData\Local\Temp\ccD3e27e.s 			page 18


 756 02d4 D358     		ldr	r3, [r2, r3]
 757 02d6 0100     		movs	r1, r0
 758 02d8 5940     		eors	r1, r3
 759              	.LVL59:
 120:strong-arm\src\aes/aes256.c **** 
 760              		.loc 1 120 0
 761 02da 201D     		adds	r0, r4, #4
 762 02dc FFF7FEFF 		bl	save_big_endian
 763              	.LVL60:
 122:strong-arm\src\aes/aes256.c **** 	save_big_endian (ciphertext + 8, s2);
 764              		.loc 1 122 0
 765 02e0 390C     		lsrs	r1, r7, #16
 766 02e2 320A     		lsrs	r2, r6, #8
 767 02e4 EBB2     		uxtb	r3, r5
 768 02e6 D2B2     		uxtb	r2, r2
 769 02e8 C9B2     		uxtb	r1, r1
 770 02ea 4046     		mov	r0, r8
 771 02ec 000E     		lsrs	r0, r0, #24
 772 02ee FFF7FEFF 		bl	final_mix
 773              	.LVL61:
 774 02f2 E823     		movs	r3, #232
 775 02f4 06AA     		add	r2, sp, #24
 776 02f6 D358     		ldr	r3, [r2, r3]
 777 02f8 0100     		movs	r1, r0
 778 02fa 5940     		eors	r1, r3
 779              	.LVL62:
 123:strong-arm\src\aes/aes256.c **** 
 780              		.loc 1 123 0
 781 02fc 2000     		movs	r0, r4
 782 02fe 0830     		adds	r0, r0, #8
 783 0300 FFF7FEFF 		bl	save_big_endian
 784              	.LVL63:
 125:strong-arm\src\aes/aes256.c **** 	save_big_endian (ciphertext + 12, s3);
 785              		.loc 1 125 0
 786 0304 310C     		lsrs	r1, r6, #16
 787 0306 2A0A     		lsrs	r2, r5, #8
 788 0308 4346     		mov	r3, r8
 789 030a 6846     		mov	r0, sp
 790 030c 0370     		strb	r3, [r0]
 791              	.LVL64:
 792 030e 0378     		ldrb	r3, [r0]
 793 0310 D2B2     		uxtb	r2, r2
 794 0312 C9B2     		uxtb	r1, r1
 795 0314 380E     		lsrs	r0, r7, #24
 796 0316 FFF7FEFF 		bl	final_mix
 797              	.LVL65:
 798 031a EC23     		movs	r3, #236
 799 031c 06AA     		add	r2, sp, #24
 800 031e D358     		ldr	r3, [r2, r3]
 801 0320 0100     		movs	r1, r0
 802 0322 5940     		eors	r1, r3
 803              	.LVL66:
 126:strong-arm\src\aes/aes256.c **** }
 804              		.loc 1 126 0
 805 0324 2000     		movs	r0, r4
 806 0326 0C30     		adds	r0, r0, #12
 807 0328 FFF7FEFF 		bl	save_big_endian
ARM GAS  C:\Users\Ray\AppData\Local\Temp\ccD3e27e.s 			page 19


 808              	.LVL67:
 127:strong-arm\src\aes/aes256.c **** 
 809              		.loc 1 127 0
 810 032c 43B0     		add	sp, sp, #268
 811              		@ sp needed
 812              	.LVL68:
 813              	.LVL69:
 814 032e 3CBC     		pop	{r2, r3, r4, r5}
 815 0330 9046     		mov	r8, r2
 816 0332 9946     		mov	r9, r3
 817 0334 A246     		mov	r10, r4
 818 0336 AB46     		mov	fp, r5
 819 0338 F0BD     		pop	{r4, r5, r6, r7, pc}
 820              	.L22:
 821 033a C046     		.align	2
 822              	.L21:
 823 033c 00040000 		.word	.LANCHOR1
 824              		.cfi_endproc
 825              	.LFE4:
 826              		.size	aes256_encrypt_block, .-aes256_encrypt_block
 827              		.section	.text.aes256_crypt_ctr,"ax",%progbits
 828              		.align	2
 829              		.global	aes256_crypt_ctr
 830              		.code	16
 831              		.thumb_func
 832              		.type	aes256_crypt_ctr, %function
 833              	aes256_crypt_ctr:
 834              	.LFB6:
 139:strong-arm\src\aes/aes256.c **** 
 140:strong-arm\src\aes/aes256.c **** 
 141:strong-arm\src\aes/aes256.c **** void aes256_crypt_ctr (uint8_t *ciphertext, uint8_t const key[static 32], uint8_t const iv[static 1
 142:strong-arm\src\aes/aes256.c **** {
 835              		.loc 1 142 0
 836              		.cfi_startproc
 837              		@ args = 4, pretend = 0, frame = 72
 838              		@ frame_needed = 0, uses_anonymous_args = 0
 839              	.LVL70:
 840 0000 F0B5     		push	{r4, r5, r6, r7, lr}
 841              		.cfi_def_cfa_offset 20
 842              		.cfi_offset 4, -20
 843              		.cfi_offset 5, -16
 844              		.cfi_offset 6, -12
 845              		.cfi_offset 7, -8
 846              		.cfi_offset 14, -4
 847 0002 93B0     		sub	sp, sp, #76
 848              		.cfi_def_cfa_offset 96
 849 0004 0600     		movs	r6, r0
 850 0006 0191     		str	r1, [sp, #4]
 851 0008 1700     		movs	r7, r2
 852 000a 1D00     		movs	r5, r3
 853 000c 189C     		ldr	r4, [sp, #96]
 143:strong-arm\src\aes/aes256.c **** 	uint8_t saved_key[32] = {0};
 854              		.loc 1 143 0
 855 000e 2022     		movs	r2, #32
 856              	.LVL71:
 857 0010 0021     		movs	r1, #0
 858              	.LVL72:
ARM GAS  C:\Users\Ray\AppData\Local\Temp\ccD3e27e.s 			page 20


 859 0012 0AA8     		add	r0, sp, #40
 860              	.LVL73:
 861 0014 FFF7FEFF 		bl	memset
 862              	.LVL74:
 144:strong-arm\src\aes/aes256.c **** 	uint8_t counter[16] = {0};
 863              		.loc 1 144 0
 864 0018 1022     		movs	r2, #16
 865 001a 0021     		movs	r1, #0
 866 001c 06A8     		add	r0, sp, #24
 867 001e FFF7FEFF 		bl	memset
 868              	.LVL75:
 145:strong-arm\src\aes/aes256.c **** 	uint8_t cipherblock[16] = {0};
 869              		.loc 1 145 0
 870 0022 1022     		movs	r2, #16
 871 0024 0021     		movs	r1, #0
 872 0026 02A8     		add	r0, sp, #8
 873 0028 FFF7FEFF 		bl	memset
 874              	.LVL76:
 146:strong-arm\src\aes/aes256.c **** 
 147:strong-arm\src\aes/aes256.c **** 	/* Initialize */
 148:strong-arm\src\aes/aes256.c **** 	memmove (counter, iv, 16);
 875              		.loc 1 148 0
 876 002c 1022     		movs	r2, #16
 877 002e 3900     		movs	r1, r7
 878 0030 06A8     		add	r0, sp, #24
 879 0032 FFF7FEFF 		bl	memmove
 880              	.LVL77:
 149:strong-arm\src\aes/aes256.c **** 	memmove (saved_key, key, 32);
 881              		.loc 1 149 0
 882 0036 2022     		movs	r2, #32
 883 0038 0199     		ldr	r1, [sp, #4]
 884 003a 0AA8     		add	r0, sp, #40
 885 003c FFF7FEFF 		bl	memmove
 886              	.LVL78:
 150:strong-arm\src\aes/aes256.c **** 
 151:strong-arm\src\aes/aes256.c **** 	while (len > 0)
 887              		.loc 1 151 0
 888 0040 16E0     		b	.L27
 889              	.LVL79:
 890              	.L28:
 152:strong-arm\src\aes/aes256.c **** 	{
 153:strong-arm\src\aes/aes256.c **** 		aes256_encrypt_block (cipherblock, saved_key, counter);
 891              		.loc 1 153 0
 892 0042 06AA     		add	r2, sp, #24
 893 0044 0AA9     		add	r1, sp, #40
 894 0046 02A8     		add	r0, sp, #8
 895 0048 FFF7FEFF 		bl	aes256_encrypt_block
 896              	.LVL80:
 154:strong-arm\src\aes/aes256.c **** 		increment_counter (counter);
 897              		.loc 1 154 0
 898 004c 06A8     		add	r0, sp, #24
 899 004e FFF7FEFF 		bl	increment_counter
 900              	.LVL81:
 901              	.LBB6:
 155:strong-arm\src\aes/aes256.c **** 
 156:strong-arm\src\aes/aes256.c **** 		for (int i = 0; i < 16; ++i)
 902              		.loc 1 156 0
ARM GAS  C:\Users\Ray\AppData\Local\Temp\ccD3e27e.s 			page 21


 903 0052 0023     		movs	r3, #0
 904 0054 0AE0     		b	.L25
 905              	.LVL82:
 906              	.L26:
 157:strong-arm\src\aes/aes256.c **** 		{
 158:strong-arm\src\aes/aes256.c **** 			*ciphertext = (*plaintext) ^ cipherblock[i];
 907              		.loc 1 158 0
 908 0056 2978     		ldrb	r1, [r5]
 909 0058 02AA     		add	r2, sp, #8
 910 005a D25C     		ldrb	r2, [r2, r3]
 911 005c 4A40     		eors	r2, r1
 912 005e 3270     		strb	r2, [r6]
 159:strong-arm\src\aes/aes256.c **** 			++ciphertext;
 913              		.loc 1 159 0
 914 0060 0136     		adds	r6, r6, #1
 915              	.LVL83:
 160:strong-arm\src\aes/aes256.c **** 			++plaintext;
 916              		.loc 1 160 0
 917 0062 0135     		adds	r5, r5, #1
 918              	.LVL84:
 161:strong-arm\src\aes/aes256.c **** 			--len;
 919              		.loc 1 161 0
 920 0064 013C     		subs	r4, r4, #1
 921              	.LVL85:
 162:strong-arm\src\aes/aes256.c **** 
 163:strong-arm\src\aes/aes256.c **** 			if (len == 0)
 922              		.loc 1 163 0
 923 0066 002C     		cmp	r4, #0
 924 0068 02D0     		beq	.L27
 156:strong-arm\src\aes/aes256.c **** 		{
 925              		.loc 1 156 0 discriminator 2
 926 006a 0133     		adds	r3, r3, #1
 927              	.LVL86:
 928              	.L25:
 156:strong-arm\src\aes/aes256.c **** 		{
 929              		.loc 1 156 0 is_stmt 0 discriminator 1
 930 006c 0F2B     		cmp	r3, #15
 931 006e F2DD     		ble	.L26
 932              	.LVL87:
 933              	.L27:
 934              	.LBE6:
 151:strong-arm\src\aes/aes256.c **** 	{
 935              		.loc 1 151 0 is_stmt 1
 936 0070 002C     		cmp	r4, #0
 937 0072 E6D1     		bne	.L28
 164:strong-arm\src\aes/aes256.c **** 				break;
 165:strong-arm\src\aes/aes256.c **** 		}
 166:strong-arm\src\aes/aes256.c **** 	}
 167:strong-arm\src\aes/aes256.c **** }
 938              		.loc 1 167 0
 939 0074 13B0     		add	sp, sp, #76
 940              		@ sp needed
 941              	.LVL88:
 942              	.LVL89:
 943              	.LVL90:
 944              	.LVL91:
 945 0076 F0BD     		pop	{r4, r5, r6, r7, pc}
ARM GAS  C:\Users\Ray\AppData\Local\Temp\ccD3e27e.s 			page 22


 946              		.cfi_endproc
 947              	.LFE6:
 948              		.size	aes256_crypt_ctr, .-aes256_crypt_ctr
 949              		.section	.rodata
 950              		.align	2
 951              		.set	.LANCHOR0,. + 0
 952              		.set	.LANCHOR1,. + 1024
 953              		.type	Te4, %object
 954              		.size	Te4, 1024
 955              	Te4:
 956 0000 63636363 		.word	1667457891
 957 0004 7C7C7C7C 		.word	2088533116
 958 0008 77777777 		.word	2004318071
 959 000c 7B7B7B7B 		.word	2071690107
 960 0010 F2F2F2F2 		.word	-218959118
 961 0014 6B6B6B6B 		.word	1802201963
 962 0018 6F6F6F6F 		.word	1869573999
 963 001c C5C5C5C5 		.word	-976894523
 964 0020 30303030 		.word	808464432
 965 0024 01010101 		.word	16843009
 966 0028 67676767 		.word	1734829927
 967 002c 2B2B2B2B 		.word	724249387
 968 0030 FEFEFEFE 		.word	-16843010
 969 0034 D7D7D7D7 		.word	-673720361
 970 0038 ABABABAB 		.word	-1414812757
 971 003c 76767676 		.word	1987475062
 972 0040 CACACACA 		.word	-892679478
 973 0044 82828282 		.word	-2105376126
 974 0048 C9C9C9C9 		.word	-909522487
 975 004c 7D7D7D7D 		.word	2105376125
 976 0050 FAFAFAFA 		.word	-84215046
 977 0054 59595959 		.word	1499027801
 978 0058 47474747 		.word	1195853639
 979 005c F0F0F0F0 		.word	-252645136
 980 0060 ADADADAD 		.word	-1381126739
 981 0064 D4D4D4D4 		.word	-724249388
 982 0068 A2A2A2A2 		.word	-1566399838
 983 006c AFAFAFAF 		.word	-1347440721
 984 0070 9C9C9C9C 		.word	-1667457892
 985 0074 A4A4A4A4 		.word	-1532713820
 986 0078 72727272 		.word	1920103026
 987 007c C0C0C0C0 		.word	-1061109568
 988 0080 B7B7B7B7 		.word	-1212696649
 989 0084 FDFDFDFD 		.word	-33686019
 990 0088 93939393 		.word	-1819044973
 991 008c 26262626 		.word	640034342
 992 0090 36363636 		.word	909522486
 993 0094 3F3F3F3F 		.word	1061109567
 994 0098 F7F7F7F7 		.word	-134744073
 995 009c CCCCCCCC 		.word	-858993460
 996 00a0 34343434 		.word	875836468
 997 00a4 A5A5A5A5 		.word	-1515870811
 998 00a8 E5E5E5E5 		.word	-437918235
 999 00ac F1F1F1F1 		.word	-235802127
 1000 00b0 71717171 		.word	1903260017
 1001 00b4 D8D8D8D8 		.word	-656877352
 1002 00b8 31313131 		.word	825307441
ARM GAS  C:\Users\Ray\AppData\Local\Temp\ccD3e27e.s 			page 23


 1003 00bc 15151515 		.word	353703189
 1004 00c0 04040404 		.word	67372036
 1005 00c4 C7C7C7C7 		.word	-943208505
 1006 00c8 23232323 		.word	589505315
 1007 00cc C3C3C3C3 		.word	-1010580541
 1008 00d0 18181818 		.word	404232216
 1009 00d4 96969696 		.word	-1768515946
 1010 00d8 05050505 		.word	84215045
 1011 00dc 9A9A9A9A 		.word	-1701143910
 1012 00e0 07070707 		.word	117901063
 1013 00e4 12121212 		.word	303174162
 1014 00e8 80808080 		.word	-2139062144
 1015 00ec E2E2E2E2 		.word	-488447262
 1016 00f0 EBEBEBEB 		.word	-336860181
 1017 00f4 27272727 		.word	656877351
 1018 00f8 B2B2B2B2 		.word	-1296911694
 1019 00fc 75757575 		.word	1970632053
 1020 0100 09090909 		.word	151587081
 1021 0104 83838383 		.word	-2088533117
 1022 0108 2C2C2C2C 		.word	741092396
 1023 010c 1A1A1A1A 		.word	437918234
 1024 0110 1B1B1B1B 		.word	454761243
 1025 0114 6E6E6E6E 		.word	1852730990
 1026 0118 5A5A5A5A 		.word	1515870810
 1027 011c A0A0A0A0 		.word	-1600085856
 1028 0120 52525252 		.word	1381126738
 1029 0124 3B3B3B3B 		.word	993737531
 1030 0128 D6D6D6D6 		.word	-690563370
 1031 012c B3B3B3B3 		.word	-1280068685
 1032 0130 29292929 		.word	690563369
 1033 0134 E3E3E3E3 		.word	-471604253
 1034 0138 2F2F2F2F 		.word	791621423
 1035 013c 84848484 		.word	-2071690108
 1036 0140 53535353 		.word	1397969747
 1037 0144 D1D1D1D1 		.word	-774778415
 1038 0148 00000000 		.word	0
 1039 014c EDEDEDED 		.word	-303174163
 1040 0150 20202020 		.word	538976288
 1041 0154 FCFCFCFC 		.word	-50529028
 1042 0158 B1B1B1B1 		.word	-1313754703
 1043 015c 5B5B5B5B 		.word	1532713819
 1044 0160 6A6A6A6A 		.word	1785358954
 1045 0164 CBCBCBCB 		.word	-875836469
 1046 0168 BEBEBEBE 		.word	-1094795586
 1047 016c 39393939 		.word	960051513
 1048 0170 4A4A4A4A 		.word	1246382666
 1049 0174 4C4C4C4C 		.word	1280068684
 1050 0178 58585858 		.word	1482184792
 1051 017c CFCFCFCF 		.word	-808464433
 1052 0180 D0D0D0D0 		.word	-791621424
 1053 0184 EFEFEFEF 		.word	-269488145
 1054 0188 AAAAAAAA 		.word	-1431655766
 1055 018c FBFBFBFB 		.word	-67372037
 1056 0190 43434343 		.word	1128481603
 1057 0194 4D4D4D4D 		.word	1296911693
 1058 0198 33333333 		.word	858993459
 1059 019c 85858585 		.word	-2054847099
ARM GAS  C:\Users\Ray\AppData\Local\Temp\ccD3e27e.s 			page 24


 1060 01a0 45454545 		.word	1162167621
 1061 01a4 F9F9F9F9 		.word	-101058055
 1062 01a8 02020202 		.word	33686018
 1063 01ac 7F7F7F7F 		.word	2139062143
 1064 01b0 50505050 		.word	1347440720
 1065 01b4 3C3C3C3C 		.word	1010580540
 1066 01b8 9F9F9F9F 		.word	-1616928865
 1067 01bc A8A8A8A8 		.word	-1465341784
 1068 01c0 51515151 		.word	1364283729
 1069 01c4 A3A3A3A3 		.word	-1549556829
 1070 01c8 40404040 		.word	1077952576
 1071 01cc 8F8F8F8F 		.word	-1886417009
 1072 01d0 92929292 		.word	-1835887982
 1073 01d4 9D9D9D9D 		.word	-1650614883
 1074 01d8 38383838 		.word	943208504
 1075 01dc F5F5F5F5 		.word	-168430091
 1076 01e0 BCBCBCBC 		.word	-1128481604
 1077 01e4 B6B6B6B6 		.word	-1229539658
 1078 01e8 DADADADA 		.word	-623191334
 1079 01ec 21212121 		.word	555819297
 1080 01f0 10101010 		.word	269488144
 1081 01f4 FFFFFFFF 		.word	-1
 1082 01f8 F3F3F3F3 		.word	-202116109
 1083 01fc D2D2D2D2 		.word	-757935406
 1084 0200 CDCDCDCD 		.word	-842150451
 1085 0204 0C0C0C0C 		.word	202116108
 1086 0208 13131313 		.word	320017171
 1087 020c ECECECEC 		.word	-320017172
 1088 0210 5F5F5F5F 		.word	1600085855
 1089 0214 97979797 		.word	-1751672937
 1090 0218 44444444 		.word	1145324612
 1091 021c 17171717 		.word	387389207
 1092 0220 C4C4C4C4 		.word	-993737532
 1093 0224 A7A7A7A7 		.word	-1482184793
 1094 0228 7E7E7E7E 		.word	2122219134
 1095 022c 3D3D3D3D 		.word	1027423549
 1096 0230 64646464 		.word	1684300900
 1097 0234 5D5D5D5D 		.word	1566399837
 1098 0238 19191919 		.word	421075225
 1099 023c 73737373 		.word	1936946035
 1100 0240 60606060 		.word	1616928864
 1101 0244 81818181 		.word	-2122219135
 1102 0248 4F4F4F4F 		.word	1330597711
 1103 024c DCDCDCDC 		.word	-589505316
 1104 0250 22222222 		.word	572662306
 1105 0254 2A2A2A2A 		.word	707406378
 1106 0258 90909090 		.word	-1869574000
 1107 025c 88888888 		.word	-2004318072
 1108 0260 46464646 		.word	1179010630
 1109 0264 EEEEEEEE 		.word	-286331154
 1110 0268 B8B8B8B8 		.word	-1195853640
 1111 026c 14141414 		.word	336860180
 1112 0270 DEDEDEDE 		.word	-555819298
 1113 0274 5E5E5E5E 		.word	1583242846
 1114 0278 0B0B0B0B 		.word	185273099
 1115 027c DBDBDBDB 		.word	-606348325
 1116 0280 E0E0E0E0 		.word	-522133280
ARM GAS  C:\Users\Ray\AppData\Local\Temp\ccD3e27e.s 			page 25


 1117 0284 32323232 		.word	842150450
 1118 0288 3A3A3A3A 		.word	976894522
 1119 028c 0A0A0A0A 		.word	168430090
 1120 0290 49494949 		.word	1229539657
 1121 0294 06060606 		.word	101058054
 1122 0298 24242424 		.word	606348324
 1123 029c 5C5C5C5C 		.word	1549556828
 1124 02a0 C2C2C2C2 		.word	-1027423550
 1125 02a4 D3D3D3D3 		.word	-741092397
 1126 02a8 ACACACAC 		.word	-1397969748
 1127 02ac 62626262 		.word	1650614882
 1128 02b0 91919191 		.word	-1852730991
 1129 02b4 95959595 		.word	-1785358955
 1130 02b8 E4E4E4E4 		.word	-454761244
 1131 02bc 79797979 		.word	2038004089
 1132 02c0 E7E7E7E7 		.word	-404232217
 1133 02c4 C8C8C8C8 		.word	-926365496
 1134 02c8 37373737 		.word	926365495
 1135 02cc 6D6D6D6D 		.word	1835887981
 1136 02d0 8D8D8D8D 		.word	-1920103027
 1137 02d4 D5D5D5D5 		.word	-707406379
 1138 02d8 4E4E4E4E 		.word	1313754702
 1139 02dc A9A9A9A9 		.word	-1448498775
 1140 02e0 6C6C6C6C 		.word	1819044972
 1141 02e4 56565656 		.word	1448498774
 1142 02e8 F4F4F4F4 		.word	-185273100
 1143 02ec EAEAEAEA 		.word	-353703190
 1144 02f0 65656565 		.word	1701143909
 1145 02f4 7A7A7A7A 		.word	2054847098
 1146 02f8 AEAEAEAE 		.word	-1364283730
 1147 02fc 08080808 		.word	134744072
 1148 0300 BABABABA 		.word	-1162167622
 1149 0304 78787878 		.word	2021161080
 1150 0308 25252525 		.word	623191333
 1151 030c 2E2E2E2E 		.word	774778414
 1152 0310 1C1C1C1C 		.word	471604252
 1153 0314 A6A6A6A6 		.word	-1499027802
 1154 0318 B4B4B4B4 		.word	-1263225676
 1155 031c C6C6C6C6 		.word	-960051514
 1156 0320 E8E8E8E8 		.word	-387389208
 1157 0324 DDDDDDDD 		.word	-572662307
 1158 0328 74747474 		.word	1953789044
 1159 032c 1F1F1F1F 		.word	522133279
 1160 0330 4B4B4B4B 		.word	1263225675
 1161 0334 BDBDBDBD 		.word	-1111638595
 1162 0338 8B8B8B8B 		.word	-1953789045
 1163 033c 8A8A8A8A 		.word	-1970632054
 1164 0340 70707070 		.word	1886417008
 1165 0344 3E3E3E3E 		.word	1044266558
 1166 0348 B5B5B5B5 		.word	-1246382667
 1167 034c 66666666 		.word	1717986918
 1168 0350 48484848 		.word	1212696648
 1169 0354 03030303 		.word	50529027
 1170 0358 F6F6F6F6 		.word	-151587082
 1171 035c 0E0E0E0E 		.word	235802126
 1172 0360 61616161 		.word	1633771873
 1173 0364 35353535 		.word	892679477
ARM GAS  C:\Users\Ray\AppData\Local\Temp\ccD3e27e.s 			page 26


 1174 0368 57575757 		.word	1465341783
 1175 036c B9B9B9B9 		.word	-1179010631
 1176 0370 86868686 		.word	-2038004090
 1177 0374 C1C1C1C1 		.word	-1044266559
 1178 0378 1D1D1D1D 		.word	488447261
 1179 037c 9E9E9E9E 		.word	-1633771874
 1180 0380 E1E1E1E1 		.word	-505290271
 1181 0384 F8F8F8F8 		.word	-117901064
 1182 0388 98989898 		.word	-1734829928
 1183 038c 11111111 		.word	286331153
 1184 0390 69696969 		.word	1768515945
 1185 0394 D9D9D9D9 		.word	-640034343
 1186 0398 8E8E8E8E 		.word	-1903260018
 1187 039c 94949494 		.word	-1802201964
 1188 03a0 9B9B9B9B 		.word	-1684300901
 1189 03a4 1E1E1E1E 		.word	505290270
 1190 03a8 87878787 		.word	-2021161081
 1191 03ac E9E9E9E9 		.word	-370546199
 1192 03b0 CECECECE 		.word	-825307442
 1193 03b4 55555555 		.word	1431655765
 1194 03b8 28282828 		.word	673720360
 1195 03bc DFDFDFDF 		.word	-538976289
 1196 03c0 8C8C8C8C 		.word	-1936946036
 1197 03c4 A1A1A1A1 		.word	-1583242847
 1198 03c8 89898989 		.word	-1987475063
 1199 03cc 0D0D0D0D 		.word	218959117
 1200 03d0 BFBFBFBF 		.word	-1077952577
 1201 03d4 E6E6E6E6 		.word	-421075226
 1202 03d8 42424242 		.word	1111638594
 1203 03dc 68686868 		.word	1751672936
 1204 03e0 41414141 		.word	1094795585
 1205 03e4 99999999 		.word	-1717986919
 1206 03e8 2D2D2D2D 		.word	757935405
 1207 03ec 0F0F0F0F 		.word	252645135
 1208 03f0 B0B0B0B0 		.word	-1330597712
 1209 03f4 54545454 		.word	1414812756
 1210 03f8 BBBBBBBB 		.word	-1145324613
 1211 03fc 16161616 		.word	370546198
 1212              		.type	rcon, %object
 1213              		.size	rcon, 40
 1214              	rcon:
 1215 0400 00000001 		.word	16777216
 1216 0404 00000002 		.word	33554432
 1217 0408 00000004 		.word	67108864
 1218 040c 00000008 		.word	134217728
 1219 0410 00000010 		.word	268435456
 1220 0414 00000020 		.word	536870912
 1221 0418 00000040 		.word	1073741824
 1222 041c 00000080 		.word	-2147483648
 1223 0420 0000001B 		.word	452984832
 1224 0424 00000036 		.word	905969664
 1225              		.type	TE0, %object
 1226              		.size	TE0, 1024
 1227              	TE0:
 1228 0428 A56363C6 		.word	-966564955
 1229 042c 847C7CF8 		.word	-126059388
 1230 0430 997777EE 		.word	-294160487
ARM GAS  C:\Users\Ray\AppData\Local\Temp\ccD3e27e.s 			page 27


 1231 0434 8D7B7BF6 		.word	-159679603
 1232 0438 0DF2F2FF 		.word	-855539
 1233 043c BD6B6BD6 		.word	-697603139
 1234 0440 B16F6FDE 		.word	-563122255
 1235 0444 54C5C591 		.word	-1849309868
 1236 0448 50303060 		.word	1613770832
 1237 044c 03010102 		.word	33620227
 1238 0450 A96767CE 		.word	-832084055
 1239 0454 7D2B2B56 		.word	1445669757
 1240 0458 19FEFEE7 		.word	-402719207
 1241 045c 62D7D7B5 		.word	-1244145822
 1242 0460 E6ABAB4D 		.word	1303096294
 1243 0464 9A7676EC 		.word	-327780710
 1244 0468 45CACA8F 		.word	-1882535355
 1245 046c 9D82821F 		.word	528646813
 1246 0470 40C9C989 		.word	-1983264448
 1247 0474 877D7DFA 		.word	-92439161
 1248 0478 15FAFAEF 		.word	-268764651
 1249 047c EB5959B2 		.word	-1302767125
 1250 0480 C947478E 		.word	-1907931191
 1251 0484 0BF0F0FB 		.word	-68095989
 1252 0488 ECADAD41 		.word	1101901292
 1253 048c 67D4D4B3 		.word	-1277897625
 1254 0490 FDA2A25F 		.word	1604494077
 1255 0494 EAAFAF45 		.word	1169141738
 1256 0498 BF9C9C23 		.word	597466303
 1257 049c F7A4A453 		.word	1403299063
 1258 04a0 967272E4 		.word	-462261610
 1259 04a4 5BC0C09B 		.word	-1681866661
 1260 04a8 C2B7B775 		.word	1974974402
 1261 04ac 1CFDFDE1 		.word	-503448292
 1262 04b0 AE93933D 		.word	1033081774
 1263 04b4 6A26264C 		.word	1277568618
 1264 04b8 5A36366C 		.word	1815492186
 1265 04bc 413F3F7E 		.word	2118074177
 1266 04c0 02F7F7F5 		.word	-168298750
 1267 04c4 4FCCCC83 		.word	-2083730353
 1268 04c8 5C343468 		.word	1748251740
 1269 04cc F4A5A551 		.word	1369810420
 1270 04d0 34E5E5D1 		.word	-773462732
 1271 04d4 08F1F1F9 		.word	-101584632
 1272 04d8 937171E2 		.word	-495881837
 1273 04dc 73D8D8AB 		.word	-1411852173
 1274 04e0 53313162 		.word	1647391059
 1275 04e4 3F15152A 		.word	706024767
 1276 04e8 0C040408 		.word	134480908
 1277 04ec 52C7C795 		.word	-1782069422
 1278 04f0 65232346 		.word	1176707941
 1279 04f4 5EC3C39D 		.word	-1648114850
 1280 04f8 28181830 		.word	806885416
 1281 04fc A1969637 		.word	932615841
 1282 0500 0F05050A 		.word	168101135
 1283 0504 B59A9A2F 		.word	798661301
 1284 0508 0907070E 		.word	235341577
 1285 050c 36121224 		.word	605164086
 1286 0510 9B80801B 		.word	461406363
 1287 0514 3DE2E2DF 		.word	-538779075
ARM GAS  C:\Users\Ray\AppData\Local\Temp\ccD3e27e.s 			page 28


 1288 0518 26EBEBCD 		.word	-840176858
 1289 051c 6927274E 		.word	1311188841
 1290 0520 CDB2B27F 		.word	2142417613
 1291 0524 9F7575EA 		.word	-361400929
 1292 0528 1B090912 		.word	302582043
 1293 052c 9E83831D 		.word	495158174
 1294 0530 742C2C58 		.word	1479289972
 1295 0534 2E1A1A34 		.word	874125870
 1296 0538 2D1B1B36 		.word	907746093
 1297 053c B26E6EDC 		.word	-596742478
 1298 0540 EE5A5AB4 		.word	-1269146898
 1299 0544 FBA0A05B 		.word	1537253627
 1300 0548 F65252A4 		.word	-1538108682
 1301 054c 4D3B3B76 		.word	1983593293
 1302 0550 61D6D6B7 		.word	-1210657183
 1303 0554 CEB3B37D 		.word	2108928974
 1304 0558 7B292952 		.word	1378429307
 1305 055c 3EE3E3DD 		.word	-572267714
 1306 0560 712F2F5E 		.word	1580150641
 1307 0564 97848413 		.word	327451799
 1308 0568 F55353A6 		.word	-1504488459
 1309 056c 68D1D1B9 		.word	-1177431704
 1310 0570 00000000 		.word	0
 1311 0574 2CEDEDC1 		.word	-1041371860
 1312 0578 60202040 		.word	1075847264
 1313 057c 1FFCFCE3 		.word	-469959649
 1314 0580 C8B1B179 		.word	2041688520
 1315 0584 ED5B5BB6 		.word	-1235526675
 1316 0588 BE6A6AD4 		.word	-731223362
 1317 058c 46CBCB8D 		.word	-1916023994
 1318 0590 D9BEBE67 		.word	1740553945
 1319 0594 4B393972 		.word	1916352843
 1320 0598 DE4A4A94 		.word	-1807070498
 1321 059c D44C4C98 		.word	-1739830060
 1322 05a0 E85858B0 		.word	-1336387352
 1323 05a4 4ACFCF85 		.word	-2049978550
 1324 05a8 6BD0D0BB 		.word	-1143943061
 1325 05ac 2AEFEFC5 		.word	-974131414
 1326 05b0 E5AAAA4F 		.word	1336584933
 1327 05b4 16FBFBED 		.word	-302253290
 1328 05b8 C5434386 		.word	-2042412091
 1329 05bc D74D4D9A 		.word	-1706209833
 1330 05c0 55333366 		.word	1714631509
 1331 05c4 94858511 		.word	293963156
 1332 05c8 CF45458A 		.word	-1975171633
 1333 05cc 10F9F9E9 		.word	-369493744
 1334 05d0 06020204 		.word	67240454
 1335 05d4 817F7FFE 		.word	-25198719
 1336 05d8 F05050A0 		.word	-1605349136
 1337 05dc 443C3C78 		.word	2017213508
 1338 05e0 BA9F9F25 		.word	631218106
 1339 05e4 E3A8A84B 		.word	1269344483
 1340 05e8 F35151A2 		.word	-1571728909
 1341 05ec FEA3A35D 		.word	1571005438
 1342 05f0 C0404080 		.word	-2143272768
 1343 05f4 8A8F8F05 		.word	93294474
 1344 05f8 AD92923F 		.word	1066570413
ARM GAS  C:\Users\Ray\AppData\Local\Temp\ccD3e27e.s 			page 29


 1345 05fc BC9D9D21 		.word	563977660
 1346 0600 48383870 		.word	1882732616
 1347 0604 04F5F5F1 		.word	-235539196
 1348 0608 DFBCBC63 		.word	1673313503
 1349 060c C1B6B677 		.word	2008463041
 1350 0610 75DADAAF 		.word	-1344611723
 1351 0614 63212142 		.word	1109467491
 1352 0618 30101020 		.word	537923632
 1353 061c 1AFFFFE5 		.word	-436207846
 1354 0620 0EF3F3FD 		.word	-34344178
 1355 0624 6DD2D2BF 		.word	-1076702611
 1356 0628 4CCDCD81 		.word	-2117218996
 1357 062c 140C0C18 		.word	403442708
 1358 0630 35131326 		.word	638784309
 1359 0634 2FECECC3 		.word	-1007883217
 1360 0638 E15F5FBE 		.word	-1101045791
 1361 063c A2979735 		.word	899127202
 1362 0640 CC444488 		.word	-2008791860
 1363 0644 3917172E 		.word	773265209
 1364 0648 57C4C493 		.word	-1815821225
 1365 064c F2A7A755 		.word	1437050866
 1366 0650 827E7EFC 		.word	-58818942
 1367 0654 473D3D7A 		.word	2050833735
 1368 0658 AC6464C8 		.word	-932944724
 1369 065c E75D5DBA 		.word	-1168286233
 1370 0660 2B191932 		.word	840505643
 1371 0664 957373E6 		.word	-428641387
 1372 0668 A06060C0 		.word	-1067425632
 1373 066c 98818119 		.word	427917720
 1374 0670 D14F4F9E 		.word	-1638969391
 1375 0674 7FDCDCA3 		.word	-1545806721
 1376 0678 66222244 		.word	1143087718
 1377 067c 7E2A2A54 		.word	1412049534
 1378 0680 AB90903B 		.word	999329963
 1379 0684 8388880B 		.word	193497219
 1380 0688 CA46468C 		.word	-1941551414
 1381 068c 29EEEEC7 		.word	-940642775
 1382 0690 D3B8B86B 		.word	1807268051
 1383 0694 3C141428 		.word	672404540
 1384 0698 79DEDEA7 		.word	-1478566279
 1385 069c E25E5EBC 		.word	-1134666014
 1386 06a0 1D0B0B16 		.word	369822493
 1387 06a4 76DBDBAD 		.word	-1378100362
 1388 06a8 3BE0E0DB 		.word	-606019525
 1389 06ac 56323264 		.word	1681011286
 1390 06b0 4E3A3A74 		.word	1949973070
 1391 06b4 1E0A0A14 		.word	336202270
 1392 06b8 DB494992 		.word	-1840690725
 1393 06bc 0A06060C 		.word	201721354
 1394 06c0 6C242448 		.word	1210328172
 1395 06c4 E45C5CB8 		.word	-1201906460
 1396 06c8 5DC2C29F 		.word	-1614626211
 1397 06cc 6ED3D3BD 		.word	-1110191250
 1398 06d0 EFACAC43 		.word	1135389935
 1399 06d4 A66262C4 		.word	-1000185178
 1400 06d8 A8919139 		.word	965841320
 1401 06dc A4959531 		.word	831886756
ARM GAS  C:\Users\Ray\AppData\Local\Temp\ccD3e27e.s 			page 30


 1402 06e0 37E4E4D3 		.word	-739974089
 1403 06e4 8B7979F2 		.word	-226920053
 1404 06e8 32E7E7D5 		.word	-706222286
 1405 06ec 43C8C88B 		.word	-1949775805
 1406 06f0 5937376E 		.word	1849112409
 1407 06f4 B76D6DDA 		.word	-630362697
 1408 06f8 8C8D8D01 		.word	26054028
 1409 06fc 64D5D5B1 		.word	-1311386268
 1410 0700 D24E4E9C 		.word	-1672589614
 1411 0704 E0A9A949 		.word	1235855840
 1412 0708 B46C6CD8 		.word	-663982924
 1413 070c FA5656AC 		.word	-1403627782
 1414 0710 07F4F4F3 		.word	-202050553
 1415 0714 25EAEACF 		.word	-806688219
 1416 0718 AF6565CA 		.word	-899324497
 1417 071c 8E7A7AF4 		.word	-193299826
 1418 0720 E9AEAE47 		.word	1202630377
 1419 0724 18080810 		.word	268961816
 1420 0728 D5BABA6F 		.word	1874508501
 1421 072c 887878F0 		.word	-260540280
 1422 0730 6F25254A 		.word	1243948399
 1423 0734 722E2E5C 		.word	1546530418
 1424 0738 241C1C38 		.word	941366308
 1425 073c F1A6A657 		.word	1470539505
 1426 0740 C7B4B473 		.word	1941222599
 1427 0744 51C6C697 		.word	-1748580783
 1428 0748 23E8E8CB 		.word	-873928669
 1429 074c 7CDDDDA1 		.word	-1579295364
 1430 0750 9C7474E8 		.word	-395021156
 1431 0754 211F1F3E 		.word	1042226977
 1432 0758 DD4B4B96 		.word	-1773450275
 1433 075c DCBDBD61 		.word	1639824860
 1434 0760 868B8B0D 		.word	227249030
 1435 0764 858A8A0F 		.word	260737669
 1436 0768 907070E0 		.word	-529502064
 1437 076c 423E3E7C 		.word	2084453954
 1438 0770 C4B5B571 		.word	1907733956
 1439 0774 AA6666CC 		.word	-865704278
 1440 0778 D8484890 		.word	-1874310952
 1441 077c 05030306 		.word	100860677
 1442 0780 01F6F6F7 		.word	-134810111
 1443 0784 120E0E1C 		.word	470683154
 1444 0788 A36161C2 		.word	-1033805405
 1445 078c 5F35356A 		.word	1781871967
 1446 0790 F95757AE 		.word	-1370007559
 1447 0794 D0B9B969 		.word	1773779408
 1448 0798 91868617 		.word	394692241
 1449 079c 58C1C199 		.word	-1715355304
 1450 07a0 271D1D3A 		.word	974986535
 1451 07a4 B99E9E27 		.word	664706745
 1452 07a8 38E1E1D9 		.word	-639508168
 1453 07ac 13F8F8EB 		.word	-336005101
 1454 07b0 B398982B 		.word	731420851
 1455 07b4 33111122 		.word	571543859
 1456 07b8 BB6969D2 		.word	-764843589
 1457 07bc 70D9D9A9 		.word	-1445340816
 1458 07c0 898E8E07 		.word	126783113
ARM GAS  C:\Users\Ray\AppData\Local\Temp\ccD3e27e.s 			page 31


 1459 07c4 A7949433 		.word	865375399
 1460 07c8 B69B9B2D 		.word	765172662
 1461 07cc 221E1E3C 		.word	1008606754
 1462 07d0 92878715 		.word	361203602
 1463 07d4 20E9E9C9 		.word	-907417312
 1464 07d8 49CECE87 		.word	-2016489911
 1465 07dc FF5555AA 		.word	-1437248001
 1466 07e0 78282850 		.word	1344809080
 1467 07e4 7ADFDFA5 		.word	-1512054918
 1468 07e8 8F8C8C03 		.word	59542671
 1469 07ec F8A1A159 		.word	1503764984
 1470 07f0 80898909 		.word	160008576
 1471 07f4 170D0D1A 		.word	437062935
 1472 07f8 DABFBF65 		.word	1707065306
 1473 07fc 31E6E6D7 		.word	-672733647
 1474 0800 C6424284 		.word	-2076032314
 1475 0804 B86868D0 		.word	-798463816
 1476 0808 C3414182 		.word	-2109652541
 1477 080c B0999929 		.word	697932208
 1478 0810 772D2D5A 		.word	1512910199
 1479 0814 110F0F1E 		.word	504303377
 1480 0818 CBB0B07B 		.word	2075177163
 1481 081c FC5454A8 		.word	-1470868228
 1482 0820 D6BBBB6D 		.word	1841019862
 1483 0824 3A16162C 		.word	739644986
 1484              		.text
 1485              	.Letext0:
 1486              		.file 2 "c:\\program files (x86)\\cypress\\psoc creator\\4.1\\psoc creator\\import\\gnu\\arm\\5.4.
 1487              		.file 3 "c:\\program files (x86)\\cypress\\psoc creator\\4.1\\psoc creator\\import\\gnu\\arm\\5.4.
 1488              		.file 4 "strong-arm\\src\\aes\\aes256_tables.h"
 1489              		.file 5 "c:\\program files (x86)\\cypress\\psoc creator\\4.1\\psoc creator\\import\\gnu\\arm\\5.4.