ARM GAS  C:\Users\Ray\AppData\Local\Temp\ccdVm1zF.s 			page 1


   1              		.syntax unified
   2              		.cpu cortex-m0
   3              		.fpu softvfp
   4              		.eabi_attribute 20, 1
   5              		.eabi_attribute 21, 1
   6              		.eabi_attribute 23, 3
   7              		.eabi_attribute 24, 1
   8              		.eabi_attribute 25, 1
   9              		.eabi_attribute 26, 1
  10              		.eabi_attribute 30, 1
  11              		.eabi_attribute 34, 0
  12              		.eabi_attribute 18, 4
  13              		.thumb
  14              		.syntax unified
  15              		.file	"base58.c"
  16              		.text
  17              	.Ltext0:
  18              		.cfi_sections	.debug_frame
  19              		.section	.text.base58_encode,"ax",%progbits
  20              		.align	2
  21              		.global	base58_encode
  22              		.code	16
  23              		.thumb_func
  24              		.type	base58_encode, %function
  25              	base58_encode:
  26              	.LFB0:
  27              		.file 1 "strong-arm\\src\\base58\\base58.c"
   1:strong-arm\src\base58/base58.c **** #include <string.h>
   2:strong-arm\src\base58/base58.c **** #include <strong-arm/base58.h>
   3:strong-arm\src\base58/base58.c **** #include <strong-arm/sha256.h>
   4:strong-arm\src\base58/base58.c **** #include <strong-arm/finite_field.h>
   5:strong-arm\src\base58/base58.c **** 
   6:strong-arm\src\base58/base58.c **** 
   7:strong-arm\src\base58/base58.c **** void base58_encode (uint8_t *const dst, uint8_t const *const src)
   8:strong-arm\src\base58/base58.c **** {
  28              		.loc 1 8 0
  29              		.cfi_startproc
  30              		@ args = 0, pretend = 0, frame = 160
  31              		@ frame_needed = 0, uses_anonymous_args = 0
  32              	.LVL0:
  33 0000 70B5     		push	{r4, r5, r6, lr}
  34              		.cfi_def_cfa_offset 16
  35              		.cfi_offset 4, -16
  36              		.cfi_offset 5, -12
  37              		.cfi_offset 6, -8
  38              		.cfi_offset 14, -4
  39 0002 A8B0     		sub	sp, sp, #160
  40              		.cfi_def_cfa_offset 176
  41 0004 0500     		movs	r5, r0
  42 0006 0E00     		movs	r6, r1
   9:strong-arm\src\base58/base58.c **** 	const uint8_t code_string[] = "123456789ABCDEFGHJKLMNPQRSTUVWXYZabcdefghijkmnopqrstuvwxyz";
  43              		.loc 1 9 0
  44 0008 3B22     		movs	r2, #59
  45 000a 2649     		ldr	r1, .L13
  46              	.LVL1:
  47 000c 19A8     		add	r0, sp, #100
  48              	.LVL2:
ARM GAS  C:\Users\Ray\AppData\Local\Temp\ccdVm1zF.s 			page 2


  49 000e FFF7FEFF 		bl	memcpy
  50              	.LVL3:
  10:strong-arm\src\base58/base58.c **** 	FF_NUM x = {{0}}, rem;
  51              		.loc 1 10 0
  52 0012 2022     		movs	r2, #32
  53 0014 0021     		movs	r1, #0
  54 0016 11A8     		add	r0, sp, #68
  55 0018 FFF7FEFF 		bl	memset
  56              	.LVL4:
  11:strong-arm\src\base58/base58.c **** 	uint8_t result[36];
  12:strong-arm\src\base58/base58.c **** 	uint32_t result_len = 0, dst_len = 0;
  13:strong-arm\src\base58/base58.c **** 	
  14:strong-arm\src\base58/base58.c **** 	/* Copy src into a FF_NUM. */
  15:strong-arm\src\base58/base58.c **** 	x.z[6] = src[0];
  57              		.loc 1 15 0
  58 001c 3378     		ldrb	r3, [r6]
  59 001e 1793     		str	r3, [sp, #92]
  60              	.LVL5:
  61              	.LBB2:
  16:strong-arm\src\base58/base58.c **** 	for (uint32_t i = 0; i < 24; ++i)
  62              		.loc 1 16 0
  63 0020 0023     		movs	r3, #0
  64 0022 0FE0     		b	.L2
  65              	.LVL6:
  66              	.L3:
  17:strong-arm\src\base58/base58.c **** 	{
  18:strong-arm\src\base58/base58.c **** 		x.z[5 - (i >> 2)] |= ((uint32_t)src[i + 1]) << ((3 - (i&3)) << 3);
  67              		.loc 1 18 0 discriminator 3
  68 0024 9908     		lsrs	r1, r3, #2
  69 0026 0522     		movs	r2, #5
  70 0028 521A     		subs	r2, r2, r1
  71 002a 581C     		adds	r0, r3, #1
  72 002c 315C     		ldrb	r1, [r6, r0]
  73 002e DB43     		mvns	r3, r3
  74              	.LVL7:
  75 0030 DB00     		lsls	r3, r3, #3
  76              	.LVL8:
  77 0032 1824     		movs	r4, #24
  78 0034 2340     		ands	r3, r4
  79 0036 9940     		lsls	r1, r1, r3
  80 0038 11AC     		add	r4, sp, #68
  81 003a 9300     		lsls	r3, r2, #2
  82 003c 1A59     		ldr	r2, [r3, r4]
  83 003e 0A43     		orrs	r2, r1
  84 0040 1A51     		str	r2, [r3, r4]
  85              	.LVL9:
  16:strong-arm\src\base58/base58.c **** 	for (uint32_t i = 0; i < 24; ++i)
  86              		.loc 1 16 0 discriminator 3
  87 0042 0300     		movs	r3, r0
  88              	.LVL10:
  89              	.L2:
  16:strong-arm\src\base58/base58.c **** 	for (uint32_t i = 0; i < 24; ++i)
  90              		.loc 1 16 0 is_stmt 0 discriminator 1
  91 0044 172B     		cmp	r3, #23
  92 0046 EDD9     		bls	.L3
  93 0048 0024     		movs	r4, #0
  94 004a 0AE0     		b	.L4
ARM GAS  C:\Users\Ray\AppData\Local\Temp\ccdVm1zF.s 			page 3


  95              	.LVL11:
  96              	.L12:
  97              	.LBE2:
  19:strong-arm\src\base58/base58.c **** 	}
  20:strong-arm\src\base58/base58.c **** 	
  21:strong-arm\src\base58/base58.c **** 	/* Encode using division */
  22:strong-arm\src\base58/base58.c **** 	while (!ff_is_zero (&x))
  23:strong-arm\src\base58/base58.c **** 	{
  24:strong-arm\src\base58/base58.c **** 		ff_div58 (&x, &rem, &x);
  98              		.loc 1 24 0 is_stmt 1
  99 004c 11AA     		add	r2, sp, #68
 100 004e 09A9     		add	r1, sp, #36
 101 0050 1000     		movs	r0, r2
 102 0052 FFF7FEFF 		bl	ff_div58
 103              	.LVL12:
  25:strong-arm\src\base58/base58.c **** 		result[result_len++] = code_string[rem.z[0]];
 104              		.loc 1 25 0
 105 0056 19AB     		add	r3, sp, #100
 106 0058 099A     		ldr	r2, [sp, #36]
 107 005a 9B5C     		ldrb	r3, [r3, r2]
 108 005c 6A46     		mov	r2, sp
 109 005e 1355     		strb	r3, [r2, r4]
 110 0060 0134     		adds	r4, r4, #1
 111              	.LVL13:
 112              	.L4:
  22:strong-arm\src\base58/base58.c **** 	{
 113              		.loc 1 22 0
 114 0062 11A8     		add	r0, sp, #68
 115 0064 FFF7FEFF 		bl	ff_is_zero
 116              	.LVL14:
 117 0068 0028     		cmp	r0, #0
 118 006a EFD0     		beq	.L12
 119 006c 07E0     		b	.L11
 120              	.LVL15:
 121              	.L8:
 122              	.LBB3:
  26:strong-arm\src\base58/base58.c **** 	}
  27:strong-arm\src\base58/base58.c **** 	
  28:strong-arm\src\base58/base58.c **** 	/* Copy leading zeros */
  29:strong-arm\src\base58/base58.c **** 	for (uint32_t i = 0; i < 25; ++i)
  30:strong-arm\src\base58/base58.c **** 	{
  31:strong-arm\src\base58/base58.c **** 		if (src[i])
 123              		.loc 1 31 0
 124 006e F15C     		ldrb	r1, [r6, r3]
 125 0070 0029     		cmp	r1, #0
 126 0072 08D1     		bne	.L7
 127              	.LVL16:
  32:strong-arm\src\base58/base58.c **** 			break;
  33:strong-arm\src\base58/base58.c **** 		
  34:strong-arm\src\base58/base58.c **** 		dst[dst_len++] = code_string[0];
 128              		.loc 1 34 0 discriminator 2
 129 0074 3131     		adds	r1, r1, #49
 130 0076 A954     		strb	r1, [r5, r2]
  29:strong-arm\src\base58/base58.c **** 	{
 131              		.loc 1 29 0 discriminator 2
 132 0078 0133     		adds	r3, r3, #1
 133              	.LVL17:
ARM GAS  C:\Users\Ray\AppData\Local\Temp\ccdVm1zF.s 			page 4


 134              		.loc 1 34 0 discriminator 2
 135 007a 0132     		adds	r2, r2, #1
 136              	.LVL18:
 137 007c 01E0     		b	.L5
 138              	.LVL19:
 139              	.L11:
 140              	.LBE3:
 141 007e 0023     		movs	r3, #0
 142 0080 0022     		movs	r2, #0
 143              	.LVL20:
 144              	.L5:
 145              	.LBB4:
  29:strong-arm\src\base58/base58.c **** 	{
 146              		.loc 1 29 0 discriminator 1
 147 0082 182B     		cmp	r3, #24
 148 0084 F3D9     		bls	.L8
 149              	.L7:
 150              	.LBE4:
 151              	.LBB5:
  35:strong-arm\src\base58/base58.c **** 	}
  36:strong-arm\src\base58/base58.c **** 	
  37:strong-arm\src\base58/base58.c **** 	/* Copy reverse of result */
  38:strong-arm\src\base58/base58.c **** 	for (int i = result_len - 1; i >= 0; --i)
 152              		.loc 1 38 0
 153 0086 631E     		subs	r3, r4, #1
 154              	.LVL21:
 155 0088 04E0     		b	.L9
 156              	.L10:
 157              	.LVL22:
  39:strong-arm\src\base58/base58.c **** 	{
  40:strong-arm\src\base58/base58.c **** 		dst[dst_len++] = result[i];
 158              		.loc 1 40 0 discriminator 3
 159 008a 6946     		mov	r1, sp
 160 008c C95C     		ldrb	r1, [r1, r3]
 161 008e A954     		strb	r1, [r5, r2]
  38:strong-arm\src\base58/base58.c **** 	{
 162              		.loc 1 38 0 discriminator 3
 163 0090 013B     		subs	r3, r3, #1
 164              	.LVL23:
 165              		.loc 1 40 0 discriminator 3
 166 0092 0132     		adds	r2, r2, #1
 167              	.LVL24:
 168              	.L9:
  38:strong-arm\src\base58/base58.c **** 	{
 169              		.loc 1 38 0 discriminator 1
 170 0094 002B     		cmp	r3, #0
 171 0096 F8DA     		bge	.L10
 172              	.LBE5:
  41:strong-arm\src\base58/base58.c **** 	}
  42:strong-arm\src\base58/base58.c **** 	
  43:strong-arm\src\base58/base58.c **** 	/* NULL Termination */
  44:strong-arm\src\base58/base58.c **** 	dst[dst_len] = 0;
 173              		.loc 1 44 0
 174 0098 AD18     		adds	r5, r5, r2
 175              	.LVL25:
 176 009a 0023     		movs	r3, #0
 177              	.LVL26:
ARM GAS  C:\Users\Ray\AppData\Local\Temp\ccdVm1zF.s 			page 5


 178 009c 2B70     		strb	r3, [r5]
  45:strong-arm\src\base58/base58.c **** }
 179              		.loc 1 45 0
 180 009e 28B0     		add	sp, sp, #160
 181              		@ sp needed
 182              	.LVL27:
 183              	.LVL28:
 184 00a0 70BD     		pop	{r4, r5, r6, pc}
 185              	.L14:
 186 00a2 C046     		.align	2
 187              	.L13:
 188 00a4 00000000 		.word	.LC0
 189              		.cfi_endproc
 190              	.LFE0:
 191              		.size	base58_encode, .-base58_encode
 192              		.section	.text.base58check_encode,"ax",%progbits
 193              		.align	2
 194              		.global	base58check_encode
 195              		.code	16
 196              		.thumb_func
 197              		.type	base58check_encode, %function
 198              	base58check_encode:
 199              	.LFB1:
  46:strong-arm\src\base58/base58.c **** 
  47:strong-arm\src\base58/base58.c **** void base58check_encode (uint8_t *const dst, uint8_t version, uint8_t const *const src)
  48:strong-arm\src\base58/base58.c **** {
 200              		.loc 1 48 0
 201              		.cfi_startproc
 202              		@ args = 0, pretend = 0, frame = 32
 203              		@ frame_needed = 0, uses_anonymous_args = 0
 204              	.LVL29:
 205 0000 30B5     		push	{r4, r5, lr}
 206              		.cfi_def_cfa_offset 12
 207              		.cfi_offset 4, -12
 208              		.cfi_offset 5, -8
 209              		.cfi_offset 14, -4
 210 0002 89B0     		sub	sp, sp, #36
 211              		.cfi_def_cfa_offset 48
 212 0004 0400     		movs	r4, r0
 213 0006 0D00     		movs	r5, r1
 214 0008 1100     		movs	r1, r2
 215              	.LVL30:
  49:strong-arm\src\base58/base58.c **** 	uint8_t hash[32];
  50:strong-arm\src\base58/base58.c **** 
  51:strong-arm\src\base58/base58.c **** 	memmove (dst + 1, src, 20);
 216              		.loc 1 51 0
 217 000a 0130     		adds	r0, r0, #1
 218              	.LVL31:
 219 000c 1422     		movs	r2, #20
 220              	.LVL32:
 221 000e FFF7FEFF 		bl	memmove
 222              	.LVL33:
  52:strong-arm\src\base58/base58.c **** 	dst[0] = version;
 223              		.loc 1 52 0
 224 0012 2570     		strb	r5, [r4]
  53:strong-arm\src\base58/base58.c **** 	SHA256 (hash, dst, 21);
 225              		.loc 1 53 0
ARM GAS  C:\Users\Ray\AppData\Local\Temp\ccdVm1zF.s 			page 6


 226 0014 1522     		movs	r2, #21
 227 0016 2100     		movs	r1, r4
 228 0018 6846     		mov	r0, sp
 229 001a FFF7FEFF 		bl	SHA256
 230              	.LVL34:
  54:strong-arm\src\base58/base58.c **** 	SHA256 (hash, hash, 32);
 231              		.loc 1 54 0
 232 001e 2022     		movs	r2, #32
 233 0020 6946     		mov	r1, sp
 234 0022 6846     		mov	r0, sp
 235 0024 FFF7FEFF 		bl	SHA256
 236              	.LVL35:
  55:strong-arm\src\base58/base58.c **** 
  56:strong-arm\src\base58/base58.c **** 	memmove (dst + 21, hash, 4);
 237              		.loc 1 56 0
 238 0028 2000     		movs	r0, r4
 239 002a 1530     		adds	r0, r0, #21
 240 002c 0422     		movs	r2, #4
 241 002e 6946     		mov	r1, sp
 242 0030 FFF7FEFF 		bl	memcpy
 243              	.LVL36:
  57:strong-arm\src\base58/base58.c **** 	base58_encode (dst, dst);
 244              		.loc 1 57 0
 245 0034 2100     		movs	r1, r4
 246 0036 2000     		movs	r0, r4
 247 0038 FFF7FEFF 		bl	base58_encode
 248              	.LVL37:
  58:strong-arm\src\base58/base58.c **** }
 249              		.loc 1 58 0
 250 003c 09B0     		add	sp, sp, #36
 251              		@ sp needed
 252              	.LVL38:
 253 003e 30BD     		pop	{r4, r5, pc}
 254              		.cfi_endproc
 255              	.LFE1:
 256              		.size	base58check_encode, .-base58check_encode
 257              		.section	.rodata.str1.4,"aMS",%progbits,1
 258              		.align	2
 259              	.LC0:
 260 0000 31323334 		.ascii	"123456789ABCDEFGHJKLMNPQRSTUVWXYZabcdefghijkmnopqrs"
 260      35363738 
 260      39414243 
 260      44454647 
 260      484A4B4C 
 261 0033 74757677 		.ascii	"tuvwxyz\000"
 261      78797A00 
 262              		.text
 263              	.Letext0:
 264              		.file 2 "c:\\program files (x86)\\cypress\\psoc creator\\4.1\\psoc creator\\import\\gnu\\arm\\5.4.
 265              		.file 3 "c:\\program files (x86)\\cypress\\psoc creator\\4.1\\psoc creator\\import\\gnu\\arm\\5.4.
 266              		.file 4 ".\\strong-arm\\include/strong-arm/finite_field.h"
 267              		.file 5 "c:\\program files (x86)\\cypress\\psoc creator\\4.1\\psoc creator\\import\\gnu\\arm\\5.4.
 268              		.file 6 ".\\strong-arm\\include/strong-arm/sha256.h"