ARM GAS  C:\Users\Ray\AppData\Local\Temp\cckwR3Qs.s 			page 1


   1              		.syntax unified
   2              		.cpu cortex-m0
   3              		.fpu softvfp
   4              		.eabi_attribute 20, 1
   5              		.eabi_attribute 21, 1
   6              		.eabi_attribute 23, 3
   7              		.eabi_attribute 24, 1
   8              		.eabi_attribute 25, 1
   9              		.eabi_attribute 26, 1
  10              		.eabi_attribute 30, 1
  11              		.eabi_attribute 34, 0
  12              		.eabi_attribute 18, 4
  13              		.thumb
  14              		.syntax unified
  15              		.file	"der.c"
  16              		.text
  17              	.Ltext0:
  18              		.cfi_sections	.debug_frame
  19              		.section	.text.der_encode_signature,"ax",%progbits
  20              		.align	2
  21              		.global	der_encode_signature
  22              		.code	16
  23              		.thumb_func
  24              		.type	der_encode_signature, %function
  25              	der_encode_signature:
  26              	.LFB0:
  27              		.file 1 "strong-arm\\src\\asn1\\der.c"
   1:strong-arm\src\asn1/der.c **** #include <strong-arm/asn1.h>
   2:strong-arm\src\asn1/der.c **** 
   3:strong-arm\src\asn1/der.c **** 
   4:strong-arm\src\asn1/der.c **** uint32_t der_encode_signature (uint8_t *const dst, uint32_t max_len, FF_NUM const *const r, FF_NUM 
   5:strong-arm\src\asn1/der.c **** {
  28              		.loc 1 5 0
  29              		.cfi_startproc
  30              		@ args = 0, pretend = 0, frame = 0
  31              		@ frame_needed = 0, uses_anonymous_args = 0
  32              	.LVL0:
  33 0000 F8B5     		push	{r3, r4, r5, r6, r7, lr}
  34              		.cfi_def_cfa_offset 24
  35              		.cfi_offset 3, -24
  36              		.cfi_offset 4, -20
  37              		.cfi_offset 5, -16
  38              		.cfi_offset 6, -12
  39              		.cfi_offset 7, -8
  40              		.cfi_offset 14, -4
  41 0002 0600     		movs	r6, r0
  42 0004 0C00     		movs	r4, r1
  43 0006 1D00     		movs	r5, r3
   6:strong-arm\src\asn1/der.c **** 	uint32_t len_r, len_s;
   7:strong-arm\src\asn1/der.c **** 
   8:strong-arm\src\asn1/der.c **** 	if (max_len < 2) return 0;
  44              		.loc 1 8 0
  45 0008 0129     		cmp	r1, #1
  46 000a 18D9     		bls	.L3
   9:strong-arm\src\asn1/der.c **** 
  10:strong-arm\src\asn1/der.c **** 	dst[0] = 0x30;     // type: SEQUENCE
  47              		.loc 1 10 0
ARM GAS  C:\Users\Ray\AppData\Local\Temp\cckwR3Qs.s 			page 2


  48 000c 3023     		movs	r3, #48
  49              	.LVL1:
  50 000e 0370     		strb	r3, [r0]
  11:strong-arm\src\asn1/der.c **** 	dst[1] = 0x00;     // length: unknown
  51              		.loc 1 11 0
  52 0010 0023     		movs	r3, #0
  53 0012 4370     		strb	r3, [r0, #1]
  12:strong-arm\src\asn1/der.c **** 
  13:strong-arm\src\asn1/der.c **** 	if ((len_r = ff_der_serialize (dst + 2, max_len - 2, r)) == 0)
  54              		.loc 1 13 0
  55 0014 0230     		adds	r0, r0, #2
  56              	.LVL2:
  57 0016 0239     		subs	r1, r1, #2
  58              	.LVL3:
  59 0018 FFF7FEFF 		bl	ff_der_serialize
  60              	.LVL4:
  61 001c 071E     		subs	r7, r0, #0
  62              	.LVL5:
  63 001e 10D0     		beq	.L4
  14:strong-arm\src\asn1/der.c **** 		return 0;
  15:strong-arm\src\asn1/der.c **** 
  16:strong-arm\src\asn1/der.c **** 	if ((len_s = ff_der_serialize (dst + 2 + len_r, max_len - 2 - len_r, s)) == 0)
  64              		.loc 1 16 0
  65 0020 0230     		adds	r0, r0, #2
  66              	.LVL6:
  67 0022 3018     		adds	r0, r6, r0
  68 0024 E11B     		subs	r1, r4, r7
  69 0026 0239     		subs	r1, r1, #2
  70 0028 2A00     		movs	r2, r5
  71 002a FFF7FEFF 		bl	ff_der_serialize
  72              	.LVL7:
  73 002e 0028     		cmp	r0, #0
  74 0030 09D0     		beq	.L5
  17:strong-arm\src\asn1/der.c **** 		return 0;
  18:strong-arm\src\asn1/der.c **** 
  19:strong-arm\src\asn1/der.c **** 	if ((len_r + len_s) > 127)
  75              		.loc 1 19 0
  76 0032 3B18     		adds	r3, r7, r0
  77 0034 7F2B     		cmp	r3, #127
  78 0036 08D8     		bhi	.L6
  20:strong-arm\src\asn1/der.c **** 		return 0;    // Function not designed to handle encoding lengths greater than 127
  21:strong-arm\src\asn1/der.c **** 
  22:strong-arm\src\asn1/der.c **** 	dst[1] = len_r + len_s;
  79              		.loc 1 22 0
  80 0038 7370     		strb	r3, [r6, #1]
  23:strong-arm\src\asn1/der.c **** 
  24:strong-arm\src\asn1/der.c **** 	return 2 + len_r + len_s;
  81              		.loc 1 24 0
  82 003a 981C     		adds	r0, r3, #2
  83              	.LVL8:
  84 003c 06E0     		b	.L2
  85              	.LVL9:
  86              	.L3:
   8:strong-arm\src\asn1/der.c **** 
  87              		.loc 1 8 0
  88 003e 0020     		movs	r0, #0
  89              	.LVL10:
ARM GAS  C:\Users\Ray\AppData\Local\Temp\cckwR3Qs.s 			page 3


  90 0040 04E0     		b	.L2
  91              	.LVL11:
  92              	.L4:
  14:strong-arm\src\asn1/der.c **** 
  93              		.loc 1 14 0
  94 0042 0020     		movs	r0, #0
  95              	.LVL12:
  96 0044 02E0     		b	.L2
  97              	.LVL13:
  98              	.L5:
  17:strong-arm\src\asn1/der.c **** 
  99              		.loc 1 17 0
 100 0046 0020     		movs	r0, #0
 101              	.LVL14:
 102 0048 00E0     		b	.L2
 103              	.LVL15:
 104              	.L6:
  20:strong-arm\src\asn1/der.c **** 
 105              		.loc 1 20 0
 106 004a 0020     		movs	r0, #0
 107              	.LVL16:
 108              	.L2:
  25:strong-arm\src\asn1/der.c **** }
 109              		.loc 1 25 0
 110              		@ sp needed
 111              	.LVL17:
 112              	.LVL18:
 113              	.LVL19:
 114 004c F8BD     		pop	{r3, r4, r5, r6, r7, pc}
 115              		.cfi_endproc
 116              	.LFE0:
 117              		.size	der_encode_signature, .-der_encode_signature
 118 004e C046     		.text
 119              	.Letext0:
 120              		.file 2 "c:\\program files (x86)\\cypress\\psoc creator\\4.1\\psoc creator\\import\\gnu\\arm\\5.4.
 121              		.file 3 "c:\\program files (x86)\\cypress\\psoc creator\\4.1\\psoc creator\\import\\gnu\\arm\\5.4.
 122              		.file 4 ".\\strong-arm\\include/strong-arm/finite_field.h"