ARM GAS  C:\Users\Ray\AppData\Local\Temp\ccqCnWHK.s 			page 1


   1              		.syntax unified
   2              		.cpu cortex-m0
   3              		.fpu softvfp
   4              		.eabi_attribute 20, 1
   5              		.eabi_attribute 21, 1
   6              		.eabi_attribute 23, 3
   7              		.eabi_attribute 24, 1
   8              		.eabi_attribute 25, 1
   9              		.eabi_attribute 26, 1
  10              		.eabi_attribute 30, 1
  11              		.eabi_attribute 34, 0
  12              		.eabi_attribute 18, 4
  13              		.thumb
  14              		.syntax unified
  15              		.file	"ecdsa.c"
  16              		.text
  17              	.Ltext0:
  18              		.cfi_sections	.debug_frame
  19              		.section	.text.ec_double,"ax",%progbits
  20              		.align	2
  21              		.global	ec_double
  22              		.code	16
  23              		.thumb_func
  24              		.type	ec_double, %function
  25              	ec_double:
  26              	.LFB1:
  27              		.file 1 "strong-arm\\src\\ecdsa\\ecdsa.c"
   1:strong-arm\src\ecdsa/ecdsa.c **** #include <strong-arm/ecdsa.h>
   2:strong-arm\src\ecdsa/ecdsa.c **** 
   3:strong-arm\src\ecdsa/ecdsa.c **** 
   4:strong-arm\src\ecdsa/ecdsa.c **** const EC_POINT ec_G = {
   5:strong-arm\src\ecdsa/ecdsa.c **** 	{{0x16F81798, 0x59F2815B, 0x2DCE28D9, 0x029BFCDB, 0xCE870B07, 0x55A06295, 0xF9DCBBAC, 0x79BE667E}}
   6:strong-arm\src\ecdsa/ecdsa.c **** 	{{0XFB10D4B8, 0X9C47D08F, 0XA6855419, 0XFD17B448, 0X0E1108A8, 0X5DA4FBFC, 0X26A3C465, 0X483ADA77}}
   7:strong-arm\src\ecdsa/ecdsa.c **** };
   8:strong-arm\src\ecdsa/ecdsa.c **** 
   9:strong-arm\src\ecdsa/ecdsa.c **** const FF_NUM ec_n = {{0xD0364141, 0xBFD25E8C, 0xAF48A03B, 0xBAAEDCE6, 0xFFFFFFFE, 0xFFFFFFFF, 0xFFF
  10:strong-arm\src\ecdsa/ecdsa.c **** 
  11:strong-arm\src\ecdsa/ecdsa.c **** const FF_NUM ec_p = {{0xFFFFFC2F, 0xFFFFFFFE, 0xFFFFFFFF, 0xFFFFFFFF, 0xFFFFFFFF, 0xFFFFFFFF, 0xFFF
  12:strong-arm\src\ecdsa/ecdsa.c **** 
  13:strong-arm\src\ecdsa/ecdsa.c **** const FF_NUM ec_b = {{0x00000007, 0x00000000, 0x00000000, 0x00000000, 0x00000000, 0x00000000, 0x000
  14:strong-arm\src\ecdsa/ecdsa.c **** 
  15:strong-arm\src\ecdsa/ecdsa.c **** 
  16:strong-arm\src\ecdsa/ecdsa.c **** 
  17:strong-arm\src\ecdsa/ecdsa.c **** 
  18:strong-arm\src\ecdsa/ecdsa.c **** void ec_add (EC_POINT *const out, EC_POINT const *const A, EC_POINT const *const B)
  19:strong-arm\src\ecdsa/ecdsa.c **** {
  20:strong-arm\src\ecdsa/ecdsa.c **** 	FF_NUM slope, tmp, tmp1;
  21:strong-arm\src\ecdsa/ecdsa.c **** 	FF_NUM x3, y3;
  22:strong-arm\src\ecdsa/ecdsa.c **** 	
  23:strong-arm\src\ecdsa/ecdsa.c **** 	if ((ff_is_zero (&(A->x))) && (ff_is_zero (&(A->y))))
  24:strong-arm\src\ecdsa/ecdsa.c **** 	{
  25:strong-arm\src\ecdsa/ecdsa.c **** 		ff_copy (&(out->x), &(B->x));
  26:strong-arm\src\ecdsa/ecdsa.c **** 		ff_copy (&(out->y), &(B->y));
  27:strong-arm\src\ecdsa/ecdsa.c **** 		return;
  28:strong-arm\src\ecdsa/ecdsa.c **** 	}
  29:strong-arm\src\ecdsa/ecdsa.c **** 	
  30:strong-arm\src\ecdsa/ecdsa.c **** 	if ((ff_is_zero (&(B->x))) && (ff_is_zero (&(B->y))))
ARM GAS  C:\Users\Ray\AppData\Local\Temp\ccqCnWHK.s 			page 2


  31:strong-arm\src\ecdsa/ecdsa.c **** 	{
  32:strong-arm\src\ecdsa/ecdsa.c **** 		ff_copy (&(out->x), &(A->x));
  33:strong-arm\src\ecdsa/ecdsa.c **** 		ff_copy (&(out->y), &(A->y));
  34:strong-arm\src\ecdsa/ecdsa.c **** 		return;
  35:strong-arm\src\ecdsa/ecdsa.c **** 	}
  36:strong-arm\src\ecdsa/ecdsa.c **** 
  37:strong-arm\src\ecdsa/ecdsa.c **** 	if (ff_compare (&(A->x), &(B->x)) == 0)
  38:strong-arm\src\ecdsa/ecdsa.c **** 	{
  39:strong-arm\src\ecdsa/ecdsa.c **** 		ff_add (&tmp, &(A->y), &(B->y), &ec_p);
  40:strong-arm\src\ecdsa/ecdsa.c **** 
  41:strong-arm\src\ecdsa/ecdsa.c **** 		if (ff_is_zero (&tmp))
  42:strong-arm\src\ecdsa/ecdsa.c **** 		{
  43:strong-arm\src\ecdsa/ecdsa.c **** 			// Infinity
  44:strong-arm\src\ecdsa/ecdsa.c **** 			ff_zero (&(out->x));
  45:strong-arm\src\ecdsa/ecdsa.c **** 			ff_zero (&(out->y));
  46:strong-arm\src\ecdsa/ecdsa.c **** 			return;
  47:strong-arm\src\ecdsa/ecdsa.c **** 		}
  48:strong-arm\src\ecdsa/ecdsa.c **** 		else
  49:strong-arm\src\ecdsa/ecdsa.c **** 		{
  50:strong-arm\src\ecdsa/ecdsa.c **** 			ec_double (out, out);
  51:strong-arm\src\ecdsa/ecdsa.c **** 			return;
  52:strong-arm\src\ecdsa/ecdsa.c **** 		}
  53:strong-arm\src\ecdsa/ecdsa.c **** 	}
  54:strong-arm\src\ecdsa/ecdsa.c **** 
  55:strong-arm\src\ecdsa/ecdsa.c **** 	// Slope
  56:strong-arm\src\ecdsa/ecdsa.c **** 	ff_sub (&tmp, &(B->y), &(A->y), &ec_p);
  57:strong-arm\src\ecdsa/ecdsa.c **** 	ff_sub (&tmp1, &(B->x), &(A->x), &ec_p);
  58:strong-arm\src\ecdsa/ecdsa.c **** 	ff_inv (&tmp1, &tmp1, &ec_p);
  59:strong-arm\src\ecdsa/ecdsa.c **** 	ff_mul (&slope, &tmp, &tmp1, &ec_p);		// slope = (y2 - y1) / (x2 - x1)
  60:strong-arm\src\ecdsa/ecdsa.c **** 
  61:strong-arm\src\ecdsa/ecdsa.c **** 	// x
  62:strong-arm\src\ecdsa/ecdsa.c **** 	ff_mul (&tmp, &slope, &slope, &ec_p);
  63:strong-arm\src\ecdsa/ecdsa.c **** 	ff_sub (&x3, &tmp, &(A->x), &ec_p);
  64:strong-arm\src\ecdsa/ecdsa.c **** 	ff_sub (&x3, &x3, &(B->x), &ec_p);	// out.x = slope^2 - x1 - x2
  65:strong-arm\src\ecdsa/ecdsa.c **** 
  66:strong-arm\src\ecdsa/ecdsa.c **** 	// y
  67:strong-arm\src\ecdsa/ecdsa.c **** 	ff_sub (&tmp, &(A->x), &x3, &ec_p);
  68:strong-arm\src\ecdsa/ecdsa.c **** 	ff_mul (&tmp, &slope, &tmp, &ec_p);
  69:strong-arm\src\ecdsa/ecdsa.c **** 	ff_sub (&y3, &tmp, &(A->y), &ec_p);	// out.y = slope * (x1 - out.x) - y1
  70:strong-arm\src\ecdsa/ecdsa.c **** 
  71:strong-arm\src\ecdsa/ecdsa.c **** 	ff_copy (&(out->x), &x3);
  72:strong-arm\src\ecdsa/ecdsa.c **** 	ff_copy (&(out->y), &y3);
  73:strong-arm\src\ecdsa/ecdsa.c **** }
  74:strong-arm\src\ecdsa/ecdsa.c **** 
  75:strong-arm\src\ecdsa/ecdsa.c **** 
  76:strong-arm\src\ecdsa/ecdsa.c **** void ec_double (EC_POINT *const out, EC_POINT const *const P)
  77:strong-arm\src\ecdsa/ecdsa.c **** {
  28              		.loc 1 77 0
  29              		.cfi_startproc
  30              		@ args = 0, pretend = 0, frame = 160
  31              		@ frame_needed = 0, uses_anonymous_args = 0
  32              	.LVL0:
  33 0000 F0B5     		push	{r4, r5, r6, r7, lr}
  34              		.cfi_def_cfa_offset 20
  35              		.cfi_offset 4, -20
  36              		.cfi_offset 5, -16
  37              		.cfi_offset 6, -12
ARM GAS  C:\Users\Ray\AppData\Local\Temp\ccqCnWHK.s 			page 3


  38              		.cfi_offset 7, -8
  39              		.cfi_offset 14, -4
  40 0002 A9B0     		sub	sp, sp, #164
  41              		.cfi_def_cfa_offset 184
  42 0004 0600     		movs	r6, r0
  43 0006 0D00     		movs	r5, r1
  78:strong-arm\src\ecdsa/ecdsa.c **** 	FF_NUM slope, tmp, tmp1;
  79:strong-arm\src\ecdsa/ecdsa.c **** 	FF_NUM x3, y3;
  80:strong-arm\src\ecdsa/ecdsa.c **** 
  81:strong-arm\src\ecdsa/ecdsa.c **** 	if ((ff_is_zero (&(P->x))) && (ff_is_zero (&(P->y))))
  44              		.loc 1 81 0
  45 0008 0800     		movs	r0, r1
  46              	.LVL1:
  47 000a FFF7FEFF 		bl	ff_is_zero
  48              	.LVL2:
  49 000e 0028     		cmp	r0, #0
  50 0010 0DD0     		beq	.L2
  51              		.loc 1 81 0 is_stmt 0 discriminator 1
  52 0012 2800     		movs	r0, r5
  53 0014 2030     		adds	r0, r0, #32
  54 0016 FFF7FEFF 		bl	ff_is_zero
  55              	.LVL3:
  56 001a 0028     		cmp	r0, #0
  57 001c 07D0     		beq	.L2
  82:strong-arm\src\ecdsa/ecdsa.c **** 	{
  83:strong-arm\src\ecdsa/ecdsa.c **** 		ff_zero (&(out->x));
  58              		.loc 1 83 0 is_stmt 1
  59 001e 3000     		movs	r0, r6
  60 0020 FFF7FEFF 		bl	ff_zero
  61              	.LVL4:
  84:strong-arm\src\ecdsa/ecdsa.c **** 		ff_zero (&(out->y));
  62              		.loc 1 84 0
  63 0024 3000     		movs	r0, r6
  64 0026 2030     		adds	r0, r0, #32
  65 0028 FFF7FEFF 		bl	ff_zero
  66              	.LVL5:
  67 002c 52E0     		b	.L1
  68              	.L2:
  85:strong-arm\src\ecdsa/ecdsa.c **** 		return;
  86:strong-arm\src\ecdsa/ecdsa.c **** 	}
  87:strong-arm\src\ecdsa/ecdsa.c **** 
  88:strong-arm\src\ecdsa/ecdsa.c **** 	ff_mul (&tmp, &(P->x), &(P->x), &ec_p);	// tmp = x^2
  69              		.loc 1 88 0
  70 002e 2A4C     		ldr	r4, .L4
  71 0030 2300     		movs	r3, r4
  72 0032 2A00     		movs	r2, r5
  73 0034 2900     		movs	r1, r5
  74 0036 18A8     		add	r0, sp, #96
  75 0038 FFF7FEFF 		bl	ff_mul
  76              	.LVL6:
  89:strong-arm\src\ecdsa/ecdsa.c **** 	ff_add (&tmp1, &tmp, &tmp, &ec_p);	// tmp1 = 2 * x^2
  77              		.loc 1 89 0
  78 003c 2300     		movs	r3, r4
  79 003e 18AA     		add	r2, sp, #96
  80 0040 1100     		movs	r1, r2
  81 0042 10A8     		add	r0, sp, #64
  82 0044 FFF7FEFF 		bl	ff_add
ARM GAS  C:\Users\Ray\AppData\Local\Temp\ccqCnWHK.s 			page 4


  83              	.LVL7:
  90:strong-arm\src\ecdsa/ecdsa.c **** 	ff_add (&tmp, &tmp1, &tmp, &ec_p);	// tmp = 3 * x^2
  84              		.loc 1 90 0
  85 0048 2300     		movs	r3, r4
  86 004a 18AA     		add	r2, sp, #96
  87 004c 10A9     		add	r1, sp, #64
  88 004e 1000     		movs	r0, r2
  89 0050 FFF7FEFF 		bl	ff_add
  90              	.LVL8:
  91:strong-arm\src\ecdsa/ecdsa.c **** 	//ff_add (&tmp, &tmp, a);		// tmp = 3x^2 + a	// a == 0 for our curve
  92:strong-arm\src\ecdsa/ecdsa.c **** 	ff_add (&tmp1, &(P->y), &(P->y), &ec_p);	// tmp1 = 2 * y
  91              		.loc 1 92 0
  92 0054 2F00     		movs	r7, r5
  93 0056 2037     		adds	r7, r7, #32
  94 0058 2300     		movs	r3, r4
  95 005a 3A00     		movs	r2, r7
  96 005c 3900     		movs	r1, r7
  97 005e 10A8     		add	r0, sp, #64
  98 0060 FFF7FEFF 		bl	ff_add
  99              	.LVL9:
  93:strong-arm\src\ecdsa/ecdsa.c **** 	ff_inv (&tmp1, &tmp1, &ec_p);			// tmp1 = 1 / (2y)
 100              		.loc 1 93 0
 101 0064 2200     		movs	r2, r4
 102 0066 10A9     		add	r1, sp, #64
 103 0068 0800     		movs	r0, r1
 104 006a FFF7FEFF 		bl	ff_inv
 105              	.LVL10:
  94:strong-arm\src\ecdsa/ecdsa.c **** 	ff_mul (&slope, &tmp, &tmp1, &ec_p);	// slope = (3x^2 + a) / (2y)
 106              		.loc 1 94 0
 107 006e 2300     		movs	r3, r4
 108 0070 10AA     		add	r2, sp, #64
 109 0072 18A9     		add	r1, sp, #96
 110 0074 20A8     		add	r0, sp, #128
 111 0076 FFF7FEFF 		bl	ff_mul
 112              	.LVL11:
  95:strong-arm\src\ecdsa/ecdsa.c **** 	ff_mul (&tmp, &slope, &slope, &ec_p);	// tmp = slope^2
 113              		.loc 1 95 0
 114 007a 2300     		movs	r3, r4
 115 007c 20AA     		add	r2, sp, #128
 116 007e 1100     		movs	r1, r2
 117 0080 18A8     		add	r0, sp, #96
 118 0082 FFF7FEFF 		bl	ff_mul
 119              	.LVL12:
  96:strong-arm\src\ecdsa/ecdsa.c **** 	ff_sub (&x3, &tmp, &(P->x), &ec_p);
 120              		.loc 1 96 0
 121 0086 2300     		movs	r3, r4
 122 0088 2A00     		movs	r2, r5
 123 008a 18A9     		add	r1, sp, #96
 124 008c 08A8     		add	r0, sp, #32
 125 008e FFF7FEFF 		bl	ff_sub
 126              	.LVL13:
  97:strong-arm\src\ecdsa/ecdsa.c **** 	ff_sub (&x3, &x3, &(P->x), &ec_p);	// x3 = slope^2 - 2x
 127              		.loc 1 97 0
 128 0092 2300     		movs	r3, r4
 129 0094 2A00     		movs	r2, r5
 130 0096 08A9     		add	r1, sp, #32
 131 0098 0800     		movs	r0, r1
ARM GAS  C:\Users\Ray\AppData\Local\Temp\ccqCnWHK.s 			page 5


 132 009a FFF7FEFF 		bl	ff_sub
 133              	.LVL14:
  98:strong-arm\src\ecdsa/ecdsa.c **** 
  99:strong-arm\src\ecdsa/ecdsa.c **** 	ff_sub (&tmp, &(P->x), &x3, &ec_p);	// tmp = x - x3
 134              		.loc 1 99 0
 135 009e 2300     		movs	r3, r4
 136 00a0 08AA     		add	r2, sp, #32
 137 00a2 2900     		movs	r1, r5
 138 00a4 18A8     		add	r0, sp, #96
 139 00a6 FFF7FEFF 		bl	ff_sub
 140              	.LVL15:
 100:strong-arm\src\ecdsa/ecdsa.c **** 	ff_mul (&y3, &slope, &tmp, &ec_p);
 141              		.loc 1 100 0
 142 00aa 2300     		movs	r3, r4
 143 00ac 18AA     		add	r2, sp, #96
 144 00ae 20A9     		add	r1, sp, #128
 145 00b0 6846     		mov	r0, sp
 146 00b2 FFF7FEFF 		bl	ff_mul
 147              	.LVL16:
 101:strong-arm\src\ecdsa/ecdsa.c **** 	ff_sub (&y3, &y3, &(P->y), &ec_p);	// y3 = slope * (x - x3) - y
 148              		.loc 1 101 0
 149 00b6 2300     		movs	r3, r4
 150 00b8 3A00     		movs	r2, r7
 151 00ba 6946     		mov	r1, sp
 152 00bc 6846     		mov	r0, sp
 153 00be FFF7FEFF 		bl	ff_sub
 154              	.LVL17:
 102:strong-arm\src\ecdsa/ecdsa.c **** 
 103:strong-arm\src\ecdsa/ecdsa.c **** 	ff_copy (&(out->x), &x3);
 155              		.loc 1 103 0
 156 00c2 08A9     		add	r1, sp, #32
 157 00c4 3000     		movs	r0, r6
 158 00c6 FFF7FEFF 		bl	ff_copy
 159              	.LVL18:
 104:strong-arm\src\ecdsa/ecdsa.c **** 	ff_copy (&(out->y), &y3);
 160              		.loc 1 104 0
 161 00ca 3000     		movs	r0, r6
 162 00cc 2030     		adds	r0, r0, #32
 163 00ce 6946     		mov	r1, sp
 164 00d0 FFF7FEFF 		bl	ff_copy
 165              	.LVL19:
 166              	.L1:
 105:strong-arm\src\ecdsa/ecdsa.c **** }
 167              		.loc 1 105 0
 168 00d4 29B0     		add	sp, sp, #164
 169              		@ sp needed
 170              	.LVL20:
 171              	.LVL21:
 172 00d6 F0BD     		pop	{r4, r5, r6, r7, pc}
 173              	.L5:
 174              		.align	2
 175              	.L4:
 176 00d8 00000000 		.word	.LANCHOR0
 177              		.cfi_endproc
 178              	.LFE1:
 179              		.size	ec_double, .-ec_double
 180              		.section	.text.ec_add,"ax",%progbits
ARM GAS  C:\Users\Ray\AppData\Local\Temp\ccqCnWHK.s 			page 6


 181              		.align	2
 182              		.global	ec_add
 183              		.code	16
 184              		.thumb_func
 185              		.type	ec_add, %function
 186              	ec_add:
 187              	.LFB0:
  19:strong-arm\src\ecdsa/ecdsa.c **** 	FF_NUM slope, tmp, tmp1;
 188              		.loc 1 19 0
 189              		.cfi_startproc
 190              		@ args = 0, pretend = 0, frame = 168
 191              		@ frame_needed = 0, uses_anonymous_args = 0
 192              	.LVL22:
 193 0000 F0B5     		push	{r4, r5, r6, r7, lr}
 194              		.cfi_def_cfa_offset 20
 195              		.cfi_offset 4, -20
 196              		.cfi_offset 5, -16
 197              		.cfi_offset 6, -12
 198              		.cfi_offset 7, -8
 199              		.cfi_offset 14, -4
 200 0002 ABB0     		sub	sp, sp, #172
 201              		.cfi_def_cfa_offset 192
 202 0004 0600     		movs	r6, r0
 203 0006 0C00     		movs	r4, r1
 204 0008 1500     		movs	r5, r2
  23:strong-arm\src\ecdsa/ecdsa.c **** 	{
 205              		.loc 1 23 0
 206 000a 0800     		movs	r0, r1
 207              	.LVL23:
 208 000c FFF7FEFF 		bl	ff_is_zero
 209              	.LVL24:
 210 0010 0028     		cmp	r0, #0
 211 0012 10D0     		beq	.L7
  23:strong-arm\src\ecdsa/ecdsa.c **** 	{
 212              		.loc 1 23 0 is_stmt 0 discriminator 1
 213 0014 2000     		movs	r0, r4
 214 0016 2030     		adds	r0, r0, #32
 215 0018 FFF7FEFF 		bl	ff_is_zero
 216              	.LVL25:
 217 001c 0028     		cmp	r0, #0
 218 001e 0AD0     		beq	.L7
  25:strong-arm\src\ecdsa/ecdsa.c **** 		ff_copy (&(out->y), &(B->y));
 219              		.loc 1 25 0 is_stmt 1
 220 0020 2900     		movs	r1, r5
 221 0022 3000     		movs	r0, r6
 222 0024 FFF7FEFF 		bl	ff_copy
 223              	.LVL26:
  26:strong-arm\src\ecdsa/ecdsa.c **** 		return;
 224              		.loc 1 26 0
 225 0028 2900     		movs	r1, r5
 226 002a 2031     		adds	r1, r1, #32
 227 002c 3000     		movs	r0, r6
 228 002e 2030     		adds	r0, r0, #32
 229 0030 FFF7FEFF 		bl	ff_copy
 230              	.LVL27:
  27:strong-arm\src\ecdsa/ecdsa.c **** 	}
 231              		.loc 1 27 0
ARM GAS  C:\Users\Ray\AppData\Local\Temp\ccqCnWHK.s 			page 7


 232 0034 82E0     		b	.L6
 233              	.L7:
  30:strong-arm\src\ecdsa/ecdsa.c **** 	{
 234              		.loc 1 30 0
 235 0036 2800     		movs	r0, r5
 236 0038 FFF7FEFF 		bl	ff_is_zero
 237              	.LVL28:
 238 003c 0028     		cmp	r0, #0
 239 003e 10D0     		beq	.L9
  30:strong-arm\src\ecdsa/ecdsa.c **** 	{
 240              		.loc 1 30 0 is_stmt 0 discriminator 1
 241 0040 2800     		movs	r0, r5
 242 0042 2030     		adds	r0, r0, #32
 243 0044 FFF7FEFF 		bl	ff_is_zero
 244              	.LVL29:
 245 0048 0028     		cmp	r0, #0
 246 004a 0AD0     		beq	.L9
  32:strong-arm\src\ecdsa/ecdsa.c **** 		ff_copy (&(out->y), &(A->y));
 247              		.loc 1 32 0 is_stmt 1
 248 004c 2100     		movs	r1, r4
 249 004e 3000     		movs	r0, r6
 250 0050 FFF7FEFF 		bl	ff_copy
 251              	.LVL30:
  33:strong-arm\src\ecdsa/ecdsa.c **** 		return;
 252              		.loc 1 33 0
 253 0054 2100     		movs	r1, r4
 254 0056 2031     		adds	r1, r1, #32
 255 0058 3000     		movs	r0, r6
 256 005a 2030     		adds	r0, r0, #32
 257 005c FFF7FEFF 		bl	ff_copy
 258              	.LVL31:
  34:strong-arm\src\ecdsa/ecdsa.c **** 	}
 259              		.loc 1 34 0
 260 0060 6CE0     		b	.L6
 261              	.L9:
  37:strong-arm\src\ecdsa/ecdsa.c **** 	{
 262              		.loc 1 37 0
 263 0062 2900     		movs	r1, r5
 264 0064 2000     		movs	r0, r4
 265 0066 FFF7FEFF 		bl	ff_compare
 266              	.LVL32:
 267 006a 0028     		cmp	r0, #0
 268 006c 19D1     		bne	.L10
  39:strong-arm\src\ecdsa/ecdsa.c **** 
 269              		.loc 1 39 0
 270 006e 2A00     		movs	r2, r5
 271 0070 2032     		adds	r2, r2, #32
 272 0072 2100     		movs	r1, r4
 273 0074 2031     		adds	r1, r1, #32
 274 0076 324B     		ldr	r3, .L13
 275 0078 1AA8     		add	r0, sp, #104
 276 007a FFF7FEFF 		bl	ff_add
 277              	.LVL33:
  41:strong-arm\src\ecdsa/ecdsa.c **** 		{
 278              		.loc 1 41 0
 279 007e 1AA8     		add	r0, sp, #104
 280 0080 FFF7FEFF 		bl	ff_is_zero
ARM GAS  C:\Users\Ray\AppData\Local\Temp\ccqCnWHK.s 			page 8


 281              	.LVL34:
 282 0084 0028     		cmp	r0, #0
 283 0086 07D0     		beq	.L11
  44:strong-arm\src\ecdsa/ecdsa.c **** 			ff_zero (&(out->y));
 284              		.loc 1 44 0
 285 0088 3000     		movs	r0, r6
 286 008a FFF7FEFF 		bl	ff_zero
 287              	.LVL35:
  45:strong-arm\src\ecdsa/ecdsa.c **** 			return;
 288              		.loc 1 45 0
 289 008e 3000     		movs	r0, r6
 290 0090 2030     		adds	r0, r0, #32
 291 0092 FFF7FEFF 		bl	ff_zero
 292              	.LVL36:
  46:strong-arm\src\ecdsa/ecdsa.c **** 		}
 293              		.loc 1 46 0
 294 0096 51E0     		b	.L6
 295              	.L11:
  50:strong-arm\src\ecdsa/ecdsa.c **** 			return;
 296              		.loc 1 50 0
 297 0098 3100     		movs	r1, r6
 298 009a 3000     		movs	r0, r6
 299 009c FFF7FEFF 		bl	ec_double
 300              	.LVL37:
  51:strong-arm\src\ecdsa/ecdsa.c **** 		}
 301              		.loc 1 51 0
 302 00a0 4CE0     		b	.L6
 303              	.L10:
  56:strong-arm\src\ecdsa/ecdsa.c **** 	ff_sub (&tmp1, &(B->x), &(A->x), &ec_p);
 304              		.loc 1 56 0
 305 00a2 2023     		movs	r3, #32
 306 00a4 9C46     		mov	ip, r3
 307 00a6 A444     		add	ip, ip, r4
 308 00a8 6246     		mov	r2, ip
 309 00aa 254F     		ldr	r7, .L13
 310 00ac 2900     		movs	r1, r5
 311 00ae 2031     		adds	r1, r1, #32
 312 00b0 3B00     		movs	r3, r7
 313 00b2 0192     		str	r2, [sp, #4]
 314 00b4 1AA8     		add	r0, sp, #104
 315 00b6 FFF7FEFF 		bl	ff_sub
 316              	.LVL38:
  57:strong-arm\src\ecdsa/ecdsa.c **** 	ff_inv (&tmp1, &tmp1, &ec_p);
 317              		.loc 1 57 0
 318 00ba 3B00     		movs	r3, r7
 319 00bc 2200     		movs	r2, r4
 320 00be 2900     		movs	r1, r5
 321 00c0 12A8     		add	r0, sp, #72
 322 00c2 FFF7FEFF 		bl	ff_sub
 323              	.LVL39:
  58:strong-arm\src\ecdsa/ecdsa.c **** 	ff_mul (&slope, &tmp, &tmp1, &ec_p);		// slope = (y2 - y1) / (x2 - x1)
 324              		.loc 1 58 0
 325 00c6 3A00     		movs	r2, r7
 326 00c8 12A9     		add	r1, sp, #72
 327 00ca 0800     		movs	r0, r1
 328 00cc FFF7FEFF 		bl	ff_inv
 329              	.LVL40:
ARM GAS  C:\Users\Ray\AppData\Local\Temp\ccqCnWHK.s 			page 9


  59:strong-arm\src\ecdsa/ecdsa.c **** 
 330              		.loc 1 59 0
 331 00d0 3B00     		movs	r3, r7
 332 00d2 12A9     		add	r1, sp, #72
 333 00d4 0A00     		movs	r2, r1
 334 00d6 1AA9     		add	r1, sp, #104
 335 00d8 22A8     		add	r0, sp, #136
 336 00da FFF7FEFF 		bl	ff_mul
 337              	.LVL41:
  62:strong-arm\src\ecdsa/ecdsa.c **** 	ff_sub (&x3, &tmp, &(A->x), &ec_p);
 338              		.loc 1 62 0
 339 00de 3B00     		movs	r3, r7
 340 00e0 22A9     		add	r1, sp, #136
 341 00e2 0A00     		movs	r2, r1
 342 00e4 1AA8     		add	r0, sp, #104
 343 00e6 FFF7FEFF 		bl	ff_mul
 344              	.LVL42:
  63:strong-arm\src\ecdsa/ecdsa.c **** 	ff_sub (&x3, &x3, &(B->x), &ec_p);	// out.x = slope^2 - x1 - x2
 345              		.loc 1 63 0
 346 00ea 3B00     		movs	r3, r7
 347 00ec 2200     		movs	r2, r4
 348 00ee 1AA9     		add	r1, sp, #104
 349 00f0 0AA8     		add	r0, sp, #40
 350 00f2 FFF7FEFF 		bl	ff_sub
 351              	.LVL43:
  64:strong-arm\src\ecdsa/ecdsa.c **** 
 352              		.loc 1 64 0
 353 00f6 3B00     		movs	r3, r7
 354 00f8 2A00     		movs	r2, r5
 355 00fa 0AA9     		add	r1, sp, #40
 356 00fc 0800     		movs	r0, r1
 357 00fe FFF7FEFF 		bl	ff_sub
 358              	.LVL44:
  67:strong-arm\src\ecdsa/ecdsa.c **** 	ff_mul (&tmp, &slope, &tmp, &ec_p);
 359              		.loc 1 67 0
 360 0102 3B00     		movs	r3, r7
 361 0104 0AA9     		add	r1, sp, #40
 362 0106 0A00     		movs	r2, r1
 363 0108 2100     		movs	r1, r4
 364 010a 1AA8     		add	r0, sp, #104
 365 010c FFF7FEFF 		bl	ff_sub
 366              	.LVL45:
  68:strong-arm\src\ecdsa/ecdsa.c **** 	ff_sub (&y3, &tmp, &(A->y), &ec_p);	// out.y = slope * (x1 - out.x) - y1
 367              		.loc 1 68 0
 368 0110 3B00     		movs	r3, r7
 369 0112 1AA9     		add	r1, sp, #104
 370 0114 0A00     		movs	r2, r1
 371 0116 22A9     		add	r1, sp, #136
 372 0118 1000     		movs	r0, r2
 373 011a FFF7FEFF 		bl	ff_mul
 374              	.LVL46:
  69:strong-arm\src\ecdsa/ecdsa.c **** 
 375              		.loc 1 69 0
 376 011e 3B00     		movs	r3, r7
 377 0120 019A     		ldr	r2, [sp, #4]
 378 0122 1AA9     		add	r1, sp, #104
 379 0124 02A8     		add	r0, sp, #8
ARM GAS  C:\Users\Ray\AppData\Local\Temp\ccqCnWHK.s 			page 10


 380 0126 FFF7FEFF 		bl	ff_sub
 381              	.LVL47:
  71:strong-arm\src\ecdsa/ecdsa.c **** 	ff_copy (&(out->y), &y3);
 382              		.loc 1 71 0
 383 012a 0AA9     		add	r1, sp, #40
 384 012c 3000     		movs	r0, r6
 385 012e FFF7FEFF 		bl	ff_copy
 386              	.LVL48:
  72:strong-arm\src\ecdsa/ecdsa.c **** }
 387              		.loc 1 72 0
 388 0132 3000     		movs	r0, r6
 389 0134 2030     		adds	r0, r0, #32
 390 0136 02A9     		add	r1, sp, #8
 391 0138 FFF7FEFF 		bl	ff_copy
 392              	.LVL49:
 393              	.L6:
  73:strong-arm\src\ecdsa/ecdsa.c **** 
 394              		.loc 1 73 0
 395 013c 2BB0     		add	sp, sp, #172
 396              		@ sp needed
 397              	.LVL50:
 398              	.LVL51:
 399              	.LVL52:
 400 013e F0BD     		pop	{r4, r5, r6, r7, pc}
 401              	.L14:
 402              		.align	2
 403              	.L13:
 404 0140 00000000 		.word	.LANCHOR0
 405              		.cfi_endproc
 406              	.LFE0:
 407              		.size	ec_add, .-ec_add
 408              		.section	.text.ec_mul,"ax",%progbits
 409              		.align	2
 410              		.global	ec_mul
 411              		.code	16
 412              		.thumb_func
 413              		.type	ec_mul, %function
 414              	ec_mul:
 415              	.LFB2:
 106:strong-arm\src\ecdsa/ecdsa.c **** 
 107:strong-arm\src\ecdsa/ecdsa.c **** 
 108:strong-arm\src\ecdsa/ecdsa.c **** void ec_mul (EC_POINT *const out, FF_NUM const *const k, EC_POINT const *const P)
 109:strong-arm\src\ecdsa/ecdsa.c **** {
 416              		.loc 1 109 0
 417              		.cfi_startproc
 418              		@ args = 0, pretend = 0, frame = 64
 419              		@ frame_needed = 0, uses_anonymous_args = 0
 420              	.LVL53:
 421 0000 F0B5     		push	{r4, r5, r6, r7, lr}
 422              		.cfi_def_cfa_offset 20
 423              		.cfi_offset 4, -20
 424              		.cfi_offset 5, -16
 425              		.cfi_offset 6, -12
 426              		.cfi_offset 7, -8
 427              		.cfi_offset 14, -4
 428 0002 91B0     		sub	sp, sp, #68
 429              		.cfi_def_cfa_offset 88
ARM GAS  C:\Users\Ray\AppData\Local\Temp\ccqCnWHK.s 			page 11


 430 0004 0600     		movs	r6, r0
 431 0006 0F00     		movs	r7, r1
 432 0008 1500     		movs	r5, r2
 110:strong-arm\src\ecdsa/ecdsa.c **** 	EC_POINT Q;
 111:strong-arm\src\ecdsa/ecdsa.c **** 
 112:strong-arm\src\ecdsa/ecdsa.c **** 	ff_zero (&(Q.x));
 433              		.loc 1 112 0
 434 000a 6846     		mov	r0, sp
 435              	.LVL54:
 436 000c FFF7FEFF 		bl	ff_zero
 437              	.LVL55:
 113:strong-arm\src\ecdsa/ecdsa.c **** 	ff_zero (&(Q.y));
 438              		.loc 1 113 0
 439 0010 08A8     		add	r0, sp, #32
 440 0012 FFF7FEFF 		bl	ff_zero
 441              	.LVL56:
 442              	.LBB2:
 114:strong-arm\src\ecdsa/ecdsa.c **** 
 115:strong-arm\src\ecdsa/ecdsa.c **** 	for (uint32_t i = 255; true; --i)
 443              		.loc 1 115 0
 444 0016 FF24     		movs	r4, #255
 445              	.LVL57:
 446              	.L18:
 116:strong-arm\src\ecdsa/ecdsa.c **** 	{
 117:strong-arm\src\ecdsa/ecdsa.c **** 		ec_double (&Q, &Q);
 447              		.loc 1 117 0
 448 0018 6946     		mov	r1, sp
 449 001a 6846     		mov	r0, sp
 450 001c FFF7FEFF 		bl	ec_double
 451              	.LVL58:
 118:strong-arm\src\ecdsa/ecdsa.c **** 
 119:strong-arm\src\ecdsa/ecdsa.c **** 		if ((k->z[i>>5] >> (i&31)) & 1)
 452              		.loc 1 119 0
 453 0020 6309     		lsrs	r3, r4, #5
 454 0022 9B00     		lsls	r3, r3, #2
 455 0024 DB59     		ldr	r3, [r3, r7]
 456 0026 1F22     		movs	r2, #31
 457 0028 2240     		ands	r2, r4
 458 002a D340     		lsrs	r3, r3, r2
 459 002c DB07     		lsls	r3, r3, #31
 460 002e 04D5     		bpl	.L16
 120:strong-arm\src\ecdsa/ecdsa.c **** 			ec_add (&Q, &Q, P);
 461              		.loc 1 120 0
 462 0030 2A00     		movs	r2, r5
 463 0032 6946     		mov	r1, sp
 464 0034 6846     		mov	r0, sp
 465 0036 FFF7FEFF 		bl	ec_add
 466              	.LVL59:
 467              	.L16:
 121:strong-arm\src\ecdsa/ecdsa.c **** 		
 122:strong-arm\src\ecdsa/ecdsa.c **** 		if (i == 0)
 468              		.loc 1 122 0
 469 003a 002C     		cmp	r4, #0
 470 003c 01D0     		beq	.L17
 115:strong-arm\src\ecdsa/ecdsa.c **** 	{
 471              		.loc 1 115 0
 472 003e 013C     		subs	r4, r4, #1
ARM GAS  C:\Users\Ray\AppData\Local\Temp\ccqCnWHK.s 			page 12


 473              	.LVL60:
 123:strong-arm\src\ecdsa/ecdsa.c **** 			break;
 124:strong-arm\src\ecdsa/ecdsa.c **** 	}
 474              		.loc 1 124 0
 475 0040 EAE7     		b	.L18
 476              	.L17:
 477              	.LBE2:
 125:strong-arm\src\ecdsa/ecdsa.c **** 	
 126:strong-arm\src\ecdsa/ecdsa.c **** 	ff_copy (&(out->x), &(Q.x));
 478              		.loc 1 126 0
 479 0042 6946     		mov	r1, sp
 480 0044 3000     		movs	r0, r6
 481 0046 FFF7FEFF 		bl	ff_copy
 482              	.LVL61:
 127:strong-arm\src\ecdsa/ecdsa.c **** 	ff_copy (&(out->y), &(Q.y));
 483              		.loc 1 127 0
 484 004a 3000     		movs	r0, r6
 485 004c 2030     		adds	r0, r0, #32
 486 004e 08A9     		add	r1, sp, #32
 487 0050 FFF7FEFF 		bl	ff_copy
 488              	.LVL62:
 128:strong-arm\src\ecdsa/ecdsa.c **** }
 489              		.loc 1 128 0
 490 0054 11B0     		add	sp, sp, #68
 491              		@ sp needed
 492              	.LVL63:
 493              	.LVL64:
 494              	.LVL65:
 495              	.LVL66:
 496 0056 F0BD     		pop	{r4, r5, r6, r7, pc}
 497              		.cfi_endproc
 498              	.LFE2:
 499              		.size	ec_mul, .-ec_mul
 500              		.section	.text.ec_create_key,"ax",%progbits
 501              		.align	2
 502              		.global	ec_create_key
 503              		.code	16
 504              		.thumb_func
 505              		.type	ec_create_key, %function
 506              	ec_create_key:
 507              	.LFB3:
 129:strong-arm\src\ecdsa/ecdsa.c **** 
 130:strong-arm\src\ecdsa/ecdsa.c **** 
 131:strong-arm\src\ecdsa/ecdsa.c **** void ec_create_key (FF_NUM *const ret_privkey, EC_POINT *const ret_pubkey)
 132:strong-arm\src\ecdsa/ecdsa.c **** {
 508              		.loc 1 132 0
 509              		.cfi_startproc
 510              		@ args = 0, pretend = 0, frame = 0
 511              		@ frame_needed = 0, uses_anonymous_args = 0
 512              	.LVL67:
 513 0000 70B5     		push	{r4, r5, r6, lr}
 514              		.cfi_def_cfa_offset 16
 515              		.cfi_offset 4, -16
 516              		.cfi_offset 5, -12
 517              		.cfi_offset 6, -8
 518              		.cfi_offset 14, -4
 519 0002 0500     		movs	r5, r0
ARM GAS  C:\Users\Ray\AppData\Local\Temp\ccqCnWHK.s 			page 13


 520 0004 0E00     		movs	r6, r1
 133:strong-arm\src\ecdsa/ecdsa.c **** 	ff_rand (ret_privkey, &ec_n);
 521              		.loc 1 133 0
 522 0006 064C     		ldr	r4, .L20
 523 0008 2100     		movs	r1, r4
 524              	.LVL68:
 525 000a 2031     		adds	r1, r1, #32
 526 000c FFF7FEFF 		bl	ff_rand
 527              	.LVL69:
 134:strong-arm\src\ecdsa/ecdsa.c **** 	ec_mul (ret_pubkey, ret_privkey, &ec_G);
 528              		.loc 1 134 0
 529 0010 2200     		movs	r2, r4
 530 0012 4032     		adds	r2, r2, #64
 531 0014 2900     		movs	r1, r5
 532 0016 3000     		movs	r0, r6
 533 0018 FFF7FEFF 		bl	ec_mul
 534              	.LVL70:
 135:strong-arm\src\ecdsa/ecdsa.c **** }
 535              		.loc 1 135 0
 536              		@ sp needed
 537              	.LVL71:
 538              	.LVL72:
 539 001c 70BD     		pop	{r4, r5, r6, pc}
 540              	.L21:
 541 001e C046     		.align	2
 542              	.L20:
 543 0020 00000000 		.word	.LANCHOR0
 544              		.cfi_endproc
 545              	.LFE3:
 546              		.size	ec_create_key, .-ec_create_key
 547              		.section	.text.ec_sign,"ax",%progbits
 548              		.align	2
 549              		.global	ec_sign
 550              		.code	16
 551              		.thumb_func
 552              		.type	ec_sign, %function
 553              	ec_sign:
 554              	.LFB4:
 136:strong-arm\src\ecdsa/ecdsa.c **** 
 137:strong-arm\src\ecdsa/ecdsa.c **** 
 138:strong-arm\src\ecdsa/ecdsa.c **** // Sign z, the 256-bit HASH of a message m, with d, the private key.
 139:strong-arm\src\ecdsa/ecdsa.c **** // Returns a pair (r,s), which is the signature.
 140:strong-arm\src\ecdsa/ecdsa.c **** bool ec_sign (FF_NUM *const out_r, FF_NUM *const out_s, FF_NUM const *const z, FF_NUM const *const 
 141:strong-arm\src\ecdsa/ecdsa.c **** {
 555              		.loc 1 141 0
 556              		.cfi_startproc
 557              		@ args = 0, pretend = 0, frame = 168
 558              		@ frame_needed = 0, uses_anonymous_args = 0
 559              	.LVL73:
 560 0000 F0B5     		push	{r4, r5, r6, r7, lr}
 561              		.cfi_def_cfa_offset 20
 562              		.cfi_offset 4, -20
 563              		.cfi_offset 5, -16
 564              		.cfi_offset 6, -12
 565              		.cfi_offset 7, -8
 566              		.cfi_offset 14, -4
 567 0002 ABB0     		sub	sp, sp, #172
ARM GAS  C:\Users\Ray\AppData\Local\Temp\ccqCnWHK.s 			page 14


 568              		.cfi_def_cfa_offset 192
 569 0004 0090     		str	r0, [sp]
 570 0006 0191     		str	r1, [sp, #4]
 571 0008 1600     		movs	r6, r2
 572 000a 1D00     		movs	r5, r3
 142:strong-arm\src\ecdsa/ecdsa.c **** 	FF_NUM k, r, s;
 143:strong-arm\src\ecdsa/ecdsa.c **** 	EC_POINT kG;
 144:strong-arm\src\ecdsa/ecdsa.c **** 
 145:strong-arm\src\ecdsa/ecdsa.c **** 	// Private key must be within range [1, n - 1]
 146:strong-arm\src\ecdsa/ecdsa.c **** 	if ((ff_is_zero (d)) || (ff_compare (d, &ec_n) >= 0))
 573              		.loc 1 146 0
 574 000c 1800     		movs	r0, r3
 575              	.LVL74:
 576 000e FFF7FEFF 		bl	ff_is_zero
 577              	.LVL75:
 578 0012 041E     		subs	r4, r0, #0
 579 0014 49D1     		bne	.L26
 580              		.loc 1 146 0 is_stmt 0 discriminator 1
 581 0016 2749     		ldr	r1, .L27
 582 0018 2031     		adds	r1, r1, #32
 583 001a 2800     		movs	r0, r5
 584 001c FFF7FEFF 		bl	ff_compare
 585              	.LVL76:
 586 0020 0028     		cmp	r0, #0
 587 0022 43DA     		bge	.L23
 588              	.L24:
 147:strong-arm\src\ecdsa/ecdsa.c **** 		return false;
 148:strong-arm\src\ecdsa/ecdsa.c **** 	
 149:strong-arm\src\ecdsa/ecdsa.c **** 	while (1)
 150:strong-arm\src\ecdsa/ecdsa.c **** 	{
 151:strong-arm\src\ecdsa/ecdsa.c **** 		ff_rand (&k, &ec_n);
 589              		.loc 1 151 0 is_stmt 1
 590 0024 234F     		ldr	r7, .L27
 591 0026 3C00     		movs	r4, r7
 592 0028 2034     		adds	r4, r4, #32
 593 002a 2100     		movs	r1, r4
 594 002c 22A8     		add	r0, sp, #136
 595 002e FFF7FEFF 		bl	ff_rand
 596              	.LVL77:
 152:strong-arm\src\ecdsa/ecdsa.c **** 		ec_mul (&kG, &k, &ec_G);
 597              		.loc 1 152 0
 598 0032 3A00     		movs	r2, r7
 599 0034 4032     		adds	r2, r2, #64
 600 0036 22A9     		add	r1, sp, #136
 601 0038 02A8     		add	r0, sp, #8
 602 003a FFF7FEFF 		bl	ec_mul
 603              	.LVL78:
 153:strong-arm\src\ecdsa/ecdsa.c **** 		ff_zero (&r);
 604              		.loc 1 153 0
 605 003e 1AA8     		add	r0, sp, #104
 606 0040 FFF7FEFF 		bl	ff_zero
 607              	.LVL79:
 154:strong-arm\src\ecdsa/ecdsa.c **** 		ff_add (&r, &r, &(kG.x), &ec_n);	// r = kG.x (mod n)
 608              		.loc 1 154 0
 609 0044 2300     		movs	r3, r4
 610 0046 02AA     		add	r2, sp, #8
 611 0048 1AA9     		add	r1, sp, #104
ARM GAS  C:\Users\Ray\AppData\Local\Temp\ccqCnWHK.s 			page 15


 612 004a 0800     		movs	r0, r1
 613 004c FFF7FEFF 		bl	ff_add
 614              	.LVL80:
 155:strong-arm\src\ecdsa/ecdsa.c **** 		
 156:strong-arm\src\ecdsa/ecdsa.c **** 		if (ff_is_zero (&r))
 615              		.loc 1 156 0
 616 0050 1AA8     		add	r0, sp, #104
 617 0052 FFF7FEFF 		bl	ff_is_zero
 618              	.LVL81:
 619 0056 0028     		cmp	r0, #0
 620 0058 E4D1     		bne	.L24
 157:strong-arm\src\ecdsa/ecdsa.c **** 			continue;
 158:strong-arm\src\ecdsa/ecdsa.c **** 		
 159:strong-arm\src\ecdsa/ecdsa.c **** 		ff_inv (&k, &k, &ec_n);
 621              		.loc 1 159 0
 622 005a 164C     		ldr	r4, .L27
 623 005c 2034     		adds	r4, r4, #32
 624 005e 2200     		movs	r2, r4
 625 0060 22A9     		add	r1, sp, #136
 626 0062 0800     		movs	r0, r1
 627 0064 FFF7FEFF 		bl	ff_inv
 628              	.LVL82:
 160:strong-arm\src\ecdsa/ecdsa.c **** 		ff_mul (&s, &r, d, &ec_n);
 629              		.loc 1 160 0
 630 0068 2300     		movs	r3, r4
 631 006a 2A00     		movs	r2, r5
 632 006c 1AA9     		add	r1, sp, #104
 633 006e 12A8     		add	r0, sp, #72
 634 0070 FFF7FEFF 		bl	ff_mul
 635              	.LVL83:
 161:strong-arm\src\ecdsa/ecdsa.c **** 		ff_add (&s, z, &s, &ec_n);
 636              		.loc 1 161 0
 637 0074 2300     		movs	r3, r4
 638 0076 12AA     		add	r2, sp, #72
 639 0078 3100     		movs	r1, r6
 640 007a 1000     		movs	r0, r2
 641 007c FFF7FEFF 		bl	ff_add
 642              	.LVL84:
 162:strong-arm\src\ecdsa/ecdsa.c **** 		ff_mul (&s, &k, &s, &ec_n);
 643              		.loc 1 162 0
 644 0080 2300     		movs	r3, r4
 645 0082 12AA     		add	r2, sp, #72
 646 0084 22A9     		add	r1, sp, #136
 647 0086 1000     		movs	r0, r2
 648 0088 FFF7FEFF 		bl	ff_mul
 649              	.LVL85:
 163:strong-arm\src\ecdsa/ecdsa.c **** 		
 164:strong-arm\src\ecdsa/ecdsa.c **** 		if (ff_is_zero (&s))
 650              		.loc 1 164 0
 651 008c 12A8     		add	r0, sp, #72
 652 008e FFF7FEFF 		bl	ff_is_zero
 653              	.LVL86:
 654 0092 0028     		cmp	r0, #0
 655 0094 C6D1     		bne	.L24
 165:strong-arm\src\ecdsa/ecdsa.c **** 			continue;
 166:strong-arm\src\ecdsa/ecdsa.c **** 		
 167:strong-arm\src\ecdsa/ecdsa.c **** 		break;
ARM GAS  C:\Users\Ray\AppData\Local\Temp\ccqCnWHK.s 			page 16


 168:strong-arm\src\ecdsa/ecdsa.c **** 	}
 169:strong-arm\src\ecdsa/ecdsa.c **** 
 170:strong-arm\src\ecdsa/ecdsa.c **** 	ff_copy (out_r, &r);
 656              		.loc 1 170 0
 657 0096 1AA9     		add	r1, sp, #104
 658 0098 0098     		ldr	r0, [sp]
 659 009a FFF7FEFF 		bl	ff_copy
 660              	.LVL87:
 171:strong-arm\src\ecdsa/ecdsa.c **** 	ff_copy (out_s, &s);
 661              		.loc 1 171 0
 662 009e 12A9     		add	r1, sp, #72
 663 00a0 0198     		ldr	r0, [sp, #4]
 664 00a2 FFF7FEFF 		bl	ff_copy
 665              	.LVL88:
 172:strong-arm\src\ecdsa/ecdsa.c **** 
 173:strong-arm\src\ecdsa/ecdsa.c **** 	return true;
 666              		.loc 1 173 0
 667 00a6 0124     		movs	r4, #1
 668 00a8 00E0     		b	.L23
 669              	.L26:
 147:strong-arm\src\ecdsa/ecdsa.c **** 	
 670              		.loc 1 147 0
 671 00aa 0024     		movs	r4, #0
 672              	.L23:
 174:strong-arm\src\ecdsa/ecdsa.c **** }
 673              		.loc 1 174 0
 674 00ac 2000     		movs	r0, r4
 675 00ae 2BB0     		add	sp, sp, #172
 676              	.LVL89:
 677              		@ sp needed
 678              	.LVL90:
 679              	.LVL91:
 680 00b0 F0BD     		pop	{r4, r5, r6, r7, pc}
 681              	.L28:
 682 00b2 C046     		.align	2
 683              	.L27:
 684 00b4 00000000 		.word	.LANCHOR0
 685              		.cfi_endproc
 686              	.LFE4:
 687              		.size	ec_sign, .-ec_sign
 688              		.section	.text.ec_on_curve,"ax",%progbits
 689              		.align	2
 690              		.global	ec_on_curve
 691              		.code	16
 692              		.thumb_func
 693              		.type	ec_on_curve, %function
 694              	ec_on_curve:
 695              	.LFB5:
 175:strong-arm\src\ecdsa/ecdsa.c **** 
 176:strong-arm\src\ecdsa/ecdsa.c **** bool ec_on_curve (EC_POINT const *const P)
 177:strong-arm\src\ecdsa/ecdsa.c **** {
 696              		.loc 1 177 0
 697              		.cfi_startproc
 698              		@ args = 0, pretend = 0, frame = 64
 699              		@ frame_needed = 0, uses_anonymous_args = 0
 700              	.LVL92:
 701 0000 70B5     		push	{r4, r5, r6, lr}
ARM GAS  C:\Users\Ray\AppData\Local\Temp\ccqCnWHK.s 			page 17


 702              		.cfi_def_cfa_offset 16
 703              		.cfi_offset 4, -16
 704              		.cfi_offset 5, -12
 705              		.cfi_offset 6, -8
 706              		.cfi_offset 14, -4
 707 0002 90B0     		sub	sp, sp, #64
 708              		.cfi_def_cfa_offset 80
 709 0004 0400     		movs	r4, r0
 178:strong-arm\src\ecdsa/ecdsa.c **** 	// y^2 = x^3 + a * x + b (mod p)
 179:strong-arm\src\ecdsa/ecdsa.c **** 	FF_NUM tmp, y2;
 180:strong-arm\src\ecdsa/ecdsa.c **** 
 181:strong-arm\src\ecdsa/ecdsa.c **** 	if (ff_compare (&(P->x), &ec_p) >= 0)
 710              		.loc 1 181 0
 711 0006 1A49     		ldr	r1, .L34
 712 0008 FFF7FEFF 		bl	ff_compare
 713              	.LVL93:
 714 000c 0028     		cmp	r0, #0
 715 000e 28DA     		bge	.L31
 182:strong-arm\src\ecdsa/ecdsa.c **** 		return false;
 183:strong-arm\src\ecdsa/ecdsa.c **** 
 184:strong-arm\src\ecdsa/ecdsa.c **** 	if (ff_compare (&(P->y), &ec_p) >= 0)
 716              		.loc 1 184 0
 717 0010 2500     		movs	r5, r4
 718 0012 2035     		adds	r5, r5, #32
 719 0014 1649     		ldr	r1, .L34
 720 0016 2800     		movs	r0, r5
 721 0018 FFF7FEFF 		bl	ff_compare
 722              	.LVL94:
 723 001c 0028     		cmp	r0, #0
 724 001e 22DA     		bge	.L32
 185:strong-arm\src\ecdsa/ecdsa.c **** 		return false;
 186:strong-arm\src\ecdsa/ecdsa.c **** 
 187:strong-arm\src\ecdsa/ecdsa.c **** 	ff_mul (&tmp, &(P->x), &(P->x), &ec_p);
 725              		.loc 1 187 0
 726 0020 134E     		ldr	r6, .L34
 727 0022 3300     		movs	r3, r6
 728 0024 2200     		movs	r2, r4
 729 0026 2100     		movs	r1, r4
 730 0028 08A8     		add	r0, sp, #32
 731 002a FFF7FEFF 		bl	ff_mul
 732              	.LVL95:
 188:strong-arm\src\ecdsa/ecdsa.c **** 	ff_mul (&tmp, &tmp, &(P->x), &ec_p);	// tmp = x^3
 733              		.loc 1 188 0
 734 002e 3300     		movs	r3, r6
 735 0030 2200     		movs	r2, r4
 736 0032 08A9     		add	r1, sp, #32
 737 0034 0800     		movs	r0, r1
 738 0036 FFF7FEFF 		bl	ff_mul
 739              	.LVL96:
 189:strong-arm\src\ecdsa/ecdsa.c **** 	ff_add (&tmp, &tmp, &ec_b, &ec_p);	// tmp = x^3 + b
 740              		.loc 1 189 0
 741 003a 3300     		movs	r3, r6
 742 003c 0D4A     		ldr	r2, .L34+4
 743 003e 08A9     		add	r1, sp, #32
 744 0040 0800     		movs	r0, r1
 745 0042 FFF7FEFF 		bl	ff_add
 746              	.LVL97:
ARM GAS  C:\Users\Ray\AppData\Local\Temp\ccqCnWHK.s 			page 18


 190:strong-arm\src\ecdsa/ecdsa.c **** 	ff_mul (&y2, &(P->y), &(P->y), &ec_p);	// y2 = y^2
 747              		.loc 1 190 0
 748 0046 3300     		movs	r3, r6
 749 0048 2A00     		movs	r2, r5
 750 004a 2900     		movs	r1, r5
 751 004c 6846     		mov	r0, sp
 752 004e FFF7FEFF 		bl	ff_mul
 753              	.LVL98:
 191:strong-arm\src\ecdsa/ecdsa.c **** 	
 192:strong-arm\src\ecdsa/ecdsa.c **** 	if (ff_compare (&y2, &tmp) != 0)
 754              		.loc 1 192 0
 755 0052 08A9     		add	r1, sp, #32
 756 0054 6846     		mov	r0, sp
 757 0056 FFF7FEFF 		bl	ff_compare
 758              	.LVL99:
 759 005a 0028     		cmp	r0, #0
 760 005c 05D0     		beq	.L33
 193:strong-arm\src\ecdsa/ecdsa.c **** 		return false;
 761              		.loc 1 193 0
 762 005e 0020     		movs	r0, #0
 763 0060 04E0     		b	.L30
 764              	.L31:
 182:strong-arm\src\ecdsa/ecdsa.c **** 
 765              		.loc 1 182 0
 766 0062 0020     		movs	r0, #0
 767 0064 02E0     		b	.L30
 768              	.L32:
 185:strong-arm\src\ecdsa/ecdsa.c **** 
 769              		.loc 1 185 0
 770 0066 0020     		movs	r0, #0
 771 0068 00E0     		b	.L30
 772              	.L33:
 194:strong-arm\src\ecdsa/ecdsa.c **** 
 195:strong-arm\src\ecdsa/ecdsa.c **** 	return true;
 773              		.loc 1 195 0
 774 006a 0120     		movs	r0, #1
 775              	.L30:
 196:strong-arm\src\ecdsa/ecdsa.c **** }
 776              		.loc 1 196 0
 777 006c 10B0     		add	sp, sp, #64
 778              		@ sp needed
 779              	.LVL100:
 780 006e 70BD     		pop	{r4, r5, r6, pc}
 781              	.L35:
 782              		.align	2
 783              	.L34:
 784 0070 00000000 		.word	.LANCHOR0
 785 0074 80000000 		.word	.LANCHOR1
 786              		.cfi_endproc
 787              	.LFE5:
 788              		.size	ec_on_curve, .-ec_on_curve
 789              		.section	.text.ec_verify,"ax",%progbits
 790              		.align	2
 791              		.global	ec_verify
 792              		.code	16
 793              		.thumb_func
 794              		.type	ec_verify, %function
ARM GAS  C:\Users\Ray\AppData\Local\Temp\ccqCnWHK.s 			page 19


 795              	ec_verify:
 796              	.LFB6:
 197:strong-arm\src\ecdsa/ecdsa.c **** 
 198:strong-arm\src\ecdsa/ecdsa.c **** bool ec_verify (FF_NUM const *const z, EC_POINT const *const Q, FF_NUM const *const r, FF_NUM const
 199:strong-arm\src\ecdsa/ecdsa.c **** {
 797              		.loc 1 199 0
 798              		.cfi_startproc
 799              		@ args = 0, pretend = 0, frame = 264
 800              		@ frame_needed = 0, uses_anonymous_args = 0
 801              	.LVL101:
 802 0000 F0B5     		push	{r4, r5, r6, r7, lr}
 803              		.cfi_def_cfa_offset 20
 804              		.cfi_offset 4, -20
 805              		.cfi_offset 5, -16
 806              		.cfi_offset 6, -12
 807              		.cfi_offset 7, -8
 808              		.cfi_offset 14, -4
 809 0002 4746     		mov	r7, r8
 810 0004 80B4     		push	{r7}
 811              		.cfi_def_cfa_offset 24
 812              		.cfi_offset 8, -24
 813 0006 C2B0     		sub	sp, sp, #264
 814              		.cfi_def_cfa_offset 288
 815 0008 0090     		str	r0, [sp]
 816 000a 0D00     		movs	r5, r1
 817 000c 1600     		movs	r6, r2
 818 000e 1F00     		movs	r7, r3
 200:strong-arm\src\ecdsa/ecdsa.c **** 	FF_NUM w, u1, u2, x1;
 201:strong-arm\src\ecdsa/ecdsa.c **** 	EC_POINT tmp, tmp2;
 202:strong-arm\src\ecdsa/ecdsa.c **** 
 203:strong-arm\src\ecdsa/ecdsa.c **** 	// Check that the public key Q is not Infinity
 204:strong-arm\src\ecdsa/ecdsa.c **** 	if ((ff_is_zero (&(Q->x))) && (ff_is_zero (&(Q->y))))
 819              		.loc 1 204 0
 820 0010 0800     		movs	r0, r1
 821              	.LVL102:
 822 0012 FFF7FEFF 		bl	ff_is_zero
 823              	.LVL103:
 824 0016 0028     		cmp	r0, #0
 825 0018 05D0     		beq	.L37
 826              		.loc 1 204 0 is_stmt 0 discriminator 1
 827 001a 2800     		movs	r0, r5
 828 001c 2030     		adds	r0, r0, #32
 829 001e FFF7FEFF 		bl	ff_is_zero
 830              	.LVL104:
 831 0022 0028     		cmp	r0, #0
 832 0024 62D1     		bne	.L39
 833              	.L37:
 205:strong-arm\src\ecdsa/ecdsa.c **** 		return false;
 206:strong-arm\src\ecdsa/ecdsa.c **** 
 207:strong-arm\src\ecdsa/ecdsa.c **** 	// Check that the public key Q is on the curve
 208:strong-arm\src\ecdsa/ecdsa.c **** 	if ((!ec_on_curve (Q)))
 834              		.loc 1 208 0 is_stmt 1
 835 0026 2800     		movs	r0, r5
 836 0028 FFF7FEFF 		bl	ec_on_curve
 837              	.LVL105:
 838 002c 041E     		subs	r4, r0, #0
 839 002e 66D0     		beq	.L38
ARM GAS  C:\Users\Ray\AppData\Local\Temp\ccqCnWHK.s 			page 20


 209:strong-arm\src\ecdsa/ecdsa.c **** 		return false;
 210:strong-arm\src\ecdsa/ecdsa.c **** 
 211:strong-arm\src\ecdsa/ecdsa.c **** 	// Check that nQ == Infinity
 212:strong-arm\src\ecdsa/ecdsa.c **** 	ec_mul (&tmp, &ec_n, Q);
 840              		.loc 1 212 0
 841 0030 2A00     		movs	r2, r5
 842 0032 3549     		ldr	r1, .L44
 843 0034 2031     		adds	r1, r1, #32
 844 0036 12A8     		add	r0, sp, #72
 845 0038 FFF7FEFF 		bl	ec_mul
 846              	.LVL106:
 213:strong-arm\src\ecdsa/ecdsa.c **** 	if ((!ff_is_zero (&(tmp.x))) || (!ff_is_zero (&(tmp.y))))
 847              		.loc 1 213 0
 848 003c 12A8     		add	r0, sp, #72
 849 003e FFF7FEFF 		bl	ff_is_zero
 850              	.LVL107:
 851 0042 041E     		subs	r4, r0, #0
 852 0044 5BD0     		beq	.L38
 853              		.loc 1 213 0 is_stmt 0 discriminator 1
 854 0046 1AA8     		add	r0, sp, #104
 855 0048 FFF7FEFF 		bl	ff_is_zero
 856              	.LVL108:
 857 004c 041E     		subs	r4, r0, #0
 858 004e 56D0     		beq	.L38
 214:strong-arm\src\ecdsa/ecdsa.c **** 		return false;
 215:strong-arm\src\ecdsa/ecdsa.c **** 
 216:strong-arm\src\ecdsa/ecdsa.c **** 	// Check that r and s are in the range [1, n - 1]
 217:strong-arm\src\ecdsa/ecdsa.c **** 	if ((ff_is_zero (r)) || (ff_is_zero (s)))
 859              		.loc 1 217 0 is_stmt 1
 860 0050 3000     		movs	r0, r6
 861 0052 FFF7FEFF 		bl	ff_is_zero
 862              	.LVL109:
 863 0056 8046     		mov	r8, r0
 864 0058 0028     		cmp	r0, #0
 865 005a 49D1     		bne	.L40
 866              		.loc 1 217 0 is_stmt 0 discriminator 1
 867 005c 3800     		movs	r0, r7
 868 005e FFF7FEFF 		bl	ff_is_zero
 869              	.LVL110:
 870 0062 0190     		str	r0, [sp, #4]
 871 0064 0028     		cmp	r0, #0
 872 0066 45D1     		bne	.L41
 218:strong-arm\src\ecdsa/ecdsa.c **** 		return false;
 219:strong-arm\src\ecdsa/ecdsa.c **** 
 220:strong-arm\src\ecdsa/ecdsa.c **** 	if ((ff_compare (r, &ec_n) >= 0) || (ff_compare (s, &ec_n) >= 0))
 873              		.loc 1 220 0 is_stmt 1
 874 0068 2749     		ldr	r1, .L44
 875 006a 2031     		adds	r1, r1, #32
 876 006c 3000     		movs	r0, r6
 877 006e FFF7FEFF 		bl	ff_compare
 878              	.LVL111:
 879 0072 0028     		cmp	r0, #0
 880 0074 40DA     		bge	.L42
 881              		.loc 1 220 0 is_stmt 0 discriminator 1
 882 0076 2449     		ldr	r1, .L44
 883 0078 2031     		adds	r1, r1, #32
 884 007a 3800     		movs	r0, r7
ARM GAS  C:\Users\Ray\AppData\Local\Temp\ccqCnWHK.s 			page 21


 885 007c FFF7FEFF 		bl	ff_compare
 886              	.LVL112:
 887 0080 0028     		cmp	r0, #0
 888 0082 3BDA     		bge	.L43
 221:strong-arm\src\ecdsa/ecdsa.c **** 		return false;
 222:strong-arm\src\ecdsa/ecdsa.c **** 
 223:strong-arm\src\ecdsa/ecdsa.c **** 	// Verify the signature
 224:strong-arm\src\ecdsa/ecdsa.c **** 	ff_inv (&w, s, &ec_n);	// w = s^-1
 889              		.loc 1 224 0 is_stmt 1
 890 0084 204B     		ldr	r3, .L44
 891 0086 9846     		mov	r8, r3
 892 0088 204A     		ldr	r2, .L44+4
 893 008a 3900     		movs	r1, r7
 894 008c 3AA8     		add	r0, sp, #232
 895 008e FFF7FEFF 		bl	ff_inv
 896              	.LVL113:
 225:strong-arm\src\ecdsa/ecdsa.c **** 	ff_mul (&u1, z, &w, &ec_n);	// u1 = z * w
 897              		.loc 1 225 0
 898 0092 1E4B     		ldr	r3, .L44+4
 899 0094 3AAA     		add	r2, sp, #232
 900 0096 0099     		ldr	r1, [sp]
 901 0098 32A8     		add	r0, sp, #200
 902 009a FFF7FEFF 		bl	ff_mul
 903              	.LVL114:
 226:strong-arm\src\ecdsa/ecdsa.c **** 	ff_mul (&u2, r, &w, &ec_n);	// u2 = r * w
 904              		.loc 1 226 0
 905 009e 1B4B     		ldr	r3, .L44+4
 906 00a0 3AAA     		add	r2, sp, #232
 907 00a2 3100     		movs	r1, r6
 908 00a4 2AA8     		add	r0, sp, #168
 909 00a6 FFF7FEFF 		bl	ff_mul
 910              	.LVL115:
 227:strong-arm\src\ecdsa/ecdsa.c **** 	ec_mul (&tmp, &u1, &ec_G);
 911              		.loc 1 227 0
 912 00aa 4246     		mov	r2, r8
 913 00ac 4032     		adds	r2, r2, #64
 914 00ae 32A9     		add	r1, sp, #200
 915 00b0 12A8     		add	r0, sp, #72
 916 00b2 FFF7FEFF 		bl	ec_mul
 917              	.LVL116:
 228:strong-arm\src\ecdsa/ecdsa.c **** 	ec_mul (&tmp2, &u2, Q);
 918              		.loc 1 228 0
 919 00b6 2A00     		movs	r2, r5
 920 00b8 2AA9     		add	r1, sp, #168
 921 00ba 02A8     		add	r0, sp, #8
 922 00bc FFF7FEFF 		bl	ec_mul
 923              	.LVL117:
 229:strong-arm\src\ecdsa/ecdsa.c **** 	ec_add (&tmp, &tmp, &tmp2);	// tmp = u1 * G + u2 * Q
 924              		.loc 1 229 0
 925 00c0 02AA     		add	r2, sp, #8
 926 00c2 12A9     		add	r1, sp, #72
 927 00c4 0800     		movs	r0, r1
 928 00c6 FFF7FEFF 		bl	ec_add
 929              	.LVL118:
 230:strong-arm\src\ecdsa/ecdsa.c **** 	ff_zero (&x1);
 930              		.loc 1 230 0
 931 00ca 22A8     		add	r0, sp, #136
ARM GAS  C:\Users\Ray\AppData\Local\Temp\ccqCnWHK.s 			page 22


 932 00cc FFF7FEFF 		bl	ff_zero
 933              	.LVL119:
 231:strong-arm\src\ecdsa/ecdsa.c **** 	ff_add (&x1, &x1, &(tmp.x), &ec_n);	// x1 = tmp.x (mod n)
 934              		.loc 1 231 0
 935 00d0 0E4B     		ldr	r3, .L44+4
 936 00d2 12AA     		add	r2, sp, #72
 937 00d4 22A9     		add	r1, sp, #136
 938 00d6 0800     		movs	r0, r1
 939 00d8 FFF7FEFF 		bl	ff_add
 940              	.LVL120:
 232:strong-arm\src\ecdsa/ecdsa.c **** 
 233:strong-arm\src\ecdsa/ecdsa.c **** 	if (ff_compare (&x1, r) != 0)
 941              		.loc 1 233 0
 942 00dc 3100     		movs	r1, r6
 943 00de 22A8     		add	r0, sp, #136
 944 00e0 FFF7FEFF 		bl	ff_compare
 945              	.LVL121:
 946 00e4 0028     		cmp	r0, #0
 947 00e6 0AD0     		beq	.L38
 234:strong-arm\src\ecdsa/ecdsa.c **** 		return false;
 948              		.loc 1 234 0
 949 00e8 019C     		ldr	r4, [sp, #4]
 950 00ea 08E0     		b	.L38
 951              	.L39:
 205:strong-arm\src\ecdsa/ecdsa.c **** 
 952              		.loc 1 205 0
 953 00ec 0024     		movs	r4, #0
 954 00ee 06E0     		b	.L38
 955              	.L40:
 218:strong-arm\src\ecdsa/ecdsa.c **** 
 956              		.loc 1 218 0
 957 00f0 0024     		movs	r4, #0
 958 00f2 04E0     		b	.L38
 959              	.L41:
 960 00f4 4446     		mov	r4, r8
 961 00f6 02E0     		b	.L38
 962              	.L42:
 221:strong-arm\src\ecdsa/ecdsa.c **** 
 963              		.loc 1 221 0
 964 00f8 019C     		ldr	r4, [sp, #4]
 965 00fa 00E0     		b	.L38
 966              	.L43:
 967 00fc 019C     		ldr	r4, [sp, #4]
 968              	.L38:
 235:strong-arm\src\ecdsa/ecdsa.c **** 	
 236:strong-arm\src\ecdsa/ecdsa.c **** 	return true;
 237:strong-arm\src\ecdsa/ecdsa.c **** }
 969              		.loc 1 237 0
 970 00fe 2000     		movs	r0, r4
 971 0100 42B0     		add	sp, sp, #264
 972              	.LVL122:
 973              		@ sp needed
 974              	.LVL123:
 975              	.LVL124:
 976              	.LVL125:
 977 0102 04BC     		pop	{r2}
 978 0104 9046     		mov	r8, r2
ARM GAS  C:\Users\Ray\AppData\Local\Temp\ccqCnWHK.s 			page 23


 979 0106 F0BD     		pop	{r4, r5, r6, r7, pc}
 980              	.L45:
 981              		.align	2
 982              	.L44:
 983 0108 00000000 		.word	.LANCHOR0
 984 010c 20000000 		.word	.LANCHOR0+32
 985              		.cfi_endproc
 986              	.LFE6:
 987              		.size	ec_verify, .-ec_verify
 988              		.section	.text.ec_serialize,"ax",%progbits
 989              		.align	2
 990              		.global	ec_serialize
 991              		.code	16
 992              		.thumb_func
 993              		.type	ec_serialize, %function
 994              	ec_serialize:
 995              	.LFB7:
 238:strong-arm\src\ecdsa/ecdsa.c **** 
 239:strong-arm\src\ecdsa/ecdsa.c **** uint32_t ec_serialize (uint8_t *out, EC_POINT const *const P, bool compressed)
 240:strong-arm\src\ecdsa/ecdsa.c **** {
 996              		.loc 1 240 0
 997              		.cfi_startproc
 998              		@ args = 0, pretend = 0, frame = 0
 999              		@ frame_needed = 0, uses_anonymous_args = 0
 1000              	.LVL126:
 1001 0000 70B5     		push	{r4, r5, r6, lr}
 1002              		.cfi_def_cfa_offset 16
 1003              		.cfi_offset 4, -16
 1004              		.cfi_offset 5, -12
 1005              		.cfi_offset 6, -8
 1006              		.cfi_offset 14, -4
 1007 0002 0400     		movs	r4, r0
 1008 0004 0D00     		movs	r5, r1
 241:strong-arm\src\ecdsa/ecdsa.c **** 	if (!compressed) {
 1009              		.loc 1 241 0
 1010 0006 002A     		cmp	r2, #0
 1011 0008 0ED1     		bne	.L47
 242:strong-arm\src\ecdsa/ecdsa.c **** 		if (out) {
 1012              		.loc 1 242 0
 1013 000a 0028     		cmp	r0, #0
 1014 000c 1BD0     		beq	.L50
 243:strong-arm\src\ecdsa/ecdsa.c **** 			out[0] = 0x04;
 1015              		.loc 1 243 0
 1016 000e 0423     		movs	r3, #4
 1017 0010 0370     		strb	r3, [r0]
 244:strong-arm\src\ecdsa/ecdsa.c **** 			ff_serialize (out+1, &(P->x));
 1018              		.loc 1 244 0
 1019 0012 0130     		adds	r0, r0, #1
 1020              	.LVL127:
 1021 0014 FFF7FEFF 		bl	ff_serialize
 1022              	.LVL128:
 245:strong-arm\src\ecdsa/ecdsa.c **** 			ff_serialize (out+1+32, &(P->y));
 1023              		.loc 1 245 0
 1024 0018 2900     		movs	r1, r5
 1025 001a 2031     		adds	r1, r1, #32
 1026 001c 2000     		movs	r0, r4
 1027 001e 2130     		adds	r0, r0, #33
ARM GAS  C:\Users\Ray\AppData\Local\Temp\ccqCnWHK.s 			page 24


 1028 0020 FFF7FEFF 		bl	ff_serialize
 1029              	.LVL129:
 246:strong-arm\src\ecdsa/ecdsa.c **** 		}
 247:strong-arm\src\ecdsa/ecdsa.c **** 		return 65;
 1030              		.loc 1 247 0
 1031 0024 4120     		movs	r0, #65
 1032 0026 11E0     		b	.L48
 1033              	.LVL130:
 1034              	.L47:
 248:strong-arm\src\ecdsa/ecdsa.c **** 	}
 249:strong-arm\src\ecdsa/ecdsa.c **** 	else {
 250:strong-arm\src\ecdsa/ecdsa.c **** 		if (out) {
 1035              		.loc 1 250 0
 1036 0028 0028     		cmp	r0, #0
 1037 002a 0ED0     		beq	.L51
 251:strong-arm\src\ecdsa/ecdsa.c **** 			out[0] = (P->y.z[0] & 1) ? 0x03 : 0x02;	// odd/even?
 1038              		.loc 1 251 0
 1039 002c 0B6A     		ldr	r3, [r1, #32]
 1040 002e DB07     		lsls	r3, r3, #31
 1041 0030 01D5     		bpl	.L52
 1042 0032 0323     		movs	r3, #3
 1043 0034 00E0     		b	.L49
 1044              	.L52:
 1045 0036 0223     		movs	r3, #2
 1046              	.L49:
 1047              		.loc 1 251 0 is_stmt 0 discriminator 4
 1048 0038 2370     		strb	r3, [r4]
 252:strong-arm\src\ecdsa/ecdsa.c **** 			ff_serialize (out+1, &(P->x));
 1049              		.loc 1 252 0 is_stmt 1 discriminator 4
 1050 003a 601C     		adds	r0, r4, #1
 1051              	.LVL131:
 1052 003c 2900     		movs	r1, r5
 1053              	.LVL132:
 1054 003e FFF7FEFF 		bl	ff_serialize
 1055              	.LVL133:
 253:strong-arm\src\ecdsa/ecdsa.c **** 		}
 254:strong-arm\src\ecdsa/ecdsa.c **** 		return 33;
 1056              		.loc 1 254 0 discriminator 4
 1057 0042 2120     		movs	r0, #33
 1058 0044 02E0     		b	.L48
 1059              	.LVL134:
 1060              	.L50:
 247:strong-arm\src\ecdsa/ecdsa.c **** 	}
 1061              		.loc 1 247 0
 1062 0046 4120     		movs	r0, #65
 1063              	.LVL135:
 1064 0048 00E0     		b	.L48
 1065              	.LVL136:
 1066              	.L51:
 1067              		.loc 1 254 0
 1068 004a 2120     		movs	r0, #33
 1069              	.LVL137:
 1070              	.L48:
 255:strong-arm\src\ecdsa/ecdsa.c **** 	}
 256:strong-arm\src\ecdsa/ecdsa.c **** }
 1071              		.loc 1 256 0
 1072              		@ sp needed
ARM GAS  C:\Users\Ray\AppData\Local\Temp\ccqCnWHK.s 			page 25


 1073              	.LVL138:
 1074              	.LVL139:
 1075 004c 70BD     		pop	{r4, r5, r6, pc}
 1076              		.cfi_endproc
 1077              	.LFE7:
 1078              		.size	ec_serialize, .-ec_serialize
 1079              		.global	ec_b
 1080              		.global	ec_p
 1081              		.global	ec_n
 1082              		.global	ec_G
 1083 004e C046     		.section	.rodata
 1084              		.align	2
 1085              		.set	.LANCHOR0,. + 0
 1086              		.set	.LANCHOR1,. + 128
 1087              		.type	ec_p, %object
 1088              		.size	ec_p, 32
 1089              	ec_p:
 1090 0000 2FFCFFFF 		.word	-977
 1091 0004 FEFFFFFF 		.word	-2
 1092 0008 FFFFFFFF 		.word	-1
 1093 000c FFFFFFFF 		.word	-1
 1094 0010 FFFFFFFF 		.word	-1
 1095 0014 FFFFFFFF 		.word	-1
 1096 0018 FFFFFFFF 		.word	-1
 1097 001c FFFFFFFF 		.word	-1
 1098              		.type	ec_n, %object
 1099              		.size	ec_n, 32
 1100              	ec_n:
 1101 0020 414136D0 		.word	-801750719
 1102 0024 8C5ED2BF 		.word	-1076732276
 1103 0028 3BA048AF 		.word	-1354194885
 1104 002c E6DCAEBA 		.word	-1162945306
 1105 0030 FEFFFFFF 		.word	-2
 1106 0034 FFFFFFFF 		.word	-1
 1107 0038 FFFFFFFF 		.word	-1
 1108 003c FFFFFFFF 		.word	-1
 1109              		.type	ec_G, %object
 1110              		.size	ec_G, 64
 1111              	ec_G:
 1112 0040 9817F816 		.word	385357720
 1113 0044 5B81F259 		.word	1509065051
 1114 0048 D928CE2D 		.word	768485593
 1115 004c DBFC9B02 		.word	43777243
 1116 0050 070B87CE 		.word	-830010617
 1117 0054 9562A055 		.word	1436574357
 1118 0058 ACBBDCF9 		.word	-102974548
 1119 005c 7E66BE79 		.word	2042521214
 1120 0060 B8D410FB 		.word	-82783048
 1121 0064 8FD0479C 		.word	-1673015153
 1122 0068 195485A6 		.word	-1501211623
 1123 006c 48B417FD 		.word	-48778168
 1124 0070 A808110E 		.word	235997352
 1125 0074 FCFBA45D 		.word	1571093500
 1126 0078 65C4A326 		.word	648266853
 1127 007c 77DA3A48 		.word	1211816567
 1128              		.type	ec_b, %object
 1129              		.size	ec_b, 32
ARM GAS  C:\Users\Ray\AppData\Local\Temp\ccqCnWHK.s 			page 26


 1130              	ec_b:
 1131 0080 07000000 		.word	7
 1132 0084 00000000 		.word	0
 1133 0088 00000000 		.word	0
 1134 008c 00000000 		.word	0
 1135 0090 00000000 		.word	0
 1136 0094 00000000 		.word	0
 1137 0098 00000000 		.word	0
 1138 009c 00000000 		.word	0
 1139              		.text
 1140              	.Letext0:
 1141              		.file 2 "c:\\program files (x86)\\cypress\\psoc creator\\4.1\\psoc creator\\import\\gnu\\arm\\5.4.
 1142              		.file 3 "c:\\program files (x86)\\cypress\\psoc creator\\4.1\\psoc creator\\import\\gnu\\arm\\5.4.
 1143              		.file 4 ".\\strong-arm\\include/strong-arm/finite_field.h"
 1144              		.file 5 ".\\strong-arm\\include/strong-arm/ecdsa.h"