ARM GAS  C:\Users\Ray\AppData\Local\Temp\ccD5mLBV.s 			page 1


   1              		.syntax unified
   2              		.cpu cortex-m0
   3              		.fpu softvfp
   4              		.eabi_attribute 20, 1
   5              		.eabi_attribute 21, 1
   6              		.eabi_attribute 23, 3
   7              		.eabi_attribute 24, 1
   8              		.eabi_attribute 25, 1
   9              		.eabi_attribute 26, 1
  10              		.eabi_attribute 30, 1
  11              		.eabi_attribute 34, 0
  12              		.eabi_attribute 18, 4
  13              		.thumb
  14              		.syntax unified
  15              		.file	"hmac.c"
  16              		.text
  17              	.Ltext0:
  18              		.cfi_sections	.debug_frame
  19              		.section	.text.HMAC_partial,"ax",%progbits
  20              		.align	2
  21              		.global	HMAC_partial
  22              		.code	16
  23              		.thumb_func
  24              		.type	HMAC_partial, %function
  25              	HMAC_partial:
  26              	.LFB1:
  27              		.file 1 "strong-arm\\src\\hmac\\hmac.c"
   1:strong-arm\src\hmac/hmac.c **** #include <string.h>
   2:strong-arm\src\hmac/hmac.c **** #include <strong-arm/hmac.h>
   3:strong-arm\src\hmac/hmac.c **** #include <strong-arm/sha256.h>
   4:strong-arm\src\hmac/hmac.c **** 
   5:strong-arm\src\hmac/hmac.c **** 
   6:strong-arm\src\hmac/hmac.c **** void HMAC (uint8_t *const hash, uint8_t const *const key, uint32_t klen, uint8_t const *const msg, 
   7:strong-arm\src\hmac/hmac.c **** {
   8:strong-arm\src\hmac/hmac.c **** 	HMAC_STATE state;
   9:strong-arm\src\hmac/hmac.c **** 
  10:strong-arm\src\hmac/hmac.c **** 	HMAC_partial (hash, &state, key, klen, msg, mlen, true, true);
  11:strong-arm\src\hmac/hmac.c **** }
  12:strong-arm\src\hmac/hmac.c **** 
  13:strong-arm\src\hmac/hmac.c **** 
  14:strong-arm\src\hmac/hmac.c **** void HMAC_partial (void *hash, HMAC_STATE *const state, void const *const key, size_t klen, void co
  15:strong-arm\src\hmac/hmac.c **** {
  28              		.loc 1 15 0
  29              		.cfi_startproc
  30              		@ args = 16, pretend = 0, frame = 8
  31              		@ frame_needed = 0, uses_anonymous_args = 0
  32              	.LVL0:
  33 0000 F0B5     		push	{r4, r5, r6, r7, lr}
  34              		.cfi_def_cfa_offset 20
  35              		.cfi_offset 4, -20
  36              		.cfi_offset 5, -16
  37              		.cfi_offset 6, -12
  38              		.cfi_offset 7, -8
  39              		.cfi_offset 14, -4
  40 0002 85B0     		sub	sp, sp, #20
  41              		.cfi_def_cfa_offset 40
  42 0004 0400     		movs	r4, r0
ARM GAS  C:\Users\Ray\AppData\Local\Temp\ccD5mLBV.s 			page 2


  43 0006 0D00     		movs	r5, r1
  44 0008 0392     		str	r2, [sp, #12]
  45 000a 1E00     		movs	r6, r3
  46 000c 0CAB     		add	r3, sp, #48
  47              	.LVL1:
  48 000e 1B78     		ldrb	r3, [r3]
  49              	.LVL2:
  50 0010 0DAA     		add	r2, sp, #52
  51              	.LVL3:
  52 0012 1778     		ldrb	r7, [r2]
  16:strong-arm\src\hmac/hmac.c **** 	if (first)
  53              		.loc 1 16 0
  54 0014 002B     		cmp	r3, #0
  55 0016 29D0     		beq	.L2
  17:strong-arm\src\hmac/hmac.c **** 	{
  18:strong-arm\src\hmac/hmac.c **** 		memset (state, 0, sizeof (HMAC_STATE));
  56              		.loc 1 18 0
  57 0018 A822     		movs	r2, #168
  58              	.LVL4:
  59 001a 0021     		movs	r1, #0
  60              	.LVL5:
  61 001c 2800     		movs	r0, r5
  62              	.LVL6:
  63 001e FFF7FEFF 		bl	memset
  64              	.LVL7:
  19:strong-arm\src\hmac/hmac.c **** 	
  20:strong-arm\src\hmac/hmac.c **** 		/* If the key is longer than the SHA256 block size, hash it and pad with 0s.
  21:strong-arm\src\hmac/hmac.c **** 		 * Otherwise, just pad with 0s. */
  22:strong-arm\src\hmac/hmac.c **** 		if (klen > 64)
  65              		.loc 1 22 0
  66 0022 402E     		cmp	r6, #64
  67 0024 07D9     		bls	.L3
  23:strong-arm\src\hmac/hmac.c **** 			SHA256 (state->padded_key, key, klen);
  68              		.loc 1 23 0
  69 0026 2800     		movs	r0, r5
  70 0028 6830     		adds	r0, r0, #104
  71 002a 3200     		movs	r2, r6
  72 002c 0399     		ldr	r1, [sp, #12]
  73 002e FFF7FEFF 		bl	SHA256
  74              	.LVL8:
  75              	.L5:
  15:strong-arm\src\hmac/hmac.c **** 	if (first)
  76              		.loc 1 15 0 discriminator 1
  77 0032 0022     		movs	r2, #0
  78 0034 0DE0     		b	.L4
  79              	.L3:
  24:strong-arm\src\hmac/hmac.c **** 		else
  25:strong-arm\src\hmac/hmac.c **** 			memmove (state->padded_key, key, klen);
  80              		.loc 1 25 0
  81 0036 2800     		movs	r0, r5
  82 0038 6830     		adds	r0, r0, #104
  83 003a 3200     		movs	r2, r6
  84 003c 0399     		ldr	r1, [sp, #12]
  85 003e FFF7FEFF 		bl	memmove
  86              	.LVL9:
  87 0042 F6E7     		b	.L5
  88              	.LVL10:
ARM GAS  C:\Users\Ray\AppData\Local\Temp\ccD5mLBV.s 			page 3


  89              	.L6:
  90              	.LBB2:
  26:strong-arm\src\hmac/hmac.c **** 	
  27:strong-arm\src\hmac/hmac.c **** 		/* Inner hash */
  28:strong-arm\src\hmac/hmac.c **** 		for (uint32_t i = 0; i < 64; ++i)
  29:strong-arm\src\hmac/hmac.c **** 			state->padded_key[i] ^= 0x36;
  91              		.loc 1 29 0 discriminator 3
  92 0044 AB18     		adds	r3, r5, r2
  93 0046 6833     		adds	r3, r3, #104
  94 0048 1878     		ldrb	r0, [r3]
  95 004a 3621     		movs	r1, #54
  96 004c 4140     		eors	r1, r0
  97 004e 1970     		strb	r1, [r3]
  28:strong-arm\src\hmac/hmac.c **** 			state->padded_key[i] ^= 0x36;
  98              		.loc 1 28 0 discriminator 3
  99 0050 0132     		adds	r2, r2, #1
 100              	.LVL11:
 101              	.L4:
  28:strong-arm\src\hmac/hmac.c **** 			state->padded_key[i] ^= 0x36;
 102              		.loc 1 28 0 is_stmt 0 discriminator 1
 103 0052 3F2A     		cmp	r2, #63
 104 0054 F6D9     		bls	.L6
 105              	.LBE2:
  30:strong-arm\src\hmac/hmac.c **** 
  31:strong-arm\src\hmac/hmac.c **** 		SHA256_partial (0, &(state->sha256_state), state->padded_key, 64, true, false);
 106              		.loc 1 31 0 is_stmt 1
 107 0056 2A00     		movs	r2, r5
 108              	.LVL12:
 109 0058 6832     		adds	r2, r2, #104
 110 005a 0023     		movs	r3, #0
 111 005c 0193     		str	r3, [sp, #4]
 112 005e 0133     		adds	r3, r3, #1
 113 0060 0093     		str	r3, [sp]
 114 0062 3F33     		adds	r3, r3, #63
 115 0064 2900     		movs	r1, r5
 116 0066 0020     		movs	r0, #0
 117 0068 FFF7FEFF 		bl	SHA256_partial
 118              	.LVL13:
 119              	.L2:
  32:strong-arm\src\hmac/hmac.c **** 	}
  33:strong-arm\src\hmac/hmac.c **** 
  34:strong-arm\src\hmac/hmac.c **** 	/* Add msg */
  35:strong-arm\src\hmac/hmac.c **** 	SHA256_partial (hash, &(state->sha256_state), msg, mlen, false, last);
 120              		.loc 1 35 0
 121 006c 0197     		str	r7, [sp, #4]
 122 006e 0023     		movs	r3, #0
 123 0070 0093     		str	r3, [sp]
 124 0072 0B9B     		ldr	r3, [sp, #44]
 125 0074 0A9A     		ldr	r2, [sp, #40]
 126 0076 2900     		movs	r1, r5
 127 0078 2000     		movs	r0, r4
 128 007a FFF7FEFF 		bl	SHA256_partial
 129              	.LVL14:
  36:strong-arm\src\hmac/hmac.c **** 
  37:strong-arm\src\hmac/hmac.c **** 	if (!last)
 130              		.loc 1 37 0
 131 007e 002F     		cmp	r7, #0
ARM GAS  C:\Users\Ray\AppData\Local\Temp\ccD5mLBV.s 			page 4


 132 0080 08D1     		bne	.L10
 133 0082 1DE0     		b	.L1
 134              	.LVL15:
 135              	.L9:
 136              	.LBB3:
  38:strong-arm\src\hmac/hmac.c **** 		return;
  39:strong-arm\src\hmac/hmac.c **** 	
  40:strong-arm\src\hmac/hmac.c **** 	/* Outer hash */
  41:strong-arm\src\hmac/hmac.c **** 	/* We XOR with 0x36 to remove the previous XOR */
  42:strong-arm\src\hmac/hmac.c **** 	for (uint32_t i = 0; i < 64; ++i)
  43:strong-arm\src\hmac/hmac.c **** 		state->padded_key[i] ^= 0x36 ^ 0x5C;
 137              		.loc 1 43 0 discriminator 3
 138 0084 AB18     		adds	r3, r5, r2
 139 0086 6833     		adds	r3, r3, #104
 140 0088 1878     		ldrb	r0, [r3]
 141 008a 6A21     		movs	r1, #106
 142 008c 4140     		eors	r1, r0
 143 008e 1970     		strb	r1, [r3]
  42:strong-arm\src\hmac/hmac.c **** 		state->padded_key[i] ^= 0x36 ^ 0x5C;
 144              		.loc 1 42 0 discriminator 3
 145 0090 0132     		adds	r2, r2, #1
 146              	.LVL16:
 147 0092 00E0     		b	.L7
 148              	.LVL17:
 149              	.L10:
 150              	.LBE3:
 151 0094 0022     		movs	r2, #0
 152              	.L7:
 153              	.LVL18:
 154              	.LBB4:
  42:strong-arm\src\hmac/hmac.c **** 		state->padded_key[i] ^= 0x36 ^ 0x5C;
 155              		.loc 1 42 0 is_stmt 0 discriminator 1
 156 0096 3F2A     		cmp	r2, #63
 157 0098 F4D9     		bls	.L9
 158              	.LBE4:
  44:strong-arm\src\hmac/hmac.c **** 	SHA256_partial (NULL, &(state->sha256_state), state->padded_key, 64, true, false);
 159              		.loc 1 44 0 is_stmt 1
 160 009a 2A00     		movs	r2, r5
 161              	.LVL19:
 162 009c 6832     		adds	r2, r2, #104
 163 009e 0026     		movs	r6, #0
 164              	.LVL20:
 165 00a0 0196     		str	r6, [sp, #4]
 166 00a2 0127     		movs	r7, #1
 167 00a4 0097     		str	r7, [sp]
 168 00a6 4023     		movs	r3, #64
 169 00a8 2900     		movs	r1, r5
 170 00aa 0020     		movs	r0, #0
 171 00ac FFF7FEFF 		bl	SHA256_partial
 172              	.LVL21:
  45:strong-arm\src\hmac/hmac.c **** 	SHA256_partial (hash, &(state->sha256_state), hash, 32, false, true);
 173              		.loc 1 45 0
 174 00b0 0197     		str	r7, [sp, #4]
 175 00b2 0096     		str	r6, [sp]
 176 00b4 2023     		movs	r3, #32
 177 00b6 2200     		movs	r2, r4
 178 00b8 2900     		movs	r1, r5
ARM GAS  C:\Users\Ray\AppData\Local\Temp\ccD5mLBV.s 			page 5


 179 00ba 2000     		movs	r0, r4
 180 00bc FFF7FEFF 		bl	SHA256_partial
 181              	.LVL22:
 182              	.L1:
  46:strong-arm\src\hmac/hmac.c **** 	
  47:strong-arm\src\hmac/hmac.c **** 	/* Result is now in (hash) */
  48:strong-arm\src\hmac/hmac.c **** }
 183              		.loc 1 48 0
 184 00c0 05B0     		add	sp, sp, #20
 185              		@ sp needed
 186              	.LVL23:
 187              	.LVL24:
 188 00c2 F0BD     		pop	{r4, r5, r6, r7, pc}
 189              		.cfi_endproc
 190              	.LFE1:
 191              		.size	HMAC_partial, .-HMAC_partial
 192              		.section	.text.HMAC,"ax",%progbits
 193              		.align	2
 194              		.global	HMAC
 195              		.code	16
 196              		.thumb_func
 197              		.type	HMAC, %function
 198              	HMAC:
 199              	.LFB0:
   7:strong-arm\src\hmac/hmac.c **** 	HMAC_STATE state;
 200              		.loc 1 7 0
 201              		.cfi_startproc
 202              		@ args = 4, pretend = 0, frame = 168
 203              		@ frame_needed = 0, uses_anonymous_args = 0
 204              	.LVL25:
 205 0000 10B5     		push	{r4, lr}
 206              		.cfi_def_cfa_offset 8
 207              		.cfi_offset 4, -8
 208              		.cfi_offset 14, -4
 209 0002 AEB0     		sub	sp, sp, #184
 210              		.cfi_def_cfa_offset 192
  10:strong-arm\src\hmac/hmac.c **** }
 211              		.loc 1 10 0
 212 0004 0124     		movs	r4, #1
 213 0006 0394     		str	r4, [sp, #12]
 214 0008 0294     		str	r4, [sp, #8]
 215 000a 309C     		ldr	r4, [sp, #192]
 216 000c 0194     		str	r4, [sp, #4]
 217 000e 0093     		str	r3, [sp]
 218 0010 1300     		movs	r3, r2
 219              	.LVL26:
 220 0012 0A00     		movs	r2, r1
 221              	.LVL27:
 222 0014 04A9     		add	r1, sp, #16
 223              	.LVL28:
 224 0016 FFF7FEFF 		bl	HMAC_partial
 225              	.LVL29:
  11:strong-arm\src\hmac/hmac.c **** 
 226              		.loc 1 11 0
 227 001a 2EB0     		add	sp, sp, #184
 228              		@ sp needed
 229 001c 10BD     		pop	{r4, pc}
ARM GAS  C:\Users\Ray\AppData\Local\Temp\ccD5mLBV.s 			page 6


 230              		.cfi_endproc
 231              	.LFE0:
 232              		.size	HMAC, .-HMAC
 233 001e C046     		.text
 234              	.Letext0:
 235              		.file 2 "c:\\program files (x86)\\cypress\\psoc creator\\4.1\\psoc creator\\import\\gnu\\arm\\5.4.
 236              		.file 3 "c:\\program files (x86)\\cypress\\psoc creator\\4.1\\psoc creator\\import\\gnu\\arm\\5.4.
 237              		.file 4 "c:\\program files (x86)\\cypress\\psoc creator\\4.1\\psoc creator\\import\\gnu\\arm\\5.4.
 238              		.file 5 ".\\strong-arm\\include/strong-arm/sha256.h"
 239              		.file 6 ".\\strong-arm\\include/strong-arm/hmac.h"
 240              		.file 7 "c:\\program files (x86)\\cypress\\psoc creator\\4.1\\psoc creator\\import\\gnu\\arm\\5.4.