ARM GAS  C:\Users\Ray\AppData\Local\Temp\cc6moPgl.s 			page 1


   1              		.syntax unified
   2              		.cpu cortex-m0
   3              		.fpu softvfp
   4              		.eabi_attribute 20, 1
   5              		.eabi_attribute 21, 1
   6              		.eabi_attribute 23, 3
   7              		.eabi_attribute 24, 1
   8              		.eabi_attribute 25, 1
   9              		.eabi_attribute 26, 1
  10              		.eabi_attribute 30, 1
  11              		.eabi_attribute 34, 0
  12              		.eabi_attribute 18, 4
  13              		.thumb
  14              		.syntax unified
  15              		.file	"pbkdf2.c"
  16              		.text
  17              	.Ltext0:
  18              		.cfi_sections	.debug_frame
  19              		.section	.text._deserialize,"ax",%progbits
  20              		.align	2
  21              		.code	16
  22              		.thumb_func
  23              		.type	_deserialize, %function
  24              	_deserialize:
  25              	.LFB8:
  26              		.file 1 "strong-arm\\src\\pbkdf2\\pbkdf2.c"
   1:strong-arm\src\pbkdf2/pbkdf2.c **** /*
   2:strong-arm\src\pbkdf2/pbkdf2.c ****  * This code is messy, because it needs to be optimized to improve throughput.
   3:strong-arm\src\pbkdf2/pbkdf2.c ****  * It may be possible to clean it up by tweaking the HMAC/SHA256 modules, so we
   4:strong-arm\src\pbkdf2/pbkdf2.c ****  * don't have to implement optimized versions locally.
   5:strong-arm\src\pbkdf2/pbkdf2.c ****  */
   6:strong-arm\src\pbkdf2/pbkdf2.c **** #include <string.h>
   7:strong-arm\src\pbkdf2/pbkdf2.c **** #include <strong-arm/pbkdf2.h>
   8:strong-arm\src\pbkdf2/pbkdf2.c **** #include <strong-arm/hmac.h>
   9:strong-arm\src\pbkdf2/pbkdf2.c **** #include <strong-arm/sha256.h>
  10:strong-arm\src\pbkdf2/pbkdf2.c **** 
  11:strong-arm\src\pbkdf2/pbkdf2.c **** 
  12:strong-arm\src\pbkdf2/pbkdf2.c **** static void _HMAC (uint8_t *const hash, uint8_t const *const key, uint32_t klen, uint8_t const *con
  13:strong-arm\src\pbkdf2/pbkdf2.c **** static void compress (uint32_t digest[static 8], uint32_t const state[static 8], uint32_t const chu
  14:strong-arm\src\pbkdf2/pbkdf2.c **** static void _deserialize (uint32_t chunk[static 16], uint8_t const stream[static 64]);
  15:strong-arm\src\pbkdf2/pbkdf2.c **** static void _serialize (uint8_t stream[static 64], uint32_t const chunk[static 16]);
  16:strong-arm\src\pbkdf2/pbkdf2.c **** 
  17:strong-arm\src\pbkdf2/pbkdf2.c **** 
  18:strong-arm\src\pbkdf2/pbkdf2.c **** static const uint32_t initial_state[8] = {0x6a09e667, 0xbb67ae85, 0x3c6ef372, 0xa54ff53a, 0x510e527
  19:strong-arm\src\pbkdf2/pbkdf2.c **** 
  20:strong-arm\src\pbkdf2/pbkdf2.c **** 
  21:strong-arm\src\pbkdf2/pbkdf2.c **** void PBKDF2 (uint8_t *const derived_key, uint8_t const *const password, uint32_t passlen, uint8_t c
  22:strong-arm\src\pbkdf2/pbkdf2.c **** {
  23:strong-arm\src\pbkdf2/pbkdf2.c **** 	uint32_t block_count = keylen / 32;
  24:strong-arm\src\pbkdf2/pbkdf2.c **** 	uint32_t sha256_state0[8] = {0};
  25:strong-arm\src\pbkdf2/pbkdf2.c **** 	uint32_t sha256_state1[8] = {0};
  26:strong-arm\src\pbkdf2/pbkdf2.c **** 	
  27:strong-arm\src\pbkdf2/pbkdf2.c **** 	if (keylen & 31)
  28:strong-arm\src\pbkdf2/pbkdf2.c **** 		block_count += 1;
  29:strong-arm\src\pbkdf2/pbkdf2.c **** 
  30:strong-arm\src\pbkdf2/pbkdf2.c **** 	/* Precompute SHA256 states based on the password */
  31:strong-arm\src\pbkdf2/pbkdf2.c **** 	{
ARM GAS  C:\Users\Ray\AppData\Local\Temp\cc6moPgl.s 			page 2


  32:strong-arm\src\pbkdf2/pbkdf2.c **** 		uint8_t padded_key[64] = {0};
  33:strong-arm\src\pbkdf2/pbkdf2.c **** 		uint32_t chunk[16] = {0};
  34:strong-arm\src\pbkdf2/pbkdf2.c **** 
  35:strong-arm\src\pbkdf2/pbkdf2.c **** 		if (passlen > 64)
  36:strong-arm\src\pbkdf2/pbkdf2.c **** 			SHA256 (padded_key, password, passlen);
  37:strong-arm\src\pbkdf2/pbkdf2.c **** 		else
  38:strong-arm\src\pbkdf2/pbkdf2.c **** 			memmove (padded_key, password, passlen);
  39:strong-arm\src\pbkdf2/pbkdf2.c **** 
  40:strong-arm\src\pbkdf2/pbkdf2.c **** 		_deserialize (chunk, padded_key);
  41:strong-arm\src\pbkdf2/pbkdf2.c **** 
  42:strong-arm\src\pbkdf2/pbkdf2.c **** 		for (int i = 0; i < 16; ++i)
  43:strong-arm\src\pbkdf2/pbkdf2.c **** 		{
  44:strong-arm\src\pbkdf2/pbkdf2.c **** 			chunk[i] ^= 0x36363636;
  45:strong-arm\src\pbkdf2/pbkdf2.c **** 		}
  46:strong-arm\src\pbkdf2/pbkdf2.c **** 		compress (sha256_state0, initial_state, chunk);
  47:strong-arm\src\pbkdf2/pbkdf2.c **** 
  48:strong-arm\src\pbkdf2/pbkdf2.c **** 		for (uint32_t i = 0; i < 16; ++i)
  49:strong-arm\src\pbkdf2/pbkdf2.c **** 		{
  50:strong-arm\src\pbkdf2/pbkdf2.c **** 			chunk[i] ^= 0x36363636 ^ 0x5C5C5C5C;
  51:strong-arm\src\pbkdf2/pbkdf2.c **** 		}
  52:strong-arm\src\pbkdf2/pbkdf2.c **** 		compress (sha256_state1, initial_state, chunk);
  53:strong-arm\src\pbkdf2/pbkdf2.c **** 	}
  54:strong-arm\src\pbkdf2/pbkdf2.c **** 	
  55:strong-arm\src\pbkdf2/pbkdf2.c **** 	
  56:strong-arm\src\pbkdf2/pbkdf2.c **** 	for (uint32_t block_num = 1; block_num <= block_count; ++block_num)
  57:strong-arm\src\pbkdf2/pbkdf2.c **** 	{
  58:strong-arm\src\pbkdf2/pbkdf2.c **** 		uint32_t T[16] = {0};
  59:strong-arm\src\pbkdf2/pbkdf2.c **** 		uint32_t U[8] = {0};
  60:strong-arm\src\pbkdf2/pbkdf2.c **** 		uint8_t block_data[32] = {0};
  61:strong-arm\src\pbkdf2/pbkdf2.c **** 
  62:strong-arm\src\pbkdf2/pbkdf2.c **** 		/* T = HMAC (password, salt || blkNo) */
  63:strong-arm\src\pbkdf2/pbkdf2.c **** 		{
  64:strong-arm\src\pbkdf2/pbkdf2.c **** 			uint8_t salted[64] = {0};
  65:strong-arm\src\pbkdf2/pbkdf2.c **** 
  66:strong-arm\src\pbkdf2/pbkdf2.c **** 			_HMAC (salted, password, passlen, salt, saltlen, block_num);
  67:strong-arm\src\pbkdf2/pbkdf2.c **** 			_deserialize (T, salted);
  68:strong-arm\src\pbkdf2/pbkdf2.c **** 		}
  69:strong-arm\src\pbkdf2/pbkdf2.c **** 		
  70:strong-arm\src\pbkdf2/pbkdf2.c **** 		/* U = T */
  71:strong-arm\src\pbkdf2/pbkdf2.c **** 		for (int i = 0; i < 8; ++i)
  72:strong-arm\src\pbkdf2/pbkdf2.c **** 		{
  73:strong-arm\src\pbkdf2/pbkdf2.c **** 			U[i] = T[i];
  74:strong-arm\src\pbkdf2/pbkdf2.c **** 		}
  75:strong-arm\src\pbkdf2/pbkdf2.c **** 
  76:strong-arm\src\pbkdf2/pbkdf2.c **** 		/* SHA256 padding is constant on T in the iteration loop below */
  77:strong-arm\src\pbkdf2/pbkdf2.c **** 		T[8] = 0x80000000;
  78:strong-arm\src\pbkdf2/pbkdf2.c **** 		T[14] = 0;
  79:strong-arm\src\pbkdf2/pbkdf2.c **** 		T[15] = 768;
  80:strong-arm\src\pbkdf2/pbkdf2.c **** 		
  81:strong-arm\src\pbkdf2/pbkdf2.c **** 		/* Iterations */
  82:strong-arm\src\pbkdf2/pbkdf2.c **** 		for (uint32_t i = 1; i < iterations; ++i)
  83:strong-arm\src\pbkdf2/pbkdf2.c **** 		{
  84:strong-arm\src\pbkdf2/pbkdf2.c **** 			/* T = HMAC (password, T) */
  85:strong-arm\src\pbkdf2/pbkdf2.c **** 			compress (T, sha256_state0, T);
  86:strong-arm\src\pbkdf2/pbkdf2.c **** 			compress (T, sha256_state1, T);
  87:strong-arm\src\pbkdf2/pbkdf2.c **** 			
  88:strong-arm\src\pbkdf2/pbkdf2.c **** 			/* U = U ^ T */
ARM GAS  C:\Users\Ray\AppData\Local\Temp\cc6moPgl.s 			page 3


  89:strong-arm\src\pbkdf2/pbkdf2.c **** 			for (uint32_t j = 0; j < 8; ++j)
  90:strong-arm\src\pbkdf2/pbkdf2.c **** 				U[j] ^= T[j];
  91:strong-arm\src\pbkdf2/pbkdf2.c **** 		}
  92:strong-arm\src\pbkdf2/pbkdf2.c **** 
  93:strong-arm\src\pbkdf2/pbkdf2.c **** 		_serialize (block_data, U);
  94:strong-arm\src\pbkdf2/pbkdf2.c **** 		
  95:strong-arm\src\pbkdf2/pbkdf2.c **** 		/* Write block */
  96:strong-arm\src\pbkdf2/pbkdf2.c **** 		if (block_num == block_count)
  97:strong-arm\src\pbkdf2/pbkdf2.c **** 		{
  98:strong-arm\src\pbkdf2/pbkdf2.c **** 			memmove (derived_key + ((block_num - 1) * 32), block_data, keylen - ((block_num - 1) * 32));
  99:strong-arm\src\pbkdf2/pbkdf2.c **** 			break;	/* Prevents overflow of block_num in the extreme case */
 100:strong-arm\src\pbkdf2/pbkdf2.c **** 		}
 101:strong-arm\src\pbkdf2/pbkdf2.c **** 		else
 102:strong-arm\src\pbkdf2/pbkdf2.c **** 		{
 103:strong-arm\src\pbkdf2/pbkdf2.c **** 			memmove (derived_key + ((block_num - 1) * 32), block_data, 32);
 104:strong-arm\src\pbkdf2/pbkdf2.c **** 		}
 105:strong-arm\src\pbkdf2/pbkdf2.c **** 	}
 106:strong-arm\src\pbkdf2/pbkdf2.c **** }
 107:strong-arm\src\pbkdf2/pbkdf2.c **** 
 108:strong-arm\src\pbkdf2/pbkdf2.c **** 
 109:strong-arm\src\pbkdf2/pbkdf2.c **** /* HMAC
 110:strong-arm\src\pbkdf2/pbkdf2.c ****  * Re-implemented locally, since the current HMAC module can't handle salt+blocknum
 111:strong-arm\src\pbkdf2/pbkdf2.c ****  */
 112:strong-arm\src\pbkdf2/pbkdf2.c **** static void _HMAC (uint8_t *const hash, uint8_t const *const key, uint32_t klen, uint8_t const *con
 113:strong-arm\src\pbkdf2/pbkdf2.c **** {
 114:strong-arm\src\pbkdf2/pbkdf2.c **** 	SHA256_STATE sha256_state = {0};
 115:strong-arm\src\pbkdf2/pbkdf2.c **** 	uint8_t padded_key[64] = {0};
 116:strong-arm\src\pbkdf2/pbkdf2.c **** 	uint8_t blocknum_str[] = {(uint8_t)(blocknum >> 24), (uint8_t)(blocknum >> 16), (uint8_t)(blocknum
 117:strong-arm\src\pbkdf2/pbkdf2.c **** 	
 118:strong-arm\src\pbkdf2/pbkdf2.c **** 	/* If the key is longer than the SHA256 block size, hash it and pad with 0s.
 119:strong-arm\src\pbkdf2/pbkdf2.c **** 	 * Otherwise, just pad with 0s. */
 120:strong-arm\src\pbkdf2/pbkdf2.c **** 	if (klen > 64)
 121:strong-arm\src\pbkdf2/pbkdf2.c **** 		SHA256 (padded_key, key, klen);
 122:strong-arm\src\pbkdf2/pbkdf2.c **** 	else
 123:strong-arm\src\pbkdf2/pbkdf2.c **** 		memmove (padded_key, key, klen);
 124:strong-arm\src\pbkdf2/pbkdf2.c **** 	
 125:strong-arm\src\pbkdf2/pbkdf2.c **** 	/* Inner hash */
 126:strong-arm\src\pbkdf2/pbkdf2.c **** 	for (uint32_t i = 0; i < 64; ++i)
 127:strong-arm\src\pbkdf2/pbkdf2.c **** 		padded_key[i] ^= 0x36;
 128:strong-arm\src\pbkdf2/pbkdf2.c **** 	SHA256_partial (NULL, &sha256_state, padded_key, 64, true, false);
 129:strong-arm\src\pbkdf2/pbkdf2.c **** 	SHA256_partial (NULL, &sha256_state, salt, saltlen, false, false);
 130:strong-arm\src\pbkdf2/pbkdf2.c **** 	SHA256_partial (hash, &sha256_state, blocknum_str, 4, false, true);
 131:strong-arm\src\pbkdf2/pbkdf2.c **** 	
 132:strong-arm\src\pbkdf2/pbkdf2.c **** 	/* Outer hash */
 133:strong-arm\src\pbkdf2/pbkdf2.c **** 	/* We XOR with 0x36 to remove the previous XOR */
 134:strong-arm\src\pbkdf2/pbkdf2.c **** 	for (uint32_t i = 0; i < 64; ++i)
 135:strong-arm\src\pbkdf2/pbkdf2.c **** 		padded_key[i] ^= 0x36 ^ 0x5C;
 136:strong-arm\src\pbkdf2/pbkdf2.c **** 	SHA256_partial (NULL, &sha256_state, padded_key, 64, true, false);
 137:strong-arm\src\pbkdf2/pbkdf2.c **** 	SHA256_partial (hash, &sha256_state, hash, 32, false, true);
 138:strong-arm\src\pbkdf2/pbkdf2.c **** 	
 139:strong-arm\src\pbkdf2/pbkdf2.c **** 	/* Result is now in (hash) */
 140:strong-arm\src\pbkdf2/pbkdf2.c **** }
 141:strong-arm\src\pbkdf2/pbkdf2.c **** 
 142:strong-arm\src\pbkdf2/pbkdf2.c **** 
 143:strong-arm\src\pbkdf2/pbkdf2.c **** /* SHA256
 144:strong-arm\src\pbkdf2/pbkdf2.c ****  * Implemented locally for optimization purposes, instead of using the existing SHA256 module.
 145:strong-arm\src\pbkdf2/pbkdf2.c ****  */
ARM GAS  C:\Users\Ray\AppData\Local\Temp\cc6moPgl.s 			page 4


 146:strong-arm\src\pbkdf2/pbkdf2.c **** static const uint32_t kk[64] = {0x428a2f98, 0x71374491, 0xb5c0fbcf, 0xe9b5dba5, 0x3956c25b, 0x59f11
 147:strong-arm\src\pbkdf2/pbkdf2.c **** 				0xd807aa98, 0x12835b01, 0x243185be, 0x550c7dc3, 0x72be5d74, 0x80deb1fe, 0x9bdc06a7, 0xc19bf174,
 148:strong-arm\src\pbkdf2/pbkdf2.c **** 				0xe49b69c1, 0xefbe4786, 0x0fc19dc6, 0x240ca1cc, 0x2de92c6f, 0x4a7484aa, 0x5cb0a9dc, 0x76f988da,
 149:strong-arm\src\pbkdf2/pbkdf2.c **** 				0x983e5152, 0xa831c66d, 0xb00327c8, 0xbf597fc7, 0xc6e00bf3, 0xd5a79147, 0x06ca6351, 0x14292967,
 150:strong-arm\src\pbkdf2/pbkdf2.c **** 				0x27b70a85, 0x2e1b2138, 0x4d2c6dfc, 0x53380d13, 0x650a7354, 0x766a0abb, 0x81c2c92e, 0x92722c85,
 151:strong-arm\src\pbkdf2/pbkdf2.c **** 				0xa2bfe8a1, 0xa81a664b, 0xc24b8b70, 0xc76c51a3, 0xd192e819, 0xd6990624, 0xf40e3585, 0x106aa070,
 152:strong-arm\src\pbkdf2/pbkdf2.c **** 				0x19a4c116, 0x1e376c08, 0x2748774c, 0x34b0bcb5, 0x391c0cb3, 0x4ed8aa4a, 0x5b9cca4f, 0x682e6ff3,
 153:strong-arm\src\pbkdf2/pbkdf2.c **** 				0x748f82ee, 0x78a5636f, 0x84c87814, 0x8cc70208, 0x90befffa, 0xa4506ceb, 0xbef9a3f7, 0xc67178f2}
 154:strong-arm\src\pbkdf2/pbkdf2.c **** 
 155:strong-arm\src\pbkdf2/pbkdf2.c **** static inline uint32_t s0 (uint32_t a);
 156:strong-arm\src\pbkdf2/pbkdf2.c **** static inline uint32_t s1 (uint32_t a);
 157:strong-arm\src\pbkdf2/pbkdf2.c **** static inline uint32_t e0 (uint32_t a);
 158:strong-arm\src\pbkdf2/pbkdf2.c **** static inline uint32_t e1 (uint32_t a);
 159:strong-arm\src\pbkdf2/pbkdf2.c **** 
 160:strong-arm\src\pbkdf2/pbkdf2.c **** /* gcc should optimize this to ROR instructions on at least X86 and ARM. */
 161:strong-arm\src\pbkdf2/pbkdf2.c **** #define ROR_C(x, n) (((x) >> (n)) | ((x) << (32 - (n))))
 162:strong-arm\src\pbkdf2/pbkdf2.c **** 
 163:strong-arm\src\pbkdf2/pbkdf2.c **** 
 164:strong-arm\src\pbkdf2/pbkdf2.c **** static inline uint32_t s0 (uint32_t a)
 165:strong-arm\src\pbkdf2/pbkdf2.c **** {
 166:strong-arm\src\pbkdf2/pbkdf2.c **** 	uint32_t tmp1, tmp2;
 167:strong-arm\src\pbkdf2/pbkdf2.c **** 	
 168:strong-arm\src\pbkdf2/pbkdf2.c **** 	tmp1 = ROR_C (a, 7);
 169:strong-arm\src\pbkdf2/pbkdf2.c **** 	tmp2 = ROR_C (a, 18);
 170:strong-arm\src\pbkdf2/pbkdf2.c **** 	return tmp1 ^ tmp2 ^ (a >> 3);
 171:strong-arm\src\pbkdf2/pbkdf2.c **** }
 172:strong-arm\src\pbkdf2/pbkdf2.c **** 
 173:strong-arm\src\pbkdf2/pbkdf2.c **** static inline uint32_t s1 (uint32_t a)
 174:strong-arm\src\pbkdf2/pbkdf2.c **** {
 175:strong-arm\src\pbkdf2/pbkdf2.c **** 	uint32_t tmp1, tmp2;
 176:strong-arm\src\pbkdf2/pbkdf2.c **** 	
 177:strong-arm\src\pbkdf2/pbkdf2.c **** 	tmp1 = ROR_C (a, 17);
 178:strong-arm\src\pbkdf2/pbkdf2.c **** 	tmp2 = ROR_C (a, 19);
 179:strong-arm\src\pbkdf2/pbkdf2.c **** 	return tmp1 ^ tmp2 ^ (a >> 10);
 180:strong-arm\src\pbkdf2/pbkdf2.c **** }
 181:strong-arm\src\pbkdf2/pbkdf2.c **** 
 182:strong-arm\src\pbkdf2/pbkdf2.c **** static inline uint32_t e0 (uint32_t a)
 183:strong-arm\src\pbkdf2/pbkdf2.c **** {
 184:strong-arm\src\pbkdf2/pbkdf2.c **** 	uint32_t tmp1, tmp2;
 185:strong-arm\src\pbkdf2/pbkdf2.c **** 	
 186:strong-arm\src\pbkdf2/pbkdf2.c **** 	tmp1 = ROR_C (a, 2);
 187:strong-arm\src\pbkdf2/pbkdf2.c **** 	tmp2 = ROR_C (a, 13);
 188:strong-arm\src\pbkdf2/pbkdf2.c **** 	a = ROR_C (a, 22);
 189:strong-arm\src\pbkdf2/pbkdf2.c **** 	return tmp1 ^ tmp2 ^ a;
 190:strong-arm\src\pbkdf2/pbkdf2.c **** }
 191:strong-arm\src\pbkdf2/pbkdf2.c **** 
 192:strong-arm\src\pbkdf2/pbkdf2.c **** static inline uint32_t e1 (uint32_t a)
 193:strong-arm\src\pbkdf2/pbkdf2.c **** {
 194:strong-arm\src\pbkdf2/pbkdf2.c **** 	uint32_t tmp1, tmp2;
 195:strong-arm\src\pbkdf2/pbkdf2.c **** 	
 196:strong-arm\src\pbkdf2/pbkdf2.c **** 	tmp1 = ROR_C (a, 6);
 197:strong-arm\src\pbkdf2/pbkdf2.c **** 	tmp2 = ROR_C (a, 11);
 198:strong-arm\src\pbkdf2/pbkdf2.c **** 	a = ROR_C (a, 25);
 199:strong-arm\src\pbkdf2/pbkdf2.c **** 	return tmp1 ^ tmp2 ^ a;
 200:strong-arm\src\pbkdf2/pbkdf2.c **** }
 201:strong-arm\src\pbkdf2/pbkdf2.c **** 
 202:strong-arm\src\pbkdf2/pbkdf2.c **** 
ARM GAS  C:\Users\Ray\AppData\Local\Temp\cc6moPgl.s 			page 5


 203:strong-arm\src\pbkdf2/pbkdf2.c **** static inline uint32_t ch (uint32_t a, uint32_t b, uint32_t c)
 204:strong-arm\src\pbkdf2/pbkdf2.c **** {
 205:strong-arm\src\pbkdf2/pbkdf2.c **** 	return c ^ (a & (b ^ c));
 206:strong-arm\src\pbkdf2/pbkdf2.c **** }
 207:strong-arm\src\pbkdf2/pbkdf2.c **** 
 208:strong-arm\src\pbkdf2/pbkdf2.c **** 
 209:strong-arm\src\pbkdf2/pbkdf2.c **** static inline uint32_t maj (uint32_t a, uint32_t b, uint32_t c)
 210:strong-arm\src\pbkdf2/pbkdf2.c **** {
 211:strong-arm\src\pbkdf2/pbkdf2.c **** 	return (a & b) | (c & (a | b));
 212:strong-arm\src\pbkdf2/pbkdf2.c **** }
 213:strong-arm\src\pbkdf2/pbkdf2.c **** 
 214:strong-arm\src\pbkdf2/pbkdf2.c **** 
 215:strong-arm\src\pbkdf2/pbkdf2.c **** static void _deserialize (uint32_t chunk[static 16], uint8_t const stream[static 64])
 216:strong-arm\src\pbkdf2/pbkdf2.c **** {
  27              		.loc 1 216 0
  28              		.cfi_startproc
  29              		@ args = 0, pretend = 0, frame = 0
  30              		@ frame_needed = 0, uses_anonymous_args = 0
  31              	.LVL0:
  32 0000 F0B5     		push	{r4, r5, r6, r7, lr}
  33              		.cfi_def_cfa_offset 20
  34              		.cfi_offset 4, -20
  35              		.cfi_offset 5, -16
  36              		.cfi_offset 6, -12
  37              		.cfi_offset 7, -8
  38              		.cfi_offset 14, -4
  39              	.LVL1:
  40              	.LBB17:
 217:strong-arm\src\pbkdf2/pbkdf2.c **** 	for (int i = 0; i < 16; ++i)
  41              		.loc 1 217 0
  42 0002 0027     		movs	r7, #0
  43 0004 12E0     		b	.L2
  44              	.LVL2:
  45              	.L3:
 218:strong-arm\src\pbkdf2/pbkdf2.c **** 	{
 219:strong-arm\src\pbkdf2/pbkdf2.c **** 		chunk[i] = stream[i<<2] << 24;
  46              		.loc 1 219 0 discriminator 3
  47 0006 BD00     		lsls	r5, r7, #2
  48 0008 4619     		adds	r6, r0, r5
  49 000a 4A5D     		ldrb	r2, [r1, r5]
  50 000c 1406     		lsls	r4, r2, #24
  51 000e 3460     		str	r4, [r6]
 220:strong-arm\src\pbkdf2/pbkdf2.c **** 		chunk[i] |= stream[(i<<2) + 1] << 16;
  52              		.loc 1 220 0 discriminator 3
  53 0010 4D19     		adds	r5, r1, r5
  54 0012 6B78     		ldrb	r3, [r5, #1]
  55 0014 1B04     		lsls	r3, r3, #16
  56 0016 2343     		orrs	r3, r4
  57 0018 1A00     		movs	r2, r3
  58 001a 3360     		str	r3, [r6]
 221:strong-arm\src\pbkdf2/pbkdf2.c **** 		chunk[i] |= stream[(i<<2) + 2] << 8;
  59              		.loc 1 221 0 discriminator 3
  60 001c AB78     		ldrb	r3, [r5, #2]
  61 001e 1B02     		lsls	r3, r3, #8
  62 0020 1343     		orrs	r3, r2
  63 0022 3360     		str	r3, [r6]
 222:strong-arm\src\pbkdf2/pbkdf2.c **** 		chunk[i] |= stream[(i<<2) + 3];
ARM GAS  C:\Users\Ray\AppData\Local\Temp\cc6moPgl.s 			page 6


  64              		.loc 1 222 0 discriminator 3
  65 0024 EA78     		ldrb	r2, [r5, #3]
  66 0026 1343     		orrs	r3, r2
  67 0028 3360     		str	r3, [r6]
 217:strong-arm\src\pbkdf2/pbkdf2.c **** 	{
  68              		.loc 1 217 0 discriminator 3
  69 002a 0137     		adds	r7, r7, #1
  70              	.LVL3:
  71              	.L2:
 217:strong-arm\src\pbkdf2/pbkdf2.c **** 	{
  72              		.loc 1 217 0 is_stmt 0 discriminator 1
  73 002c 0F2F     		cmp	r7, #15
  74 002e EADD     		ble	.L3
  75              	.LBE17:
 223:strong-arm\src\pbkdf2/pbkdf2.c **** 	}
 224:strong-arm\src\pbkdf2/pbkdf2.c **** }
  76              		.loc 1 224 0 is_stmt 1
  77              		@ sp needed
  78              	.LVL4:
  79 0030 F0BD     		pop	{r4, r5, r6, r7, pc}
  80              		.cfi_endproc
  81              	.LFE8:
  82              		.size	_deserialize, .-_deserialize
  83 0032 C046     		.section	.text._serialize,"ax",%progbits
  84              		.align	2
  85              		.code	16
  86              		.thumb_func
  87              		.type	_serialize, %function
  88              	_serialize:
  89              	.LFB9:
 225:strong-arm\src\pbkdf2/pbkdf2.c **** 
 226:strong-arm\src\pbkdf2/pbkdf2.c **** 
 227:strong-arm\src\pbkdf2/pbkdf2.c **** static void _serialize (uint8_t stream[static 64], uint32_t const chunk[static 16])
 228:strong-arm\src\pbkdf2/pbkdf2.c **** {
  90              		.loc 1 228 0
  91              		.cfi_startproc
  92              		@ args = 0, pretend = 0, frame = 0
  93              		@ frame_needed = 0, uses_anonymous_args = 0
  94              	.LVL5:
  95 0000 70B5     		push	{r4, r5, r6, lr}
  96              		.cfi_def_cfa_offset 16
  97              		.cfi_offset 4, -16
  98              		.cfi_offset 5, -12
  99              		.cfi_offset 6, -8
 100              		.cfi_offset 14, -4
 101              	.LVL6:
 102              	.LBB18:
 229:strong-arm\src\pbkdf2/pbkdf2.c **** 	for (int i = 0; i < 8; ++i)
 103              		.loc 1 229 0
 104 0002 0024     		movs	r4, #0
 105 0004 0EE0     		b	.L5
 106              	.LVL7:
 107              	.L6:
 230:strong-arm\src\pbkdf2/pbkdf2.c **** 	{
 231:strong-arm\src\pbkdf2/pbkdf2.c **** 		stream[(i<<2)] = chunk[i] >> 24;
 108              		.loc 1 231 0 discriminator 3
 109 0006 A300     		lsls	r3, r4, #2
ARM GAS  C:\Users\Ray\AppData\Local\Temp\cc6moPgl.s 			page 7


 110 0008 CA18     		adds	r2, r1, r3
 111 000a D578     		ldrb	r5, [r2, #3]
 112 000c C554     		strb	r5, [r0, r3]
 232:strong-arm\src\pbkdf2/pbkdf2.c **** 		stream[(i<<2)+1] = chunk[i] >> 16;
 113              		.loc 1 232 0 discriminator 3
 114 000e 5D1C     		adds	r5, r3, #1
 115 0010 5688     		ldrh	r6, [r2, #2]
 116 0012 4655     		strb	r6, [r0, r5]
 233:strong-arm\src\pbkdf2/pbkdf2.c **** 		stream[(i<<2)+2] = chunk[i] >> 8;
 117              		.loc 1 233 0 discriminator 3
 118 0014 9E1C     		adds	r6, r3, #2
 119 0016 1568     		ldr	r5, [r2]
 120 0018 2D0A     		lsrs	r5, r5, #8
 121 001a 8555     		strb	r5, [r0, r6]
 234:strong-arm\src\pbkdf2/pbkdf2.c **** 		stream[(i<<2)+3] = chunk[i];
 122              		.loc 1 234 0 discriminator 3
 123 001c 0333     		adds	r3, r3, #3
 124 001e 1268     		ldr	r2, [r2]
 125 0020 C254     		strb	r2, [r0, r3]
 229:strong-arm\src\pbkdf2/pbkdf2.c **** 	{
 126              		.loc 1 229 0 discriminator 3
 127 0022 0134     		adds	r4, r4, #1
 128              	.LVL8:
 129              	.L5:
 229:strong-arm\src\pbkdf2/pbkdf2.c **** 	{
 130              		.loc 1 229 0 is_stmt 0 discriminator 1
 131 0024 072C     		cmp	r4, #7
 132 0026 EEDD     		ble	.L6
 133              	.LBE18:
 235:strong-arm\src\pbkdf2/pbkdf2.c **** 	}
 236:strong-arm\src\pbkdf2/pbkdf2.c **** }
 134              		.loc 1 236 0 is_stmt 1
 135              		@ sp needed
 136              	.LVL9:
 137 0028 70BD     		pop	{r4, r5, r6, pc}
 138              		.cfi_endproc
 139              	.LFE9:
 140              		.size	_serialize, .-_serialize
 141 002a C046     		.section	.text.compress,"ax",%progbits
 142              		.align	2
 143              		.code	16
 144              		.thumb_func
 145              		.type	compress, %function
 146              	compress:
 147              	.LFB10:
 237:strong-arm\src\pbkdf2/pbkdf2.c **** 
 238:strong-arm\src\pbkdf2/pbkdf2.c **** 
 239:strong-arm\src\pbkdf2/pbkdf2.c **** static void compress (uint32_t digest[static 8], uint32_t const state[static 8], uint32_t const chu
 240:strong-arm\src\pbkdf2/pbkdf2.c **** {
 148              		.loc 1 240 0
 149              		.cfi_startproc
 150              		@ args = 0, pretend = 0, frame = 88
 151              		@ frame_needed = 0, uses_anonymous_args = 0
 152              	.LVL10:
 153 0000 F0B5     		push	{r4, r5, r6, r7, lr}
 154              		.cfi_def_cfa_offset 20
 155              		.cfi_offset 4, -20
ARM GAS  C:\Users\Ray\AppData\Local\Temp\cc6moPgl.s 			page 8


 156              		.cfi_offset 5, -16
 157              		.cfi_offset 6, -12
 158              		.cfi_offset 7, -8
 159              		.cfi_offset 14, -4
 160 0002 5F46     		mov	r7, fp
 161 0004 5646     		mov	r6, r10
 162 0006 4D46     		mov	r5, r9
 163 0008 4446     		mov	r4, r8
 164 000a F0B4     		push	{r4, r5, r6, r7}
 165              		.cfi_def_cfa_offset 36
 166              		.cfi_offset 8, -36
 167              		.cfi_offset 9, -32
 168              		.cfi_offset 10, -28
 169              		.cfi_offset 11, -24
 170 000c 97B0     		sub	sp, sp, #92
 171              		.cfi_def_cfa_offset 128
 172 000e 0590     		str	r0, [sp, #20]
 173 0010 8946     		mov	r9, r1
 241:strong-arm\src\pbkdf2/pbkdf2.c **** 	uint32_t a = state[0], b = state[1], c = state[2], d = state[3];
 174              		.loc 1 241 0
 175 0012 0B68     		ldr	r3, [r1]
 176 0014 0493     		str	r3, [sp, #16]
 177              	.LVL11:
 178 0016 4B68     		ldr	r3, [r1, #4]
 179              	.LVL12:
 180 0018 9A46     		mov	r10, r3
 181              	.LVL13:
 182 001a 8B68     		ldr	r3, [r1, #8]
 183              	.LVL14:
 184 001c 0193     		str	r3, [sp, #4]
 185              	.LVL15:
 186 001e CB68     		ldr	r3, [r1, #12]
 187              	.LVL16:
 188 0020 9846     		mov	r8, r3
 189              	.LVL17:
 242:strong-arm\src\pbkdf2/pbkdf2.c **** 	uint32_t e = state[4], f = state[5], g = state[6], h = state[7];
 190              		.loc 1 242 0
 191 0022 0E69     		ldr	r6, [r1, #16]
 192              	.LVL18:
 193 0024 4B69     		ldr	r3, [r1, #20]
 194              	.LVL19:
 195 0026 0293     		str	r3, [sp, #8]
 196              	.LVL20:
 197 0028 8B69     		ldr	r3, [r1, #24]
 198              	.LVL21:
 199 002a 9C46     		mov	ip, r3
 200              	.LVL22:
 201 002c CB69     		ldr	r3, [r1, #28]
 202              	.LVL23:
 203 002e 0393     		str	r3, [sp, #12]
 204              	.LVL24:
 205              	.LBB19:
 243:strong-arm\src\pbkdf2/pbkdf2.c **** 	uint32_t w_data[16];
 244:strong-arm\src\pbkdf2/pbkdf2.c **** 
 245:strong-arm\src\pbkdf2/pbkdf2.c **** 	for (uint32_t i = 0; i < 16; ++i)
 206              		.loc 1 245 0
 207 0030 0023     		movs	r3, #0
ARM GAS  C:\Users\Ray\AppData\Local\Temp\cc6moPgl.s 			page 9


 208              	.LVL25:
 209 0032 04E0     		b	.L8
 210              	.LVL26:
 211              	.L9:
 246:strong-arm\src\pbkdf2/pbkdf2.c **** 		w_data[i] = chunk[i];
 212              		.loc 1 246 0 discriminator 3
 213 0034 9900     		lsls	r1, r3, #2
 214 0036 06A8     		add	r0, sp, #24
 215 0038 8C58     		ldr	r4, [r1, r2]
 216 003a 0C50     		str	r4, [r1, r0]
 245:strong-arm\src\pbkdf2/pbkdf2.c **** 		w_data[i] = chunk[i];
 217              		.loc 1 245 0 discriminator 3
 218 003c 0133     		adds	r3, r3, #1
 219              	.LVL27:
 220              	.L8:
 245:strong-arm\src\pbkdf2/pbkdf2.c **** 		w_data[i] = chunk[i];
 221              		.loc 1 245 0 is_stmt 0 discriminator 1
 222 003e 0F2B     		cmp	r3, #15
 223 0040 F8D9     		bls	.L9
 224 0042 049F     		ldr	r7, [sp, #16]
 225 0044 0025     		movs	r5, #0
 226 0046 5346     		mov	r3, r10
 227              	.LVL28:
 228 0048 0093     		str	r3, [sp]
 229 004a CA46     		mov	r10, r9
 230              	.LVL29:
 231 004c 75E0     		b	.L10
 232              	.LVL30:
 233              	.L12:
 234              	.LBE19:
 235              	.LBB20:
 236              	.LBB21:
 247:strong-arm\src\pbkdf2/pbkdf2.c **** 	
 248:strong-arm\src\pbkdf2/pbkdf2.c **** 	for (uint32_t i = 0; i < 64; ++i)
 249:strong-arm\src\pbkdf2/pbkdf2.c **** 	{
 250:strong-arm\src\pbkdf2/pbkdf2.c **** 		uint32_t w = w_data[i&15];
 237              		.loc 1 250 0 is_stmt 1
 238 004e 0F22     		movs	r2, #15
 239 0050 2A40     		ands	r2, r5
 240 0052 9300     		lsls	r3, r2, #2
 241 0054 06A9     		add	r1, sp, #24
 242 0056 5B58     		ldr	r3, [r3, r1]
 243 0058 9946     		mov	r9, r3
 244              	.LVL31:
 251:strong-arm\src\pbkdf2/pbkdf2.c **** 		
 252:strong-arm\src\pbkdf2/pbkdf2.c **** 		if (i < 48)
 245              		.loc 1 252 0
 246 005a 2F2D     		cmp	r5, #47
 247 005c 2ED8     		bhi	.L11
 253:strong-arm\src\pbkdf2/pbkdf2.c **** 			w_data[i&15] = w_data[i&15] + s0 (w_data[(i+1)&15]) + w_data[(i+9)&15] + s1 (w_data[(i+14)&15]);
 248              		.loc 1 253 0
 249 005e 6B1C     		adds	r3, r5, #1
 250              	.LVL32:
 251 0060 0F21     		movs	r1, #15
 252 0062 0B40     		ands	r3, r1
 253 0064 9B00     		lsls	r3, r3, #2
 254 0066 06A8     		add	r0, sp, #24
ARM GAS  C:\Users\Ray\AppData\Local\Temp\cc6moPgl.s 			page 10


 255 0068 1B58     		ldr	r3, [r3, r0]
 256              	.LVL33:
 257              	.LBB22:
 258              	.LBB23:
 168:strong-arm\src\pbkdf2/pbkdf2.c **** 	tmp2 = ROR_C (a, 18);
 259              		.loc 1 168 0
 260 006a 0720     		movs	r0, #7
 261 006c 1C00     		movs	r4, r3
 262 006e C441     		rors	r4, r4, r0
 263 0070 A346     		mov	fp, r4
 264              	.LVL34:
 169:strong-arm\src\pbkdf2/pbkdf2.c **** 	return tmp1 ^ tmp2 ^ (a >> 3);
 265              		.loc 1 169 0
 266 0072 0B30     		adds	r0, r0, #11
 267 0074 1C00     		movs	r4, r3
 268              	.LVL35:
 269 0076 C441     		rors	r4, r4, r0
 270 0078 2000     		movs	r0, r4
 271              	.LVL36:
 170:strong-arm\src\pbkdf2/pbkdf2.c **** }
 272              		.loc 1 170 0
 273 007a 5C46     		mov	r4, fp
 274 007c 6040     		eors	r0, r4
 275              	.LVL37:
 276 007e DB08     		lsrs	r3, r3, #3
 277              	.LVL38:
 278 0080 4340     		eors	r3, r0
 279              	.LVL39:
 280              	.LBE23:
 281              	.LBE22:
 282              		.loc 1 253 0
 283 0082 4B44     		add	r3, r3, r9
 284 0084 2800     		movs	r0, r5
 285 0086 0930     		adds	r0, r0, #9
 286 0088 0840     		ands	r0, r1
 287 008a 8000     		lsls	r0, r0, #2
 288 008c 06AC     		add	r4, sp, #24
 289 008e 0059     		ldr	r0, [r0, r4]
 290 0090 1B18     		adds	r3, r3, r0
 291 0092 2800     		movs	r0, r5
 292 0094 0E30     		adds	r0, r0, #14
 293 0096 0140     		ands	r1, r0
 294 0098 8900     		lsls	r1, r1, #2
 295 009a 0859     		ldr	r0, [r1, r4]
 296              	.LVL40:
 297              	.LBB24:
 298              	.LBB25:
 177:strong-arm\src\pbkdf2/pbkdf2.c **** 	tmp2 = ROR_C (a, 19);
 299              		.loc 1 177 0
 300 009c 1121     		movs	r1, #17
 301 009e 0400     		movs	r4, r0
 302 00a0 CC41     		rors	r4, r4, r1
 303 00a2 A346     		mov	fp, r4
 304              	.LVL41:
 178:strong-arm\src\pbkdf2/pbkdf2.c **** 	return tmp1 ^ tmp2 ^ (a >> 10);
 305              		.loc 1 178 0
 306 00a4 0231     		adds	r1, r1, #2
ARM GAS  C:\Users\Ray\AppData\Local\Temp\cc6moPgl.s 			page 11


 307 00a6 0400     		movs	r4, r0
 308              	.LVL42:
 309 00a8 CC41     		rors	r4, r4, r1
 310 00aa 2100     		movs	r1, r4
 311              	.LVL43:
 179:strong-arm\src\pbkdf2/pbkdf2.c **** }
 312              		.loc 1 179 0
 313 00ac 5C46     		mov	r4, fp
 314 00ae 6140     		eors	r1, r4
 315              	.LVL44:
 316 00b0 800A     		lsrs	r0, r0, #10
 317              	.LVL45:
 318 00b2 4140     		eors	r1, r0
 319              	.LVL46:
 320              	.LBE25:
 321              	.LBE24:
 322              		.loc 1 253 0
 323 00b4 5918     		adds	r1, r3, r1
 324 00b6 9200     		lsls	r2, r2, #2
 325 00b8 06AB     		add	r3, sp, #24
 326 00ba D150     		str	r1, [r2, r3]
 327              	.L11:
 328              	.LVL47:
 329              	.LBB26:
 330              	.LBB27:
 186:strong-arm\src\pbkdf2/pbkdf2.c **** 	tmp2 = ROR_C (a, 13);
 331              		.loc 1 186 0 discriminator 2
 332 00bc 0223     		movs	r3, #2
 333 00be 3A00     		movs	r2, r7
 334 00c0 DA41     		rors	r2, r2, r3
 335 00c2 1300     		movs	r3, r2
 336              	.LVL48:
 187:strong-arm\src\pbkdf2/pbkdf2.c **** 	a = ROR_C (a, 22);
 337              		.loc 1 187 0 discriminator 2
 338 00c4 0D22     		movs	r2, #13
 339              	.LVL49:
 340 00c6 3900     		movs	r1, r7
 341 00c8 D141     		rors	r1, r1, r2
 342              	.LVL50:
 188:strong-arm\src\pbkdf2/pbkdf2.c **** 	return tmp1 ^ tmp2 ^ a;
 343              		.loc 1 188 0 discriminator 2
 344 00ca 0932     		adds	r2, r2, #9
 345 00cc 3800     		movs	r0, r7
 346 00ce D041     		rors	r0, r0, r2
 347              	.LVL51:
 189:strong-arm\src\pbkdf2/pbkdf2.c **** }
 348              		.loc 1 189 0 discriminator 2
 349 00d0 4B40     		eors	r3, r1
 350              	.LVL52:
 351 00d2 0200     		movs	r2, r0
 352 00d4 5A40     		eors	r2, r3
 353              	.LVL53:
 354              	.LBE27:
 355              	.LBE26:
 356              	.LBB28:
 357              	.LBB29:
 211:strong-arm\src\pbkdf2/pbkdf2.c **** }
ARM GAS  C:\Users\Ray\AppData\Local\Temp\cc6moPgl.s 			page 12


 358              		.loc 1 211 0 discriminator 2
 359 00d6 0098     		ldr	r0, [sp]
 360 00d8 0100     		movs	r1, r0
 361 00da 3940     		ands	r1, r7
 362 00dc 3B00     		movs	r3, r7
 363 00de 0343     		orrs	r3, r0
 364 00e0 0198     		ldr	r0, [sp, #4]
 365 00e2 0340     		ands	r3, r0
 366 00e4 0B43     		orrs	r3, r1
 367              	.LVL54:
 368              	.LBE29:
 369              	.LBE28:
 254:strong-arm\src\pbkdf2/pbkdf2.c **** 		
 255:strong-arm\src\pbkdf2/pbkdf2.c **** 		uint32_t t2 = e0 (a) + maj (a, b, c);
 370              		.loc 1 255 0 discriminator 2
 371 00e6 9B18     		adds	r3, r3, r2
 372              	.LVL55:
 373              	.LBB30:
 374              	.LBB31:
 196:strong-arm\src\pbkdf2/pbkdf2.c **** 	tmp2 = ROR_C (a, 11);
 375              		.loc 1 196 0 discriminator 2
 376 00e8 0622     		movs	r2, #6
 377 00ea 3100     		movs	r1, r6
 378 00ec D141     		rors	r1, r1, r2
 379 00ee 0800     		movs	r0, r1
 380              	.LVL56:
 197:strong-arm\src\pbkdf2/pbkdf2.c **** 	a = ROR_C (a, 25);
 381              		.loc 1 197 0 discriminator 2
 382 00f0 0532     		adds	r2, r2, #5
 383 00f2 3100     		movs	r1, r6
 384 00f4 D141     		rors	r1, r1, r2
 385 00f6 0A00     		movs	r2, r1
 386              	.LVL57:
 198:strong-arm\src\pbkdf2/pbkdf2.c **** 	return tmp1 ^ tmp2 ^ a;
 387              		.loc 1 198 0 discriminator 2
 388 00f8 1921     		movs	r1, #25
 389              	.LVL58:
 390 00fa 3400     		movs	r4, r6
 391 00fc CC41     		rors	r4, r4, r1
 392              	.LVL59:
 199:strong-arm\src\pbkdf2/pbkdf2.c **** }
 393              		.loc 1 199 0 discriminator 2
 394 00fe 4240     		eors	r2, r0
 395              	.LVL60:
 396 0100 6240     		eors	r2, r4
 397              	.LVL61:
 398              	.LBE31:
 399              	.LBE30:
 256:strong-arm\src\pbkdf2/pbkdf2.c **** 		uint32_t t1 = h + e1 (e) + ch (e, f, g) + kk[i] + w;
 400              		.loc 1 256 0 discriminator 2
 401 0102 0399     		ldr	r1, [sp, #12]
 402 0104 8B46     		mov	fp, r1
 403 0106 5A44     		add	r2, r2, fp
 404              	.LVL62:
 405              	.LBB32:
 406              	.LBB33:
 205:strong-arm\src\pbkdf2/pbkdf2.c **** }
ARM GAS  C:\Users\Ray\AppData\Local\Temp\cc6moPgl.s 			page 13


 407              		.loc 1 205 0 discriminator 2
 408 0108 0299     		ldr	r1, [sp, #8]
 409 010a 6446     		mov	r4, ip
 410 010c 6140     		eors	r1, r4
 411 010e 3140     		ands	r1, r6
 412 0110 4C40     		eors	r4, r1
 413              	.LVL63:
 414              	.LBE33:
 415              	.LBE32:
 416              		.loc 1 256 0 discriminator 2
 417 0112 1119     		adds	r1, r2, r4
 418 0114 A800     		lsls	r0, r5, #2
 419 0116 234A     		ldr	r2, .L13
 420 0118 8058     		ldr	r0, [r0, r2]
 421 011a 0918     		adds	r1, r1, r0
 422 011c 4944     		add	r1, r1, r9
 423              	.LVL64:
 424              	.LBE21:
 248:strong-arm\src\pbkdf2/pbkdf2.c **** 	{
 425              		.loc 1 248 0 discriminator 2
 426 011e 0135     		adds	r5, r5, #1
 427              	.LVL65:
 428              	.LBB34:
 257:strong-arm\src\pbkdf2/pbkdf2.c **** 		
 258:strong-arm\src\pbkdf2/pbkdf2.c **** 		h = g;
 429              		.loc 1 258 0 discriminator 2
 430 0120 6446     		mov	r4, ip
 431 0122 0394     		str	r4, [sp, #12]
 259:strong-arm\src\pbkdf2/pbkdf2.c **** 		g = f;
 432              		.loc 1 259 0 discriminator 2
 433 0124 029A     		ldr	r2, [sp, #8]
 434 0126 9446     		mov	ip, r2
 435              	.LVL66:
 260:strong-arm\src\pbkdf2/pbkdf2.c **** 		f = e;
 436              		.loc 1 260 0 discriminator 2
 437 0128 0296     		str	r6, [sp, #8]
 438              	.LVL67:
 261:strong-arm\src\pbkdf2/pbkdf2.c **** 		e = d + t1;
 439              		.loc 1 261 0 discriminator 2
 440 012a 4246     		mov	r2, r8
 441              	.LVL68:
 442 012c 5618     		adds	r6, r2, r1
 443              	.LVL69:
 262:strong-arm\src\pbkdf2/pbkdf2.c **** 		d = c;
 444              		.loc 1 262 0 discriminator 2
 445 012e 0198     		ldr	r0, [sp, #4]
 446 0130 8046     		mov	r8, r0
 263:strong-arm\src\pbkdf2/pbkdf2.c **** 		c = b;
 447              		.loc 1 263 0 discriminator 2
 448 0132 0098     		ldr	r0, [sp]
 449 0134 0190     		str	r0, [sp, #4]
 450              	.LVL70:
 264:strong-arm\src\pbkdf2/pbkdf2.c **** 		b = a;
 451              		.loc 1 264 0 discriminator 2
 452 0136 0097     		str	r7, [sp]
 453              	.LVL71:
 265:strong-arm\src\pbkdf2/pbkdf2.c **** 		a = t1 + t2;
ARM GAS  C:\Users\Ray\AppData\Local\Temp\cc6moPgl.s 			page 14


 454              		.loc 1 265 0 discriminator 2
 455 0138 5F18     		adds	r7, r3, r1
 456              	.LVL72:
 457              	.L10:
 458              	.LBE34:
 248:strong-arm\src\pbkdf2/pbkdf2.c **** 	{
 459              		.loc 1 248 0 discriminator 1
 460 013a 3F2D     		cmp	r5, #63
 461 013c 87D9     		bls	.L12
 462 013e 6146     		mov	r1, ip
 463 0140 D146     		mov	r9, r10
 464 0142 009B     		ldr	r3, [sp]
 465 0144 9A46     		mov	r10, r3
 466              	.LVL73:
 467              	.LBE20:
 266:strong-arm\src\pbkdf2/pbkdf2.c **** 	}
 267:strong-arm\src\pbkdf2/pbkdf2.c **** 	
 268:strong-arm\src\pbkdf2/pbkdf2.c **** 	digest[0] = state[0] + a;
 468              		.loc 1 268 0
 469 0146 049B     		ldr	r3, [sp, #16]
 470 0148 9C46     		mov	ip, r3
 471              	.LVL74:
 472 014a 6744     		add	r7, r7, ip
 473              	.LVL75:
 474 014c 059A     		ldr	r2, [sp, #20]
 475 014e 1760     		str	r7, [r2]
 269:strong-arm\src\pbkdf2/pbkdf2.c **** 	digest[1] = state[1] + b;
 476              		.loc 1 269 0
 477 0150 4B46     		mov	r3, r9
 478 0152 5B68     		ldr	r3, [r3, #4]
 479 0154 5344     		add	r3, r3, r10
 480 0156 5360     		str	r3, [r2, #4]
 270:strong-arm\src\pbkdf2/pbkdf2.c **** 	digest[2] = state[2] + c;
 481              		.loc 1 270 0
 482 0158 4846     		mov	r0, r9
 483 015a 019B     		ldr	r3, [sp, #4]
 484 015c 8068     		ldr	r0, [r0, #8]
 485 015e 8446     		mov	ip, r0
 486 0160 6344     		add	r3, r3, ip
 487 0162 9360     		str	r3, [r2, #8]
 271:strong-arm\src\pbkdf2/pbkdf2.c **** 	digest[3] = state[3] + d;
 488              		.loc 1 271 0
 489 0164 4B46     		mov	r3, r9
 490 0166 DB68     		ldr	r3, [r3, #12]
 491 0168 4344     		add	r3, r3, r8
 492 016a D360     		str	r3, [r2, #12]
 272:strong-arm\src\pbkdf2/pbkdf2.c **** 	digest[4] = state[4] + e;
 493              		.loc 1 272 0
 494 016c 4B46     		mov	r3, r9
 495 016e 1B69     		ldr	r3, [r3, #16]
 496 0170 F318     		adds	r3, r6, r3
 497 0172 1361     		str	r3, [r2, #16]
 273:strong-arm\src\pbkdf2/pbkdf2.c **** 	digest[5] = state[5] + f;
 498              		.loc 1 273 0
 499 0174 4846     		mov	r0, r9
 500 0176 029B     		ldr	r3, [sp, #8]
 501 0178 4069     		ldr	r0, [r0, #20]
ARM GAS  C:\Users\Ray\AppData\Local\Temp\cc6moPgl.s 			page 15


 502 017a 8446     		mov	ip, r0
 503 017c 6344     		add	r3, r3, ip
 504 017e 5361     		str	r3, [r2, #20]
 274:strong-arm\src\pbkdf2/pbkdf2.c **** 	digest[6] = state[6] + g;
 505              		.loc 1 274 0
 506 0180 4846     		mov	r0, r9
 507 0182 0B00     		movs	r3, r1
 508 0184 8169     		ldr	r1, [r0, #24]
 509              	.LVL76:
 510 0186 8C46     		mov	ip, r1
 511 0188 6344     		add	r3, r3, ip
 512              	.LVL77:
 513 018a 9361     		str	r3, [r2, #24]
 275:strong-arm\src\pbkdf2/pbkdf2.c **** 	digest[7] = state[7] + h;
 514              		.loc 1 275 0
 515 018c C369     		ldr	r3, [r0, #28]
 516 018e 0399     		ldr	r1, [sp, #12]
 517 0190 C918     		adds	r1, r1, r3
 518 0192 D161     		str	r1, [r2, #28]
 276:strong-arm\src\pbkdf2/pbkdf2.c **** }
 519              		.loc 1 276 0
 520 0194 17B0     		add	sp, sp, #92
 521              	.LVL78:
 522              		@ sp needed
 523              	.LVL79:
 524              	.LVL80:
 525              	.LVL81:
 526              	.LVL82:
 527              	.LVL83:
 528 0196 3CBC     		pop	{r2, r3, r4, r5}
 529 0198 9046     		mov	r8, r2
 530 019a 9946     		mov	r9, r3
 531 019c A246     		mov	r10, r4
 532 019e AB46     		mov	fp, r5
 533 01a0 F0BD     		pop	{r4, r5, r6, r7, pc}
 534              	.L14:
 535 01a2 C046     		.align	2
 536              	.L13:
 537 01a4 00000000 		.word	.LANCHOR0
 538              		.cfi_endproc
 539              	.LFE10:
 540              		.size	compress, .-compress
 541              		.section	.text._HMAC,"ax",%progbits
 542              		.align	2
 543              		.code	16
 544              		.thumb_func
 545              		.type	_HMAC, %function
 546              	_HMAC:
 547              	.LFB1:
 113:strong-arm\src\pbkdf2/pbkdf2.c **** 	SHA256_STATE sha256_state = {0};
 548              		.loc 1 113 0
 549              		.cfi_startproc
 550              		@ args = 8, pretend = 0, frame = 184
 551              		@ frame_needed = 0, uses_anonymous_args = 0
 552              	.LVL84:
 553 0000 F0B5     		push	{r4, r5, r6, r7, lr}
 554              		.cfi_def_cfa_offset 20
ARM GAS  C:\Users\Ray\AppData\Local\Temp\cc6moPgl.s 			page 16


 555              		.cfi_offset 4, -20
 556              		.cfi_offset 5, -16
 557              		.cfi_offset 6, -12
 558              		.cfi_offset 7, -8
 559              		.cfi_offset 14, -4
 560 0002 B1B0     		sub	sp, sp, #196
 561              		.cfi_def_cfa_offset 216
 562 0004 0500     		movs	r5, r0
 563 0006 0391     		str	r1, [sp, #12]
 564 0008 1600     		movs	r6, r2
 565 000a 1F00     		movs	r7, r3
 566 000c 379C     		ldr	r4, [sp, #220]
 114:strong-arm\src\pbkdf2/pbkdf2.c **** 	uint8_t padded_key[64] = {0};
 567              		.loc 1 114 0
 568 000e 6822     		movs	r2, #104
 569              	.LVL85:
 570 0010 0021     		movs	r1, #0
 571              	.LVL86:
 572 0012 16A8     		add	r0, sp, #88
 573              	.LVL87:
 574 0014 FFF7FEFF 		bl	memset
 575              	.LVL88:
 115:strong-arm\src\pbkdf2/pbkdf2.c **** 	uint8_t blocknum_str[] = {(uint8_t)(blocknum >> 24), (uint8_t)(blocknum >> 16), (uint8_t)(blocknum
 576              		.loc 1 115 0
 577 0018 4022     		movs	r2, #64
 578 001a 0021     		movs	r1, #0
 579 001c 06A8     		add	r0, sp, #24
 580 001e FFF7FEFF 		bl	memset
 581              	.LVL89:
 116:strong-arm\src\pbkdf2/pbkdf2.c **** 	
 582              		.loc 1 116 0
 583 0022 220E     		lsrs	r2, r4, #24
 584 0024 05AB     		add	r3, sp, #20
 585 0026 1A70     		strb	r2, [r3]
 586 0028 220C     		lsrs	r2, r4, #16
 587 002a 5A70     		strb	r2, [r3, #1]
 588 002c 220A     		lsrs	r2, r4, #8
 589 002e 9A70     		strb	r2, [r3, #2]
 590 0030 DC70     		strb	r4, [r3, #3]
 120:strong-arm\src\pbkdf2/pbkdf2.c **** 		SHA256 (padded_key, key, klen);
 591              		.loc 1 120 0
 592 0032 402E     		cmp	r6, #64
 593 0034 06D9     		bls	.L16
 121:strong-arm\src\pbkdf2/pbkdf2.c **** 	else
 594              		.loc 1 121 0
 595 0036 3200     		movs	r2, r6
 596 0038 0399     		ldr	r1, [sp, #12]
 597 003a 06A8     		add	r0, sp, #24
 598 003c FFF7FEFF 		bl	SHA256
 599              	.LVL90:
 600              	.L18:
 113:strong-arm\src\pbkdf2/pbkdf2.c **** 	SHA256_STATE sha256_state = {0};
 601              		.loc 1 113 0 discriminator 1
 602 0040 0023     		movs	r3, #0
 603 0042 0BE0     		b	.L17
 604              	.L16:
 123:strong-arm\src\pbkdf2/pbkdf2.c **** 	
ARM GAS  C:\Users\Ray\AppData\Local\Temp\cc6moPgl.s 			page 17


 605              		.loc 1 123 0
 606 0044 3200     		movs	r2, r6
 607 0046 0399     		ldr	r1, [sp, #12]
 608 0048 06A8     		add	r0, sp, #24
 609 004a FFF7FEFF 		bl	memmove
 610              	.LVL91:
 611 004e F7E7     		b	.L18
 612              	.LVL92:
 613              	.L19:
 614              	.LBB35:
 127:strong-arm\src\pbkdf2/pbkdf2.c **** 	SHA256_partial (NULL, &sha256_state, padded_key, 64, true, false);
 615              		.loc 1 127 0 discriminator 3
 616 0050 06A9     		add	r1, sp, #24
 617 0052 C85C     		ldrb	r0, [r1, r3]
 618 0054 3622     		movs	r2, #54
 619 0056 4240     		eors	r2, r0
 620 0058 CA54     		strb	r2, [r1, r3]
 126:strong-arm\src\pbkdf2/pbkdf2.c **** 		padded_key[i] ^= 0x36;
 621              		.loc 1 126 0 discriminator 3
 622 005a 0133     		adds	r3, r3, #1
 623              	.LVL93:
 624              	.L17:
 126:strong-arm\src\pbkdf2/pbkdf2.c **** 		padded_key[i] ^= 0x36;
 625              		.loc 1 126 0 is_stmt 0 discriminator 1
 626 005c 3F2B     		cmp	r3, #63
 627 005e F7D9     		bls	.L19
 628              	.LBE35:
 128:strong-arm\src\pbkdf2/pbkdf2.c **** 	SHA256_partial (NULL, &sha256_state, salt, saltlen, false, false);
 629              		.loc 1 128 0 is_stmt 1
 630 0060 0024     		movs	r4, #0
 631 0062 0194     		str	r4, [sp, #4]
 632 0064 0126     		movs	r6, #1
 633              	.LVL94:
 634 0066 0096     		str	r6, [sp]
 635 0068 4023     		movs	r3, #64
 636              	.LVL95:
 637 006a 06AA     		add	r2, sp, #24
 638 006c 16A9     		add	r1, sp, #88
 639 006e 0020     		movs	r0, #0
 640 0070 FFF7FEFF 		bl	SHA256_partial
 641              	.LVL96:
 129:strong-arm\src\pbkdf2/pbkdf2.c **** 	SHA256_partial (hash, &sha256_state, blocknum_str, 4, false, true);
 642              		.loc 1 129 0
 643 0074 0194     		str	r4, [sp, #4]
 644 0076 0094     		str	r4, [sp]
 645 0078 369B     		ldr	r3, [sp, #216]
 646 007a 3A00     		movs	r2, r7
 647 007c 16A9     		add	r1, sp, #88
 648 007e 0020     		movs	r0, #0
 649 0080 FFF7FEFF 		bl	SHA256_partial
 650              	.LVL97:
 130:strong-arm\src\pbkdf2/pbkdf2.c **** 	
 651              		.loc 1 130 0
 652 0084 0196     		str	r6, [sp, #4]
 653 0086 0094     		str	r4, [sp]
 654 0088 0423     		movs	r3, #4
 655 008a 05AA     		add	r2, sp, #20
ARM GAS  C:\Users\Ray\AppData\Local\Temp\cc6moPgl.s 			page 18


 656 008c 16A9     		add	r1, sp, #88
 657 008e 2800     		movs	r0, r5
 658 0090 FFF7FEFF 		bl	SHA256_partial
 659              	.LVL98:
 660              	.LBB36:
 134:strong-arm\src\pbkdf2/pbkdf2.c **** 		padded_key[i] ^= 0x36 ^ 0x5C;
 661              		.loc 1 134 0
 662 0094 0023     		movs	r3, #0
 663 0096 05E0     		b	.L20
 664              	.LVL99:
 665              	.L21:
 135:strong-arm\src\pbkdf2/pbkdf2.c **** 	SHA256_partial (NULL, &sha256_state, padded_key, 64, true, false);
 666              		.loc 1 135 0 discriminator 3
 667 0098 06A9     		add	r1, sp, #24
 668 009a C85C     		ldrb	r0, [r1, r3]
 669 009c 6A22     		movs	r2, #106
 670 009e 4240     		eors	r2, r0
 671 00a0 CA54     		strb	r2, [r1, r3]
 134:strong-arm\src\pbkdf2/pbkdf2.c **** 		padded_key[i] ^= 0x36 ^ 0x5C;
 672              		.loc 1 134 0 discriminator 3
 673 00a2 0133     		adds	r3, r3, #1
 674              	.LVL100:
 675              	.L20:
 134:strong-arm\src\pbkdf2/pbkdf2.c **** 		padded_key[i] ^= 0x36 ^ 0x5C;
 676              		.loc 1 134 0 is_stmt 0 discriminator 1
 677 00a4 3F2B     		cmp	r3, #63
 678 00a6 F7D9     		bls	.L21
 679              	.LBE36:
 136:strong-arm\src\pbkdf2/pbkdf2.c **** 	SHA256_partial (hash, &sha256_state, hash, 32, false, true);
 680              		.loc 1 136 0 is_stmt 1
 681 00a8 0024     		movs	r4, #0
 682 00aa 0194     		str	r4, [sp, #4]
 683 00ac 0126     		movs	r6, #1
 684 00ae 0096     		str	r6, [sp]
 685 00b0 4023     		movs	r3, #64
 686              	.LVL101:
 687 00b2 06AA     		add	r2, sp, #24
 688 00b4 16A9     		add	r1, sp, #88
 689 00b6 0020     		movs	r0, #0
 690 00b8 FFF7FEFF 		bl	SHA256_partial
 691              	.LVL102:
 137:strong-arm\src\pbkdf2/pbkdf2.c **** 	
 692              		.loc 1 137 0
 693 00bc 0196     		str	r6, [sp, #4]
 694 00be 0094     		str	r4, [sp]
 695 00c0 2023     		movs	r3, #32
 696 00c2 2A00     		movs	r2, r5
 697 00c4 16A9     		add	r1, sp, #88
 698 00c6 2800     		movs	r0, r5
 699 00c8 FFF7FEFF 		bl	SHA256_partial
 700              	.LVL103:
 140:strong-arm\src\pbkdf2/pbkdf2.c **** 
 701              		.loc 1 140 0
 702 00cc 31B0     		add	sp, sp, #196
 703              		@ sp needed
 704              	.LVL104:
 705              	.LVL105:
ARM GAS  C:\Users\Ray\AppData\Local\Temp\cc6moPgl.s 			page 19


 706 00ce F0BD     		pop	{r4, r5, r6, r7, pc}
 707              		.cfi_endproc
 708              	.LFE1:
 709              		.size	_HMAC, .-_HMAC
 710              		.section	.text.PBKDF2,"ax",%progbits
 711              		.align	2
 712              		.global	PBKDF2
 713              		.code	16
 714              		.thumb_func
 715              		.type	PBKDF2, %function
 716              	PBKDF2:
 717              	.LFB0:
  22:strong-arm\src\pbkdf2/pbkdf2.c **** 	uint32_t block_count = keylen / 32;
 718              		.loc 1 22 0
 719              		.cfi_startproc
 720              		@ args = 12, pretend = 0, frame = 272
 721              		@ frame_needed = 0, uses_anonymous_args = 0
 722              	.LVL106:
 723 0000 F0B5     		push	{r4, r5, r6, r7, lr}
 724              		.cfi_def_cfa_offset 20
 725              		.cfi_offset 4, -20
 726              		.cfi_offset 5, -16
 727              		.cfi_offset 6, -12
 728              		.cfi_offset 7, -8
 729              		.cfi_offset 14, -4
 730 0002 5746     		mov	r7, r10
 731 0004 4646     		mov	r6, r8
 732 0006 C0B4     		push	{r6, r7}
 733              		.cfi_def_cfa_offset 28
 734              		.cfi_offset 8, -28
 735              		.cfi_offset 10, -24
 736 0008 C7B0     		sub	sp, sp, #284
 737              		.cfi_def_cfa_offset 312
 738 000a 8046     		mov	r8, r0
 739 000c 0391     		str	r1, [sp, #12]
 740 000e 0492     		str	r2, [sp, #16]
 741 0010 0593     		str	r3, [sp, #20]
 742 0012 4E9B     		ldr	r3, [sp, #312]
 743              	.LVL107:
 744 0014 9A46     		mov	r10, r3
 745 0016 4F9D     		ldr	r5, [sp, #316]
  23:strong-arm\src\pbkdf2/pbkdf2.c **** 	uint32_t sha256_state0[8] = {0};
 746              		.loc 1 23 0
 747 0018 509B     		ldr	r3, [sp, #320]
 748 001a 5E09     		lsrs	r6, r3, #5
 749              	.LVL108:
  24:strong-arm\src\pbkdf2/pbkdf2.c **** 	uint32_t sha256_state1[8] = {0};
 750              		.loc 1 24 0
 751 001c 2022     		movs	r2, #32
 752              	.LVL109:
 753 001e 0021     		movs	r1, #0
 754              	.LVL110:
 755 0020 3EA8     		add	r0, sp, #248
 756              	.LVL111:
 757 0022 FFF7FEFF 		bl	memset
 758              	.LVL112:
  25:strong-arm\src\pbkdf2/pbkdf2.c **** 	
ARM GAS  C:\Users\Ray\AppData\Local\Temp\cc6moPgl.s 			page 20


 759              		.loc 1 25 0
 760 0026 2022     		movs	r2, #32
 761 0028 0021     		movs	r1, #0
 762 002a 36A8     		add	r0, sp, #216
 763 002c FFF7FEFF 		bl	memset
 764              	.LVL113:
  27:strong-arm\src\pbkdf2/pbkdf2.c **** 		block_count += 1;
 765              		.loc 1 27 0
 766 0030 509B     		ldr	r3, [sp, #320]
 767 0032 DB06     		lsls	r3, r3, #27
 768 0034 00D0     		beq	.L23
  28:strong-arm\src\pbkdf2/pbkdf2.c **** 
 769              		.loc 1 28 0
 770 0036 0136     		adds	r6, r6, #1
 771              	.LVL114:
 772              	.L23:
 773              	.LBB37:
  32:strong-arm\src\pbkdf2/pbkdf2.c **** 		uint32_t chunk[16] = {0};
 774              		.loc 1 32 0
 775 0038 4022     		movs	r2, #64
 776 003a 0021     		movs	r1, #0
 777 003c 16A8     		add	r0, sp, #88
 778 003e FFF7FEFF 		bl	memset
 779              	.LVL115:
  33:strong-arm\src\pbkdf2/pbkdf2.c **** 
 780              		.loc 1 33 0
 781 0042 4022     		movs	r2, #64
 782 0044 0021     		movs	r1, #0
 783 0046 26A8     		add	r0, sp, #152
 784 0048 FFF7FEFF 		bl	memset
 785              	.LVL116:
  35:strong-arm\src\pbkdf2/pbkdf2.c **** 			SHA256 (padded_key, password, passlen);
 786              		.loc 1 35 0
 787 004c 049B     		ldr	r3, [sp, #16]
 788 004e 402B     		cmp	r3, #64
 789 0050 05D9     		bls	.L24
  36:strong-arm\src\pbkdf2/pbkdf2.c **** 		else
 790              		.loc 1 36 0
 791 0052 1A00     		movs	r2, r3
 792 0054 0399     		ldr	r1, [sp, #12]
 793 0056 16A8     		add	r0, sp, #88
 794 0058 FFF7FEFF 		bl	SHA256
 795              	.LVL117:
 796 005c 04E0     		b	.L25
 797              	.L24:
  38:strong-arm\src\pbkdf2/pbkdf2.c **** 
 798              		.loc 1 38 0
 799 005e 049A     		ldr	r2, [sp, #16]
 800 0060 0399     		ldr	r1, [sp, #12]
 801 0062 16A8     		add	r0, sp, #88
 802 0064 FFF7FEFF 		bl	memmove
 803              	.LVL118:
 804              	.L25:
  40:strong-arm\src\pbkdf2/pbkdf2.c **** 
 805              		.loc 1 40 0
 806 0068 16A9     		add	r1, sp, #88
 807 006a 26A8     		add	r0, sp, #152
ARM GAS  C:\Users\Ray\AppData\Local\Temp\cc6moPgl.s 			page 21


 808 006c FFF7FEFF 		bl	_deserialize
 809              	.LVL119:
 810              	.LBB38:
  42:strong-arm\src\pbkdf2/pbkdf2.c **** 		{
 811              		.loc 1 42 0
 812 0070 0021     		movs	r1, #0
 813 0072 06E0     		b	.L26
 814              	.LVL120:
 815              	.L27:
  44:strong-arm\src\pbkdf2/pbkdf2.c **** 		}
 816              		.loc 1 44 0 discriminator 3
 817 0074 26AA     		add	r2, sp, #152
 818 0076 8800     		lsls	r0, r1, #2
 819 0078 464B     		ldr	r3, .L40
 820 007a 8458     		ldr	r4, [r0, r2]
 821 007c 6340     		eors	r3, r4
 822 007e 8350     		str	r3, [r0, r2]
  42:strong-arm\src\pbkdf2/pbkdf2.c **** 		{
 823              		.loc 1 42 0 discriminator 3
 824 0080 0131     		adds	r1, r1, #1
 825              	.LVL121:
 826              	.L26:
  42:strong-arm\src\pbkdf2/pbkdf2.c **** 		{
 827              		.loc 1 42 0 is_stmt 0 discriminator 1
 828 0082 0F29     		cmp	r1, #15
 829 0084 F6DD     		ble	.L27
 830              	.LBE38:
  46:strong-arm\src\pbkdf2/pbkdf2.c **** 
 831              		.loc 1 46 0 is_stmt 1
 832 0086 26AA     		add	r2, sp, #152
 833 0088 4349     		ldr	r1, .L40+4
 834              	.LVL122:
 835 008a 3EA8     		add	r0, sp, #248
 836 008c FFF7FEFF 		bl	compress
 837              	.LVL123:
 838              	.LBB39:
  48:strong-arm\src\pbkdf2/pbkdf2.c **** 		{
 839              		.loc 1 48 0
 840 0090 0021     		movs	r1, #0
 841 0092 06E0     		b	.L28
 842              	.LVL124:
 843              	.L29:
  50:strong-arm\src\pbkdf2/pbkdf2.c **** 		}
 844              		.loc 1 50 0 discriminator 3
 845 0094 26AA     		add	r2, sp, #152
 846 0096 8800     		lsls	r0, r1, #2
 847 0098 404B     		ldr	r3, .L40+8
 848 009a 8458     		ldr	r4, [r0, r2]
 849 009c 6340     		eors	r3, r4
 850 009e 8350     		str	r3, [r0, r2]
  48:strong-arm\src\pbkdf2/pbkdf2.c **** 		{
 851              		.loc 1 48 0 discriminator 3
 852 00a0 0131     		adds	r1, r1, #1
 853              	.LVL125:
 854              	.L28:
  48:strong-arm\src\pbkdf2/pbkdf2.c **** 		{
 855              		.loc 1 48 0 is_stmt 0 discriminator 1
ARM GAS  C:\Users\Ray\AppData\Local\Temp\cc6moPgl.s 			page 22


 856 00a2 0F29     		cmp	r1, #15
 857 00a4 F6D9     		bls	.L29
 858              	.LBE39:
  52:strong-arm\src\pbkdf2/pbkdf2.c **** 	}
 859              		.loc 1 52 0 is_stmt 1
 860 00a6 26AA     		add	r2, sp, #152
 861 00a8 3B49     		ldr	r1, .L40+4
 862              	.LVL126:
 863 00aa 36A8     		add	r0, sp, #216
 864 00ac FFF7FEFF 		bl	compress
 865              	.LVL127:
 866              	.LBE37:
 867              	.LBB40:
  56:strong-arm\src\pbkdf2/pbkdf2.c **** 	{
 868              		.loc 1 56 0
 869 00b0 0127     		movs	r7, #1
 870 00b2 68E0     		b	.L30
 871              	.LVL128:
 872              	.L39:
 873              	.LBB41:
  58:strong-arm\src\pbkdf2/pbkdf2.c **** 		uint32_t U[8] = {0};
 874              		.loc 1 58 0
 875 00b4 4022     		movs	r2, #64
 876 00b6 0021     		movs	r1, #0
 877 00b8 16A8     		add	r0, sp, #88
 878 00ba FFF7FEFF 		bl	memset
 879              	.LVL129:
  59:strong-arm\src\pbkdf2/pbkdf2.c **** 		uint8_t block_data[32] = {0};
 880              		.loc 1 59 0
 881 00be 2022     		movs	r2, #32
 882 00c0 0021     		movs	r1, #0
 883 00c2 06A8     		add	r0, sp, #24
 884 00c4 FFF7FEFF 		bl	memset
 885              	.LVL130:
  60:strong-arm\src\pbkdf2/pbkdf2.c **** 
 886              		.loc 1 60 0
 887 00c8 2022     		movs	r2, #32
 888 00ca 0021     		movs	r1, #0
 889 00cc 0EA8     		add	r0, sp, #56
 890 00ce FFF7FEFF 		bl	memset
 891              	.LVL131:
 892              	.LBB42:
  64:strong-arm\src\pbkdf2/pbkdf2.c **** 
 893              		.loc 1 64 0
 894 00d2 4022     		movs	r2, #64
 895 00d4 0021     		movs	r1, #0
 896 00d6 26A8     		add	r0, sp, #152
 897 00d8 FFF7FEFF 		bl	memset
 898              	.LVL132:
  66:strong-arm\src\pbkdf2/pbkdf2.c **** 			_deserialize (T, salted);
 899              		.loc 1 66 0
 900 00dc 0197     		str	r7, [sp, #4]
 901 00de 5346     		mov	r3, r10
 902 00e0 0093     		str	r3, [sp]
 903 00e2 059B     		ldr	r3, [sp, #20]
 904 00e4 049A     		ldr	r2, [sp, #16]
 905 00e6 0399     		ldr	r1, [sp, #12]
ARM GAS  C:\Users\Ray\AppData\Local\Temp\cc6moPgl.s 			page 23


 906 00e8 26A8     		add	r0, sp, #152
 907 00ea FFF7FEFF 		bl	_HMAC
 908              	.LVL133:
  67:strong-arm\src\pbkdf2/pbkdf2.c **** 		}
 909              		.loc 1 67 0
 910 00ee 26A9     		add	r1, sp, #152
 911 00f0 16A8     		add	r0, sp, #88
 912 00f2 FFF7FEFF 		bl	_deserialize
 913              	.LVL134:
 914              	.LBE42:
 915              	.LBB43:
  71:strong-arm\src\pbkdf2/pbkdf2.c **** 		{
 916              		.loc 1 71 0
 917 00f6 0023     		movs	r3, #0
 918 00f8 05E0     		b	.L31
 919              	.LVL135:
 920              	.L32:
  73:strong-arm\src\pbkdf2/pbkdf2.c **** 		}
 921              		.loc 1 73 0 discriminator 3
 922 00fa 9A00     		lsls	r2, r3, #2
 923 00fc 16A9     		add	r1, sp, #88
 924 00fe 5058     		ldr	r0, [r2, r1]
 925 0100 06A9     		add	r1, sp, #24
 926 0102 5050     		str	r0, [r2, r1]
  71:strong-arm\src\pbkdf2/pbkdf2.c **** 		{
 927              		.loc 1 71 0 discriminator 3
 928 0104 0133     		adds	r3, r3, #1
 929              	.LVL136:
 930              	.L31:
  71:strong-arm\src\pbkdf2/pbkdf2.c **** 		{
 931              		.loc 1 71 0 is_stmt 0 discriminator 1
 932 0106 072B     		cmp	r3, #7
 933 0108 F7DD     		ble	.L32
 934              	.LBE43:
  77:strong-arm\src\pbkdf2/pbkdf2.c **** 		T[14] = 0;
 935              		.loc 1 77 0 is_stmt 1
 936 010a 8023     		movs	r3, #128
 937              	.LVL137:
 938 010c 1B06     		lsls	r3, r3, #24
 939 010e 1E93     		str	r3, [sp, #120]
  78:strong-arm\src\pbkdf2/pbkdf2.c **** 		T[15] = 768;
 940              		.loc 1 78 0
 941 0110 0023     		movs	r3, #0
 942 0112 2493     		str	r3, [sp, #144]
  79:strong-arm\src\pbkdf2/pbkdf2.c **** 		
 943              		.loc 1 79 0
 944 0114 C023     		movs	r3, #192
 945 0116 9B00     		lsls	r3, r3, #2
 946 0118 2593     		str	r3, [sp, #148]
 947              	.LVL138:
 948              	.LBB44:
  82:strong-arm\src\pbkdf2/pbkdf2.c **** 		{
 949              		.loc 1 82 0
 950 011a 0124     		movs	r4, #1
 951 011c 18E0     		b	.L33
 952              	.LVL139:
 953              	.L36:
ARM GAS  C:\Users\Ray\AppData\Local\Temp\cc6moPgl.s 			page 24


  85:strong-arm\src\pbkdf2/pbkdf2.c **** 			compress (T, sha256_state1, T);
 954              		.loc 1 85 0
 955 011e 16AA     		add	r2, sp, #88
 956 0120 3EA9     		add	r1, sp, #248
 957 0122 1000     		movs	r0, r2
 958 0124 FFF7FEFF 		bl	compress
 959              	.LVL140:
  86:strong-arm\src\pbkdf2/pbkdf2.c **** 			
 960              		.loc 1 86 0
 961 0128 16AA     		add	r2, sp, #88
 962 012a 36A9     		add	r1, sp, #216
 963 012c 1000     		movs	r0, r2
 964 012e FFF7FEFF 		bl	compress
 965              	.LVL141:
 966              	.LBB45:
  89:strong-arm\src\pbkdf2/pbkdf2.c **** 				U[j] ^= T[j];
 967              		.loc 1 89 0
 968 0132 0021     		movs	r1, #0
 969 0134 A446     		mov	ip, r4
 970 0136 07E0     		b	.L34
 971              	.LVL142:
 972              	.L35:
  90:strong-arm\src\pbkdf2/pbkdf2.c **** 		}
 973              		.loc 1 90 0 discriminator 3
 974 0138 8B00     		lsls	r3, r1, #2
 975 013a 16AA     		add	r2, sp, #88
 976 013c 9A58     		ldr	r2, [r3, r2]
 977 013e 06A8     		add	r0, sp, #24
 978 0140 1C58     		ldr	r4, [r3, r0]
 979 0142 6240     		eors	r2, r4
 980 0144 1A50     		str	r2, [r3, r0]
  89:strong-arm\src\pbkdf2/pbkdf2.c **** 				U[j] ^= T[j];
 981              		.loc 1 89 0 discriminator 3
 982 0146 0131     		adds	r1, r1, #1
 983              	.LVL143:
 984              	.L34:
  89:strong-arm\src\pbkdf2/pbkdf2.c **** 				U[j] ^= T[j];
 985              		.loc 1 89 0 is_stmt 0 discriminator 1
 986 0148 0729     		cmp	r1, #7
 987 014a F5D9     		bls	.L35
 988 014c 6446     		mov	r4, ip
 989              	.LBE45:
  82:strong-arm\src\pbkdf2/pbkdf2.c **** 		{
 990              		.loc 1 82 0 is_stmt 1 discriminator 2
 991 014e 0134     		adds	r4, r4, #1
 992              	.LVL144:
 993              	.L33:
  82:strong-arm\src\pbkdf2/pbkdf2.c **** 		{
 994              		.loc 1 82 0 is_stmt 0 discriminator 1
 995 0150 AC42     		cmp	r4, r5
 996 0152 E4D3     		bcc	.L36
 997              	.LBE44:
  93:strong-arm\src\pbkdf2/pbkdf2.c **** 		
 998              		.loc 1 93 0 is_stmt 1
 999 0154 06A9     		add	r1, sp, #24
 1000 0156 0EA8     		add	r0, sp, #56
 1001 0158 FFF7FEFF 		bl	_serialize
ARM GAS  C:\Users\Ray\AppData\Local\Temp\cc6moPgl.s 			page 25


 1002              	.LVL145:
  96:strong-arm\src\pbkdf2/pbkdf2.c **** 		{
 1003              		.loc 1 96 0
 1004 015c BE42     		cmp	r6, r7
 1005 015e 09D1     		bne	.L37
  98:strong-arm\src\pbkdf2/pbkdf2.c **** 			break;	/* Prevents overflow of block_num in the extreme case */
 1006              		.loc 1 98 0
 1007 0160 0F4B     		ldr	r3, .L40+12
 1008 0162 F818     		adds	r0, r7, r3
 1009 0164 4001     		lsls	r0, r0, #5
 1010 0166 509B     		ldr	r3, [sp, #320]
 1011 0168 1A1A     		subs	r2, r3, r0
 1012 016a 4044     		add	r0, r0, r8
 1013 016c 0EA9     		add	r1, sp, #56
 1014 016e FFF7FEFF 		bl	memmove
 1015              	.LVL146:
 1016 0172 0AE0     		b	.L22
 1017              	.L37:
 103:strong-arm\src\pbkdf2/pbkdf2.c **** 		}
 1018              		.loc 1 103 0
 1019 0174 0A4B     		ldr	r3, .L40+12
 1020 0176 F818     		adds	r0, r7, r3
 1021 0178 4001     		lsls	r0, r0, #5
 1022 017a 4044     		add	r0, r0, r8
 1023 017c 2022     		movs	r2, #32
 1024 017e 0EA9     		add	r1, sp, #56
 1025 0180 FFF7FEFF 		bl	memmove
 1026              	.LVL147:
 1027              	.LBE41:
  56:strong-arm\src\pbkdf2/pbkdf2.c **** 	{
 1028              		.loc 1 56 0
 1029 0184 0137     		adds	r7, r7, #1
 1030              	.LVL148:
 1031              	.L30:
  56:strong-arm\src\pbkdf2/pbkdf2.c **** 	{
 1032              		.loc 1 56 0 is_stmt 0 discriminator 1
 1033 0186 BE42     		cmp	r6, r7
 1034 0188 94D2     		bcs	.L39
 1035              	.L22:
 1036              	.LBE40:
 106:strong-arm\src\pbkdf2/pbkdf2.c **** 
 1037              		.loc 1 106 0 is_stmt 1
 1038 018a 47B0     		add	sp, sp, #284
 1039              		@ sp needed
 1040              	.LVL149:
 1041              	.LVL150:
 1042              	.LVL151:
 1043 018c 0CBC     		pop	{r2, r3}
 1044 018e 9046     		mov	r8, r2
 1045 0190 9A46     		mov	r10, r3
 1046 0192 F0BD     		pop	{r4, r5, r6, r7, pc}
 1047              	.L41:
 1048              		.align	2
 1049              	.L40:
 1050 0194 36363636 		.word	909522486
 1051 0198 00010000 		.word	.LANCHOR1
 1052 019c 6A6A6A6A 		.word	1785358954
ARM GAS  C:\Users\Ray\AppData\Local\Temp\cc6moPgl.s 			page 26


 1053 01a0 FFFFFF07 		.word	134217727
 1054              		.cfi_endproc
 1055              	.LFE0:
 1056              		.size	PBKDF2, .-PBKDF2
 1057              		.section	.rodata
 1058              		.align	2
 1059              		.set	.LANCHOR0,. + 0
 1060              		.set	.LANCHOR1,. + 256
 1061              		.type	kk, %object
 1062              		.size	kk, 256
 1063              	kk:
 1064 0000 982F8A42 		.word	1116352408
 1065 0004 91443771 		.word	1899447441
 1066 0008 CFFBC0B5 		.word	-1245643825
 1067 000c A5DBB5E9 		.word	-373957723
 1068 0010 5BC25639 		.word	961987163
 1069 0014 F111F159 		.word	1508970993
 1070 0018 A4823F92 		.word	-1841331548
 1071 001c D55E1CAB 		.word	-1424204075
 1072 0020 98AA07D8 		.word	-670586216
 1073 0024 015B8312 		.word	310598401
 1074 0028 BE853124 		.word	607225278
 1075 002c C37D0C55 		.word	1426881987
 1076 0030 745DBE72 		.word	1925078388
 1077 0034 FEB1DE80 		.word	-2132889090
 1078 0038 A706DC9B 		.word	-1680079193
 1079 003c 74F19BC1 		.word	-1046744716
 1080 0040 C1699BE4 		.word	-459576895
 1081 0044 8647BEEF 		.word	-272742522
 1082 0048 C69DC10F 		.word	264347078
 1083 004c CCA10C24 		.word	604807628
 1084 0050 6F2CE92D 		.word	770255983
 1085 0054 AA84744A 		.word	1249150122
 1086 0058 DCA9B05C 		.word	1555081692
 1087 005c DA88F976 		.word	1996064986
 1088 0060 52513E98 		.word	-1740746414
 1089 0064 6DC631A8 		.word	-1473132947
 1090 0068 C82703B0 		.word	-1341970488
 1091 006c C77F59BF 		.word	-1084653625
 1092 0070 F30BE0C6 		.word	-958395405
 1093 0074 4791A7D5 		.word	-710438585
 1094 0078 5163CA06 		.word	113926993
 1095 007c 67292914 		.word	338241895
 1096 0080 850AB727 		.word	666307205
 1097 0084 38211B2E 		.word	773529912
 1098 0088 FC6D2C4D 		.word	1294757372
 1099 008c 130D3853 		.word	1396182291
 1100 0090 54730A65 		.word	1695183700
 1101 0094 BB0A6A76 		.word	1986661051
 1102 0098 2EC9C281 		.word	-2117940946
 1103 009c 852C7292 		.word	-1838011259
 1104 00a0 A1E8BFA2 		.word	-1564481375
 1105 00a4 4B661AA8 		.word	-1474664885
 1106 00a8 708B4BC2 		.word	-1035236496
 1107 00ac A3516CC7 		.word	-949202525
 1108 00b0 19E892D1 		.word	-778901479
 1109 00b4 240699D6 		.word	-694614492
ARM GAS  C:\Users\Ray\AppData\Local\Temp\cc6moPgl.s 			page 27


 1110 00b8 85350EF4 		.word	-200395387
 1111 00bc 70A06A10 		.word	275423344
 1112 00c0 16C1A419 		.word	430227734
 1113 00c4 086C371E 		.word	506948616
 1114 00c8 4C774827 		.word	659060556
 1115 00cc B5BCB034 		.word	883997877
 1116 00d0 B30C1C39 		.word	958139571
 1117 00d4 4AAAD84E 		.word	1322822218
 1118 00d8 4FCA9C5B 		.word	1537002063
 1119 00dc F36F2E68 		.word	1747873779
 1120 00e0 EE828F74 		.word	1955562222
 1121 00e4 6F63A578 		.word	2024104815
 1122 00e8 1478C884 		.word	-2067236844
 1123 00ec 0802C78C 		.word	-1933114872
 1124 00f0 FAFFBE90 		.word	-1866530822
 1125 00f4 EB6C50A4 		.word	-1538233109
 1126 00f8 F7A3F9BE 		.word	-1090935817
 1127 00fc F27871C6 		.word	-965641998
 1128              		.type	initial_state, %object
 1129              		.size	initial_state, 32
 1130              	initial_state:
 1131 0100 67E6096A 		.word	1779033703
 1132 0104 85AE67BB 		.word	-1150833019
 1133 0108 72F36E3C 		.word	1013904242
 1134 010c 3AF54FA5 		.word	-1521486534
 1135 0110 7F520E51 		.word	1359893119
 1136 0114 8C68059B 		.word	-1694144372
 1137 0118 ABD9831F 		.word	528734635
 1138 011c 19CDE05B 		.word	1541459225
 1139              		.text
 1140              	.Letext0:
 1141              		.file 2 "c:\\program files (x86)\\cypress\\psoc creator\\4.1\\psoc creator\\import\\gnu\\arm\\5.4.
 1142              		.file 3 "c:\\program files (x86)\\cypress\\psoc creator\\4.1\\psoc creator\\import\\gnu\\arm\\5.4.
 1143              		.file 4 ".\\strong-arm\\include/strong-arm/sha256.h"
 1144              		.file 5 "c:\\program files (x86)\\cypress\\psoc creator\\4.1\\psoc creator\\import\\gnu\\arm\\5.4.