ARM GAS  C:\Users\Ray\AppData\Local\Temp\ccdgjwii.s 			page 1


   1              		.syntax unified
   2              		.cpu cortex-m0
   3              		.fpu softvfp
   4              		.eabi_attribute 20, 1
   5              		.eabi_attribute 21, 1
   6              		.eabi_attribute 23, 3
   7              		.eabi_attribute 24, 1
   8              		.eabi_attribute 25, 1
   9              		.eabi_attribute 26, 1
  10              		.eabi_attribute 30, 1
  11              		.eabi_attribute 34, 0
  12              		.eabi_attribute 18, 4
  13              		.thumb
  14              		.syntax unified
  15              		.file	"ripemd160.c"
  16              		.text
  17              	.Ltext0:
  18              		.cfi_sections	.debug_frame
  19              		.section	.text.compress,"ax",%progbits
  20              		.align	2
  21              		.code	16
  22              		.thumb_func
  23              		.type	compress, %function
  24              	compress:
  25              	.LFB0:
  26              		.file 1 "strong-arm\\src\\ripemd160\\ripemd160.c"
   1:strong-arm\src\ripemd160/ripemd160.c **** #include <strong-arm/ripemd160.h>
   2:strong-arm\src\ripemd160/ripemd160.c **** #include <string.h>
   3:strong-arm\src\ripemd160/ripemd160.c **** 
   4:strong-arm\src\ripemd160/ripemd160.c **** 
   5:strong-arm\src\ripemd160/ripemd160.c **** #define ROL(x, n)	(((x) << (n)) | ((x) >> (32-(n))))
   6:strong-arm\src\ripemd160/ripemd160.c **** 
   7:strong-arm\src\ripemd160/ripemd160.c **** #define F(x, y, z)		((x) ^ (y) ^ (z)) 
   8:strong-arm\src\ripemd160/ripemd160.c **** #define G(x, y, z)		(((x) & (y)) | (~(x) & (z))) 
   9:strong-arm\src\ripemd160/ripemd160.c **** #define H(x, y, z)		(((x) | ~(y)) ^ (z))
  10:strong-arm\src\ripemd160/ripemd160.c **** #define IQ(x, y, z)		(((x) & (z)) | ((y) & ~(z))) 
  11:strong-arm\src\ripemd160/ripemd160.c **** #define J(x, y, z)		((x) ^ ((y) | ~(z)))
  12:strong-arm\src\ripemd160/ripemd160.c **** 
  13:strong-arm\src\ripemd160/ripemd160.c **** #define FF(a, b, c, d, e, x, s)        {\
  14:strong-arm\src\ripemd160/ripemd160.c ****       (a) += F((b), (c), (d)) + (x);\
  15:strong-arm\src\ripemd160/ripemd160.c ****       (a) = ROL((a), (s)) + (e);\
  16:strong-arm\src\ripemd160/ripemd160.c ****       (c) = ROL((c), 10);\
  17:strong-arm\src\ripemd160/ripemd160.c ****    }
  18:strong-arm\src\ripemd160/ripemd160.c **** #define GG(a, b, c, d, e, x, s)        {\
  19:strong-arm\src\ripemd160/ripemd160.c ****       (a) += G((b), (c), (d)) + (x) + 0x5a827999UL;\
  20:strong-arm\src\ripemd160/ripemd160.c ****       (a) = ROL((a), (s)) + (e);\
  21:strong-arm\src\ripemd160/ripemd160.c ****       (c) = ROL((c), 10);\
  22:strong-arm\src\ripemd160/ripemd160.c ****    }
  23:strong-arm\src\ripemd160/ripemd160.c **** #define HH(a, b, c, d, e, x, s)        {\
  24:strong-arm\src\ripemd160/ripemd160.c ****       (a) += H((b), (c), (d)) + (x) + 0x6ed9eba1UL;\
  25:strong-arm\src\ripemd160/ripemd160.c ****       (a) = ROL((a), (s)) + (e);\
  26:strong-arm\src\ripemd160/ripemd160.c ****       (c) = ROL((c), 10);\
  27:strong-arm\src\ripemd160/ripemd160.c ****    }
  28:strong-arm\src\ripemd160/ripemd160.c **** #define II(a, b, c, d, e, x, s)        {\
  29:strong-arm\src\ripemd160/ripemd160.c ****       (a) += IQ((b), (c), (d)) + (x) + 0x8f1bbcdcUL;\
  30:strong-arm\src\ripemd160/ripemd160.c ****       (a) = ROL((a), (s)) + (e);\
  31:strong-arm\src\ripemd160/ripemd160.c ****       (c) = ROL((c), 10);\
ARM GAS  C:\Users\Ray\AppData\Local\Temp\ccdgjwii.s 			page 2


  32:strong-arm\src\ripemd160/ripemd160.c ****    }
  33:strong-arm\src\ripemd160/ripemd160.c **** #define JJ(a, b, c, d, e, x, s)        {\
  34:strong-arm\src\ripemd160/ripemd160.c ****       (a) += J((b), (c), (d)) + (x) + 0xa953fd4eUL;\
  35:strong-arm\src\ripemd160/ripemd160.c ****       (a) = ROL((a), (s)) + (e);\
  36:strong-arm\src\ripemd160/ripemd160.c ****       (c) = ROL((c), 10);\
  37:strong-arm\src\ripemd160/ripemd160.c ****    }
  38:strong-arm\src\ripemd160/ripemd160.c **** #define FFF(a, b, c, d, e, x, s)        {\
  39:strong-arm\src\ripemd160/ripemd160.c ****       (a) += F((b), (c), (d)) + (x);\
  40:strong-arm\src\ripemd160/ripemd160.c ****       (a) = ROL((a), (s)) + (e);\
  41:strong-arm\src\ripemd160/ripemd160.c ****       (c) = ROL((c), 10);\
  42:strong-arm\src\ripemd160/ripemd160.c ****    }
  43:strong-arm\src\ripemd160/ripemd160.c **** #define GGG(a, b, c, d, e, x, s)        {\
  44:strong-arm\src\ripemd160/ripemd160.c ****       (a) += G((b), (c), (d)) + (x) + 0x7a6d76e9UL;\
  45:strong-arm\src\ripemd160/ripemd160.c ****       (a) = ROL((a), (s)) + (e);\
  46:strong-arm\src\ripemd160/ripemd160.c ****       (c) = ROL((c), 10);\
  47:strong-arm\src\ripemd160/ripemd160.c ****    }
  48:strong-arm\src\ripemd160/ripemd160.c **** #define HHH(a, b, c, d, e, x, s)        {\
  49:strong-arm\src\ripemd160/ripemd160.c ****       (a) += H((b), (c), (d)) + (x) + 0x6d703ef3UL;\
  50:strong-arm\src\ripemd160/ripemd160.c ****       (a) = ROL((a), (s)) + (e);\
  51:strong-arm\src\ripemd160/ripemd160.c ****       (c) = ROL((c), 10);\
  52:strong-arm\src\ripemd160/ripemd160.c ****    }
  53:strong-arm\src\ripemd160/ripemd160.c **** #define III(a, b, c, d, e, x, s)        {\
  54:strong-arm\src\ripemd160/ripemd160.c ****       (a) += IQ((b), (c), (d)) + (x) + 0x5c4dd124UL;\
  55:strong-arm\src\ripemd160/ripemd160.c ****       (a) = ROL((a), (s)) + (e);\
  56:strong-arm\src\ripemd160/ripemd160.c ****       (c) = ROL((c), 10);\
  57:strong-arm\src\ripemd160/ripemd160.c ****    }
  58:strong-arm\src\ripemd160/ripemd160.c **** #define JJJ(a, b, c, d, e, x, s)        {\
  59:strong-arm\src\ripemd160/ripemd160.c ****       (a) += J((b), (c), (d)) + (x) + 0x50a28be6UL;\
  60:strong-arm\src\ripemd160/ripemd160.c ****       (a) = ROL((a), (s)) + (e);\
  61:strong-arm\src\ripemd160/ripemd160.c ****       (c) = ROL((c), 10);\
  62:strong-arm\src\ripemd160/ripemd160.c ****    }
  63:strong-arm\src\ripemd160/ripemd160.c **** 
  64:strong-arm\src\ripemd160/ripemd160.c **** 
  65:strong-arm\src\ripemd160/ripemd160.c **** static void compress(uint32_t *MDbuf, uint32_t *X);
  66:strong-arm\src\ripemd160/ripemd160.c **** 
  67:strong-arm\src\ripemd160/ripemd160.c **** 
  68:strong-arm\src\ripemd160/ripemd160.c **** static void compress(uint32_t *MDbuf, uint32_t *X)
  69:strong-arm\src\ripemd160/ripemd160.c **** {
  27              		.loc 1 69 0
  28              		.cfi_startproc
  29              		@ args = 0, pretend = 0, frame = 88
  30              		@ frame_needed = 0, uses_anonymous_args = 0
  31              	.LVL0:
  32 0000 F0B5     		push	{r4, r5, r6, r7, lr}
  33              		.cfi_def_cfa_offset 20
  34              		.cfi_offset 4, -20
  35              		.cfi_offset 5, -16
  36              		.cfi_offset 6, -12
  37              		.cfi_offset 7, -8
  38              		.cfi_offset 14, -4
  39 0002 5F46     		mov	r7, fp
  40 0004 5646     		mov	r6, r10
  41 0006 4D46     		mov	r5, r9
  42 0008 4446     		mov	r4, r8
  43 000a F0B4     		push	{r4, r5, r6, r7}
  44              		.cfi_def_cfa_offset 36
  45              		.cfi_offset 8, -36
ARM GAS  C:\Users\Ray\AppData\Local\Temp\ccdgjwii.s 			page 3


  46              		.cfi_offset 9, -32
  47              		.cfi_offset 10, -28
  48              		.cfi_offset 11, -24
  49 000c 97B0     		sub	sp, sp, #92
  50              		.cfi_def_cfa_offset 128
  51 000e 8B46     		mov	fp, r1
  52              	.LVL1:
  70:strong-arm\src\ripemd160/ripemd160.c **** 	uint32_t aa = MDbuf[0],  bb = MDbuf[1],  cc = MDbuf[2], dd = MDbuf[3],  ee = MDbuf[4];
  71:strong-arm\src\ripemd160/ripemd160.c **** 	uint32_t aaa = MDbuf[0], bbb = MDbuf[1], ccc = MDbuf[2], ddd = MDbuf[3], eee = MDbuf[4];
  72:strong-arm\src\ripemd160/ripemd160.c **** 	
  73:strong-arm\src\ripemd160/ripemd160.c **** 	/* round 1 */
  74:strong-arm\src\ripemd160/ripemd160.c **** 	FF(aa, bb, cc, dd, ee, X[ 0], 11);
  53              		.loc 1 74 0
  54 0010 4268     		ldr	r2, [r0, #4]
  55 0012 8368     		ldr	r3, [r0, #8]
  56 0014 5A40     		eors	r2, r3
  57 0016 C368     		ldr	r3, [r0, #12]
  58 0018 5A40     		eors	r2, r3
  59 001a 0B68     		ldr	r3, [r1]
  60 001c 0093     		str	r3, [sp]
  61 001e 9C46     		mov	ip, r3
  62 0020 6244     		add	r2, r2, ip
  63 0022 0468     		ldr	r4, [r0]
  64 0024 A446     		mov	ip, r4
  65 0026 6244     		add	r2, r2, ip
  66              	.LVL2:
  67 0028 1524     		movs	r4, #21
  68 002a E241     		rors	r2, r2, r4
  69              	.LVL3:
  70 002c 0469     		ldr	r4, [r0, #16]
  71 002e A446     		mov	ip, r4
  72 0030 6244     		add	r2, r2, ip
  73              	.LVL4:
  74 0032 1623     		movs	r3, #22
  75 0034 8468     		ldr	r4, [r0, #8]
  76 0036 DC41     		rors	r4, r4, r3
  77 0038 2100     		movs	r1, r4
  78              	.LVL5:
  75:strong-arm\src\ripemd160/ripemd160.c **** 	FF(ee, aa, bb, cc, dd, X[ 1], 14);
  79              		.loc 1 75 0
  80 003a 4468     		ldr	r4, [r0, #4]
  81 003c 5440     		eors	r4, r2
  82 003e 4C40     		eors	r4, r1
  83 0040 5D46     		mov	r5, fp
  84 0042 6D68     		ldr	r5, [r5, #4]
  85 0044 0195     		str	r5, [sp, #4]
  86 0046 AC46     		mov	ip, r5
  87 0048 6444     		add	r4, r4, ip
  88 004a 0769     		ldr	r7, [r0, #16]
  89 004c BC46     		mov	ip, r7
  90 004e 6444     		add	r4, r4, ip
  91              	.LVL6:
  92 0050 1227     		movs	r7, #18
  93 0052 FC41     		rors	r4, r4, r7
  94              	.LVL7:
  95 0054 C768     		ldr	r7, [r0, #12]
  96 0056 BC46     		mov	ip, r7
ARM GAS  C:\Users\Ray\AppData\Local\Temp\ccdgjwii.s 			page 4


  97 0058 6444     		add	r4, r4, ip
  98              	.LVL8:
  99 005a 4768     		ldr	r7, [r0, #4]
 100 005c DF41     		rors	r7, r7, r3
 101              	.LVL9:
  76:strong-arm\src\ripemd160/ripemd160.c **** 	FF(dd, ee, aa, bb, cc, X[ 2], 15);
 102              		.loc 1 76 0
 103 005e 1500     		movs	r5, r2
 104 0060 6540     		eors	r5, r4
 105 0062 0F97     		str	r7, [sp, #60]
 106 0064 7D40     		eors	r5, r7
 107 0066 5E46     		mov	r6, fp
 108 0068 B768     		ldr	r7, [r6, #8]
 109              	.LVL10:
 110 006a 0297     		str	r7, [sp, #8]
 111 006c BC46     		mov	ip, r7
 112 006e 6544     		add	r5, r5, ip
 113 0070 C668     		ldr	r6, [r0, #12]
 114 0072 B446     		mov	ip, r6
 115 0074 6544     		add	r5, r5, ip
 116              	.LVL11:
 117 0076 1126     		movs	r6, #17
 118 0078 F541     		rors	r5, r5, r6
 119              	.LVL12:
 120 007a 0F00     		movs	r7, r1
 121              	.LVL13:
 122 007c 8C46     		mov	ip, r1
 123 007e 6544     		add	r5, r5, ip
 124              	.LVL14:
 125 0080 DA41     		rors	r2, r2, r3
 126              	.LVL15:
  77:strong-arm\src\ripemd160/ripemd160.c **** 	FF(cc, dd, ee, aa, bb, X[ 3], 12);
 127              		.loc 1 77 0
 128 0082 2100     		movs	r1, r4
 129              	.LVL16:
 130 0084 6940     		eors	r1, r5
 131 0086 5140     		eors	r1, r2
 132 0088 5E46     		mov	r6, fp
 133 008a F668     		ldr	r6, [r6, #12]
 134 008c 0396     		str	r6, [sp, #12]
 135 008e B446     		mov	ip, r6
 136 0090 6144     		add	r1, r1, ip
 137 0092 1097     		str	r7, [sp, #64]
 138 0094 BC46     		mov	ip, r7
 139 0096 6144     		add	r1, r1, ip
 140              	.LVL17:
 141 0098 1426     		movs	r6, #20
 142 009a F141     		rors	r1, r1, r6
 143              	.LVL18:
 144 009c 0F9E     		ldr	r6, [sp, #60]
 145 009e B446     		mov	ip, r6
 146 00a0 6144     		add	r1, r1, ip
 147              	.LVL19:
 148 00a2 DC41     		rors	r4, r4, r3
 149              	.LVL20:
 150 00a4 A046     		mov	r8, r4
 151              	.LVL21:
ARM GAS  C:\Users\Ray\AppData\Local\Temp\ccdgjwii.s 			page 5


  78:strong-arm\src\ripemd160/ripemd160.c **** 	FF(bb, cc, dd, ee, aa, X[ 4],  5);
 152              		.loc 1 78 0
 153 00a6 2C00     		movs	r4, r5
 154              	.LVL22:
 155 00a8 4C40     		eors	r4, r1
 156 00aa 2600     		movs	r6, r4
 157 00ac 4446     		mov	r4, r8
 158 00ae 6640     		eors	r6, r4
 159 00b0 5C46     		mov	r4, fp
 160 00b2 2769     		ldr	r7, [r4, #16]
 161 00b4 0497     		str	r7, [sp, #16]
 162 00b6 BC46     		mov	ip, r7
 163 00b8 6644     		add	r6, r6, ip
 164 00ba 0F9C     		ldr	r4, [sp, #60]
 165 00bc A446     		mov	ip, r4
 166 00be 6644     		add	r6, r6, ip
 167              	.LVL23:
 168 00c0 1B24     		movs	r4, #27
 169 00c2 E641     		rors	r6, r6, r4
 170              	.LVL24:
 171 00c4 9619     		adds	r6, r2, r6
 172              	.LVL25:
 173 00c6 DD41     		rors	r5, r5, r3
 174              	.LVL26:
  79:strong-arm\src\ripemd160/ripemd160.c **** 	FF(aa, bb, cc, dd, ee, X[ 5],  8);
 175              		.loc 1 79 0
 176 00c8 0C00     		movs	r4, r1
 177 00ca 7440     		eors	r4, r6
 178 00cc 2700     		movs	r7, r4
 179 00ce 6F40     		eors	r7, r5
 180 00d0 5C46     		mov	r4, fp
 181 00d2 6469     		ldr	r4, [r4, #20]
 182 00d4 0594     		str	r4, [sp, #20]
 183 00d6 A446     		mov	ip, r4
 184 00d8 6744     		add	r7, r7, ip
 185 00da D219     		adds	r2, r2, r7
 186              	.LVL27:
 187 00dc 1824     		movs	r4, #24
 188 00de E241     		rors	r2, r2, r4
 189              	.LVL28:
 190 00e0 4244     		add	r2, r2, r8
 191 00e2 9246     		mov	r10, r2
 192              	.LVL29:
 193 00e4 D941     		rors	r1, r1, r3
 194              	.LVL30:
  80:strong-arm\src\ripemd160/ripemd160.c **** 	FF(ee, aa, bb, cc, dd, X[ 6],  7);
 195              		.loc 1 80 0
 196 00e6 3200     		movs	r2, r6
 197              	.LVL31:
 198 00e8 5446     		mov	r4, r10
 199 00ea 6240     		eors	r2, r4
 200 00ec 1700     		movs	r7, r2
 201 00ee 4F40     		eors	r7, r1
 202 00f0 5A46     		mov	r2, fp
 203 00f2 9469     		ldr	r4, [r2, #24]
 204 00f4 0694     		str	r4, [sp, #24]
 205 00f6 A446     		mov	ip, r4
ARM GAS  C:\Users\Ray\AppData\Local\Temp\ccdgjwii.s 			page 6


 206 00f8 6744     		add	r7, r7, ip
 207 00fa 3C00     		movs	r4, r7
 208 00fc 4444     		add	r4, r4, r8
 209              	.LVL32:
 210 00fe 1922     		movs	r2, #25
 211 0100 D441     		rors	r4, r4, r2
 212              	.LVL33:
 213 0102 2C19     		adds	r4, r5, r4
 214              	.LVL34:
 215 0104 DE41     		rors	r6, r6, r3
 216              	.LVL35:
  81:strong-arm\src\ripemd160/ripemd160.c **** 	FF(dd, ee, aa, bb, cc, X[ 7],  9);
 217              		.loc 1 81 0
 218 0106 5246     		mov	r2, r10
 219 0108 6240     		eors	r2, r4
 220 010a 1700     		movs	r7, r2
 221 010c 7740     		eors	r7, r6
 222 010e 5A46     		mov	r2, fp
 223 0110 D269     		ldr	r2, [r2, #28]
 224 0112 0792     		str	r2, [sp, #28]
 225 0114 9046     		mov	r8, r2
 226 0116 4744     		add	r7, r7, r8
 227 0118 ED19     		adds	r5, r5, r7
 228              	.LVL36:
 229 011a 1722     		movs	r2, #23
 230 011c 9146     		mov	r9, r2
 231 011e D541     		rors	r5, r5, r2
 232              	.LVL37:
 233 0120 AC46     		mov	ip, r5
 234 0122 8C44     		add	ip, ip, r1
 235              	.LVL38:
 236 0124 5246     		mov	r2, r10
 237 0126 DA41     		rors	r2, r2, r3
 238              	.LVL39:
  82:strong-arm\src\ripemd160/ripemd160.c **** 	FF(cc, dd, ee, aa, bb, X[ 8], 11);
 239              		.loc 1 82 0
 240 0128 2500     		movs	r5, r4
 241 012a 6746     		mov	r7, ip
 242 012c 7D40     		eors	r5, r7
 243 012e 2F00     		movs	r7, r5
 244 0130 5740     		eors	r7, r2
 245 0132 5D46     		mov	r5, fp
 246 0134 2D6A     		ldr	r5, [r5, #32]
 247 0136 0895     		str	r5, [sp, #32]
 248 0138 A846     		mov	r8, r5
 249 013a 4744     		add	r7, r7, r8
 250 013c C919     		adds	r1, r1, r7
 251              	.LVL40:
 252 013e 1525     		movs	r5, #21
 253 0140 E941     		rors	r1, r1, r5
 254              	.LVL41:
 255 0142 7518     		adds	r5, r6, r1
 256              	.LVL42:
 257 0144 DC41     		rors	r4, r4, r3
 258              	.LVL43:
  83:strong-arm\src\ripemd160/ripemd160.c **** 	FF(bb, cc, dd, ee, aa, X[ 9], 13);
 259              		.loc 1 83 0
ARM GAS  C:\Users\Ray\AppData\Local\Temp\ccdgjwii.s 			page 7


 260 0146 6146     		mov	r1, ip
 261 0148 0A95     		str	r5, [sp, #40]
 262 014a 6940     		eors	r1, r5
 263 014c 0F00     		movs	r7, r1
 264 014e 6740     		eors	r7, r4
 265 0150 5946     		mov	r1, fp
 266 0152 496A     		ldr	r1, [r1, #36]
 267 0154 8846     		mov	r8, r1
 268 0156 4744     		add	r7, r7, r8
 269 0158 F619     		adds	r6, r6, r7
 270              	.LVL44:
 271 015a 1321     		movs	r1, #19
 272 015c CE41     		rors	r6, r6, r1
 273              	.LVL45:
 274 015e 9619     		adds	r6, r2, r6
 275              	.LVL46:
 276 0160 6746     		mov	r7, ip
 277 0162 DF41     		rors	r7, r7, r3
 278 0164 3D00     		movs	r5, r7
 279              	.LVL47:
  84:strong-arm\src\ripemd160/ripemd160.c **** 	FF(aa, bb, cc, dd, ee, X[10], 14);
 280              		.loc 1 84 0
 281 0166 0A99     		ldr	r1, [sp, #40]
 282 0168 7140     		eors	r1, r6
 283 016a 0F00     		movs	r7, r1
 284 016c 6F40     		eors	r7, r5
 285 016e 5946     		mov	r1, fp
 286 0170 896A     		ldr	r1, [r1, #40]
 287 0172 0991     		str	r1, [sp, #36]
 288 0174 8A46     		mov	r10, r1
 289 0176 5744     		add	r7, r7, r10
 290 0178 D219     		adds	r2, r2, r7
 291              	.LVL48:
 292 017a 1221     		movs	r1, #18
 293 017c CA41     		rors	r2, r2, r1
 294              	.LVL49:
 295 017e A718     		adds	r7, r4, r2
 296              	.LVL50:
 297 0180 0A99     		ldr	r1, [sp, #40]
 298 0182 D941     		rors	r1, r1, r3
 299              	.LVL51:
  85:strong-arm\src\ripemd160/ripemd160.c **** 	FF(ee, aa, bb, cc, dd, X[11], 15);
 300              		.loc 1 85 0
 301 0184 3200     		movs	r2, r6
 302 0186 0B97     		str	r7, [sp, #44]
 303 0188 7A40     		eors	r2, r7
 304 018a 0C91     		str	r1, [sp, #48]
 305 018c 4A40     		eors	r2, r1
 306 018e 9246     		mov	r10, r2
 307 0190 5A46     		mov	r2, fp
 308 0192 D76A     		ldr	r7, [r2, #44]
 309              	.LVL52:
 310 0194 BA44     		add	r10, r10, r7
 311 0196 5444     		add	r4, r4, r10
 312              	.LVL53:
 313 0198 1122     		movs	r2, #17
 314 019a D441     		rors	r4, r4, r2
ARM GAS  C:\Users\Ray\AppData\Local\Temp\ccdgjwii.s 			page 8


 315              	.LVL54:
 316 019c 2C19     		adds	r4, r5, r4
 317              	.LVL55:
 318 019e DE41     		rors	r6, r6, r3
 319              	.LVL56:
  86:strong-arm\src\ripemd160/ripemd160.c **** 	FF(dd, ee, aa, bb, cc, X[12],  6);
 320              		.loc 1 86 0
 321 01a0 0B9A     		ldr	r2, [sp, #44]
 322 01a2 6240     		eors	r2, r4
 323 01a4 0D96     		str	r6, [sp, #52]
 324 01a6 7240     		eors	r2, r6
 325 01a8 9246     		mov	r10, r2
 326 01aa 5A46     		mov	r2, fp
 327 01ac 126B     		ldr	r2, [r2, #48]
 328 01ae 0A92     		str	r2, [sp, #40]
 329 01b0 9446     		mov	ip, r2
 330 01b2 E244     		add	r10, r10, ip
 331 01b4 5544     		add	r5, r5, r10
 332              	.LVL57:
 333 01b6 1A21     		movs	r1, #26
 334              	.LVL58:
 335 01b8 CD41     		rors	r5, r5, r1
 336              	.LVL59:
 337 01ba 0C9E     		ldr	r6, [sp, #48]
 338              	.LVL60:
 339 01bc B446     		mov	ip, r6
 340 01be 6544     		add	r5, r5, ip
 341              	.LVL61:
 342 01c0 0B9A     		ldr	r2, [sp, #44]
 343 01c2 DA41     		rors	r2, r2, r3
 344              	.LVL62:
  87:strong-arm\src\ripemd160/ripemd160.c **** 	FF(cc, dd, ee, aa, bb, X[13],  7);
 345              		.loc 1 87 0
 346 01c4 2100     		movs	r1, r4
 347 01c6 6940     		eors	r1, r5
 348 01c8 5140     		eors	r1, r2
 349 01ca 8A46     		mov	r10, r1
 350 01cc 5946     		mov	r1, fp
 351 01ce 496B     		ldr	r1, [r1, #52]
 352 01d0 0B91     		str	r1, [sp, #44]
 353 01d2 8C46     		mov	ip, r1
 354 01d4 E244     		add	r10, r10, ip
 355 01d6 3100     		movs	r1, r6
 356 01d8 5144     		add	r1, r1, r10
 357              	.LVL63:
 358 01da 1926     		movs	r6, #25
 359 01dc F141     		rors	r1, r1, r6
 360              	.LVL64:
 361 01de 0D9E     		ldr	r6, [sp, #52]
 362 01e0 B446     		mov	ip, r6
 363 01e2 6144     		add	r1, r1, ip
 364 01e4 1191     		str	r1, [sp, #68]
 365              	.LVL65:
 366 01e6 DC41     		rors	r4, r4, r3
 367              	.LVL66:
  88:strong-arm\src\ripemd160/ripemd160.c **** 	FF(bb, cc, dd, ee, aa, X[14],  9);
 368              		.loc 1 88 0
ARM GAS  C:\Users\Ray\AppData\Local\Temp\ccdgjwii.s 			page 9


 369 01e8 2900     		movs	r1, r5
 370              	.LVL67:
 371 01ea 2E00     		movs	r6, r5
 372 01ec 119D     		ldr	r5, [sp, #68]
 373              	.LVL68:
 374 01ee 6E40     		eors	r6, r5
 375 01f0 6640     		eors	r6, r4
 376 01f2 B246     		mov	r10, r6
 377 01f4 5E46     		mov	r6, fp
 378 01f6 B66B     		ldr	r6, [r6, #56]
 379 01f8 0C96     		str	r6, [sp, #48]
 380 01fa B446     		mov	ip, r6
 381 01fc E244     		add	r10, r10, ip
 382 01fe 0D9D     		ldr	r5, [sp, #52]
 383 0200 5544     		add	r5, r5, r10
 384 0202 2E00     		movs	r6, r5
 385              	.LVL69:
 386 0204 4D46     		mov	r5, r9
 387              	.LVL70:
 388 0206 EE41     		rors	r6, r6, r5
 389              	.LVL71:
 390 0208 9619     		adds	r6, r2, r6
 391              	.LVL72:
 392 020a D941     		rors	r1, r1, r3
 393              	.LVL73:
  89:strong-arm\src\ripemd160/ripemd160.c **** 	FF(aa, bb, cc, dd, ee, X[15],  8);
 394              		.loc 1 89 0
 395 020c 119D     		ldr	r5, [sp, #68]
 396 020e 7540     		eors	r5, r6
 397 0210 1291     		str	r1, [sp, #72]
 398 0212 4D40     		eors	r5, r1
 399 0214 AA46     		mov	r10, r5
 400 0216 5D46     		mov	r5, fp
 401 0218 ED6B     		ldr	r5, [r5, #60]
 402 021a 0D95     		str	r5, [sp, #52]
 403 021c AC46     		mov	ip, r5
 404 021e E244     		add	r10, r10, ip
 405 0220 5244     		add	r2, r2, r10
 406              	.LVL74:
 407 0222 1825     		movs	r5, #24
 408 0224 EA41     		rors	r2, r2, r5
 409              	.LVL75:
 410 0226 9246     		mov	r10, r2
 411 0228 A244     		add	r10, r10, r4
 412              	.LVL76:
 413 022a 119A     		ldr	r2, [sp, #68]
 414 022c DA41     		rors	r2, r2, r3
 415              	.LVL77:
  90:strong-arm\src\ripemd160/ripemd160.c **** 	
  91:strong-arm\src\ripemd160/ripemd160.c **** 	/* round 2 */
  92:strong-arm\src\ripemd160/ripemd160.c **** 	GG(ee, aa, bb, cc, dd, X[ 7],  7);
 416              		.loc 1 92 0
 417 022e 3100     		movs	r1, r6
 418              	.LVL78:
 419 0230 5140     		eors	r1, r2
 420 0232 5546     		mov	r5, r10
 421 0234 2940     		ands	r1, r5
ARM GAS  C:\Users\Ray\AppData\Local\Temp\ccdgjwii.s 			page 10


 422 0236 5140     		eors	r1, r2
 423 0238 079D     		ldr	r5, [sp, #28]
 424 023a AC46     		mov	ip, r5
 425 023c 6144     		add	r1, r1, ip
 426 023e 6418     		adds	r4, r4, r1
 427              	.LVL79:
 428 0240 FE49     		ldr	r1, .L2
 429 0242 8C46     		mov	ip, r1
 430 0244 6444     		add	r4, r4, ip
 431              	.LVL80:
 432 0246 1921     		movs	r1, #25
 433 0248 CC41     		rors	r4, r4, r1
 434              	.LVL81:
 435 024a 129D     		ldr	r5, [sp, #72]
 436 024c AB46     		mov	fp, r5
 437              	.LVL82:
 438 024e A344     		add	fp, fp, r4
 439              	.LVL83:
 440 0250 DE41     		rors	r6, r6, r3
 441              	.LVL84:
  93:strong-arm\src\ripemd160/ripemd160.c **** 	GG(dd, ee, aa, bb, cc, X[ 4],  6);
 442              		.loc 1 93 0
 443 0252 5146     		mov	r1, r10
 444 0254 7140     		eors	r1, r6
 445 0256 5C46     		mov	r4, fp
 446 0258 2140     		ands	r1, r4
 447 025a 7140     		eors	r1, r6
 448 025c 049C     		ldr	r4, [sp, #16]
 449 025e A446     		mov	ip, r4
 450 0260 6144     		add	r1, r1, ip
 451 0262 AC46     		mov	ip, r5
 452 0264 6144     		add	r1, r1, ip
 453 0266 F54D     		ldr	r5, .L2
 454 0268 AC46     		mov	ip, r5
 455 026a 6144     		add	r1, r1, ip
 456              	.LVL85:
 457 026c 1A25     		movs	r5, #26
 458 026e E941     		rors	r1, r1, r5
 459              	.LVL86:
 460 0270 5118     		adds	r1, r2, r1
 461 0272 1191     		str	r1, [sp, #68]
 462              	.LVL87:
 463 0274 5546     		mov	r5, r10
 464 0276 DD41     		rors	r5, r5, r3
 465              	.LVL88:
  94:strong-arm\src\ripemd160/ripemd160.c **** 	GG(cc, dd, ee, aa, bb, X[13],  8);
 466              		.loc 1 94 0
 467 0278 5C46     		mov	r4, fp
 468 027a 6C40     		eors	r4, r5
 469 027c 0C40     		ands	r4, r1
 470 027e 6C40     		eors	r4, r5
 471 0280 A246     		mov	r10, r4
 472 0282 0B9C     		ldr	r4, [sp, #44]
 473 0284 A446     		mov	ip, r4
 474 0286 E244     		add	r10, r10, ip
 475 0288 5244     		add	r2, r2, r10
 476              	.LVL89:
ARM GAS  C:\Users\Ray\AppData\Local\Temp\ccdgjwii.s 			page 11


 477 028a EC4C     		ldr	r4, .L2
 478 028c A446     		mov	ip, r4
 479 028e 6244     		add	r2, r2, ip
 480              	.LVL90:
 481 0290 1824     		movs	r4, #24
 482 0292 E241     		rors	r2, r2, r4
 483              	.LVL91:
 484 0294 B218     		adds	r2, r6, r2
 485              	.LVL92:
 486 0296 5C46     		mov	r4, fp
 487 0298 DC41     		rors	r4, r4, r3
 488 029a A346     		mov	fp, r4
 489              	.LVL93:
  95:strong-arm\src\ripemd160/ripemd160.c **** 	GG(bb, cc, dd, ee, aa, X[ 1], 13);
 490              		.loc 1 95 0
 491 029c 0C00     		movs	r4, r1
 492              	.LVL94:
 493 029e 5946     		mov	r1, fp
 494              	.LVL95:
 495 02a0 4C40     		eors	r4, r1
 496              	.LVL96:
 497 02a2 1440     		ands	r4, r2
 498 02a4 4C40     		eors	r4, r1
 499 02a6 A246     		mov	r10, r4
 500 02a8 019C     		ldr	r4, [sp, #4]
 501 02aa A446     		mov	ip, r4
 502 02ac E244     		add	r10, r10, ip
 503 02ae 5644     		add	r6, r6, r10
 504              	.LVL97:
 505 02b0 E24C     		ldr	r4, .L2
 506 02b2 A446     		mov	ip, r4
 507 02b4 6644     		add	r6, r6, ip
 508              	.LVL98:
 509 02b6 1324     		movs	r4, #19
 510 02b8 E641     		rors	r6, r6, r4
 511              	.LVL99:
 512 02ba AE19     		adds	r6, r5, r6
 513              	.LVL100:
 514 02bc 1199     		ldr	r1, [sp, #68]
 515 02be D941     		rors	r1, r1, r3
 516 02c0 0C00     		movs	r4, r1
 517              	.LVL101:
  96:strong-arm\src\ripemd160/ripemd160.c **** 	GG(aa, bb, cc, dd, ee, X[10], 11);
 518              		.loc 1 96 0
 519 02c2 1100     		movs	r1, r2
 520              	.LVL102:
 521 02c4 6140     		eors	r1, r4
 522 02c6 3140     		ands	r1, r6
 523 02c8 1294     		str	r4, [sp, #72]
 524 02ca 6140     		eors	r1, r4
 525 02cc 8A46     		mov	r10, r1
 526 02ce 099C     		ldr	r4, [sp, #36]
 527              	.LVL103:
 528 02d0 A446     		mov	ip, r4
 529 02d2 E244     		add	r10, r10, ip
 530 02d4 5544     		add	r5, r5, r10
 531              	.LVL104:
ARM GAS  C:\Users\Ray\AppData\Local\Temp\ccdgjwii.s 			page 12


 532 02d6 D949     		ldr	r1, .L2
 533 02d8 8C46     		mov	ip, r1
 534 02da 6544     		add	r5, r5, ip
 535              	.LVL105:
 536 02dc 1521     		movs	r1, #21
 537 02de CD41     		rors	r5, r5, r1
 538              	.LVL106:
 539 02e0 5D44     		add	r5, r5, fp
 540              	.LVL107:
 541 02e2 DA41     		rors	r2, r2, r3
 542              	.LVL108:
  97:strong-arm\src\ripemd160/ripemd160.c **** 	GG(ee, aa, bb, cc, dd, X[ 6],  9);
 543              		.loc 1 97 0
 544 02e4 3100     		movs	r1, r6
 545 02e6 5140     		eors	r1, r2
 546 02e8 2940     		ands	r1, r5
 547 02ea 1192     		str	r2, [sp, #68]
 548 02ec 5140     		eors	r1, r2
 549 02ee 8A46     		mov	r10, r1
 550 02f0 069C     		ldr	r4, [sp, #24]
 551 02f2 A446     		mov	ip, r4
 552 02f4 E244     		add	r10, r10, ip
 553 02f6 D344     		add	fp, fp, r10
 554              	.LVL109:
 555 02f8 5C46     		mov	r4, fp
 556 02fa D049     		ldr	r1, .L2
 557 02fc 8C46     		mov	ip, r1
 558 02fe 6444     		add	r4, r4, ip
 559              	.LVL110:
 560 0300 4946     		mov	r1, r9
 561 0302 CC41     		rors	r4, r4, r1
 562              	.LVL111:
 563 0304 129A     		ldr	r2, [sp, #72]
 564              	.LVL112:
 565 0306 9446     		mov	ip, r2
 566              	.LVL113:
 567 0308 6444     		add	r4, r4, ip
 568              	.LVL114:
 569 030a DE41     		rors	r6, r6, r3
 570              	.LVL115:
  98:strong-arm\src\ripemd160/ripemd160.c **** 	GG(dd, ee, aa, bb, cc, X[15],  7);
 571              		.loc 1 98 0
 572 030c 2900     		movs	r1, r5
 573 030e 7140     		eors	r1, r6
 574 0310 2140     		ands	r1, r4
 575 0312 7140     		eors	r1, r6
 576 0314 8A46     		mov	r10, r1
 577 0316 0D99     		ldr	r1, [sp, #52]
 578 0318 8C46     		mov	ip, r1
 579 031a E244     		add	r10, r10, ip
 580 031c 1100     		movs	r1, r2
 581 031e 5144     		add	r1, r1, r10
 582 0320 0A00     		movs	r2, r1
 583 0322 C649     		ldr	r1, .L2
 584 0324 8C46     		mov	ip, r1
 585 0326 1100     		movs	r1, r2
 586 0328 6144     		add	r1, r1, ip
ARM GAS  C:\Users\Ray\AppData\Local\Temp\ccdgjwii.s 			page 13


 587              	.LVL116:
 588 032a 1922     		movs	r2, #25
 589 032c D141     		rors	r1, r1, r2
 590              	.LVL117:
 591 032e 119A     		ldr	r2, [sp, #68]
 592 0330 9446     		mov	ip, r2
 593              	.LVL118:
 594 0332 6144     		add	r1, r1, ip
 595              	.LVL119:
 596 0334 DD41     		rors	r5, r5, r3
 597              	.LVL120:
 598 0336 AB46     		mov	fp, r5
 599              	.LVL121:
  99:strong-arm\src\ripemd160/ripemd160.c **** 	GG(cc, dd, ee, aa, bb, X[ 3], 15);
 600              		.loc 1 99 0
 601 0338 2500     		movs	r5, r4
 602              	.LVL122:
 603 033a 5A46     		mov	r2, fp
 604 033c 5540     		eors	r5, r2
 605 033e 0D40     		ands	r5, r1
 606 0340 5540     		eors	r5, r2
 607 0342 AA46     		mov	r10, r5
 608 0344 039D     		ldr	r5, [sp, #12]
 609 0346 AC46     		mov	ip, r5
 610 0348 E244     		add	r10, r10, ip
 611 034a 119D     		ldr	r5, [sp, #68]
 612 034c 5544     		add	r5, r5, r10
 613 034e 2A00     		movs	r2, r5
 614 0350 BA4D     		ldr	r5, .L2
 615 0352 AC46     		mov	ip, r5
 616 0354 6244     		add	r2, r2, ip
 617              	.LVL123:
 618 0356 1125     		movs	r5, #17
 619 0358 EA41     		rors	r2, r2, r5
 620              	.LVL124:
 621 035a B218     		adds	r2, r6, r2
 622              	.LVL125:
 623 035c DC41     		rors	r4, r4, r3
 624              	.LVL126:
 100:strong-arm\src\ripemd160/ripemd160.c **** 	GG(bb, cc, dd, ee, aa, X[12],  7);
 625              		.loc 1 100 0
 626 035e 0D00     		movs	r5, r1
 627 0360 6540     		eors	r5, r4
 628 0362 1540     		ands	r5, r2
 629 0364 6540     		eors	r5, r4
 630 0366 AA46     		mov	r10, r5
 631 0368 0A9D     		ldr	r5, [sp, #40]
 632 036a AC46     		mov	ip, r5
 633 036c E244     		add	r10, r10, ip
 634 036e 5644     		add	r6, r6, r10
 635              	.LVL127:
 636 0370 B24D     		ldr	r5, .L2
 637 0372 AC46     		mov	ip, r5
 638 0374 6644     		add	r6, r6, ip
 639              	.LVL128:
 640 0376 1925     		movs	r5, #25
 641 0378 EE41     		rors	r6, r6, r5
ARM GAS  C:\Users\Ray\AppData\Local\Temp\ccdgjwii.s 			page 14


 642              	.LVL129:
 643 037a 5E44     		add	r6, r6, fp
 644              	.LVL130:
 645 037c D941     		rors	r1, r1, r3
 646              	.LVL131:
 101:strong-arm\src\ripemd160/ripemd160.c **** 	GG(aa, bb, cc, dd, ee, X[ 0], 12);
 647              		.loc 1 101 0
 648 037e 1500     		movs	r5, r2
 649 0380 4D40     		eors	r5, r1
 650 0382 3540     		ands	r5, r6
 651 0384 1191     		str	r1, [sp, #68]
 652 0386 4D40     		eors	r5, r1
 653 0388 AA46     		mov	r10, r5
 654 038a 009D     		ldr	r5, [sp]
 655 038c AC46     		mov	ip, r5
 656 038e E244     		add	r10, r10, ip
 657 0390 5D46     		mov	r5, fp
 658 0392 5544     		add	r5, r5, r10
 659 0394 A949     		ldr	r1, .L2
 660              	.LVL132:
 661 0396 8C46     		mov	ip, r1
 662 0398 6544     		add	r5, r5, ip
 663              	.LVL133:
 664 039a 1421     		movs	r1, #20
 665 039c CD41     		rors	r5, r5, r1
 666              	.LVL134:
 667 039e 6519     		adds	r5, r4, r5
 668              	.LVL135:
 669 03a0 DA41     		rors	r2, r2, r3
 670              	.LVL136:
 102:strong-arm\src\ripemd160/ripemd160.c **** 	GG(ee, aa, bb, cc, dd, X[ 9], 15);
 671              		.loc 1 102 0
 672 03a2 3100     		movs	r1, r6
 673 03a4 5140     		eors	r1, r2
 674 03a6 2940     		ands	r1, r5
 675 03a8 5140     		eors	r1, r2
 676 03aa 8A46     		mov	r10, r1
 677 03ac C244     		add	r10, r10, r8
 678 03ae 5444     		add	r4, r4, r10
 679              	.LVL137:
 680 03b0 6444     		add	r4, r4, ip
 681              	.LVL138:
 682 03b2 1121     		movs	r1, #17
 683 03b4 CC41     		rors	r4, r4, r1
 684              	.LVL139:
 685 03b6 1199     		ldr	r1, [sp, #68]
 686 03b8 8C46     		mov	ip, r1
 687 03ba 6444     		add	r4, r4, ip
 688              	.LVL140:
 689 03bc DE41     		rors	r6, r6, r3
 690              	.LVL141:
 691 03be B346     		mov	fp, r6
 692              	.LVL142:
 103:strong-arm\src\ripemd160/ripemd160.c **** 	GG(dd, ee, aa, bb, cc, X[ 5],  9);
 693              		.loc 1 103 0
 694 03c0 2900     		movs	r1, r5
 695 03c2 7140     		eors	r1, r6
ARM GAS  C:\Users\Ray\AppData\Local\Temp\ccdgjwii.s 			page 15


 696 03c4 2140     		ands	r1, r4
 697 03c6 7140     		eors	r1, r6
 698 03c8 8A46     		mov	r10, r1
 699 03ca 059E     		ldr	r6, [sp, #20]
 700              	.LVL143:
 701 03cc B446     		mov	ip, r6
 702 03ce E244     		add	r10, r10, ip
 703 03d0 1199     		ldr	r1, [sp, #68]
 704 03d2 5144     		add	r1, r1, r10
 705 03d4 994E     		ldr	r6, .L2
 706 03d6 B446     		mov	ip, r6
 707 03d8 6144     		add	r1, r1, ip
 708              	.LVL144:
 709 03da 4E46     		mov	r6, r9
 710 03dc F141     		rors	r1, r1, r6
 711              	.LVL145:
 712 03de 5118     		adds	r1, r2, r1
 713              	.LVL146:
 714 03e0 DD41     		rors	r5, r5, r3
 715              	.LVL147:
 104:strong-arm\src\ripemd160/ripemd160.c **** 	GG(cc, dd, ee, aa, bb, X[ 2], 11);
 716              		.loc 1 104 0
 717 03e2 2600     		movs	r6, r4
 718 03e4 6E40     		eors	r6, r5
 719 03e6 0E40     		ands	r6, r1
 720 03e8 6E40     		eors	r6, r5
 721 03ea B246     		mov	r10, r6
 722 03ec 029E     		ldr	r6, [sp, #8]
 723 03ee B446     		mov	ip, r6
 724 03f0 E244     		add	r10, r10, ip
 725 03f2 5244     		add	r2, r2, r10
 726              	.LVL148:
 727 03f4 914E     		ldr	r6, .L2
 728 03f6 B446     		mov	ip, r6
 729 03f8 6244     		add	r2, r2, ip
 730              	.LVL149:
 731 03fa 1526     		movs	r6, #21
 732 03fc F241     		rors	r2, r2, r6
 733              	.LVL150:
 734 03fe 5A44     		add	r2, r2, fp
 735              	.LVL151:
 736 0400 DC41     		rors	r4, r4, r3
 737              	.LVL152:
 105:strong-arm\src\ripemd160/ripemd160.c **** 	GG(bb, cc, dd, ee, aa, X[14],  7);
 738              		.loc 1 105 0
 739 0402 0E00     		movs	r6, r1
 740 0404 6640     		eors	r6, r4
 741 0406 1192     		str	r2, [sp, #68]
 742 0408 1640     		ands	r6, r2
 743 040a 6640     		eors	r6, r4
 744 040c B246     		mov	r10, r6
 745 040e 0C9E     		ldr	r6, [sp, #48]
 746 0410 B446     		mov	ip, r6
 747 0412 E244     		add	r10, r10, ip
 748 0414 D344     		add	fp, fp, r10
 749              	.LVL153:
 750 0416 5E46     		mov	r6, fp
ARM GAS  C:\Users\Ray\AppData\Local\Temp\ccdgjwii.s 			page 16


 751 0418 884A     		ldr	r2, .L2
 752              	.LVL154:
 753 041a 9446     		mov	ip, r2
 754 041c 6644     		add	r6, r6, ip
 755              	.LVL155:
 756 041e 1922     		movs	r2, #25
 757 0420 D641     		rors	r6, r6, r2
 758              	.LVL156:
 759 0422 B246     		mov	r10, r6
 760 0424 AA44     		add	r10, r10, r5
 761              	.LVL157:
 762 0426 D941     		rors	r1, r1, r3
 763              	.LVL158:
 106:strong-arm\src\ripemd160/ripemd160.c **** 	GG(aa, bb, cc, dd, ee, X[11], 13);
 764              		.loc 1 106 0
 765 0428 119E     		ldr	r6, [sp, #68]
 766 042a 4E40     		eors	r6, r1
 767 042c 5246     		mov	r2, r10
 768 042e 1640     		ands	r6, r2
 769 0430 4E40     		eors	r6, r1
 770 0432 BE19     		adds	r6, r7, r6
 771 0434 AD19     		adds	r5, r5, r6
 772              	.LVL159:
 773 0436 6544     		add	r5, r5, ip
 774              	.LVL160:
 775 0438 1322     		movs	r2, #19
 776 043a D541     		rors	r5, r5, r2
 777              	.LVL161:
 778 043c AB46     		mov	fp, r5
 779 043e A344     		add	fp, fp, r4
 780              	.LVL162:
 781 0440 119E     		ldr	r6, [sp, #68]
 782 0442 DE41     		rors	r6, r6, r3
 783              	.LVL163:
 107:strong-arm\src\ripemd160/ripemd160.c **** 	GG(ee, aa, bb, cc, dd, X[ 8], 12);
 784              		.loc 1 107 0
 785 0444 5A46     		mov	r2, fp
 786 0446 D543     		mvns	r5, r2
 787 0448 5246     		mov	r2, r10
 788 044a 1196     		str	r6, [sp, #68]
 789 044c 7240     		eors	r2, r6
 790 044e 1600     		movs	r6, r2
 791              	.LVL164:
 792 0450 5A46     		mov	r2, fp
 793 0452 1640     		ands	r6, r2
 794 0454 119A     		ldr	r2, [sp, #68]
 795 0456 5640     		eors	r6, r2
 796 0458 089A     		ldr	r2, [sp, #32]
 797 045a 9446     		mov	ip, r2
 798 045c 6644     		add	r6, r6, ip
 799 045e A419     		adds	r4, r4, r6
 800              	.LVL165:
 801 0460 764A     		ldr	r2, .L2
 802 0462 9446     		mov	ip, r2
 803 0464 6444     		add	r4, r4, ip
 804              	.LVL166:
 805 0466 1422     		movs	r2, #20
ARM GAS  C:\Users\Ray\AppData\Local\Temp\ccdgjwii.s 			page 17


 806 0468 D441     		rors	r4, r4, r2
 807              	.LVL167:
 808 046a 0C19     		adds	r4, r1, r4
 809              	.LVL168:
 810 046c 5246     		mov	r2, r10
 811 046e DA41     		rors	r2, r2, r3
 812 0470 1600     		movs	r6, r2
 813              	.LVL169:
 108:strong-arm\src\ripemd160/ripemd160.c **** 	
 109:strong-arm\src\ripemd160/ripemd160.c **** 	/* round 3 */
 110:strong-arm\src\ripemd160/ripemd160.c **** 	HH(dd, ee, aa, bb, cc, X[ 3], 11);
 814              		.loc 1 110 0
 815 0472 2543     		orrs	r5, r4
 816 0474 5540     		eors	r5, r2
 817 0476 039A     		ldr	r2, [sp, #12]
 818              	.LVL170:
 819 0478 9446     		mov	ip, r2
 820 047a 6544     		add	r5, r5, ip
 821 047c 4919     		adds	r1, r1, r5
 822              	.LVL171:
 823 047e 704A     		ldr	r2, .L2+4
 824 0480 9446     		mov	ip, r2
 825 0482 6144     		add	r1, r1, ip
 826              	.LVL172:
 827 0484 1522     		movs	r2, #21
 828 0486 D141     		rors	r1, r1, r2
 829              	.LVL173:
 830 0488 119D     		ldr	r5, [sp, #68]
 831 048a AC46     		mov	ip, r5
 832 048c 0A00     		movs	r2, r1
 833 048e 6244     		add	r2, r2, ip
 834 0490 1192     		str	r2, [sp, #68]
 835              	.LVL174:
 836 0492 5A46     		mov	r2, fp
 837              	.LVL175:
 838 0494 DA41     		rors	r2, r2, r3
 839 0496 9346     		mov	fp, r2
 840              	.LVL176:
 111:strong-arm\src\ripemd160/ripemd160.c **** 	HH(cc, dd, ee, aa, bb, X[10], 13);
 841              		.loc 1 111 0
 842 0498 E243     		mvns	r2, r4
 843              	.LVL177:
 844 049a 1199     		ldr	r1, [sp, #68]
 845 049c 0A43     		orrs	r2, r1
 846 049e 5946     		mov	r1, fp
 847 04a0 4A40     		eors	r2, r1
 848 04a2 9246     		mov	r10, r2
 849 04a4 099A     		ldr	r2, [sp, #36]
 850 04a6 9446     		mov	ip, r2
 851 04a8 E244     		add	r10, r10, ip
 852 04aa 5544     		add	r5, r5, r10
 853              	.LVL178:
 854 04ac 2A00     		movs	r2, r5
 855 04ae 644D     		ldr	r5, .L2+4
 856 04b0 AC46     		mov	ip, r5
 857 04b2 6244     		add	r2, r2, ip
 858              	.LVL179:
ARM GAS  C:\Users\Ray\AppData\Local\Temp\ccdgjwii.s 			page 18


 859 04b4 1325     		movs	r5, #19
 860 04b6 EA41     		rors	r2, r2, r5
 861              	.LVL180:
 862 04b8 B218     		adds	r2, r6, r2
 863              	.LVL181:
 864 04ba DC41     		rors	r4, r4, r3
 865              	.LVL182:
 112:strong-arm\src\ripemd160/ripemd160.c **** 	HH(bb, cc, dd, ee, aa, X[14],  6);
 866              		.loc 1 112 0
 867 04bc 1199     		ldr	r1, [sp, #68]
 868 04be CD43     		mvns	r5, r1
 869 04c0 1543     		orrs	r5, r2
 870 04c2 6540     		eors	r5, r4
 871 04c4 AA46     		mov	r10, r5
 872 04c6 0C9D     		ldr	r5, [sp, #48]
 873 04c8 AC46     		mov	ip, r5
 874 04ca E244     		add	r10, r10, ip
 875 04cc 5644     		add	r6, r6, r10
 876              	.LVL183:
 877 04ce 5C4D     		ldr	r5, .L2+4
 878 04d0 AC46     		mov	ip, r5
 879 04d2 6644     		add	r6, r6, ip
 880              	.LVL184:
 881 04d4 1A25     		movs	r5, #26
 882 04d6 EE41     		rors	r6, r6, r5
 883              	.LVL185:
 884 04d8 5E44     		add	r6, r6, fp
 885              	.LVL186:
 886 04da D941     		rors	r1, r1, r3
 887 04dc 8A46     		mov	r10, r1
 888              	.LVL187:
 113:strong-arm\src\ripemd160/ripemd160.c **** 	HH(aa, bb, cc, dd, ee, X[ 4],  7);
 889              		.loc 1 113 0
 890 04de D143     		mvns	r1, r2
 891              	.LVL188:
 892 04e0 3143     		orrs	r1, r6
 893 04e2 5546     		mov	r5, r10
 894 04e4 6940     		eors	r1, r5
 895 04e6 049D     		ldr	r5, [sp, #16]
 896 04e8 AC46     		mov	ip, r5
 897 04ea 6144     		add	r1, r1, ip
 898 04ec 5944     		add	r1, r1, fp
 899 04ee 544D     		ldr	r5, .L2+4
 900 04f0 AC46     		mov	ip, r5
 901 04f2 6144     		add	r1, r1, ip
 902              	.LVL189:
 903 04f4 1925     		movs	r5, #25
 904 04f6 E941     		rors	r1, r1, r5
 905              	.LVL190:
 906 04f8 8B46     		mov	fp, r1
 907              	.LVL191:
 908 04fa A344     		add	fp, fp, r4
 909              	.LVL192:
 910 04fc DA41     		rors	r2, r2, r3
 911              	.LVL193:
 912 04fe 1192     		str	r2, [sp, #68]
 913              	.LVL194:
ARM GAS  C:\Users\Ray\AppData\Local\Temp\ccdgjwii.s 			page 19


 114:strong-arm\src\ripemd160/ripemd160.c **** 	HH(ee, aa, bb, cc, dd, X[ 9], 14);
 914              		.loc 1 114 0
 915 0500 F543     		mvns	r5, r6
 916 0502 5A46     		mov	r2, fp
 917              	.LVL195:
 918 0504 1543     		orrs	r5, r2
 919 0506 119A     		ldr	r2, [sp, #68]
 920 0508 5540     		eors	r5, r2
 921 050a 4544     		add	r5, r5, r8
 922 050c 6419     		adds	r4, r4, r5
 923              	.LVL196:
 924 050e 6444     		add	r4, r4, ip
 925              	.LVL197:
 926 0510 1221     		movs	r1, #18
 927 0512 CC41     		rors	r4, r4, r1
 928              	.LVL198:
 929 0514 5444     		add	r4, r4, r10
 930              	.LVL199:
 931 0516 3100     		movs	r1, r6
 932 0518 D941     		rors	r1, r1, r3
 933 051a 0D00     		movs	r5, r1
 934              	.LVL200:
 115:strong-arm\src\ripemd160/ripemd160.c **** 	HH(dd, ee, aa, bb, cc, X[15],  9);
 935              		.loc 1 115 0
 936 051c 5A46     		mov	r2, fp
 937 051e D643     		mvns	r6, r2
 938 0520 2643     		orrs	r6, r4
 939 0522 4E40     		eors	r6, r1
 940 0524 0D99     		ldr	r1, [sp, #52]
 941              	.LVL201:
 942 0526 8C46     		mov	ip, r1
 943 0528 6644     		add	r6, r6, ip
 944 052a 5644     		add	r6, r6, r10
 945 052c 4449     		ldr	r1, .L2+4
 946 052e 8C46     		mov	ip, r1
 947 0530 6644     		add	r6, r6, ip
 948              	.LVL202:
 949 0532 4946     		mov	r1, r9
 950 0534 CE41     		rors	r6, r6, r1
 951              	.LVL203:
 952 0536 119A     		ldr	r2, [sp, #68]
 953 0538 9446     		mov	ip, r2
 954              	.LVL204:
 955 053a 6644     		add	r6, r6, ip
 956              	.LVL205:
 957 053c 5946     		mov	r1, fp
 958 053e D941     		rors	r1, r1, r3
 959 0540 8B46     		mov	fp, r1
 960              	.LVL206:
 116:strong-arm\src\ripemd160/ripemd160.c **** 	HH(cc, dd, ee, aa, bb, X[ 8], 13);
 961              		.loc 1 116 0
 962 0542 E143     		mvns	r1, r4
 963              	.LVL207:
 964 0544 3143     		orrs	r1, r6
 965 0546 5A46     		mov	r2, fp
 966 0548 5140     		eors	r1, r2
 967 054a 8A46     		mov	r10, r1
ARM GAS  C:\Users\Ray\AppData\Local\Temp\ccdgjwii.s 			page 20


 968 054c 0899     		ldr	r1, [sp, #32]
 969 054e 8C46     		mov	ip, r1
 970 0550 E244     		add	r10, r10, ip
 971 0552 119A     		ldr	r2, [sp, #68]
 972 0554 5244     		add	r2, r2, r10
 973 0556 3A49     		ldr	r1, .L2+4
 974 0558 8C46     		mov	ip, r1
 975 055a 6244     		add	r2, r2, ip
 976              	.LVL208:
 977 055c 1321     		movs	r1, #19
 978 055e CA41     		rors	r2, r2, r1
 979              	.LVL209:
 980 0560 AA18     		adds	r2, r5, r2
 981              	.LVL210:
 982 0562 DC41     		rors	r4, r4, r3
 983              	.LVL211:
 117:strong-arm\src\ripemd160/ripemd160.c **** 	HH(bb, cc, dd, ee, aa, X[ 1], 15);
 984              		.loc 1 117 0
 985 0564 F143     		mvns	r1, r6
 986 0566 1143     		orrs	r1, r2
 987 0568 6140     		eors	r1, r4
 988 056a 8A46     		mov	r10, r1
 989 056c 0199     		ldr	r1, [sp, #4]
 990 056e 8C46     		mov	ip, r1
 991 0570 E244     		add	r10, r10, ip
 992 0572 5544     		add	r5, r5, r10
 993              	.LVL212:
 994 0574 3249     		ldr	r1, .L2+4
 995 0576 8C46     		mov	ip, r1
 996 0578 6544     		add	r5, r5, ip
 997              	.LVL213:
 998 057a 1121     		movs	r1, #17
 999 057c CD41     		rors	r5, r5, r1
 1000              	.LVL214:
 1001 057e 5D44     		add	r5, r5, fp
 1002              	.LVL215:
 1003 0580 DE41     		rors	r6, r6, r3
 1004              	.LVL216:
 1005 0582 3100     		movs	r1, r6
 1006              	.LVL217:
 118:strong-arm\src\ripemd160/ripemd160.c **** 	HH(aa, bb, cc, dd, ee, X[ 2], 14);
 1007              		.loc 1 118 0
 1008 0584 D643     		mvns	r6, r2
 1009 0586 2E43     		orrs	r6, r5
 1010 0588 1191     		str	r1, [sp, #68]
 1011 058a 4E40     		eors	r6, r1
 1012 058c B246     		mov	r10, r6
 1013 058e 029E     		ldr	r6, [sp, #8]
 1014 0590 B446     		mov	ip, r6
 1015 0592 E244     		add	r10, r10, ip
 1016 0594 D344     		add	fp, fp, r10
 1017              	.LVL218:
 1018 0596 5946     		mov	r1, fp
 1019              	.LVL219:
 1020 0598 294E     		ldr	r6, .L2+4
 1021 059a B446     		mov	ip, r6
 1022 059c 6144     		add	r1, r1, ip
ARM GAS  C:\Users\Ray\AppData\Local\Temp\ccdgjwii.s 			page 21


 1023              	.LVL220:
 1024 059e 1226     		movs	r6, #18
 1025 05a0 F141     		rors	r1, r1, r6
 1026              	.LVL221:
 1027 05a2 6118     		adds	r1, r4, r1
 1028              	.LVL222:
 1029 05a4 1600     		movs	r6, r2
 1030 05a6 DE41     		rors	r6, r6, r3
 1031 05a8 B346     		mov	fp, r6
 1032              	.LVL223:
 119:strong-arm\src\ripemd160/ripemd160.c **** 	HH(ee, aa, bb, cc, dd, X[ 7],  8);
 1033              		.loc 1 119 0
 1034 05aa EA43     		mvns	r2, r5
 1035 05ac 0A43     		orrs	r2, r1
 1036 05ae 7240     		eors	r2, r6
 1037 05b0 9246     		mov	r10, r2
 1038 05b2 079A     		ldr	r2, [sp, #28]
 1039 05b4 9446     		mov	ip, r2
 1040 05b6 E244     		add	r10, r10, ip
 1041 05b8 5444     		add	r4, r4, r10
 1042              	.LVL224:
 1043 05ba 214E     		ldr	r6, .L2+4
 1044              	.LVL225:
 1045 05bc B446     		mov	ip, r6
 1046 05be 6444     		add	r4, r4, ip
 1047              	.LVL226:
 1048 05c0 1826     		movs	r6, #24
 1049 05c2 F441     		rors	r4, r4, r6
 1050              	.LVL227:
 1051 05c4 119A     		ldr	r2, [sp, #68]
 1052 05c6 9446     		mov	ip, r2
 1053 05c8 6444     		add	r4, r4, ip
 1054              	.LVL228:
 1055 05ca DD41     		rors	r5, r5, r3
 1056              	.LVL229:
 120:strong-arm\src\ripemd160/ripemd160.c **** 	HH(dd, ee, aa, bb, cc, X[ 0], 13);
 1057              		.loc 1 120 0
 1058 05cc CE43     		mvns	r6, r1
 1059 05ce 2643     		orrs	r6, r4
 1060 05d0 6E40     		eors	r6, r5
 1061 05d2 B246     		mov	r10, r6
 1062 05d4 009E     		ldr	r6, [sp]
 1063 05d6 B446     		mov	ip, r6
 1064 05d8 E244     		add	r10, r10, ip
 1065 05da 5244     		add	r2, r2, r10
 1066 05dc 1600     		movs	r6, r2
 1067 05de 184A     		ldr	r2, .L2+4
 1068 05e0 9446     		mov	ip, r2
 1069 05e2 6644     		add	r6, r6, ip
 1070              	.LVL230:
 1071 05e4 1322     		movs	r2, #19
 1072 05e6 D641     		rors	r6, r6, r2
 1073              	.LVL231:
 1074 05e8 5E44     		add	r6, r6, fp
 1075              	.LVL232:
 1076 05ea D941     		rors	r1, r1, r3
 1077              	.LVL233:
ARM GAS  C:\Users\Ray\AppData\Local\Temp\ccdgjwii.s 			page 22


 1078 05ec 8A46     		mov	r10, r1
 1079              	.LVL234:
 121:strong-arm\src\ripemd160/ripemd160.c **** 	HH(cc, dd, ee, aa, bb, X[ 6],  6);
 1080              		.loc 1 121 0
 1081 05ee E143     		mvns	r1, r4
 1082              	.LVL235:
 1083 05f0 3143     		orrs	r1, r6
 1084 05f2 5246     		mov	r2, r10
 1085 05f4 5140     		eors	r1, r2
 1086 05f6 069A     		ldr	r2, [sp, #24]
 1087 05f8 9446     		mov	ip, r2
 1088 05fa 6144     		add	r1, r1, ip
 1089 05fc 5944     		add	r1, r1, fp
 1090 05fe 104A     		ldr	r2, .L2+4
 1091 0600 9446     		mov	ip, r2
 1092 0602 6144     		add	r1, r1, ip
 1093              	.LVL236:
 1094 0604 1A22     		movs	r2, #26
 1095 0606 D141     		rors	r1, r1, r2
 1096              	.LVL237:
 1097 0608 6918     		adds	r1, r5, r1
 1098              	.LVL238:
 1099 060a DC41     		rors	r4, r4, r3
 1100              	.LVL239:
 1101 060c A346     		mov	fp, r4
 1102              	.LVL240:
 122:strong-arm\src\ripemd160/ripemd160.c **** 	HH(bb, cc, dd, ee, aa, X[13],  5);
 1103              		.loc 1 122 0
 1104 060e F243     		mvns	r2, r6
 1105 0610 0A43     		orrs	r2, r1
 1106 0612 6240     		eors	r2, r4
 1107 0614 0B9C     		ldr	r4, [sp, #44]
 1108              	.LVL241:
 1109 0616 A446     		mov	ip, r4
 1110 0618 6244     		add	r2, r2, ip
 1111 061a AD18     		adds	r5, r5, r2
 1112              	.LVL242:
 1113 061c 084C     		ldr	r4, .L2+4
 1114 061e A446     		mov	ip, r4
 1115 0620 6544     		add	r5, r5, ip
 1116              	.LVL243:
 1117 0622 1B24     		movs	r4, #27
 1118 0624 E541     		rors	r5, r5, r4
 1119              	.LVL244:
 1120 0626 5544     		add	r5, r5, r10
 1121              	.LVL245:
 1122 0628 DE41     		rors	r6, r6, r3
 1123              	.LVL246:
 123:strong-arm\src\ripemd160/ripemd160.c **** 	HH(aa, bb, cc, dd, ee, X[11], 12);
 1124              		.loc 1 123 0
 1125 062a CA43     		mvns	r2, r1
 1126 062c 2A43     		orrs	r2, r5
 1127 062e 1196     		str	r6, [sp, #68]
 1128 0630 7240     		eors	r2, r6
 1129 0632 BA18     		adds	r2, r7, r2
 1130 0634 5244     		add	r2, r2, r10
 1131 0636 6244     		add	r2, r2, ip
ARM GAS  C:\Users\Ray\AppData\Local\Temp\ccdgjwii.s 			page 23


 1132 0638 04E0     		b	.L3
 1133              	.L4:
 1134 063a C046     		.align	2
 1135              	.L2:
 1136 063c 9979825A 		.word	1518500249
 1137 0640 A1EBD96E 		.word	1859775393
 1138              	.L3:
 1139              	.LVL247:
 1140 0644 1424     		movs	r4, #20
 1141 0646 E241     		rors	r2, r2, r4
 1142              	.LVL248:
 1143 0648 5A44     		add	r2, r2, fp
 1144              	.LVL249:
 1145 064a D941     		rors	r1, r1, r3
 1146              	.LVL250:
 124:strong-arm\src\ripemd160/ripemd160.c **** 	HH(ee, aa, bb, cc, dd, X[ 5],  7);
 1147              		.loc 1 124 0
 1148 064c EC43     		mvns	r4, r5
 1149 064e 1443     		orrs	r4, r2
 1150 0650 4C40     		eors	r4, r1
 1151 0652 A246     		mov	r10, r4
 1152 0654 059C     		ldr	r4, [sp, #20]
 1153 0656 A446     		mov	ip, r4
 1154 0658 E244     		add	r10, r10, ip
 1155 065a D344     		add	fp, fp, r10
 1156              	.LVL251:
 1157 065c FE4C     		ldr	r4, .L5
 1158 065e A446     		mov	ip, r4
 1159 0660 5C46     		mov	r4, fp
 1160 0662 6444     		add	r4, r4, ip
 1161              	.LVL252:
 1162 0664 1926     		movs	r6, #25
 1163              	.LVL253:
 1164 0666 F441     		rors	r4, r4, r6
 1165              	.LVL254:
 1166 0668 119E     		ldr	r6, [sp, #68]
 1167 066a B446     		mov	ip, r6
 1168              	.LVL255:
 1169 066c 6444     		add	r4, r4, ip
 1170              	.LVL256:
 1171 066e DD41     		rors	r5, r5, r3
 1172              	.LVL257:
 1173 0670 AA46     		mov	r10, r5
 1174              	.LVL258:
 125:strong-arm\src\ripemd160/ripemd160.c **** 	HH(dd, ee, aa, bb, cc, X[12],  5);
 1175              		.loc 1 125 0
 1176 0672 D543     		mvns	r5, r2
 1177              	.LVL259:
 1178 0674 2543     		orrs	r5, r4
 1179 0676 5646     		mov	r6, r10
 1180 0678 6E40     		eors	r6, r5
 1181 067a 0A9D     		ldr	r5, [sp, #40]
 1182 067c AC46     		mov	ip, r5
 1183 067e 3500     		movs	r5, r6
 1184 0680 6544     		add	r5, r5, ip
 1185 0682 119E     		ldr	r6, [sp, #68]
 1186 0684 B446     		mov	ip, r6
ARM GAS  C:\Users\Ray\AppData\Local\Temp\ccdgjwii.s 			page 24


 1187 0686 6544     		add	r5, r5, ip
 1188 0688 F34E     		ldr	r6, .L5
 1189 068a B446     		mov	ip, r6
 1190 068c 6544     		add	r5, r5, ip
 1191              	.LVL260:
 1192 068e 1B26     		movs	r6, #27
 1193 0690 F541     		rors	r5, r5, r6
 1194              	.LVL261:
 1195 0692 4D19     		adds	r5, r1, r5
 1196              	.LVL262:
 1197 0694 DA41     		rors	r2, r2, r3
 1198              	.LVL263:
 1199 0696 9346     		mov	fp, r2
 1200              	.LVL264:
 126:strong-arm\src\ripemd160/ripemd160.c **** 	
 127:strong-arm\src\ripemd160/ripemd160.c **** 	/* round 4 */
 128:strong-arm\src\ripemd160/ripemd160.c **** 	II(cc, dd, ee, aa, bb, X[ 1], 11);
 1201              		.loc 1 128 0
 1202 0698 2600     		movs	r6, r4
 1203 069a 6E40     		eors	r6, r5
 1204 069c 1640     		ands	r6, r2
 1205 069e 6640     		eors	r6, r4
 1206 06a0 019A     		ldr	r2, [sp, #4]
 1207              	.LVL265:
 1208 06a2 9446     		mov	ip, r2
 1209 06a4 6644     		add	r6, r6, ip
 1210 06a6 8919     		adds	r1, r1, r6
 1211              	.LVL266:
 1212 06a8 EC4E     		ldr	r6, .L5+4
 1213 06aa B446     		mov	ip, r6
 1214 06ac 6144     		add	r1, r1, ip
 1215              	.LVL267:
 1216 06ae 1526     		movs	r6, #21
 1217 06b0 F141     		rors	r1, r1, r6
 1218              	.LVL268:
 1219 06b2 5144     		add	r1, r1, r10
 1220              	.LVL269:
 1221 06b4 2600     		movs	r6, r4
 1222 06b6 DE41     		rors	r6, r6, r3
 1223              	.LVL270:
 129:strong-arm\src\ripemd160/ripemd160.c **** 	II(bb, cc, dd, ee, aa, X[ 9], 12);
 1224              		.loc 1 129 0
 1225 06b8 2C00     		movs	r4, r5
 1226 06ba 4C40     		eors	r4, r1
 1227 06bc 3440     		ands	r4, r6
 1228 06be 6C40     		eors	r4, r5
 1229 06c0 4444     		add	r4, r4, r8
 1230 06c2 5444     		add	r4, r4, r10
 1231 06c4 6444     		add	r4, r4, ip
 1232              	.LVL271:
 1233 06c6 1422     		movs	r2, #20
 1234 06c8 D441     		rors	r4, r4, r2
 1235              	.LVL272:
 1236 06ca 5C44     		add	r4, r4, fp
 1237              	.LVL273:
 1238 06cc DD41     		rors	r5, r5, r3
 1239              	.LVL274:
ARM GAS  C:\Users\Ray\AppData\Local\Temp\ccdgjwii.s 			page 25


 1240 06ce 2A00     		movs	r2, r5
 1241              	.LVL275:
 130:strong-arm\src\ripemd160/ripemd160.c **** 	II(aa, bb, cc, dd, ee, X[11], 14);
 1242              		.loc 1 130 0
 1243 06d0 0D00     		movs	r5, r1
 1244 06d2 6540     		eors	r5, r4
 1245 06d4 1192     		str	r2, [sp, #68]
 1246 06d6 1540     		ands	r5, r2
 1247 06d8 4D40     		eors	r5, r1
 1248 06da AA46     		mov	r10, r5
 1249 06dc BA44     		add	r10, r10, r7
 1250 06de D344     		add	fp, fp, r10
 1251              	.LVL276:
 1252 06e0 5A46     		mov	r2, fp
 1253              	.LVL277:
 1254 06e2 6244     		add	r2, r2, ip
 1255              	.LVL278:
 1256 06e4 1225     		movs	r5, #18
 1257 06e6 EA41     		rors	r2, r2, r5
 1258              	.LVL279:
 1259 06e8 B218     		adds	r2, r6, r2
 1260              	.LVL280:
 1261 06ea D941     		rors	r1, r1, r3
 1262              	.LVL281:
 1263 06ec 8A46     		mov	r10, r1
 1264              	.LVL282:
 131:strong-arm\src\ripemd160/ripemd160.c **** 	II(ee, aa, bb, cc, dd, X[10], 15);
 1265              		.loc 1 131 0
 1266 06ee 2100     		movs	r1, r4
 1267              	.LVL283:
 1268 06f0 5140     		eors	r1, r2
 1269 06f2 5546     		mov	r5, r10
 1270 06f4 2940     		ands	r1, r5
 1271 06f6 6140     		eors	r1, r4
 1272 06f8 099D     		ldr	r5, [sp, #36]
 1273 06fa AC46     		mov	ip, r5
 1274 06fc 6144     		add	r1, r1, ip
 1275 06fe 7118     		adds	r1, r6, r1
 1276 0700 D64E     		ldr	r6, .L5+4
 1277              	.LVL284:
 1278 0702 B446     		mov	ip, r6
 1279 0704 6144     		add	r1, r1, ip
 1280              	.LVL285:
 1281 0706 1126     		movs	r6, #17
 1282 0708 F141     		rors	r1, r1, r6
 1283              	.LVL286:
 1284 070a 119D     		ldr	r5, [sp, #68]
 1285 070c AC46     		mov	ip, r5
 1286 070e 6144     		add	r1, r1, ip
 1287              	.LVL287:
 1288 0710 DC41     		rors	r4, r4, r3
 1289              	.LVL288:
 1290 0712 A346     		mov	fp, r4
 1291              	.LVL289:
 132:strong-arm\src\ripemd160/ripemd160.c **** 	II(dd, ee, aa, bb, cc, X[ 0], 14);
 1292              		.loc 1 132 0
 1293 0714 1600     		movs	r6, r2
ARM GAS  C:\Users\Ray\AppData\Local\Temp\ccdgjwii.s 			page 26


 1294 0716 4E40     		eors	r6, r1
 1295 0718 2640     		ands	r6, r4
 1296 071a 5640     		eors	r6, r2
 1297 071c 009C     		ldr	r4, [sp]
 1298              	.LVL290:
 1299 071e A446     		mov	ip, r4
 1300 0720 6644     		add	r6, r6, ip
 1301 0722 AD19     		adds	r5, r5, r6
 1302 0724 CD4E     		ldr	r6, .L5+4
 1303 0726 B446     		mov	ip, r6
 1304 0728 6544     		add	r5, r5, ip
 1305              	.LVL291:
 1306 072a 1226     		movs	r6, #18
 1307 072c F541     		rors	r5, r5, r6
 1308              	.LVL292:
 1309 072e 5544     		add	r5, r5, r10
 1310              	.LVL293:
 1311 0730 1600     		movs	r6, r2
 1312 0732 DE41     		rors	r6, r6, r3
 1313              	.LVL294:
 133:strong-arm\src\ripemd160/ripemd160.c **** 	II(cc, dd, ee, aa, bb, X[ 8], 15);
 1314              		.loc 1 133 0
 1315 0734 0A00     		movs	r2, r1
 1316 0736 6A40     		eors	r2, r5
 1317 0738 3240     		ands	r2, r6
 1318 073a 4A40     		eors	r2, r1
 1319 073c 089C     		ldr	r4, [sp, #32]
 1320 073e A446     		mov	ip, r4
 1321 0740 6244     		add	r2, r2, ip
 1322 0742 5244     		add	r2, r2, r10
 1323 0744 C54C     		ldr	r4, .L5+4
 1324 0746 A446     		mov	ip, r4
 1325 0748 6244     		add	r2, r2, ip
 1326              	.LVL295:
 1327 074a 1124     		movs	r4, #17
 1328 074c E241     		rors	r2, r2, r4
 1329              	.LVL296:
 1330 074e 5A44     		add	r2, r2, fp
 1331              	.LVL297:
 1332 0750 D941     		rors	r1, r1, r3
 1333              	.LVL298:
 1334 0752 0C00     		movs	r4, r1
 1335              	.LVL299:
 134:strong-arm\src\ripemd160/ripemd160.c **** 	II(bb, cc, dd, ee, aa, X[12],  9);
 1336              		.loc 1 134 0
 1337 0754 2900     		movs	r1, r5
 1338              	.LVL300:
 1339 0756 5140     		eors	r1, r2
 1340 0758 1194     		str	r4, [sp, #68]
 1341 075a 2140     		ands	r1, r4
 1342 075c 6940     		eors	r1, r5
 1343 075e 8A46     		mov	r10, r1
 1344 0760 0A99     		ldr	r1, [sp, #40]
 1345 0762 8C46     		mov	ip, r1
 1346 0764 E244     		add	r10, r10, ip
 1347 0766 D344     		add	fp, fp, r10
 1348              	.LVL301:
ARM GAS  C:\Users\Ray\AppData\Local\Temp\ccdgjwii.s 			page 27


 1349 0768 5C46     		mov	r4, fp
 1350              	.LVL302:
 1351 076a BC49     		ldr	r1, .L5+4
 1352 076c 8C46     		mov	ip, r1
 1353 076e 6444     		add	r4, r4, ip
 1354              	.LVL303:
 1355 0770 4946     		mov	r1, r9
 1356 0772 CC41     		rors	r4, r4, r1
 1357              	.LVL304:
 1358 0774 3419     		adds	r4, r6, r4
 1359              	.LVL305:
 1360 0776 DD41     		rors	r5, r5, r3
 1361              	.LVL306:
 1362 0778 AA46     		mov	r10, r5
 1363              	.LVL307:
 135:strong-arm\src\ripemd160/ripemd160.c **** 	II(aa, bb, cc, dd, ee, X[ 4],  8);
 1364              		.loc 1 135 0
 1365 077a 1500     		movs	r5, r2
 1366              	.LVL308:
 1367 077c 6540     		eors	r5, r4
 1368 077e 5146     		mov	r1, r10
 1369 0780 0D40     		ands	r5, r1
 1370 0782 5540     		eors	r5, r2
 1371 0784 0499     		ldr	r1, [sp, #16]
 1372 0786 8C46     		mov	ip, r1
 1373 0788 6544     		add	r5, r5, ip
 1374 078a 7519     		adds	r5, r6, r5
 1375 078c B34E     		ldr	r6, .L5+4
 1376              	.LVL309:
 1377 078e B446     		mov	ip, r6
 1378 0790 6544     		add	r5, r5, ip
 1379              	.LVL310:
 1380 0792 1826     		movs	r6, #24
 1381 0794 F541     		rors	r5, r5, r6
 1382              	.LVL311:
 1383 0796 119E     		ldr	r6, [sp, #68]
 1384 0798 B446     		mov	ip, r6
 1385 079a 6544     		add	r5, r5, ip
 1386              	.LVL312:
 1387 079c DA41     		rors	r2, r2, r3
 1388              	.LVL313:
 136:strong-arm\src\ripemd160/ripemd160.c **** 	II(ee, aa, bb, cc, dd, X[13],  9);
 1389              		.loc 1 136 0
 1390 079e 2600     		movs	r6, r4
 1391 07a0 6E40     		eors	r6, r5
 1392 07a2 1640     		ands	r6, r2
 1393 07a4 6640     		eors	r6, r4
 1394 07a6 0B99     		ldr	r1, [sp, #44]
 1395 07a8 8C46     		mov	ip, r1
 1396 07aa 6644     		add	r6, r6, ip
 1397 07ac 1199     		ldr	r1, [sp, #68]
 1398 07ae 8919     		adds	r1, r1, r6
 1399 07b0 AA4E     		ldr	r6, .L5+4
 1400 07b2 B446     		mov	ip, r6
 1401 07b4 6144     		add	r1, r1, ip
 1402              	.LVL314:
 1403 07b6 4E46     		mov	r6, r9
ARM GAS  C:\Users\Ray\AppData\Local\Temp\ccdgjwii.s 			page 28


 1404 07b8 F141     		rors	r1, r1, r6
 1405              	.LVL315:
 1406 07ba 5144     		add	r1, r1, r10
 1407 07bc 8B46     		mov	fp, r1
 1408              	.LVL316:
 1409 07be 2600     		movs	r6, r4
 1410 07c0 DE41     		rors	r6, r6, r3
 1411 07c2 3100     		movs	r1, r6
 1412              	.LVL317:
 137:strong-arm\src\ripemd160/ripemd160.c **** 	II(dd, ee, aa, bb, cc, X[ 3], 14);
 1413              		.loc 1 137 0
 1414 07c4 2E00     		movs	r6, r5
 1415 07c6 5C46     		mov	r4, fp
 1416 07c8 6640     		eors	r6, r4
 1417 07ca 3400     		movs	r4, r6
 1418 07cc 1191     		str	r1, [sp, #68]
 1419 07ce 0C40     		ands	r4, r1
 1420 07d0 6C40     		eors	r4, r5
 1421 07d2 0399     		ldr	r1, [sp, #12]
 1422              	.LVL318:
 1423 07d4 8C46     		mov	ip, r1
 1424 07d6 6444     		add	r4, r4, ip
 1425 07d8 5444     		add	r4, r4, r10
 1426 07da A04E     		ldr	r6, .L5+4
 1427 07dc B446     		mov	ip, r6
 1428 07de 6444     		add	r4, r4, ip
 1429              	.LVL319:
 1430 07e0 1226     		movs	r6, #18
 1431 07e2 F441     		rors	r4, r4, r6
 1432              	.LVL320:
 1433 07e4 1419     		adds	r4, r2, r4
 1434              	.LVL321:
 1435 07e6 DD41     		rors	r5, r5, r3
 1436              	.LVL322:
 138:strong-arm\src\ripemd160/ripemd160.c **** 	II(cc, dd, ee, aa, bb, X[ 7],  5);
 1437              		.loc 1 138 0
 1438 07e8 5E46     		mov	r6, fp
 1439 07ea 6640     		eors	r6, r4
 1440 07ec 2E40     		ands	r6, r5
 1441 07ee 5946     		mov	r1, fp
 1442 07f0 4E40     		eors	r6, r1
 1443 07f2 B246     		mov	r10, r6
 1444 07f4 0799     		ldr	r1, [sp, #28]
 1445 07f6 8C46     		mov	ip, r1
 1446 07f8 E244     		add	r10, r10, ip
 1447 07fa 5244     		add	r2, r2, r10
 1448              	.LVL323:
 1449 07fc 974E     		ldr	r6, .L5+4
 1450 07fe B446     		mov	ip, r6
 1451 0800 6244     		add	r2, r2, ip
 1452              	.LVL324:
 1453 0802 1B26     		movs	r6, #27
 1454 0804 F241     		rors	r2, r2, r6
 1455              	.LVL325:
 1456 0806 1199     		ldr	r1, [sp, #68]
 1457 0808 8C46     		mov	ip, r1
 1458 080a 6244     		add	r2, r2, ip
ARM GAS  C:\Users\Ray\AppData\Local\Temp\ccdgjwii.s 			page 29


 1459              	.LVL326:
 1460 080c 5E46     		mov	r6, fp
 1461 080e DE41     		rors	r6, r6, r3
 1462 0810 B246     		mov	r10, r6
 1463              	.LVL327:
 139:strong-arm\src\ripemd160/ripemd160.c **** 	II(bb, cc, dd, ee, aa, X[15],  6);
 1464              		.loc 1 139 0
 1465 0812 2600     		movs	r6, r4
 1466              	.LVL328:
 1467 0814 5640     		eors	r6, r2
 1468 0816 3100     		movs	r1, r6
 1469 0818 5646     		mov	r6, r10
 1470 081a 3140     		ands	r1, r6
 1471 081c 6140     		eors	r1, r4
 1472 081e 0D9E     		ldr	r6, [sp, #52]
 1473 0820 B446     		mov	ip, r6
 1474 0822 6144     		add	r1, r1, ip
 1475 0824 119E     		ldr	r6, [sp, #68]
 1476 0826 B446     		mov	ip, r6
 1477 0828 6144     		add	r1, r1, ip
 1478 082a 8C4E     		ldr	r6, .L5+4
 1479 082c B446     		mov	ip, r6
 1480 082e 6144     		add	r1, r1, ip
 1481              	.LVL329:
 1482 0830 1A26     		movs	r6, #26
 1483 0832 F141     		rors	r1, r1, r6
 1484              	.LVL330:
 1485 0834 6918     		adds	r1, r5, r1
 1486              	.LVL331:
 1487 0836 DC41     		rors	r4, r4, r3
 1488              	.LVL332:
 140:strong-arm\src\ripemd160/ripemd160.c **** 	II(aa, bb, cc, dd, ee, X[14],  8);
 1489              		.loc 1 140 0
 1490 0838 1600     		movs	r6, r2
 1491 083a 4E40     		eors	r6, r1
 1492 083c 2640     		ands	r6, r4
 1493 083e 5640     		eors	r6, r2
 1494 0840 B346     		mov	fp, r6
 1495 0842 0C9E     		ldr	r6, [sp, #48]
 1496 0844 B446     		mov	ip, r6
 1497 0846 5E46     		mov	r6, fp
 1498 0848 6644     		add	r6, r6, ip
 1499 084a AD19     		adds	r5, r5, r6
 1500              	.LVL333:
 1501 084c 834E     		ldr	r6, .L5+4
 1502 084e B446     		mov	ip, r6
 1503 0850 6544     		add	r5, r5, ip
 1504              	.LVL334:
 1505 0852 1826     		movs	r6, #24
 1506 0854 F541     		rors	r5, r5, r6
 1507              	.LVL335:
 1508 0856 5544     		add	r5, r5, r10
 1509 0858 AB46     		mov	fp, r5
 1510              	.LVL336:
 1511 085a DA41     		rors	r2, r2, r3
 1512              	.LVL337:
 1513 085c 1600     		movs	r6, r2
ARM GAS  C:\Users\Ray\AppData\Local\Temp\ccdgjwii.s 			page 30


 1514              	.LVL338:
 141:strong-arm\src\ripemd160/ripemd160.c **** 	II(ee, aa, bb, cc, dd, X[ 5],  6);
 1515              		.loc 1 141 0
 1516 085e 0A00     		movs	r2, r1
 1517              	.LVL339:
 1518 0860 6A40     		eors	r2, r5
 1519 0862 3240     		ands	r2, r6
 1520 0864 4A40     		eors	r2, r1
 1521 0866 059D     		ldr	r5, [sp, #20]
 1522              	.LVL340:
 1523 0868 AC46     		mov	ip, r5
 1524 086a 6244     		add	r2, r2, ip
 1525 086c 5244     		add	r2, r2, r10
 1526 086e 7B4D     		ldr	r5, .L5+4
 1527 0870 AC46     		mov	ip, r5
 1528 0872 6244     		add	r2, r2, ip
 1529              	.LVL341:
 1530 0874 1A25     		movs	r5, #26
 1531 0876 EA41     		rors	r2, r2, r5
 1532              	.LVL342:
 1533 0878 A218     		adds	r2, r4, r2
 1534              	.LVL343:
 1535 087a D941     		rors	r1, r1, r3
 1536              	.LVL344:
 1537 087c 1191     		str	r1, [sp, #68]
 1538              	.LVL345:
 142:strong-arm\src\ripemd160/ripemd160.c **** 	II(dd, ee, aa, bb, cc, X[ 6],  5);
 1539              		.loc 1 142 0
 1540 087e 5D46     		mov	r5, fp
 1541 0880 5540     		eors	r5, r2
 1542 0882 0D40     		ands	r5, r1
 1543 0884 5946     		mov	r1, fp
 1544              	.LVL346:
 1545 0886 4D40     		eors	r5, r1
 1546 0888 AA46     		mov	r10, r5
 1547 088a 069D     		ldr	r5, [sp, #24]
 1548 088c AC46     		mov	ip, r5
 1549 088e E244     		add	r10, r10, ip
 1550 0890 5444     		add	r4, r4, r10
 1551              	.LVL347:
 1552 0892 724D     		ldr	r5, .L5+4
 1553 0894 AC46     		mov	ip, r5
 1554 0896 6444     		add	r4, r4, ip
 1555              	.LVL348:
 1556 0898 1B25     		movs	r5, #27
 1557 089a EC41     		rors	r4, r4, r5
 1558              	.LVL349:
 1559 089c 3419     		adds	r4, r6, r4
 1560              	.LVL350:
 1561 089e 5D46     		mov	r5, fp
 1562 08a0 DD41     		rors	r5, r5, r3
 1563 08a2 AB46     		mov	fp, r5
 1564              	.LVL351:
 143:strong-arm\src\ripemd160/ripemd160.c **** 	II(cc, dd, ee, aa, bb, X[ 2], 12);
 1565              		.loc 1 143 0
 1566 08a4 1500     		movs	r5, r2
 1567              	.LVL352:
ARM GAS  C:\Users\Ray\AppData\Local\Temp\ccdgjwii.s 			page 31


 1568 08a6 6540     		eors	r5, r4
 1569 08a8 5946     		mov	r1, fp
 1570 08aa 0D40     		ands	r5, r1
 1571 08ac 5540     		eors	r5, r2
 1572 08ae AA46     		mov	r10, r5
 1573 08b0 029D     		ldr	r5, [sp, #8]
 1574 08b2 AC46     		mov	ip, r5
 1575 08b4 E244     		add	r10, r10, ip
 1576 08b6 5644     		add	r6, r6, r10
 1577              	.LVL353:
 1578 08b8 684D     		ldr	r5, .L5+4
 1579 08ba AC46     		mov	ip, r5
 1580 08bc 6644     		add	r6, r6, ip
 1581              	.LVL354:
 1582 08be 1425     		movs	r5, #20
 1583 08c0 EE41     		rors	r6, r6, r5
 1584              	.LVL355:
 1585 08c2 1199     		ldr	r1, [sp, #68]
 1586 08c4 8C46     		mov	ip, r1
 1587 08c6 6644     		add	r6, r6, ip
 1588              	.LVL356:
 1589 08c8 DA41     		rors	r2, r2, r3
 1590              	.LVL357:
 144:strong-arm\src\ripemd160/ripemd160.c **** 	
 145:strong-arm\src\ripemd160/ripemd160.c **** 	/* round 5 */
 146:strong-arm\src\ripemd160/ripemd160.c **** 	JJ(bb, cc, dd, ee, aa, X[ 4],  9);
 1591              		.loc 1 146 0
 1592 08ca 1292     		str	r2, [sp, #72]
 1593 08cc D543     		mvns	r5, r2
 1594 08ce 2543     		orrs	r5, r4
 1595 08d0 7540     		eors	r5, r6
 1596 08d2 AA46     		mov	r10, r5
 1597 08d4 049D     		ldr	r5, [sp, #16]
 1598 08d6 AC46     		mov	ip, r5
 1599 08d8 E244     		add	r10, r10, ip
 1600 08da 0A00     		movs	r2, r1
 1601              	.LVL358:
 1602 08dc 5244     		add	r2, r2, r10
 1603 08de 1100     		movs	r1, r2
 1604 08e0 5F4D     		ldr	r5, .L5+8
 1605 08e2 AC46     		mov	ip, r5
 1606 08e4 6144     		add	r1, r1, ip
 1607              	.LVL359:
 1608 08e6 4D46     		mov	r5, r9
 1609 08e8 E941     		rors	r1, r1, r5
 1610              	.LVL360:
 1611 08ea 5944     		add	r1, r1, fp
 1612              	.LVL361:
 1613 08ec DC41     		rors	r4, r4, r3
 1614              	.LVL362:
 147:strong-arm\src\ripemd160/ripemd160.c **** 	JJ(aa, bb, cc, dd, ee, X[ 0], 15);
 1615              		.loc 1 147 0
 1616 08ee E543     		mvns	r5, r4
 1617 08f0 3543     		orrs	r5, r6
 1618 08f2 4D40     		eors	r5, r1
 1619 08f4 AA46     		mov	r10, r5
 1620 08f6 009D     		ldr	r5, [sp]
ARM GAS  C:\Users\Ray\AppData\Local\Temp\ccdgjwii.s 			page 32


 1621 08f8 AC46     		mov	ip, r5
 1622 08fa E244     		add	r10, r10, ip
 1623 08fc 5D46     		mov	r5, fp
 1624 08fe 5544     		add	r5, r5, r10
 1625 0900 574A     		ldr	r2, .L5+8
 1626 0902 9446     		mov	ip, r2
 1627 0904 6544     		add	r5, r5, ip
 1628              	.LVL363:
 1629 0906 1122     		movs	r2, #17
 1630 0908 D541     		rors	r5, r5, r2
 1631              	.LVL364:
 1632 090a 129A     		ldr	r2, [sp, #72]
 1633 090c 9446     		mov	ip, r2
 1634              	.LVL365:
 1635 090e 6544     		add	r5, r5, ip
 1636              	.LVL366:
 1637 0910 DE41     		rors	r6, r6, r3
 1638              	.LVL367:
 1639 0912 B346     		mov	fp, r6
 1640              	.LVL368:
 148:strong-arm\src\ripemd160/ripemd160.c **** 	JJ(ee, aa, bb, cc, dd, X[ 5],  5);
 1641              		.loc 1 148 0
 1642 0914 F243     		mvns	r2, r6
 1643 0916 1600     		movs	r6, r2
 1644              	.LVL369:
 1645 0918 0E43     		orrs	r6, r1
 1646 091a 6E40     		eors	r6, r5
 1647 091c B246     		mov	r10, r6
 1648 091e 059E     		ldr	r6, [sp, #20]
 1649 0920 B446     		mov	ip, r6
 1650 0922 E244     		add	r10, r10, ip
 1651 0924 129A     		ldr	r2, [sp, #72]
 1652 0926 5244     		add	r2, r2, r10
 1653 0928 4D4E     		ldr	r6, .L5+8
 1654 092a B446     		mov	ip, r6
 1655 092c 6244     		add	r2, r2, ip
 1656              	.LVL370:
 1657 092e 1B26     		movs	r6, #27
 1658 0930 F241     		rors	r2, r2, r6
 1659              	.LVL371:
 1660 0932 A218     		adds	r2, r4, r2
 1661              	.LVL372:
 1662 0934 D941     		rors	r1, r1, r3
 1663              	.LVL373:
 1664 0936 1191     		str	r1, [sp, #68]
 1665              	.LVL374:
 149:strong-arm\src\ripemd160/ripemd160.c **** 	JJ(dd, ee, aa, bb, cc, X[ 9], 11);
 1666              		.loc 1 149 0
 1667 0938 CE43     		mvns	r6, r1
 1668 093a 2E43     		orrs	r6, r5
 1669 093c 5640     		eors	r6, r2
 1670 093e B246     		mov	r10, r6
 1671 0940 C244     		add	r10, r10, r8
 1672 0942 5444     		add	r4, r4, r10
 1673              	.LVL375:
 1674 0944 6444     		add	r4, r4, ip
 1675              	.LVL376:
ARM GAS  C:\Users\Ray\AppData\Local\Temp\ccdgjwii.s 			page 33


 1676 0946 1526     		movs	r6, #21
 1677 0948 F441     		rors	r4, r4, r6
 1678              	.LVL377:
 1679 094a 5C44     		add	r4, r4, fp
 1680              	.LVL378:
 1681 094c DD41     		rors	r5, r5, r3
 1682              	.LVL379:
 150:strong-arm\src\ripemd160/ripemd160.c **** 	JJ(cc, dd, ee, aa, bb, X[ 7],  6);
 1683              		.loc 1 150 0
 1684 094e EE43     		mvns	r6, r5
 1685 0950 1100     		movs	r1, r2
 1686              	.LVL380:
 1687 0952 1643     		orrs	r6, r2
 1688 0954 6640     		eors	r6, r4
 1689 0956 B246     		mov	r10, r6
 1690 0958 079E     		ldr	r6, [sp, #28]
 1691 095a B446     		mov	ip, r6
 1692 095c E244     		add	r10, r10, ip
 1693 095e 5E46     		mov	r6, fp
 1694 0960 5644     		add	r6, r6, r10
 1695 0962 3F4A     		ldr	r2, .L5+8
 1696              	.LVL381:
 1697 0964 9446     		mov	ip, r2
 1698 0966 6644     		add	r6, r6, ip
 1699              	.LVL382:
 1700 0968 1A22     		movs	r2, #26
 1701 096a D641     		rors	r6, r6, r2
 1702              	.LVL383:
 1703 096c B346     		mov	fp, r6
 1704              	.LVL384:
 1705 096e 119A     		ldr	r2, [sp, #68]
 1706 0970 9446     		mov	ip, r2
 1707 0972 E344     		add	fp, fp, ip
 1708              	.LVL385:
 1709 0974 0A00     		movs	r2, r1
 1710 0976 DA41     		rors	r2, r2, r3
 1711              	.LVL386:
 151:strong-arm\src\ripemd160/ripemd160.c **** 	JJ(bb, cc, dd, ee, aa, X[12],  8);
 1712              		.loc 1 151 0
 1713 0978 D643     		mvns	r6, r2
 1714 097a 2643     		orrs	r6, r4
 1715 097c 5946     		mov	r1, fp
 1716 097e 4E40     		eors	r6, r1
 1717 0980 B246     		mov	r10, r6
 1718 0982 0A9E     		ldr	r6, [sp, #40]
 1719 0984 B446     		mov	ip, r6
 1720 0986 E244     		add	r10, r10, ip
 1721 0988 1199     		ldr	r1, [sp, #68]
 1722 098a 5144     		add	r1, r1, r10
 1723 098c 344E     		ldr	r6, .L5+8
 1724 098e B446     		mov	ip, r6
 1725 0990 6144     		add	r1, r1, ip
 1726              	.LVL387:
 1727 0992 1826     		movs	r6, #24
 1728 0994 F141     		rors	r1, r1, r6
 1729              	.LVL388:
 1730 0996 6918     		adds	r1, r5, r1
ARM GAS  C:\Users\Ray\AppData\Local\Temp\ccdgjwii.s 			page 34


 1731              	.LVL389:
 1732 0998 DC41     		rors	r4, r4, r3
 1733              	.LVL390:
 1734 099a A246     		mov	r10, r4
 1735              	.LVL391:
 152:strong-arm\src\ripemd160/ripemd160.c **** 	JJ(aa, bb, cc, dd, ee, X[ 2], 13);
 1736              		.loc 1 152 0
 1737 099c E443     		mvns	r4, r4
 1738              	.LVL392:
 1739 099e 5E46     		mov	r6, fp
 1740 09a0 3443     		orrs	r4, r6
 1741 09a2 4C40     		eors	r4, r1
 1742 09a4 029E     		ldr	r6, [sp, #8]
 1743 09a6 B446     		mov	ip, r6
 1744 09a8 6444     		add	r4, r4, ip
 1745 09aa 2C19     		adds	r4, r5, r4
 1746 09ac 2C4D     		ldr	r5, .L5+8
 1747              	.LVL393:
 1748 09ae AC46     		mov	ip, r5
 1749 09b0 6444     		add	r4, r4, ip
 1750              	.LVL394:
 1751 09b2 1325     		movs	r5, #19
 1752 09b4 EC41     		rors	r4, r4, r5
 1753              	.LVL395:
 1754 09b6 1419     		adds	r4, r2, r4
 1755              	.LVL396:
 1756 09b8 5E46     		mov	r6, fp
 1757 09ba DE41     		rors	r6, r6, r3
 1758              	.LVL397:
 153:strong-arm\src\ripemd160/ripemd160.c **** 	JJ(ee, aa, bb, cc, dd, X[10], 12);
 1759              		.loc 1 153 0
 1760 09bc F543     		mvns	r5, r6
 1761 09be 0D43     		orrs	r5, r1
 1762 09c0 A346     		mov	fp, r4
 1763 09c2 6540     		eors	r5, r4
 1764 09c4 099C     		ldr	r4, [sp, #36]
 1765              	.LVL398:
 1766 09c6 A446     		mov	ip, r4
 1767 09c8 6544     		add	r5, r5, ip
 1768 09ca 5219     		adds	r2, r2, r5
 1769              	.LVL399:
 1770 09cc 244C     		ldr	r4, .L5+8
 1771 09ce A446     		mov	ip, r4
 1772 09d0 6244     		add	r2, r2, ip
 1773              	.LVL400:
 1774 09d2 1424     		movs	r4, #20
 1775 09d4 E241     		rors	r2, r2, r4
 1776              	.LVL401:
 1777 09d6 5244     		add	r2, r2, r10
 1778              	.LVL402:
 1779 09d8 D941     		rors	r1, r1, r3
 1780              	.LVL403:
 1781 09da 0D00     		movs	r5, r1
 1782              	.LVL404:
 154:strong-arm\src\ripemd160/ripemd160.c **** 	JJ(dd, ee, aa, bb, cc, X[14],  5);
 1783              		.loc 1 154 0
 1784 09dc C943     		mvns	r1, r1
ARM GAS  C:\Users\Ray\AppData\Local\Temp\ccdgjwii.s 			page 35


 1785              	.LVL405:
 1786 09de 5C46     		mov	r4, fp
 1787 09e0 2143     		orrs	r1, r4
 1788 09e2 5140     		eors	r1, r2
 1789 09e4 0C9C     		ldr	r4, [sp, #48]
 1790 09e6 A446     		mov	ip, r4
 1791 09e8 6144     		add	r1, r1, ip
 1792 09ea 5144     		add	r1, r1, r10
 1793 09ec 1C4C     		ldr	r4, .L5+8
 1794 09ee A446     		mov	ip, r4
 1795 09f0 6144     		add	r1, r1, ip
 1796              	.LVL406:
 1797 09f2 1B24     		movs	r4, #27
 1798 09f4 E141     		rors	r1, r1, r4
 1799              	.LVL407:
 1800 09f6 7118     		adds	r1, r6, r1
 1801              	.LVL408:
 1802 09f8 5C46     		mov	r4, fp
 1803 09fa DC41     		rors	r4, r4, r3
 1804 09fc A346     		mov	fp, r4
 1805              	.LVL409:
 155:strong-arm\src\ripemd160/ripemd160.c **** 	JJ(cc, dd, ee, aa, bb, X[ 1], 12);
 1806              		.loc 1 155 0
 1807 09fe E443     		mvns	r4, r4
 1808              	.LVL410:
 1809 0a00 1443     		orrs	r4, r2
 1810 0a02 4C40     		eors	r4, r1
 1811 0a04 A246     		mov	r10, r4
 1812 0a06 019C     		ldr	r4, [sp, #4]
 1813 0a08 A446     		mov	ip, r4
 1814 0a0a E244     		add	r10, r10, ip
 1815 0a0c 5644     		add	r6, r6, r10
 1816              	.LVL411:
 1817 0a0e 144C     		ldr	r4, .L5+8
 1818 0a10 A446     		mov	ip, r4
 1819 0a12 6644     		add	r6, r6, ip
 1820              	.LVL412:
 1821 0a14 1424     		movs	r4, #20
 1822 0a16 E641     		rors	r6, r6, r4
 1823              	.LVL413:
 1824 0a18 AE19     		adds	r6, r5, r6
 1825              	.LVL414:
 1826 0a1a DA41     		rors	r2, r2, r3
 1827              	.LVL415:
 1828 0a1c 9246     		mov	r10, r2
 1829              	.LVL416:
 156:strong-arm\src\ripemd160/ripemd160.c **** 	JJ(bb, cc, dd, ee, aa, X[ 3], 13);
 1830              		.loc 1 156 0
 1831 0a1e D243     		mvns	r2, r2
 1832              	.LVL417:
 1833 0a20 0A43     		orrs	r2, r1
 1834 0a22 7240     		eors	r2, r6
 1835 0a24 039C     		ldr	r4, [sp, #12]
 1836 0a26 A446     		mov	ip, r4
 1837 0a28 6244     		add	r2, r2, ip
 1838 0a2a AA18     		adds	r2, r5, r2
 1839 0a2c 0C4D     		ldr	r5, .L5+8
ARM GAS  C:\Users\Ray\AppData\Local\Temp\ccdgjwii.s 			page 36


 1840              	.LVL418:
 1841 0a2e AC46     		mov	ip, r5
 1842 0a30 6244     		add	r2, r2, ip
 1843              	.LVL419:
 1844 0a32 1325     		movs	r5, #19
 1845 0a34 EA41     		rors	r2, r2, r5
 1846              	.LVL420:
 1847 0a36 5A44     		add	r2, r2, fp
 1848              	.LVL421:
 1849 0a38 D941     		rors	r1, r1, r3
 1850              	.LVL422:
 157:strong-arm\src\ripemd160/ripemd160.c **** 	JJ(aa, bb, cc, dd, ee, X[ 8], 14);
 1851              		.loc 1 157 0
 1852 0a3a 1191     		str	r1, [sp, #68]
 1853 0a3c CD43     		mvns	r5, r1
 1854 0a3e 3543     		orrs	r5, r6
 1855 0a40 5540     		eors	r5, r2
 1856 0a42 0899     		ldr	r1, [sp, #32]
 1857              	.LVL423:
 1858 0a44 8C46     		mov	ip, r1
 1859 0a46 6544     		add	r5, r5, ip
 1860 0a48 2C00     		movs	r4, r5
 1861 0a4a 5C44     		add	r4, r4, fp
 1862 0a4c 0449     		ldr	r1, .L5+8
 1863 0a4e 8C46     		mov	ip, r1
 1864 0a50 6444     		add	r4, r4, ip
 1865              	.LVL424:
 1866 0a52 1221     		movs	r1, #18
 1867 0a54 06E0     		b	.L6
 1868              	.L7:
 1869 0a56 C046     		.align	2
 1870              	.L5:
 1871 0a58 A1EBD96E 		.word	1859775393
 1872 0a5c DCBC1B8F 		.word	-1894007588
 1873 0a60 4EFD53A9 		.word	-1454113458
 1874              	.L6:
 1875 0a64 CC41     		rors	r4, r4, r1
 1876              	.LVL425:
 1877 0a66 5444     		add	r4, r4, r10
 1878              	.LVL426:
 1879 0a68 DE41     		rors	r6, r6, r3
 1880              	.LVL427:
 158:strong-arm\src\ripemd160/ripemd160.c **** 	JJ(ee, aa, bb, cc, dd, X[11], 11);
 1881              		.loc 1 158 0
 1882 0a6a F543     		mvns	r5, r6
 1883 0a6c 1543     		orrs	r5, r2
 1884 0a6e 6540     		eors	r5, r4
 1885 0a70 7D19     		adds	r5, r7, r5
 1886 0a72 5544     		add	r5, r5, r10
 1887 0a74 6544     		add	r5, r5, ip
 1888              	.LVL428:
 1889 0a76 1521     		movs	r1, #21
 1890 0a78 CD41     		rors	r5, r5, r1
 1891              	.LVL429:
 1892 0a7a AA46     		mov	r10, r5
 1893              	.LVL430:
 1894 0a7c 119D     		ldr	r5, [sp, #68]
ARM GAS  C:\Users\Ray\AppData\Local\Temp\ccdgjwii.s 			page 37


 1895 0a7e AC46     		mov	ip, r5
 1896 0a80 E244     		add	r10, r10, ip
 1897              	.LVL431:
 1898 0a82 DA41     		rors	r2, r2, r3
 1899              	.LVL432:
 159:strong-arm\src\ripemd160/ripemd160.c **** 	JJ(dd, ee, aa, bb, cc, X[ 6],  8);
 1900              		.loc 1 159 0
 1901 0a84 D543     		mvns	r5, r2
 1902 0a86 2543     		orrs	r5, r4
 1903 0a88 5146     		mov	r1, r10
 1904 0a8a 4D40     		eors	r5, r1
 1905 0a8c 0699     		ldr	r1, [sp, #24]
 1906 0a8e 8C46     		mov	ip, r1
 1907 0a90 6544     		add	r5, r5, ip
 1908 0a92 1199     		ldr	r1, [sp, #68]
 1909 0a94 4919     		adds	r1, r1, r5
 1910 0a96 FE4D     		ldr	r5, .L8
 1911 0a98 AC46     		mov	ip, r5
 1912 0a9a 6144     		add	r1, r1, ip
 1913              	.LVL433:
 1914 0a9c 1825     		movs	r5, #24
 1915 0a9e E941     		rors	r1, r1, r5
 1916              	.LVL434:
 1917 0aa0 7118     		adds	r1, r6, r1
 1918              	.LVL435:
 1919 0aa2 2500     		movs	r5, r4
 1920 0aa4 DD41     		rors	r5, r5, r3
 1921              	.LVL436:
 160:strong-arm\src\ripemd160/ripemd160.c **** 	JJ(cc, dd, ee, aa, bb, X[15],  5);
 1922              		.loc 1 160 0
 1923 0aa6 1195     		str	r5, [sp, #68]
 1924 0aa8 EC43     		mvns	r4, r5
 1925 0aaa 5546     		mov	r5, r10
 1926              	.LVL437:
 1927 0aac 2C43     		orrs	r4, r5
 1928 0aae 4C40     		eors	r4, r1
 1929 0ab0 0D9D     		ldr	r5, [sp, #52]
 1930 0ab2 AC46     		mov	ip, r5
 1931 0ab4 6444     		add	r4, r4, ip
 1932 0ab6 3619     		adds	r6, r6, r4
 1933              	.LVL438:
 1934 0ab8 F54C     		ldr	r4, .L8
 1935 0aba A446     		mov	ip, r4
 1936 0abc 6644     		add	r6, r6, ip
 1937              	.LVL439:
 1938 0abe 1B24     		movs	r4, #27
 1939 0ac0 E641     		rors	r6, r6, r4
 1940              	.LVL440:
 1941 0ac2 9619     		adds	r6, r2, r6
 1942 0ac4 3500     		movs	r5, r6
 1943              	.LVL441:
 1944 0ac6 5646     		mov	r6, r10
 1945 0ac8 DE41     		rors	r6, r6, r3
 1946              	.LVL442:
 161:strong-arm\src\ripemd160/ripemd160.c **** 	JJ(bb, cc, dd, ee, aa, X[13],  6);
 1947              		.loc 1 161 0
 1948 0aca 1396     		str	r6, [sp, #76]
ARM GAS  C:\Users\Ray\AppData\Local\Temp\ccdgjwii.s 			page 38


 1949 0acc F443     		mvns	r4, r6
 1950 0ace 0C43     		orrs	r4, r1
 1951 0ad0 1295     		str	r5, [sp, #72]
 1952 0ad2 6C40     		eors	r4, r5
 1953 0ad4 0B9D     		ldr	r5, [sp, #44]
 1954              	.LVL443:
 1955 0ad6 AC46     		mov	ip, r5
 1956 0ad8 6444     		add	r4, r4, ip
 1957 0ada 1219     		adds	r2, r2, r4
 1958              	.LVL444:
 1959 0adc EC4C     		ldr	r4, .L8
 1960 0ade A446     		mov	ip, r4
 1961 0ae0 6244     		add	r2, r2, ip
 1962              	.LVL445:
 1963 0ae2 1A24     		movs	r4, #26
 1964 0ae4 E241     		rors	r2, r2, r4
 1965              	.LVL446:
 1966 0ae6 9246     		mov	r10, r2
 1967 0ae8 119A     		ldr	r2, [sp, #68]
 1968 0aea 9446     		mov	ip, r2
 1969 0aec E244     		add	r10, r10, ip
 1970 0aee 5246     		mov	r2, r10
 1971 0af0 1492     		str	r2, [sp, #80]
 1972              	.LVL447:
 1973 0af2 0A00     		movs	r2, r1
 1974              	.LVL448:
 1975 0af4 DA41     		rors	r2, r2, r3
 1976 0af6 1592     		str	r2, [sp, #84]
 1977              	.LVL449:
 162:strong-arm\src\ripemd160/ripemd160.c **** 	
 163:strong-arm\src\ripemd160/ripemd160.c **** 	/* parallel round 1 */
 164:strong-arm\src\ripemd160/ripemd160.c **** 	JJJ(aaa, bbb, ccc, ddd, eee, X[ 5],  8);
 1978              		.loc 1 164 0
 1979 0af8 C168     		ldr	r1, [r0, #12]
 1980 0afa C943     		mvns	r1, r1
 1981 0afc 8268     		ldr	r2, [r0, #8]
 1982              	.LVL450:
 1983 0afe 1143     		orrs	r1, r2
 1984 0b00 4268     		ldr	r2, [r0, #4]
 1985 0b02 5140     		eors	r1, r2
 1986 0b04 059A     		ldr	r2, [sp, #20]
 1987 0b06 9446     		mov	ip, r2
 1988 0b08 6144     		add	r1, r1, ip
 1989 0b0a 0268     		ldr	r2, [r0]
 1990 0b0c 9446     		mov	ip, r2
 1991 0b0e 6144     		add	r1, r1, ip
 1992 0b10 E04A     		ldr	r2, .L8+4
 1993 0b12 9446     		mov	ip, r2
 1994 0b14 6144     		add	r1, r1, ip
 1995              	.LVL451:
 1996 0b16 1822     		movs	r2, #24
 1997 0b18 D141     		rors	r1, r1, r2
 1998              	.LVL452:
 1999 0b1a 0269     		ldr	r2, [r0, #16]
 2000 0b1c 9446     		mov	ip, r2
 2001              	.LVL453:
 2002 0b1e 6144     		add	r1, r1, ip
ARM GAS  C:\Users\Ray\AppData\Local\Temp\ccdgjwii.s 			page 39


 2003              	.LVL454:
 165:strong-arm\src\ripemd160/ripemd160.c **** 	JJJ(eee, aaa, bbb, ccc, ddd, X[14],  9);
 2004              		.loc 1 165 0
 2005 0b20 109D     		ldr	r5, [sp, #64]
 2006 0b22 EC43     		mvns	r4, r5
 2007 0b24 4268     		ldr	r2, [r0, #4]
 2008 0b26 1443     		orrs	r4, r2
 2009 0b28 4C40     		eors	r4, r1
 2010 0b2a 0C9A     		ldr	r2, [sp, #48]
 2011 0b2c 9446     		mov	ip, r2
 2012 0b2e 6444     		add	r4, r4, ip
 2013 0b30 0669     		ldr	r6, [r0, #16]
 2014              	.LVL455:
 2015 0b32 B446     		mov	ip, r6
 2016 0b34 6444     		add	r4, r4, ip
 2017 0b36 D74E     		ldr	r6, .L8+4
 2018 0b38 B446     		mov	ip, r6
 2019 0b3a 6444     		add	r4, r4, ip
 2020              	.LVL456:
 2021 0b3c 4E46     		mov	r6, r9
 2022 0b3e F441     		rors	r4, r4, r6
 2023              	.LVL457:
 2024 0b40 C668     		ldr	r6, [r0, #12]
 2025 0b42 B446     		mov	ip, r6
 2026              	.LVL458:
 2027 0b44 6444     		add	r4, r4, ip
 2028              	.LVL459:
 166:strong-arm\src\ripemd160/ripemd160.c **** 	JJJ(ddd, eee, aaa, bbb, ccc, X[ 7],  9);
 2029              		.loc 1 166 0
 2030 0b46 0F9A     		ldr	r2, [sp, #60]
 2031 0b48 D643     		mvns	r6, r2
 2032 0b4a 0E43     		orrs	r6, r1
 2033 0b4c 6640     		eors	r6, r4
 2034 0b4e 079A     		ldr	r2, [sp, #28]
 2035 0b50 9446     		mov	ip, r2
 2036 0b52 6644     		add	r6, r6, ip
 2037 0b54 C268     		ldr	r2, [r0, #12]
 2038 0b56 9446     		mov	ip, r2
 2039 0b58 6644     		add	r6, r6, ip
 2040 0b5a CE4A     		ldr	r2, .L8+4
 2041 0b5c 9446     		mov	ip, r2
 2042 0b5e 6644     		add	r6, r6, ip
 2043              	.LVL460:
 2044 0b60 4A46     		mov	r2, r9
 2045 0b62 D641     		rors	r6, r6, r2
 2046              	.LVL461:
 2047 0b64 AC46     		mov	ip, r5
 2048              	.LVL462:
 2049 0b66 6644     		add	r6, r6, ip
 2050              	.LVL463:
 2051 0b68 D941     		rors	r1, r1, r3
 2052              	.LVL464:
 2053 0b6a 8A46     		mov	r10, r1
 2054              	.LVL465:
 167:strong-arm\src\ripemd160/ripemd160.c **** 	JJJ(ccc, ddd, eee, aaa, bbb, X[ 0], 11);
 2055              		.loc 1 167 0
 2056 0b6c CD43     		mvns	r5, r1
ARM GAS  C:\Users\Ray\AppData\Local\Temp\ccdgjwii.s 			page 40


 2057 0b6e 2543     		orrs	r5, r4
 2058 0b70 7540     		eors	r5, r6
 2059 0b72 009A     		ldr	r2, [sp]
 2060 0b74 9446     		mov	ip, r2
 2061 0b76 6544     		add	r5, r5, ip
 2062 0b78 109A     		ldr	r2, [sp, #64]
 2063 0b7a 9446     		mov	ip, r2
 2064 0b7c 6544     		add	r5, r5, ip
 2065 0b7e C54A     		ldr	r2, .L8+4
 2066 0b80 9446     		mov	ip, r2
 2067 0b82 6544     		add	r5, r5, ip
 2068              	.LVL466:
 2069 0b84 1522     		movs	r2, #21
 2070 0b86 D541     		rors	r5, r5, r2
 2071              	.LVL467:
 2072 0b88 0F99     		ldr	r1, [sp, #60]
 2073              	.LVL468:
 2074 0b8a 8C46     		mov	ip, r1
 2075              	.LVL469:
 2076 0b8c 6544     		add	r5, r5, ip
 2077              	.LVL470:
 2078 0b8e DC41     		rors	r4, r4, r3
 2079              	.LVL471:
 168:strong-arm\src\ripemd160/ripemd160.c **** 	JJJ(bbb, ccc, ddd, eee, aaa, X[ 9], 13);
 2080              		.loc 1 168 0
 2081 0b90 E243     		mvns	r2, r4
 2082 0b92 3243     		orrs	r2, r6
 2083 0b94 6A40     		eors	r2, r5
 2084 0b96 4244     		add	r2, r2, r8
 2085 0b98 9146     		mov	r9, r2
 2086 0b9a 4A46     		mov	r2, r9
 2087 0b9c 6244     		add	r2, r2, ip
 2088 0b9e BD49     		ldr	r1, .L8+4
 2089 0ba0 8C46     		mov	ip, r1
 2090 0ba2 6244     		add	r2, r2, ip
 2091              	.LVL472:
 2092 0ba4 1321     		movs	r1, #19
 2093 0ba6 CA41     		rors	r2, r2, r1
 2094              	.LVL473:
 2095 0ba8 5244     		add	r2, r2, r10
 2096              	.LVL474:
 2097 0baa DE41     		rors	r6, r6, r3
 2098              	.LVL475:
 2099 0bac B346     		mov	fp, r6
 2100              	.LVL476:
 169:strong-arm\src\ripemd160/ripemd160.c **** 	JJJ(aaa, bbb, ccc, ddd, eee, X[ 2], 15);
 2101              		.loc 1 169 0
 2102 0bae F143     		mvns	r1, r6
 2103 0bb0 0E00     		movs	r6, r1
 2104              	.LVL477:
 2105 0bb2 2E43     		orrs	r6, r5
 2106 0bb4 5640     		eors	r6, r2
 2107 0bb6 B146     		mov	r9, r6
 2108 0bb8 029E     		ldr	r6, [sp, #8]
 2109 0bba B446     		mov	ip, r6
 2110 0bbc E144     		add	r9, r9, ip
 2111 0bbe 5146     		mov	r1, r10
ARM GAS  C:\Users\Ray\AppData\Local\Temp\ccdgjwii.s 			page 41


 2112 0bc0 4944     		add	r1, r1, r9
 2113 0bc2 B44E     		ldr	r6, .L8+4
 2114 0bc4 B446     		mov	ip, r6
 2115 0bc6 6144     		add	r1, r1, ip
 2116              	.LVL478:
 2117 0bc8 1126     		movs	r6, #17
 2118 0bca F141     		rors	r1, r1, r6
 2119              	.LVL479:
 2120 0bcc 8A46     		mov	r10, r1
 2121              	.LVL480:
 2122 0bce A244     		add	r10, r10, r4
 2123              	.LVL481:
 2124 0bd0 DD41     		rors	r5, r5, r3
 2125              	.LVL482:
 170:strong-arm\src\ripemd160/ripemd160.c **** 	JJJ(eee, aaa, bbb, ccc, ddd, X[11], 15);
 2126              		.loc 1 170 0
 2127 0bd2 EE43     		mvns	r6, r5
 2128 0bd4 1643     		orrs	r6, r2
 2129 0bd6 5146     		mov	r1, r10
 2130 0bd8 4E40     		eors	r6, r1
 2131 0bda B146     		mov	r9, r6
 2132 0bdc B944     		add	r9, r9, r7
 2133 0bde 4C44     		add	r4, r4, r9
 2134              	.LVL483:
 2135 0be0 6444     		add	r4, r4, ip
 2136              	.LVL484:
 2137 0be2 1126     		movs	r6, #17
 2138 0be4 F441     		rors	r4, r4, r6
 2139              	.LVL485:
 2140 0be6 5C44     		add	r4, r4, fp
 2141              	.LVL486:
 2142 0be8 DA41     		rors	r2, r2, r3
 2143              	.LVL487:
 171:strong-arm\src\ripemd160/ripemd160.c **** 	JJJ(ddd, eee, aaa, bbb, ccc, X[ 4],  5);
 2144              		.loc 1 171 0
 2145 0bea D643     		mvns	r6, r2
 2146 0bec 0E43     		orrs	r6, r1
 2147 0bee 6640     		eors	r6, r4
 2148 0bf0 B146     		mov	r9, r6
 2149 0bf2 049E     		ldr	r6, [sp, #16]
 2150 0bf4 B446     		mov	ip, r6
 2151 0bf6 E144     		add	r9, r9, ip
 2152 0bf8 5E46     		mov	r6, fp
 2153 0bfa 4E44     		add	r6, r6, r9
 2154 0bfc A549     		ldr	r1, .L8+4
 2155 0bfe 8C46     		mov	ip, r1
 2156 0c00 6644     		add	r6, r6, ip
 2157              	.LVL488:
 2158 0c02 1B21     		movs	r1, #27
 2159 0c04 CE41     		rors	r6, r6, r1
 2160              	.LVL489:
 2161 0c06 AE19     		adds	r6, r5, r6
 2162              	.LVL490:
 2163 0c08 5146     		mov	r1, r10
 2164 0c0a D941     		rors	r1, r1, r3
 2165 0c0c 8A46     		mov	r10, r1
 2166              	.LVL491:
ARM GAS  C:\Users\Ray\AppData\Local\Temp\ccdgjwii.s 			page 42


 172:strong-arm\src\ripemd160/ripemd160.c **** 	JJJ(ccc, ddd, eee, aaa, bbb, X[13],  7);
 2167              		.loc 1 172 0
 2168 0c0e C943     		mvns	r1, r1
 2169              	.LVL492:
 2170 0c10 2143     		orrs	r1, r4
 2171 0c12 7140     		eors	r1, r6
 2172 0c14 8946     		mov	r9, r1
 2173 0c16 0B99     		ldr	r1, [sp, #44]
 2174 0c18 8C46     		mov	ip, r1
 2175 0c1a E144     		add	r9, r9, ip
 2176 0c1c 4D44     		add	r5, r5, r9
 2177              	.LVL493:
 2178 0c1e 9D49     		ldr	r1, .L8+4
 2179 0c20 8C46     		mov	ip, r1
 2180 0c22 6544     		add	r5, r5, ip
 2181              	.LVL494:
 2182 0c24 1921     		movs	r1, #25
 2183 0c26 CD41     		rors	r5, r5, r1
 2184              	.LVL495:
 2185 0c28 5519     		adds	r5, r2, r5
 2186              	.LVL496:
 2187 0c2a DC41     		rors	r4, r4, r3
 2188              	.LVL497:
 173:strong-arm\src\ripemd160/ripemd160.c **** 	JJJ(bbb, ccc, ddd, eee, aaa, X[ 6],  7);
 2189              		.loc 1 173 0
 2190 0c2c E143     		mvns	r1, r4
 2191 0c2e 3143     		orrs	r1, r6
 2192 0c30 6940     		eors	r1, r5
 2193 0c32 8946     		mov	r9, r1
 2194 0c34 0699     		ldr	r1, [sp, #24]
 2195 0c36 8C46     		mov	ip, r1
 2196 0c38 E144     		add	r9, r9, ip
 2197 0c3a 4A44     		add	r2, r2, r9
 2198              	.LVL498:
 2199 0c3c 9549     		ldr	r1, .L8+4
 2200 0c3e 8C46     		mov	ip, r1
 2201 0c40 6244     		add	r2, r2, ip
 2202              	.LVL499:
 2203 0c42 1921     		movs	r1, #25
 2204 0c44 CA41     		rors	r2, r2, r1
 2205              	.LVL500:
 2206 0c46 5244     		add	r2, r2, r10
 2207              	.LVL501:
 2208 0c48 DE41     		rors	r6, r6, r3
 2209              	.LVL502:
 2210 0c4a B346     		mov	fp, r6
 2211              	.LVL503:
 174:strong-arm\src\ripemd160/ripemd160.c **** 	JJJ(aaa, bbb, ccc, ddd, eee, X[15],  8);
 2212              		.loc 1 174 0
 2213 0c4c F143     		mvns	r1, r6
 2214 0c4e 2943     		orrs	r1, r5
 2215 0c50 5140     		eors	r1, r2
 2216 0c52 8C46     		mov	ip, r1
 2217 0c54 0D9E     		ldr	r6, [sp, #52]
 2218              	.LVL504:
 2219 0c56 B146     		mov	r9, r6
 2220 0c58 CC44     		add	ip, ip, r9
ARM GAS  C:\Users\Ray\AppData\Local\Temp\ccdgjwii.s 			page 43


 2221 0c5a 5146     		mov	r1, r10
 2222 0c5c 6144     		add	r1, r1, ip
 2223 0c5e 8D4E     		ldr	r6, .L8+4
 2224 0c60 B446     		mov	ip, r6
 2225 0c62 6144     		add	r1, r1, ip
 2226              	.LVL505:
 2227 0c64 1826     		movs	r6, #24
 2228 0c66 F141     		rors	r1, r1, r6
 2229              	.LVL506:
 2230 0c68 6118     		adds	r1, r4, r1
 2231              	.LVL507:
 2232 0c6a DD41     		rors	r5, r5, r3
 2233              	.LVL508:
 175:strong-arm\src\ripemd160/ripemd160.c **** 	JJJ(eee, aaa, bbb, ccc, ddd, X[ 8], 11);
 2234              		.loc 1 175 0
 2235 0c6c EE43     		mvns	r6, r5
 2236 0c6e 1643     		orrs	r6, r2
 2237 0c70 4E40     		eors	r6, r1
 2238 0c72 B446     		mov	ip, r6
 2239 0c74 089E     		ldr	r6, [sp, #32]
 2240 0c76 B146     		mov	r9, r6
 2241 0c78 CC44     		add	ip, ip, r9
 2242 0c7a 6444     		add	r4, r4, ip
 2243              	.LVL509:
 2244 0c7c 854E     		ldr	r6, .L8+4
 2245 0c7e B446     		mov	ip, r6
 2246 0c80 6444     		add	r4, r4, ip
 2247              	.LVL510:
 2248 0c82 1526     		movs	r6, #21
 2249 0c84 F441     		rors	r4, r4, r6
 2250              	.LVL511:
 2251 0c86 5C44     		add	r4, r4, fp
 2252              	.LVL512:
 2253 0c88 DA41     		rors	r2, r2, r3
 2254              	.LVL513:
 176:strong-arm\src\ripemd160/ripemd160.c **** 	JJJ(ddd, eee, aaa, bbb, ccc, X[ 1], 14);
 2255              		.loc 1 176 0
 2256 0c8a D343     		mvns	r3, r2
 2257 0c8c 0B43     		orrs	r3, r1
 2258 0c8e 6340     		eors	r3, r4
 2259 0c90 019E     		ldr	r6, [sp, #4]
 2260 0c92 B446     		mov	ip, r6
 2261 0c94 6344     		add	r3, r3, ip
 2262 0c96 5B44     		add	r3, r3, fp
 2263 0c98 1E00     		movs	r6, r3
 2264 0c9a 7E4B     		ldr	r3, .L8+4
 2265 0c9c 9C46     		mov	ip, r3
 2266 0c9e 6644     		add	r6, r6, ip
 2267              	.LVL514:
 2268 0ca0 1223     		movs	r3, #18
 2269 0ca2 DE41     		rors	r6, r6, r3
 2270              	.LVL515:
 2271 0ca4 AE19     		adds	r6, r5, r6
 2272              	.LVL516:
 2273 0ca6 0433     		adds	r3, r3, #4
 2274 0ca8 D941     		rors	r1, r1, r3
 2275              	.LVL517:
ARM GAS  C:\Users\Ray\AppData\Local\Temp\ccdgjwii.s 			page 44


 2276 0caa 8B46     		mov	fp, r1
 2277              	.LVL518:
 177:strong-arm\src\ripemd160/ripemd160.c **** 	JJJ(ccc, ddd, eee, aaa, bbb, X[10], 14);
 2278              		.loc 1 177 0
 2279 0cac C943     		mvns	r1, r1
 2280              	.LVL519:
 2281 0cae 2143     		orrs	r1, r4
 2282 0cb0 7140     		eors	r1, r6
 2283 0cb2 8C46     		mov	ip, r1
 2284 0cb4 0999     		ldr	r1, [sp, #36]
 2285 0cb6 8946     		mov	r9, r1
 2286 0cb8 CC44     		add	ip, ip, r9
 2287 0cba 6544     		add	r5, r5, ip
 2288              	.LVL520:
 2289 0cbc 7549     		ldr	r1, .L8+4
 2290 0cbe 8C46     		mov	ip, r1
 2291 0cc0 6544     		add	r5, r5, ip
 2292              	.LVL521:
 2293 0cc2 1221     		movs	r1, #18
 2294 0cc4 CD41     		rors	r5, r5, r1
 2295              	.LVL522:
 2296 0cc6 5519     		adds	r5, r2, r5
 2297              	.LVL523:
 2298 0cc8 DC41     		rors	r4, r4, r3
 2299              	.LVL524:
 178:strong-arm\src\ripemd160/ripemd160.c **** 	JJJ(bbb, ccc, ddd, eee, aaa, X[ 3], 12);
 2300              		.loc 1 178 0
 2301 0cca 0E94     		str	r4, [sp, #56]
 2302 0ccc E143     		mvns	r1, r4
 2303 0cce 3143     		orrs	r1, r6
 2304 0cd0 6940     		eors	r1, r5
 2305 0cd2 8C46     		mov	ip, r1
 2306 0cd4 0399     		ldr	r1, [sp, #12]
 2307 0cd6 8946     		mov	r9, r1
 2308 0cd8 CC44     		add	ip, ip, r9
 2309 0cda 6244     		add	r2, r2, ip
 2310              	.LVL525:
 2311 0cdc 6D49     		ldr	r1, .L8+4
 2312 0cde 8C46     		mov	ip, r1
 2313 0ce0 6244     		add	r2, r2, ip
 2314              	.LVL526:
 2315 0ce2 1421     		movs	r1, #20
 2316 0ce4 8946     		mov	r9, r1
 2317 0ce6 CA41     		rors	r2, r2, r1
 2318              	.LVL527:
 2319 0ce8 5A44     		add	r2, r2, fp
 2320              	.LVL528:
 2321 0cea DE41     		rors	r6, r6, r3
 2322              	.LVL529:
 179:strong-arm\src\ripemd160/ripemd160.c **** 	JJJ(aaa, bbb, ccc, ddd, eee, X[12],  6);
 2323              		.loc 1 179 0
 2324 0cec F143     		mvns	r1, r6
 2325 0cee 2943     		orrs	r1, r5
 2326 0cf0 5140     		eors	r1, r2
 2327 0cf2 8C46     		mov	ip, r1
 2328 0cf4 0A99     		ldr	r1, [sp, #40]
 2329 0cf6 8A46     		mov	r10, r1
ARM GAS  C:\Users\Ray\AppData\Local\Temp\ccdgjwii.s 			page 45


 2330 0cf8 D444     		add	ip, ip, r10
 2331 0cfa 5946     		mov	r1, fp
 2332 0cfc 6144     		add	r1, r1, ip
 2333 0cfe 654C     		ldr	r4, .L8+4
 2334              	.LVL530:
 2335 0d00 A446     		mov	ip, r4
 2336 0d02 6144     		add	r1, r1, ip
 2337              	.LVL531:
 2338 0d04 1A24     		movs	r4, #26
 2339 0d06 A346     		mov	fp, r4
 2340 0d08 E141     		rors	r1, r1, r4
 2341              	.LVL532:
 2342 0d0a 0E9C     		ldr	r4, [sp, #56]
 2343 0d0c A446     		mov	ip, r4
 2344 0d0e 6144     		add	r1, r1, ip
 2345              	.LVL533:
 2346 0d10 DD41     		rors	r5, r5, r3
 2347              	.LVL534:
 2348 0d12 2C00     		movs	r4, r5
 2349              	.LVL535:
 180:strong-arm\src\ripemd160/ripemd160.c **** 	
 181:strong-arm\src\ripemd160/ripemd160.c **** 	/* parallel round 2 */
 182:strong-arm\src\ripemd160/ripemd160.c **** 	III(eee, aaa, bbb, ccc, ddd, X[ 6],  9); 
 2350              		.loc 1 182 0
 2351 0d14 1500     		movs	r5, r2
 2352 0d16 4D40     		eors	r5, r1
 2353 0d18 0F94     		str	r4, [sp, #60]
 2354 0d1a 2540     		ands	r5, r4
 2355 0d1c 5540     		eors	r5, r2
 2356 0d1e AC46     		mov	ip, r5
 2357 0d20 069D     		ldr	r5, [sp, #24]
 2358 0d22 AA46     		mov	r10, r5
 2359 0d24 D444     		add	ip, ip, r10
 2360 0d26 0E9D     		ldr	r5, [sp, #56]
 2361 0d28 6544     		add	r5, r5, ip
 2362 0d2a 2C00     		movs	r4, r5
 2363              	.LVL536:
 2364 0d2c 5A4D     		ldr	r5, .L8+8
 2365 0d2e AC46     		mov	ip, r5
 2366 0d30 6444     		add	r4, r4, ip
 2367              	.LVL537:
 2368 0d32 1725     		movs	r5, #23
 2369 0d34 EC41     		rors	r4, r4, r5
 2370              	.LVL538:
 2371 0d36 3419     		adds	r4, r6, r4
 2372              	.LVL539:
 2373 0d38 DA41     		rors	r2, r2, r3
 2374              	.LVL540:
 183:strong-arm\src\ripemd160/ripemd160.c **** 	III(ddd, eee, aaa, bbb, ccc, X[11], 13);
 2375              		.loc 1 183 0
 2376 0d3a 0D00     		movs	r5, r1
 2377 0d3c 6540     		eors	r5, r4
 2378 0d3e 1540     		ands	r5, r2
 2379 0d40 4D40     		eors	r5, r1
 2380 0d42 AC46     		mov	ip, r5
 2381 0d44 BC44     		add	ip, ip, r7
 2382 0d46 6644     		add	r6, r6, ip
ARM GAS  C:\Users\Ray\AppData\Local\Temp\ccdgjwii.s 			page 46


 2383              	.LVL541:
 2384 0d48 534D     		ldr	r5, .L8+8
 2385 0d4a AC46     		mov	ip, r5
 2386 0d4c 6644     		add	r6, r6, ip
 2387              	.LVL542:
 2388 0d4e 1325     		movs	r5, #19
 2389 0d50 EE41     		rors	r6, r6, r5
 2390              	.LVL543:
 2391 0d52 0F9D     		ldr	r5, [sp, #60]
 2392 0d54 AC46     		mov	ip, r5
 2393 0d56 6644     		add	r6, r6, ip
 2394              	.LVL544:
 2395 0d58 D941     		rors	r1, r1, r3
 2396              	.LVL545:
 2397 0d5a 0D00     		movs	r5, r1
 2398              	.LVL546:
 184:strong-arm\src\ripemd160/ripemd160.c **** 	III(ccc, ddd, eee, aaa, bbb, X[ 3], 15);
 2399              		.loc 1 184 0
 2400 0d5c 2100     		movs	r1, r4
 2401              	.LVL547:
 2402 0d5e 7140     		eors	r1, r6
 2403 0d60 1095     		str	r5, [sp, #64]
 2404 0d62 2940     		ands	r1, r5
 2405 0d64 6140     		eors	r1, r4
 2406 0d66 8C46     		mov	ip, r1
 2407 0d68 0399     		ldr	r1, [sp, #12]
 2408 0d6a 8A46     		mov	r10, r1
 2409 0d6c D444     		add	ip, ip, r10
 2410 0d6e 0F99     		ldr	r1, [sp, #60]
 2411 0d70 8A46     		mov	r10, r1
 2412 0d72 E244     		add	r10, r10, ip
 2413 0d74 5546     		mov	r5, r10
 2414              	.LVL548:
 2415 0d76 4849     		ldr	r1, .L8+8
 2416 0d78 8C46     		mov	ip, r1
 2417 0d7a 6544     		add	r5, r5, ip
 2418              	.LVL549:
 2419 0d7c 1121     		movs	r1, #17
 2420 0d7e CD41     		rors	r5, r5, r1
 2421              	.LVL550:
 2422 0d80 5519     		adds	r5, r2, r5
 2423              	.LVL551:
 2424 0d82 DC41     		rors	r4, r4, r3
 2425              	.LVL552:
 185:strong-arm\src\ripemd160/ripemd160.c **** 	III(bbb, ccc, ddd, eee, aaa, X[ 7],  7);
 2426              		.loc 1 185 0
 2427 0d84 3100     		movs	r1, r6
 2428 0d86 6940     		eors	r1, r5
 2429 0d88 0E94     		str	r4, [sp, #56]
 2430 0d8a 2140     		ands	r1, r4
 2431 0d8c 7140     		eors	r1, r6
 2432 0d8e 8C46     		mov	ip, r1
 2433 0d90 0799     		ldr	r1, [sp, #28]
 2434 0d92 8A46     		mov	r10, r1
 2435 0d94 D444     		add	ip, ip, r10
 2436 0d96 6244     		add	r2, r2, ip
 2437              	.LVL553:
ARM GAS  C:\Users\Ray\AppData\Local\Temp\ccdgjwii.s 			page 47


 2438 0d98 3F49     		ldr	r1, .L8+8
 2439 0d9a 8C46     		mov	ip, r1
 2440 0d9c 6244     		add	r2, r2, ip
 2441              	.LVL554:
 2442 0d9e 1921     		movs	r1, #25
 2443 0da0 CA41     		rors	r2, r2, r1
 2444              	.LVL555:
 2445 0da2 109C     		ldr	r4, [sp, #64]
 2446              	.LVL556:
 2447 0da4 A446     		mov	ip, r4
 2448 0da6 6244     		add	r2, r2, ip
 2449              	.LVL557:
 2450 0da8 DE41     		rors	r6, r6, r3
 2451              	.LVL558:
 186:strong-arm\src\ripemd160/ripemd160.c **** 	III(aaa, bbb, ccc, ddd, eee, X[ 0], 12);
 2452              		.loc 1 186 0
 2453 0daa 2900     		movs	r1, r5
 2454 0dac 5140     		eors	r1, r2
 2455 0dae 3140     		ands	r1, r6
 2456 0db0 6940     		eors	r1, r5
 2457 0db2 8C46     		mov	ip, r1
 2458 0db4 0099     		ldr	r1, [sp]
 2459 0db6 8A46     		mov	r10, r1
 2460 0db8 D444     		add	ip, ip, r10
 2461 0dba 2100     		movs	r1, r4
 2462 0dbc 6144     		add	r1, r1, ip
 2463 0dbe 364C     		ldr	r4, .L8+8
 2464 0dc0 A446     		mov	ip, r4
 2465 0dc2 6144     		add	r1, r1, ip
 2466              	.LVL559:
 2467 0dc4 4C46     		mov	r4, r9
 2468 0dc6 E141     		rors	r1, r1, r4
 2469              	.LVL560:
 2470 0dc8 0E9C     		ldr	r4, [sp, #56]
 2471 0dca A446     		mov	ip, r4
 2472              	.LVL561:
 2473 0dcc 6144     		add	r1, r1, ip
 2474              	.LVL562:
 2475 0dce DD41     		rors	r5, r5, r3
 2476              	.LVL563:
 2477 0dd0 2C00     		movs	r4, r5
 2478              	.LVL564:
 187:strong-arm\src\ripemd160/ripemd160.c **** 	III(eee, aaa, bbb, ccc, ddd, X[13],  8);
 2479              		.loc 1 187 0
 2480 0dd2 1500     		movs	r5, r2
 2481 0dd4 4D40     		eors	r5, r1
 2482 0dd6 0F94     		str	r4, [sp, #60]
 2483 0dd8 2540     		ands	r5, r4
 2484 0dda 5540     		eors	r5, r2
 2485 0ddc AC46     		mov	ip, r5
 2486 0dde 0B9D     		ldr	r5, [sp, #44]
 2487 0de0 AA46     		mov	r10, r5
 2488 0de2 D444     		add	ip, ip, r10
 2489 0de4 0E9D     		ldr	r5, [sp, #56]
 2490 0de6 6544     		add	r5, r5, ip
 2491 0de8 2C00     		movs	r4, r5
 2492              	.LVL565:
ARM GAS  C:\Users\Ray\AppData\Local\Temp\ccdgjwii.s 			page 48


 2493 0dea 2B4D     		ldr	r5, .L8+8
 2494 0dec AC46     		mov	ip, r5
 2495 0dee 6444     		add	r4, r4, ip
 2496              	.LVL566:
 2497 0df0 1825     		movs	r5, #24
 2498 0df2 EC41     		rors	r4, r4, r5
 2499              	.LVL567:
 2500 0df4 3419     		adds	r4, r6, r4
 2501              	.LVL568:
 2502 0df6 DA41     		rors	r2, r2, r3
 2503              	.LVL569:
 2504 0df8 0E92     		str	r2, [sp, #56]
 2505              	.LVL570:
 188:strong-arm\src\ripemd160/ripemd160.c **** 	III(ddd, eee, aaa, bbb, ccc, X[ 5],  9);
 2506              		.loc 1 188 0
 2507 0dfa 0D00     		movs	r5, r1
 2508 0dfc 2200     		movs	r2, r4
 2509              	.LVL571:
 2510 0dfe 6540     		eors	r5, r4
 2511 0e00 0E9C     		ldr	r4, [sp, #56]
 2512              	.LVL572:
 2513 0e02 2540     		ands	r5, r4
 2514 0e04 4D40     		eors	r5, r1
 2515 0e06 AC46     		mov	ip, r5
 2516 0e08 059D     		ldr	r5, [sp, #20]
 2517 0e0a AA46     		mov	r10, r5
 2518 0e0c D444     		add	ip, ip, r10
 2519 0e0e 6644     		add	r6, r6, ip
 2520              	.LVL573:
 2521 0e10 214D     		ldr	r5, .L8+8
 2522 0e12 AC46     		mov	ip, r5
 2523 0e14 6644     		add	r6, r6, ip
 2524              	.LVL574:
 2525 0e16 1725     		movs	r5, #23
 2526 0e18 EE41     		rors	r6, r6, r5
 2527              	.LVL575:
 2528 0e1a 0F9C     		ldr	r4, [sp, #60]
 2529 0e1c A446     		mov	ip, r4
 2530 0e1e 6644     		add	r6, r6, ip
 2531              	.LVL576:
 2532 0e20 D941     		rors	r1, r1, r3
 2533              	.LVL577:
 189:strong-arm\src\ripemd160/ripemd160.c **** 	III(ccc, ddd, eee, aaa, bbb, X[10], 11);
 2534              		.loc 1 189 0
 2535 0e22 1500     		movs	r5, r2
 2536 0e24 7540     		eors	r5, r6
 2537 0e26 0D40     		ands	r5, r1
 2538 0e28 5540     		eors	r5, r2
 2539 0e2a AC46     		mov	ip, r5
 2540 0e2c 099D     		ldr	r5, [sp, #36]
 2541 0e2e AA46     		mov	r10, r5
 2542 0e30 D444     		add	ip, ip, r10
 2543 0e32 6444     		add	r4, r4, ip
 2544 0e34 2500     		movs	r5, r4
 2545 0e36 184C     		ldr	r4, .L8+8
 2546 0e38 A446     		mov	ip, r4
 2547 0e3a 6544     		add	r5, r5, ip
ARM GAS  C:\Users\Ray\AppData\Local\Temp\ccdgjwii.s 			page 49


 2548              	.LVL578:
 2549 0e3c 1524     		movs	r4, #21
 2550 0e3e E541     		rors	r5, r5, r4
 2551              	.LVL579:
 2552 0e40 0E9C     		ldr	r4, [sp, #56]
 2553 0e42 A446     		mov	ip, r4
 2554              	.LVL580:
 2555 0e44 6544     		add	r5, r5, ip
 2556              	.LVL581:
 2557 0e46 DA41     		rors	r2, r2, r3
 2558              	.LVL582:
 190:strong-arm\src\ripemd160/ripemd160.c **** 	III(bbb, ccc, ddd, eee, aaa, X[14],  7);
 2559              		.loc 1 190 0
 2560 0e48 3400     		movs	r4, r6
 2561 0e4a 6C40     		eors	r4, r5
 2562 0e4c 0F92     		str	r2, [sp, #60]
 2563 0e4e 1440     		ands	r4, r2
 2564 0e50 7440     		eors	r4, r6
 2565 0e52 A446     		mov	ip, r4
 2566 0e54 0C9C     		ldr	r4, [sp, #48]
 2567 0e56 A246     		mov	r10, r4
 2568 0e58 D444     		add	ip, ip, r10
 2569 0e5a 0E9A     		ldr	r2, [sp, #56]
 2570              	.LVL583:
 2571 0e5c 6244     		add	r2, r2, ip
 2572 0e5e 0E4C     		ldr	r4, .L8+8
 2573 0e60 A446     		mov	ip, r4
 2574 0e62 6244     		add	r2, r2, ip
 2575              	.LVL584:
 2576 0e64 1924     		movs	r4, #25
 2577 0e66 E241     		rors	r2, r2, r4
 2578              	.LVL585:
 2579 0e68 8A18     		adds	r2, r1, r2
 2580              	.LVL586:
 2581 0e6a DE41     		rors	r6, r6, r3
 2582              	.LVL587:
 191:strong-arm\src\ripemd160/ripemd160.c **** 	III(aaa, bbb, ccc, ddd, eee, X[15],  7);
 2583              		.loc 1 191 0
 2584 0e6c 2C00     		movs	r4, r5
 2585 0e6e 5440     		eors	r4, r2
 2586 0e70 3440     		ands	r4, r6
 2587 0e72 6C40     		eors	r4, r5
 2588 0e74 A446     		mov	ip, r4
 2589 0e76 0D9C     		ldr	r4, [sp, #52]
 2590 0e78 A246     		mov	r10, r4
 2591 0e7a D444     		add	ip, ip, r10
 2592 0e7c 6144     		add	r1, r1, ip
 2593              	.LVL588:
 2594 0e7e 064C     		ldr	r4, .L8+8
 2595 0e80 A446     		mov	ip, r4
 2596 0e82 6144     		add	r1, r1, ip
 2597              	.LVL589:
 2598 0e84 1924     		movs	r4, #25
 2599 0e86 E141     		rors	r1, r1, r4
 2600              	.LVL590:
 2601 0e88 0F9C     		ldr	r4, [sp, #60]
 2602 0e8a A446     		mov	ip, r4
ARM GAS  C:\Users\Ray\AppData\Local\Temp\ccdgjwii.s 			page 50


 2603 0e8c 6144     		add	r1, r1, ip
 2604 0e8e 05E0     		b	.L9
 2605              	.L10:
 2606              		.align	2
 2607              	.L8:
 2608 0e90 4EFD53A9 		.word	-1454113458
 2609 0e94 E68BA250 		.word	1352829926
 2610 0e98 24D14D5C 		.word	1548603684
 2611              	.L9:
 2612              	.LVL591:
 2613 0e9c DD41     		rors	r5, r5, r3
 2614              	.LVL592:
 192:strong-arm\src\ripemd160/ripemd160.c **** 	III(eee, aaa, bbb, ccc, ddd, X[ 8], 12);
 2615              		.loc 1 192 0
 2616 0e9e 1400     		movs	r4, r2
 2617 0ea0 4C40     		eors	r4, r1
 2618 0ea2 1095     		str	r5, [sp, #64]
 2619 0ea4 2C40     		ands	r4, r5
 2620 0ea6 5440     		eors	r4, r2
 2621 0ea8 A446     		mov	ip, r4
 2622 0eaa 089D     		ldr	r5, [sp, #32]
 2623              	.LVL593:
 2624 0eac AA46     		mov	r10, r5
 2625 0eae D444     		add	ip, ip, r10
 2626 0eb0 0F9C     		ldr	r4, [sp, #60]
 2627 0eb2 6444     		add	r4, r4, ip
 2628 0eb4 FD4D     		ldr	r5, .L11
 2629 0eb6 AC46     		mov	ip, r5
 2630 0eb8 6444     		add	r4, r4, ip
 2631              	.LVL594:
 2632 0eba 4D46     		mov	r5, r9
 2633 0ebc EC41     		rors	r4, r4, r5
 2634              	.LVL595:
 2635 0ebe 3419     		adds	r4, r6, r4
 2636              	.LVL596:
 2637 0ec0 DA41     		rors	r2, r2, r3
 2638              	.LVL597:
 2639 0ec2 0E92     		str	r2, [sp, #56]
 2640              	.LVL598:
 193:strong-arm\src\ripemd160/ripemd160.c **** 	III(ddd, eee, aaa, bbb, ccc, X[12],  7);
 2641              		.loc 1 193 0
 2642 0ec4 0D00     		movs	r5, r1
 2643 0ec6 2200     		movs	r2, r4
 2644              	.LVL599:
 2645 0ec8 6540     		eors	r5, r4
 2646 0eca 0E9C     		ldr	r4, [sp, #56]
 2647              	.LVL600:
 2648 0ecc 2540     		ands	r5, r4
 2649 0ece 4D40     		eors	r5, r1
 2650 0ed0 AC46     		mov	ip, r5
 2651 0ed2 0A9D     		ldr	r5, [sp, #40]
 2652 0ed4 AA46     		mov	r10, r5
 2653 0ed6 D444     		add	ip, ip, r10
 2654 0ed8 6644     		add	r6, r6, ip
 2655              	.LVL601:
 2656 0eda F44D     		ldr	r5, .L11
 2657 0edc AC46     		mov	ip, r5
ARM GAS  C:\Users\Ray\AppData\Local\Temp\ccdgjwii.s 			page 51


 2658 0ede 6644     		add	r6, r6, ip
 2659              	.LVL602:
 2660 0ee0 1925     		movs	r5, #25
 2661 0ee2 EE41     		rors	r6, r6, r5
 2662              	.LVL603:
 2663 0ee4 109C     		ldr	r4, [sp, #64]
 2664 0ee6 A446     		mov	ip, r4
 2665 0ee8 6644     		add	r6, r6, ip
 2666              	.LVL604:
 2667 0eea D941     		rors	r1, r1, r3
 2668              	.LVL605:
 194:strong-arm\src\ripemd160/ripemd160.c **** 	III(ccc, ddd, eee, aaa, bbb, X[ 4],  6);
 2669              		.loc 1 194 0
 2670 0eec 1500     		movs	r5, r2
 2671 0eee 7540     		eors	r5, r6
 2672 0ef0 0D40     		ands	r5, r1
 2673 0ef2 5540     		eors	r5, r2
 2674 0ef4 AC46     		mov	ip, r5
 2675 0ef6 049D     		ldr	r5, [sp, #16]
 2676 0ef8 AA46     		mov	r10, r5
 2677 0efa D444     		add	ip, ip, r10
 2678 0efc 6444     		add	r4, r4, ip
 2679 0efe 2500     		movs	r5, r4
 2680 0f00 EA4C     		ldr	r4, .L11
 2681 0f02 A446     		mov	ip, r4
 2682 0f04 6544     		add	r5, r5, ip
 2683              	.LVL606:
 2684 0f06 5C46     		mov	r4, fp
 2685 0f08 E541     		rors	r5, r5, r4
 2686              	.LVL607:
 2687 0f0a 0E9C     		ldr	r4, [sp, #56]
 2688 0f0c A446     		mov	ip, r4
 2689              	.LVL608:
 2690 0f0e 6544     		add	r5, r5, ip
 2691              	.LVL609:
 2692 0f10 DA41     		rors	r2, r2, r3
 2693              	.LVL610:
 195:strong-arm\src\ripemd160/ripemd160.c **** 	III(bbb, ccc, ddd, eee, aaa, X[ 9], 15);
 2694              		.loc 1 195 0
 2695 0f12 3400     		movs	r4, r6
 2696 0f14 6C40     		eors	r4, r5
 2697 0f16 0F92     		str	r2, [sp, #60]
 2698 0f18 1440     		ands	r4, r2
 2699 0f1a 7440     		eors	r4, r6
 2700 0f1c A446     		mov	ip, r4
 2701 0f1e C444     		add	ip, ip, r8
 2702 0f20 0E9A     		ldr	r2, [sp, #56]
 2703              	.LVL611:
 2704 0f22 6244     		add	r2, r2, ip
 2705 0f24 E14C     		ldr	r4, .L11
 2706 0f26 A446     		mov	ip, r4
 2707 0f28 6244     		add	r2, r2, ip
 2708              	.LVL612:
 2709 0f2a 1124     		movs	r4, #17
 2710 0f2c E241     		rors	r2, r2, r4
 2711              	.LVL613:
 2712 0f2e 8A18     		adds	r2, r1, r2
ARM GAS  C:\Users\Ray\AppData\Local\Temp\ccdgjwii.s 			page 52


 2713              	.LVL614:
 2714 0f30 DE41     		rors	r6, r6, r3
 2715              	.LVL615:
 196:strong-arm\src\ripemd160/ripemd160.c **** 	III(aaa, bbb, ccc, ddd, eee, X[ 1], 13);
 2716              		.loc 1 196 0
 2717 0f32 2C00     		movs	r4, r5
 2718 0f34 5440     		eors	r4, r2
 2719 0f36 1096     		str	r6, [sp, #64]
 2720 0f38 3440     		ands	r4, r6
 2721 0f3a 6C40     		eors	r4, r5
 2722 0f3c A446     		mov	ip, r4
 2723 0f3e 019C     		ldr	r4, [sp, #4]
 2724 0f40 A246     		mov	r10, r4
 2725 0f42 D444     		add	ip, ip, r10
 2726 0f44 6144     		add	r1, r1, ip
 2727              	.LVL616:
 2728 0f46 D94C     		ldr	r4, .L11
 2729 0f48 A446     		mov	ip, r4
 2730 0f4a 6144     		add	r1, r1, ip
 2731              	.LVL617:
 2732 0f4c 1324     		movs	r4, #19
 2733 0f4e E141     		rors	r1, r1, r4
 2734              	.LVL618:
 2735 0f50 0F9E     		ldr	r6, [sp, #60]
 2736              	.LVL619:
 2737 0f52 B446     		mov	ip, r6
 2738 0f54 6144     		add	r1, r1, ip
 2739              	.LVL620:
 2740 0f56 DD41     		rors	r5, r5, r3
 2741              	.LVL621:
 197:strong-arm\src\ripemd160/ripemd160.c **** 	III(eee, aaa, bbb, ccc, ddd, X[ 2], 11);
 2742              		.loc 1 197 0
 2743 0f58 1400     		movs	r4, r2
 2744 0f5a 4C40     		eors	r4, r1
 2745 0f5c 2C40     		ands	r4, r5
 2746 0f5e 5440     		eors	r4, r2
 2747 0f60 A446     		mov	ip, r4
 2748 0f62 029C     		ldr	r4, [sp, #8]
 2749 0f64 A246     		mov	r10, r4
 2750 0f66 D444     		add	ip, ip, r10
 2751 0f68 3400     		movs	r4, r6
 2752 0f6a 6444     		add	r4, r4, ip
 2753 0f6c 2600     		movs	r6, r4
 2754 0f6e CF4C     		ldr	r4, .L11
 2755 0f70 A446     		mov	ip, r4
 2756 0f72 3400     		movs	r4, r6
 2757 0f74 6444     		add	r4, r4, ip
 2758              	.LVL622:
 2759 0f76 1526     		movs	r6, #21
 2760 0f78 F441     		rors	r4, r4, r6
 2761              	.LVL623:
 2762 0f7a 109E     		ldr	r6, [sp, #64]
 2763 0f7c B446     		mov	ip, r6
 2764              	.LVL624:
 2765 0f7e 6444     		add	r4, r4, ip
 2766              	.LVL625:
 2767 0f80 DA41     		rors	r2, r2, r3
ARM GAS  C:\Users\Ray\AppData\Local\Temp\ccdgjwii.s 			page 53


 2768              	.LVL626:
 2769 0f82 0E92     		str	r2, [sp, #56]
 2770              	.LVL627:
 198:strong-arm\src\ripemd160/ripemd160.c **** 	
 199:strong-arm\src\ripemd160/ripemd160.c **** 	/* parallel round 3 */
 200:strong-arm\src\ripemd160/ripemd160.c **** 	HHH(ddd, eee, aaa, bbb, ccc, X[15],  9);
 2771              		.loc 1 200 0
 2772 0f84 CE43     		mvns	r6, r1
 2773 0f86 3200     		movs	r2, r6
 2774              	.LVL628:
 2775 0f88 2243     		orrs	r2, r4
 2776 0f8a 0E9E     		ldr	r6, [sp, #56]
 2777 0f8c 7240     		eors	r2, r6
 2778 0f8e 9446     		mov	ip, r2
 2779 0f90 0D9A     		ldr	r2, [sp, #52]
 2780 0f92 9246     		mov	r10, r2
 2781 0f94 D444     		add	ip, ip, r10
 2782 0f96 109E     		ldr	r6, [sp, #64]
 2783 0f98 6644     		add	r6, r6, ip
 2784 0f9a C54A     		ldr	r2, .L11+4
 2785 0f9c 9446     		mov	ip, r2
 2786 0f9e 6644     		add	r6, r6, ip
 2787              	.LVL629:
 2788 0fa0 1722     		movs	r2, #23
 2789 0fa2 D641     		rors	r6, r6, r2
 2790              	.LVL630:
 2791 0fa4 AE19     		adds	r6, r5, r6
 2792              	.LVL631:
 2793 0fa6 D941     		rors	r1, r1, r3
 2794              	.LVL632:
 201:strong-arm\src\ripemd160/ripemd160.c **** 	HHH(ccc, ddd, eee, aaa, bbb, X[ 5],  7);
 2795              		.loc 1 201 0
 2796 0fa8 E243     		mvns	r2, r4
 2797 0faa 3243     		orrs	r2, r6
 2798 0fac 4A40     		eors	r2, r1
 2799 0fae 9446     		mov	ip, r2
 2800 0fb0 059A     		ldr	r2, [sp, #20]
 2801 0fb2 9246     		mov	r10, r2
 2802 0fb4 D444     		add	ip, ip, r10
 2803 0fb6 6544     		add	r5, r5, ip
 2804              	.LVL633:
 2805 0fb8 BD4A     		ldr	r2, .L11+4
 2806 0fba 9446     		mov	ip, r2
 2807 0fbc 6544     		add	r5, r5, ip
 2808              	.LVL634:
 2809 0fbe 1922     		movs	r2, #25
 2810 0fc0 D541     		rors	r5, r5, r2
 2811              	.LVL635:
 2812 0fc2 0E9A     		ldr	r2, [sp, #56]
 2813 0fc4 9446     		mov	ip, r2
 2814 0fc6 6544     		add	r5, r5, ip
 2815              	.LVL636:
 2816 0fc8 DC41     		rors	r4, r4, r3
 2817              	.LVL637:
 202:strong-arm\src\ripemd160/ripemd160.c **** 	HHH(bbb, ccc, ddd, eee, aaa, X[ 1], 15);
 2818              		.loc 1 202 0
 2819 0fca F243     		mvns	r2, r6
ARM GAS  C:\Users\Ray\AppData\Local\Temp\ccdgjwii.s 			page 54


 2820 0fcc 2A43     		orrs	r2, r5
 2821 0fce 0F94     		str	r4, [sp, #60]
 2822 0fd0 6240     		eors	r2, r4
 2823 0fd2 9246     		mov	r10, r2
 2824 0fd4 019A     		ldr	r2, [sp, #4]
 2825 0fd6 9446     		mov	ip, r2
 2826 0fd8 E244     		add	r10, r10, ip
 2827 0fda 0E9A     		ldr	r2, [sp, #56]
 2828 0fdc 5244     		add	r2, r2, r10
 2829 0fde B44C     		ldr	r4, .L11+4
 2830              	.LVL638:
 2831 0fe0 A446     		mov	ip, r4
 2832 0fe2 6244     		add	r2, r2, ip
 2833              	.LVL639:
 2834 0fe4 1124     		movs	r4, #17
 2835 0fe6 E241     		rors	r2, r2, r4
 2836              	.LVL640:
 2837 0fe8 9246     		mov	r10, r2
 2838              	.LVL641:
 2839 0fea 8A44     		add	r10, r10, r1
 2840              	.LVL642:
 2841 0fec DE41     		rors	r6, r6, r3
 2842              	.LVL643:
 203:strong-arm\src\ripemd160/ripemd160.c **** 	HHH(aaa, bbb, ccc, ddd, eee, X[ 3], 11);
 2843              		.loc 1 203 0
 2844 0fee EA43     		mvns	r2, r5
 2845 0ff0 5446     		mov	r4, r10
 2846 0ff2 2243     		orrs	r2, r4
 2847 0ff4 1096     		str	r6, [sp, #64]
 2848 0ff6 7240     		eors	r2, r6
 2849 0ff8 039E     		ldr	r6, [sp, #12]
 2850              	.LVL644:
 2851 0ffa B446     		mov	ip, r6
 2852 0ffc 6244     		add	r2, r2, ip
 2853 0ffe 8918     		adds	r1, r1, r2
 2854              	.LVL645:
 2855 1000 AB4C     		ldr	r4, .L11+4
 2856 1002 A446     		mov	ip, r4
 2857 1004 6144     		add	r1, r1, ip
 2858              	.LVL646:
 2859 1006 1524     		movs	r4, #21
 2860 1008 E141     		rors	r1, r1, r4
 2861              	.LVL647:
 2862 100a 0F9A     		ldr	r2, [sp, #60]
 2863 100c 9446     		mov	ip, r2
 2864 100e 6144     		add	r1, r1, ip
 2865              	.LVL648:
 2866 1010 DD41     		rors	r5, r5, r3
 2867              	.LVL649:
 204:strong-arm\src\ripemd160/ripemd160.c **** 	HHH(eee, aaa, bbb, ccc, ddd, X[ 7],  8);
 2868              		.loc 1 204 0
 2869 1012 5446     		mov	r4, r10
 2870 1014 E243     		mvns	r2, r4
 2871 1016 0A43     		orrs	r2, r1
 2872 1018 6A40     		eors	r2, r5
 2873 101a 079E     		ldr	r6, [sp, #28]
 2874 101c B446     		mov	ip, r6
ARM GAS  C:\Users\Ray\AppData\Local\Temp\ccdgjwii.s 			page 55


 2875 101e 6244     		add	r2, r2, ip
 2876 1020 0F9E     		ldr	r6, [sp, #60]
 2877 1022 B446     		mov	ip, r6
 2878 1024 6244     		add	r2, r2, ip
 2879 1026 A24C     		ldr	r4, .L11+4
 2880 1028 A446     		mov	ip, r4
 2881 102a 6244     		add	r2, r2, ip
 2882              	.LVL650:
 2883 102c 1824     		movs	r4, #24
 2884 102e E241     		rors	r2, r2, r4
 2885              	.LVL651:
 2886 1030 109C     		ldr	r4, [sp, #64]
 2887 1032 A446     		mov	ip, r4
 2888              	.LVL652:
 2889 1034 6244     		add	r2, r2, ip
 2890 1036 0E92     		str	r2, [sp, #56]
 2891              	.LVL653:
 2892 1038 5446     		mov	r4, r10
 2893 103a DC41     		rors	r4, r4, r3
 2894              	.LVL654:
 205:strong-arm\src\ripemd160/ripemd160.c **** 	HHH(ddd, eee, aaa, bbb, ccc, X[14],  6);
 2895              		.loc 1 205 0
 2896 103c 0A00     		movs	r2, r1
 2897              	.LVL655:
 2898 103e CE43     		mvns	r6, r1
 2899 1040 0E99     		ldr	r1, [sp, #56]
 2900              	.LVL656:
 2901 1042 0E43     		orrs	r6, r1
 2902 1044 6640     		eors	r6, r4
 2903 1046 B446     		mov	ip, r6
 2904 1048 0C9E     		ldr	r6, [sp, #48]
 2905 104a B246     		mov	r10, r6
 2906 104c D444     		add	ip, ip, r10
 2907 104e 1099     		ldr	r1, [sp, #64]
 2908 1050 6144     		add	r1, r1, ip
 2909 1052 0E00     		movs	r6, r1
 2910 1054 9649     		ldr	r1, .L11+4
 2911 1056 8C46     		mov	ip, r1
 2912 1058 6644     		add	r6, r6, ip
 2913              	.LVL657:
 2914 105a 5946     		mov	r1, fp
 2915 105c CE41     		rors	r6, r6, r1
 2916              	.LVL658:
 2917 105e AE19     		adds	r6, r5, r6
 2918              	.LVL659:
 2919 1060 DA41     		rors	r2, r2, r3
 2920              	.LVL660:
 206:strong-arm\src\ripemd160/ripemd160.c **** 	HHH(ccc, ddd, eee, aaa, bbb, X[ 6],  6);
 2921              		.loc 1 206 0
 2922 1062 0E99     		ldr	r1, [sp, #56]
 2923 1064 C943     		mvns	r1, r1
 2924 1066 3143     		orrs	r1, r6
 2925 1068 0F92     		str	r2, [sp, #60]
 2926 106a 5140     		eors	r1, r2
 2927 106c 8C46     		mov	ip, r1
 2928 106e 0699     		ldr	r1, [sp, #24]
 2929 1070 8A46     		mov	r10, r1
ARM GAS  C:\Users\Ray\AppData\Local\Temp\ccdgjwii.s 			page 56


 2930 1072 D444     		add	ip, ip, r10
 2931 1074 6544     		add	r5, r5, ip
 2932              	.LVL661:
 2933 1076 8E49     		ldr	r1, .L11+4
 2934 1078 8C46     		mov	ip, r1
 2935 107a 6544     		add	r5, r5, ip
 2936              	.LVL662:
 2937 107c 5946     		mov	r1, fp
 2938 107e CD41     		rors	r5, r5, r1
 2939              	.LVL663:
 2940 1080 6519     		adds	r5, r4, r5
 2941              	.LVL664:
 2942 1082 0E9A     		ldr	r2, [sp, #56]
 2943              	.LVL665:
 2944 1084 DA41     		rors	r2, r2, r3
 2945              	.LVL666:
 207:strong-arm\src\ripemd160/ripemd160.c **** 	HHH(bbb, ccc, ddd, eee, aaa, X[ 9], 14);
 2946              		.loc 1 207 0
 2947 1086 F143     		mvns	r1, r6
 2948 1088 2943     		orrs	r1, r5
 2949 108a 5140     		eors	r1, r2
 2950 108c 8C46     		mov	ip, r1
 2951 108e C444     		add	ip, ip, r8
 2952 1090 6444     		add	r4, r4, ip
 2953              	.LVL667:
 2954 1092 8749     		ldr	r1, .L11+4
 2955 1094 8C46     		mov	ip, r1
 2956 1096 6444     		add	r4, r4, ip
 2957              	.LVL668:
 2958 1098 1221     		movs	r1, #18
 2959 109a CC41     		rors	r4, r4, r1
 2960              	.LVL669:
 2961 109c 0F99     		ldr	r1, [sp, #60]
 2962 109e 8C46     		mov	ip, r1
 2963 10a0 6444     		add	r4, r4, ip
 2964              	.LVL670:
 2965 10a2 DE41     		rors	r6, r6, r3
 2966              	.LVL671:
 208:strong-arm\src\ripemd160/ripemd160.c **** 	HHH(aaa, bbb, ccc, ddd, eee, X[11], 12);
 2967              		.loc 1 208 0
 2968 10a4 E943     		mvns	r1, r5
 2969 10a6 0E94     		str	r4, [sp, #56]
 2970 10a8 2143     		orrs	r1, r4
 2971 10aa 7140     		eors	r1, r6
 2972 10ac 8C46     		mov	ip, r1
 2973 10ae BC44     		add	ip, ip, r7
 2974 10b0 0F99     		ldr	r1, [sp, #60]
 2975 10b2 6144     		add	r1, r1, ip
 2976 10b4 7E4C     		ldr	r4, .L11+4
 2977              	.LVL672:
 2978 10b6 A446     		mov	ip, r4
 2979 10b8 6144     		add	r1, r1, ip
 2980              	.LVL673:
 2981 10ba 4C46     		mov	r4, r9
 2982 10bc E141     		rors	r1, r1, r4
 2983              	.LVL674:
 2984 10be 5118     		adds	r1, r2, r1
ARM GAS  C:\Users\Ray\AppData\Local\Temp\ccdgjwii.s 			page 57


 2985              	.LVL675:
 2986 10c0 DD41     		rors	r5, r5, r3
 2987              	.LVL676:
 2988 10c2 0F95     		str	r5, [sp, #60]
 2989              	.LVL677:
 209:strong-arm\src\ripemd160/ripemd160.c **** 	HHH(eee, aaa, bbb, ccc, ddd, X[ 8], 13);
 2990              		.loc 1 209 0
 2991 10c4 0E9C     		ldr	r4, [sp, #56]
 2992 10c6 E443     		mvns	r4, r4
 2993 10c8 2500     		movs	r5, r4
 2994              	.LVL678:
 2995 10ca 0D43     		orrs	r5, r1
 2996 10cc 0F9C     		ldr	r4, [sp, #60]
 2997 10ce 6540     		eors	r5, r4
 2998 10d0 AC46     		mov	ip, r5
 2999 10d2 089D     		ldr	r5, [sp, #32]
 3000 10d4 AA46     		mov	r10, r5
 3001 10d6 D444     		add	ip, ip, r10
 3002 10d8 6244     		add	r2, r2, ip
 3003              	.LVL679:
 3004 10da 754C     		ldr	r4, .L11+4
 3005 10dc A446     		mov	ip, r4
 3006 10de 6244     		add	r2, r2, ip
 3007              	.LVL680:
 3008 10e0 1324     		movs	r4, #19
 3009 10e2 E241     		rors	r2, r2, r4
 3010              	.LVL681:
 3011 10e4 B218     		adds	r2, r6, r2
 3012              	.LVL682:
 3013 10e6 0E9C     		ldr	r4, [sp, #56]
 3014 10e8 DC41     		rors	r4, r4, r3
 3015 10ea 2500     		movs	r5, r4
 3016              	.LVL683:
 210:strong-arm\src\ripemd160/ripemd160.c **** 	HHH(ddd, eee, aaa, bbb, ccc, X[12],  5);
 3017              		.loc 1 210 0
 3018 10ec CC43     		mvns	r4, r1
 3019              	.LVL684:
 3020 10ee 1443     		orrs	r4, r2
 3021 10f0 1095     		str	r5, [sp, #64]
 3022 10f2 6C40     		eors	r4, r5
 3023 10f4 A446     		mov	ip, r4
 3024 10f6 0A9C     		ldr	r4, [sp, #40]
 3025 10f8 A246     		mov	r10, r4
 3026 10fa D444     		add	ip, ip, r10
 3027 10fc 6644     		add	r6, r6, ip
 3028              	.LVL685:
 3029 10fe 6C4C     		ldr	r4, .L11+4
 3030 1100 A446     		mov	ip, r4
 3031 1102 6644     		add	r6, r6, ip
 3032              	.LVL686:
 3033 1104 1B24     		movs	r4, #27
 3034 1106 0E94     		str	r4, [sp, #56]
 3035 1108 E641     		rors	r6, r6, r4
 3036              	.LVL687:
 3037 110a 0F9C     		ldr	r4, [sp, #60]
 3038 110c A446     		mov	ip, r4
 3039 110e 6644     		add	r6, r6, ip
ARM GAS  C:\Users\Ray\AppData\Local\Temp\ccdgjwii.s 			page 58


 3040              	.LVL688:
 3041 1110 D941     		rors	r1, r1, r3
 3042              	.LVL689:
 211:strong-arm\src\ripemd160/ripemd160.c **** 	HHH(ccc, ddd, eee, aaa, bbb, X[ 2], 14);
 3043              		.loc 1 211 0
 3044 1112 D443     		mvns	r4, r2
 3045 1114 3443     		orrs	r4, r6
 3046 1116 4C40     		eors	r4, r1
 3047 1118 A446     		mov	ip, r4
 3048 111a 029D     		ldr	r5, [sp, #8]
 3049              	.LVL690:
 3050 111c AA46     		mov	r10, r5
 3051 111e D444     		add	ip, ip, r10
 3052 1120 0F9D     		ldr	r5, [sp, #60]
 3053 1122 6544     		add	r5, r5, ip
 3054 1124 624C     		ldr	r4, .L11+4
 3055 1126 A446     		mov	ip, r4
 3056 1128 6544     		add	r5, r5, ip
 3057              	.LVL691:
 3058 112a 1224     		movs	r4, #18
 3059 112c E541     		rors	r5, r5, r4
 3060              	.LVL692:
 3061 112e 109C     		ldr	r4, [sp, #64]
 3062 1130 A446     		mov	ip, r4
 3063              	.LVL693:
 3064 1132 6544     		add	r5, r5, ip
 3065              	.LVL694:
 3066 1134 1400     		movs	r4, r2
 3067 1136 DC41     		rors	r4, r4, r3
 3068 1138 A446     		mov	ip, r4
 3069              	.LVL695:
 212:strong-arm\src\ripemd160/ripemd160.c **** 	HHH(bbb, ccc, ddd, eee, aaa, X[10], 13);
 3070              		.loc 1 212 0
 3071 113a F243     		mvns	r2, r6
 3072 113c 2A43     		orrs	r2, r5
 3073 113e 6240     		eors	r2, r4
 3074 1140 099C     		ldr	r4, [sp, #36]
 3075              	.LVL696:
 3076 1142 A246     		mov	r10, r4
 3077 1144 5244     		add	r2, r2, r10
 3078 1146 109C     		ldr	r4, [sp, #64]
 3079 1148 A418     		adds	r4, r4, r2
 3080 114a 594A     		ldr	r2, .L11+4
 3081 114c 9246     		mov	r10, r2
 3082 114e 5444     		add	r4, r4, r10
 3083              	.LVL697:
 3084 1150 1322     		movs	r2, #19
 3085 1152 D441     		rors	r4, r4, r2
 3086              	.LVL698:
 3087 1154 0C19     		adds	r4, r1, r4
 3088              	.LVL699:
 3089 1156 DE41     		rors	r6, r6, r3
 3090              	.LVL700:
 213:strong-arm\src\ripemd160/ripemd160.c **** 	HHH(aaa, bbb, ccc, ddd, eee, X[ 0], 13);
 3091              		.loc 1 213 0
 3092 1158 EA43     		mvns	r2, r5
 3093 115a 2243     		orrs	r2, r4
ARM GAS  C:\Users\Ray\AppData\Local\Temp\ccdgjwii.s 			page 59


 3094 115c 0F96     		str	r6, [sp, #60]
 3095 115e 7240     		eors	r2, r6
 3096 1160 009E     		ldr	r6, [sp]
 3097              	.LVL701:
 3098 1162 B246     		mov	r10, r6
 3099 1164 5244     		add	r2, r2, r10
 3100 1166 8918     		adds	r1, r1, r2
 3101              	.LVL702:
 3102 1168 514E     		ldr	r6, .L11+4
 3103 116a B246     		mov	r10, r6
 3104 116c 5144     		add	r1, r1, r10
 3105              	.LVL703:
 3106 116e 1326     		movs	r6, #19
 3107 1170 F141     		rors	r1, r1, r6
 3108              	.LVL704:
 3109 1172 6144     		add	r1, r1, ip
 3110              	.LVL705:
 3111 1174 DD41     		rors	r5, r5, r3
 3112              	.LVL706:
 214:strong-arm\src\ripemd160/ripemd160.c **** 	HHH(eee, aaa, bbb, ccc, ddd, X[ 4],  7);
 3113              		.loc 1 214 0
 3114 1176 E243     		mvns	r2, r4
 3115 1178 0A43     		orrs	r2, r1
 3116 117a 6A40     		eors	r2, r5
 3117 117c 049E     		ldr	r6, [sp, #16]
 3118 117e B246     		mov	r10, r6
 3119 1180 5244     		add	r2, r2, r10
 3120 1182 6244     		add	r2, r2, ip
 3121 1184 4A4E     		ldr	r6, .L11+4
 3122 1186 B446     		mov	ip, r6
 3123              	.LVL707:
 3124 1188 6244     		add	r2, r2, ip
 3125              	.LVL708:
 3126 118a 1926     		movs	r6, #25
 3127 118c F241     		rors	r2, r2, r6
 3128              	.LVL709:
 3129 118e 0F9E     		ldr	r6, [sp, #60]
 3130 1190 B446     		mov	ip, r6
 3131 1192 6244     		add	r2, r2, ip
 3132              	.LVL710:
 3133 1194 DC41     		rors	r4, r4, r3
 3134              	.LVL711:
 3135 1196 2600     		movs	r6, r4
 3136              	.LVL712:
 215:strong-arm\src\ripemd160/ripemd160.c **** 	HHH(ddd, eee, aaa, bbb, ccc, X[13],  5);
 3137              		.loc 1 215 0
 3138 1198 CC43     		mvns	r4, r1
 3139              	.LVL713:
 3140 119a 1443     		orrs	r4, r2
 3141 119c 1096     		str	r6, [sp, #64]
 3142 119e 7440     		eors	r4, r6
 3143 11a0 A446     		mov	ip, r4
 3144 11a2 0B9C     		ldr	r4, [sp, #44]
 3145 11a4 A246     		mov	r10, r4
 3146 11a6 D444     		add	ip, ip, r10
 3147 11a8 0F9E     		ldr	r6, [sp, #60]
 3148              	.LVL714:
ARM GAS  C:\Users\Ray\AppData\Local\Temp\ccdgjwii.s 			page 60


 3149 11aa 6644     		add	r6, r6, ip
 3150 11ac 404C     		ldr	r4, .L11+4
 3151 11ae A446     		mov	ip, r4
 3152 11b0 6644     		add	r6, r6, ip
 3153              	.LVL715:
 3154 11b2 1B24     		movs	r4, #27
 3155 11b4 E641     		rors	r6, r6, r4
 3156              	.LVL716:
 3157 11b6 AE19     		adds	r6, r5, r6
 3158              	.LVL717:
 3159 11b8 D941     		rors	r1, r1, r3
 3160              	.LVL718:
 216:strong-arm\src\ripemd160/ripemd160.c **** 	
 217:strong-arm\src\ripemd160/ripemd160.c **** 	/* parallel round 4 */   
 218:strong-arm\src\ripemd160/ripemd160.c **** 	GGG(ccc, ddd, eee, aaa, bbb, X[ 8], 15);
 3161              		.loc 1 218 0
 3162 11ba 1400     		movs	r4, r2
 3163 11bc 4C40     		eors	r4, r1
 3164 11be 3440     		ands	r4, r6
 3165 11c0 0F91     		str	r1, [sp, #60]
 3166 11c2 4C40     		eors	r4, r1
 3167 11c4 A446     		mov	ip, r4
 3168 11c6 089C     		ldr	r4, [sp, #32]
 3169 11c8 A246     		mov	r10, r4
 3170 11ca D444     		add	ip, ip, r10
 3171 11cc 6544     		add	r5, r5, ip
 3172              	.LVL719:
 3173 11ce 394C     		ldr	r4, .L11+8
 3174 11d0 A446     		mov	ip, r4
 3175 11d2 6544     		add	r5, r5, ip
 3176              	.LVL720:
 3177 11d4 1124     		movs	r4, #17
 3178 11d6 E541     		rors	r5, r5, r4
 3179              	.LVL721:
 3180 11d8 1099     		ldr	r1, [sp, #64]
 3181              	.LVL722:
 3182 11da 8C46     		mov	ip, r1
 3183 11dc 6544     		add	r5, r5, ip
 3184              	.LVL723:
 3185 11de DA41     		rors	r2, r2, r3
 3186              	.LVL724:
 219:strong-arm\src\ripemd160/ripemd160.c **** 	GGG(bbb, ccc, ddd, eee, aaa, X[ 6],  5);
 3187              		.loc 1 219 0
 3188 11e0 3400     		movs	r4, r6
 3189 11e2 5440     		eors	r4, r2
 3190 11e4 2C40     		ands	r4, r5
 3191 11e6 5440     		eors	r4, r2
 3192 11e8 A446     		mov	ip, r4
 3193 11ea 069C     		ldr	r4, [sp, #24]
 3194 11ec A246     		mov	r10, r4
 3195 11ee D444     		add	ip, ip, r10
 3196 11f0 0C00     		movs	r4, r1
 3197 11f2 6444     		add	r4, r4, ip
 3198 11f4 2F49     		ldr	r1, .L11+8
 3199 11f6 8C46     		mov	ip, r1
 3200 11f8 6444     		add	r4, r4, ip
 3201              	.LVL725:
ARM GAS  C:\Users\Ray\AppData\Local\Temp\ccdgjwii.s 			page 61


 3202 11fa 1B21     		movs	r1, #27
 3203 11fc CC41     		rors	r4, r4, r1
 3204              	.LVL726:
 3205 11fe 0F99     		ldr	r1, [sp, #60]
 3206 1200 8C46     		mov	ip, r1
 3207              	.LVL727:
 3208 1202 6444     		add	r4, r4, ip
 3209 1204 2100     		movs	r1, r4
 3210              	.LVL728:
 3211 1206 DE41     		rors	r6, r6, r3
 3212              	.LVL729:
 220:strong-arm\src\ripemd160/ripemd160.c **** 	GGG(aaa, bbb, ccc, ddd, eee, X[ 4],  8);
 3213              		.loc 1 220 0
 3214 1208 2C00     		movs	r4, r5
 3215 120a 7440     		eors	r4, r6
 3216 120c 1091     		str	r1, [sp, #64]
 3217 120e 0C40     		ands	r4, r1
 3218 1210 7440     		eors	r4, r6
 3219 1212 A446     		mov	ip, r4
 3220 1214 049C     		ldr	r4, [sp, #16]
 3221 1216 A246     		mov	r10, r4
 3222 1218 D444     		add	ip, ip, r10
 3223 121a 0F99     		ldr	r1, [sp, #60]
 3224              	.LVL730:
 3225 121c 6144     		add	r1, r1, ip
 3226 121e 254C     		ldr	r4, .L11+8
 3227 1220 A446     		mov	ip, r4
 3228 1222 6144     		add	r1, r1, ip
 3229              	.LVL731:
 3230 1224 1824     		movs	r4, #24
 3231 1226 E141     		rors	r1, r1, r4
 3232              	.LVL732:
 3233 1228 5118     		adds	r1, r2, r1
 3234              	.LVL733:
 3235 122a DD41     		rors	r5, r5, r3
 3236              	.LVL734:
 221:strong-arm\src\ripemd160/ripemd160.c **** 	GGG(eee, aaa, bbb, ccc, ddd, X[ 1], 11);
 3237              		.loc 1 221 0
 3238 122c 109C     		ldr	r4, [sp, #64]
 3239 122e 6C40     		eors	r4, r5
 3240 1230 0C40     		ands	r4, r1
 3241 1232 6C40     		eors	r4, r5
 3242 1234 A446     		mov	ip, r4
 3243 1236 019C     		ldr	r4, [sp, #4]
 3244 1238 A246     		mov	r10, r4
 3245 123a D444     		add	ip, ip, r10
 3246 123c 6244     		add	r2, r2, ip
 3247              	.LVL735:
 3248 123e 1D4C     		ldr	r4, .L11+8
 3249 1240 A446     		mov	ip, r4
 3250 1242 6244     		add	r2, r2, ip
 3251              	.LVL736:
 3252 1244 1524     		movs	r4, #21
 3253 1246 E241     		rors	r2, r2, r4
 3254              	.LVL737:
 3255 1248 9446     		mov	ip, r2
 3256 124a B444     		add	ip, ip, r6
ARM GAS  C:\Users\Ray\AppData\Local\Temp\ccdgjwii.s 			page 62


 3257              	.LVL738:
 3258 124c 109C     		ldr	r4, [sp, #64]
 3259 124e DC41     		rors	r4, r4, r3
 3260              	.LVL739:
 222:strong-arm\src\ripemd160/ripemd160.c **** 	GGG(ddd, eee, aaa, bbb, ccc, X[ 3], 14);
 3261              		.loc 1 222 0
 3262 1250 0F91     		str	r1, [sp, #60]
 3263 1252 0A00     		movs	r2, r1
 3264 1254 6240     		eors	r2, r4
 3265 1256 6146     		mov	r1, ip
 3266              	.LVL740:
 3267 1258 0A40     		ands	r2, r1
 3268 125a 6240     		eors	r2, r4
 3269 125c 1100     		movs	r1, r2
 3270 125e 039A     		ldr	r2, [sp, #12]
 3271 1260 9246     		mov	r10, r2
 3272 1262 0A00     		movs	r2, r1
 3273 1264 5244     		add	r2, r2, r10
 3274 1266 B218     		adds	r2, r6, r2
 3275 1268 1249     		ldr	r1, .L11+8
 3276 126a 8A46     		mov	r10, r1
 3277 126c 5244     		add	r2, r2, r10
 3278              	.LVL741:
 3279 126e 1221     		movs	r1, #18
 3280 1270 CA41     		rors	r2, r2, r1
 3281              	.LVL742:
 3282 1272 AA18     		adds	r2, r5, r2
 3283              	.LVL743:
 3284 1274 0F9E     		ldr	r6, [sp, #60]
 3285 1276 DE41     		rors	r6, r6, r3
 3286              	.LVL744:
 223:strong-arm\src\ripemd160/ripemd160.c **** 	GGG(ccc, ddd, eee, aaa, bbb, X[11], 14);
 3287              		.loc 1 223 0
 3288 1278 6146     		mov	r1, ip
 3289 127a 0F96     		str	r6, [sp, #60]
 3290 127c 7140     		eors	r1, r6
 3291 127e 0E00     		movs	r6, r1
 3292              	.LVL745:
 3293 1280 1640     		ands	r6, r2
 3294 1282 0F99     		ldr	r1, [sp, #60]
 3295 1284 4E40     		eors	r6, r1
 3296 1286 BE19     		adds	r6, r7, r6
 3297 1288 AE19     		adds	r6, r5, r6
 3298 128a 5644     		add	r6, r6, r10
 3299              	.LVL746:
 3300 128c 1221     		movs	r1, #18
 3301 128e CE41     		rors	r6, r6, r1
 3302              	.LVL747:
 3303 1290 A619     		adds	r6, r4, r6
 3304              	.LVL748:
 3305 1292 6146     		mov	r1, ip
 3306 1294 D941     		rors	r1, r1, r3
 3307 1296 8C46     		mov	ip, r1
 3308              	.LVL749:
 224:strong-arm\src\ripemd160/ripemd160.c **** 	GGG(bbb, ccc, ddd, eee, aaa, X[15],  6);
 3309              		.loc 1 224 0
 3310 1298 5140     		eors	r1, r2
ARM GAS  C:\Users\Ray\AppData\Local\Temp\ccdgjwii.s 			page 63


 3311              	.LVL750:
 3312 129a 0D00     		movs	r5, r1
 3313 129c 3540     		ands	r5, r6
 3314 129e 6146     		mov	r1, ip
 3315 12a0 4D40     		eors	r5, r1
 3316 12a2 0D99     		ldr	r1, [sp, #52]
 3317 12a4 8A46     		mov	r10, r1
 3318 12a6 5544     		add	r5, r5, r10
 3319 12a8 6519     		adds	r5, r4, r5
 3320 12aa 05E0     		b	.L12
 3321              	.L13:
 3322              		.align	2
 3323              	.L11:
 3324 12ac 24D14D5C 		.word	1548603684
 3325 12b0 F33E706D 		.word	1836072691
 3326 12b4 E9766D7A 		.word	2053994217
 3327              	.L12:
 3328 12b8 D949     		ldr	r1, .L14
 3329 12ba 8A46     		mov	r10, r1
 3330 12bc 5544     		add	r5, r5, r10
 3331              	.LVL751:
 3332 12be 5946     		mov	r1, fp
 3333 12c0 CD41     		rors	r5, r5, r1
 3334              	.LVL752:
 3335 12c2 0F99     		ldr	r1, [sp, #60]
 3336 12c4 8A46     		mov	r10, r1
 3337              	.LVL753:
 3338 12c6 5544     		add	r5, r5, r10
 3339              	.LVL754:
 3340 12c8 DA41     		rors	r2, r2, r3
 3341              	.LVL755:
 225:strong-arm\src\ripemd160/ripemd160.c **** 	GGG(aaa, bbb, ccc, ddd, eee, X[ 0], 14);
 3342              		.loc 1 225 0
 3343 12ca 3100     		movs	r1, r6
 3344 12cc 5140     		eors	r1, r2
 3345 12ce 0C00     		movs	r4, r1
 3346 12d0 2C40     		ands	r4, r5
 3347 12d2 1092     		str	r2, [sp, #64]
 3348 12d4 5440     		eors	r4, r2
 3349 12d6 009A     		ldr	r2, [sp]
 3350              	.LVL756:
 3351 12d8 9246     		mov	r10, r2
 3352 12da 5444     		add	r4, r4, r10
 3353 12dc 0F9A     		ldr	r2, [sp, #60]
 3354 12de 1119     		adds	r1, r2, r4
 3355 12e0 CF4C     		ldr	r4, .L14
 3356 12e2 A246     		mov	r10, r4
 3357 12e4 5144     		add	r1, r1, r10
 3358              	.LVL757:
 3359 12e6 1224     		movs	r4, #18
 3360 12e8 E141     		rors	r1, r1, r4
 3361              	.LVL758:
 3362 12ea 6144     		add	r1, r1, ip
 3363              	.LVL759:
 3364 12ec DE41     		rors	r6, r6, r3
 3365              	.LVL760:
 3366 12ee 3200     		movs	r2, r6
ARM GAS  C:\Users\Ray\AppData\Local\Temp\ccdgjwii.s 			page 64


 3367              	.LVL761:
 226:strong-arm\src\ripemd160/ripemd160.c **** 	GGG(eee, aaa, bbb, ccc, ddd, X[ 5],  6);
 3368              		.loc 1 226 0
 3369 12f0 2E00     		movs	r6, r5
 3370 12f2 5640     		eors	r6, r2
 3371 12f4 3400     		movs	r4, r6
 3372 12f6 0C40     		ands	r4, r1
 3373 12f8 0F92     		str	r2, [sp, #60]
 3374 12fa 5440     		eors	r4, r2
 3375 12fc 059E     		ldr	r6, [sp, #20]
 3376 12fe B246     		mov	r10, r6
 3377 1300 5444     		add	r4, r4, r10
 3378 1302 6444     		add	r4, r4, ip
 3379 1304 C64E     		ldr	r6, .L14
 3380 1306 B446     		mov	ip, r6
 3381              	.LVL762:
 3382 1308 6444     		add	r4, r4, ip
 3383              	.LVL763:
 3384 130a 5E46     		mov	r6, fp
 3385 130c F441     		rors	r4, r4, r6
 3386              	.LVL764:
 3387 130e 109A     		ldr	r2, [sp, #64]
 3388              	.LVL765:
 3389 1310 9446     		mov	ip, r2
 3390 1312 6444     		add	r4, r4, ip
 3391              	.LVL766:
 3392 1314 DD41     		rors	r5, r5, r3
 3393              	.LVL767:
 227:strong-arm\src\ripemd160/ripemd160.c **** 	GGG(ddd, eee, aaa, bbb, ccc, X[12],  9);
 3394              		.loc 1 227 0
 3395 1316 0A00     		movs	r2, r1
 3396 1318 6A40     		eors	r2, r5
 3397 131a 2240     		ands	r2, r4
 3398 131c 6A40     		eors	r2, r5
 3399 131e 9446     		mov	ip, r2
 3400 1320 0A9E     		ldr	r6, [sp, #40]
 3401 1322 B246     		mov	r10, r6
 3402 1324 D444     		add	ip, ip, r10
 3403 1326 109A     		ldr	r2, [sp, #64]
 3404 1328 6244     		add	r2, r2, ip
 3405 132a BD4E     		ldr	r6, .L14
 3406 132c B446     		mov	ip, r6
 3407 132e 6244     		add	r2, r2, ip
 3408              	.LVL768:
 3409 1330 1726     		movs	r6, #23
 3410 1332 F241     		rors	r2, r2, r6
 3411              	.LVL769:
 3412 1334 0F9E     		ldr	r6, [sp, #60]
 3413 1336 B246     		mov	r10, r6
 3414 1338 5244     		add	r2, r2, r10
 3415              	.LVL770:
 3416 133a D941     		rors	r1, r1, r3
 3417              	.LVL771:
 3418 133c 8C46     		mov	ip, r1
 3419              	.LVL772:
 228:strong-arm\src\ripemd160/ripemd160.c **** 	GGG(ccc, ddd, eee, aaa, bbb, X[ 2], 12);
 3420              		.loc 1 228 0
ARM GAS  C:\Users\Ray\AppData\Local\Temp\ccdgjwii.s 			page 65


 3421 133e 6140     		eors	r1, r4
 3422              	.LVL773:
 3423 1340 1140     		ands	r1, r2
 3424 1342 6646     		mov	r6, ip
 3425 1344 7140     		eors	r1, r6
 3426 1346 029E     		ldr	r6, [sp, #8]
 3427 1348 B246     		mov	r10, r6
 3428 134a 5144     		add	r1, r1, r10
 3429 134c 0F9E     		ldr	r6, [sp, #60]
 3430 134e B246     		mov	r10, r6
 3431 1350 5144     		add	r1, r1, r10
 3432 1352 B34E     		ldr	r6, .L14
 3433 1354 B246     		mov	r10, r6
 3434 1356 5144     		add	r1, r1, r10
 3435              	.LVL774:
 3436 1358 4E46     		mov	r6, r9
 3437 135a F141     		rors	r1, r1, r6
 3438              	.LVL775:
 3439 135c 6918     		adds	r1, r5, r1
 3440 135e 8A46     		mov	r10, r1
 3441              	.LVL776:
 3442 1360 DC41     		rors	r4, r4, r3
 3443              	.LVL777:
 3444 1362 0F94     		str	r4, [sp, #60]
 3445              	.LVL778:
 229:strong-arm\src\ripemd160/ripemd160.c **** 	GGG(bbb, ccc, ddd, eee, aaa, X[13],  9);
 3446              		.loc 1 229 0
 3447 1364 1100     		movs	r1, r2
 3448              	.LVL779:
 3449 1366 6140     		eors	r1, r4
 3450 1368 0E00     		movs	r6, r1
 3451 136a 5446     		mov	r4, r10
 3452              	.LVL780:
 3453 136c 2640     		ands	r6, r4
 3454 136e 0F99     		ldr	r1, [sp, #60]
 3455 1370 4E40     		eors	r6, r1
 3456 1372 0B99     		ldr	r1, [sp, #44]
 3457 1374 8A46     		mov	r10, r1
 3458              	.LVL781:
 3459 1376 5644     		add	r6, r6, r10
 3460 1378 AD19     		adds	r5, r5, r6
 3461              	.LVL782:
 3462 137a A949     		ldr	r1, .L14
 3463 137c 8A46     		mov	r10, r1
 3464 137e 5544     		add	r5, r5, r10
 3465              	.LVL783:
 3466 1380 1721     		movs	r1, #23
 3467 1382 CD41     		rors	r5, r5, r1
 3468              	.LVL784:
 3469 1384 6544     		add	r5, r5, ip
 3470              	.LVL785:
 3471 1386 1100     		movs	r1, r2
 3472 1388 D941     		rors	r1, r1, r3
 3473 138a 0E00     		movs	r6, r1
 3474              	.LVL786:
 230:strong-arm\src\ripemd160/ripemd160.c **** 	GGG(aaa, bbb, ccc, ddd, eee, X[ 9], 12);
 3475              		.loc 1 230 0
ARM GAS  C:\Users\Ray\AppData\Local\Temp\ccdgjwii.s 			page 66


 3476 138c 2100     		movs	r1, r4
 3477              	.LVL787:
 3478 138e 7140     		eors	r1, r6
 3479 1390 0A00     		movs	r2, r1
 3480 1392 2A40     		ands	r2, r5
 3481 1394 7240     		eors	r2, r6
 3482 1396 4244     		add	r2, r2, r8
 3483 1398 6244     		add	r2, r2, ip
 3484 139a 5244     		add	r2, r2, r10
 3485              	.LVL788:
 3486 139c 4946     		mov	r1, r9
 3487 139e CA41     		rors	r2, r2, r1
 3488              	.LVL789:
 3489 13a0 0F99     		ldr	r1, [sp, #60]
 3490 13a2 8C46     		mov	ip, r1
 3491              	.LVL790:
 3492 13a4 6244     		add	r2, r2, ip
 3493              	.LVL791:
 3494 13a6 DC41     		rors	r4, r4, r3
 3495              	.LVL792:
 231:strong-arm\src\ripemd160/ripemd160.c **** 	GGG(eee, aaa, bbb, ccc, ddd, X[ 7],  5);
 3496              		.loc 1 231 0
 3497 13a8 2900     		movs	r1, r5
 3498 13aa 6140     		eors	r1, r4
 3499 13ac 1140     		ands	r1, r2
 3500 13ae 1094     		str	r4, [sp, #64]
 3501 13b0 6140     		eors	r1, r4
 3502 13b2 8C46     		mov	ip, r1
 3503 13b4 0799     		ldr	r1, [sp, #28]
 3504 13b6 8A46     		mov	r10, r1
 3505 13b8 D444     		add	ip, ip, r10
 3506 13ba 0F99     		ldr	r1, [sp, #60]
 3507 13bc 6144     		add	r1, r1, ip
 3508 13be 0C00     		movs	r4, r1
 3509              	.LVL793:
 3510 13c0 9749     		ldr	r1, .L14
 3511 13c2 8C46     		mov	ip, r1
 3512 13c4 6444     		add	r4, r4, ip
 3513              	.LVL794:
 3514 13c6 1B21     		movs	r1, #27
 3515 13c8 CC41     		rors	r4, r4, r1
 3516              	.LVL795:
 3517 13ca 3419     		adds	r4, r6, r4
 3518              	.LVL796:
 3519 13cc DD41     		rors	r5, r5, r3
 3520              	.LVL797:
 232:strong-arm\src\ripemd160/ripemd160.c **** 	GGG(ddd, eee, aaa, bbb, ccc, X[10], 15);
 3521              		.loc 1 232 0
 3522 13ce 1100     		movs	r1, r2
 3523 13d0 6940     		eors	r1, r5
 3524 13d2 2140     		ands	r1, r4
 3525 13d4 0F95     		str	r5, [sp, #60]
 3526 13d6 6940     		eors	r1, r5
 3527 13d8 8C46     		mov	ip, r1
 3528 13da 0999     		ldr	r1, [sp, #36]
 3529 13dc 8A46     		mov	r10, r1
 3530 13de D444     		add	ip, ip, r10
ARM GAS  C:\Users\Ray\AppData\Local\Temp\ccdgjwii.s 			page 67


 3531 13e0 6644     		add	r6, r6, ip
 3532              	.LVL798:
 3533 13e2 8F4D     		ldr	r5, .L14
 3534              	.LVL799:
 3535 13e4 AC46     		mov	ip, r5
 3536 13e6 6644     		add	r6, r6, ip
 3537              	.LVL800:
 3538 13e8 1125     		movs	r5, #17
 3539 13ea EE41     		rors	r6, r6, r5
 3540              	.LVL801:
 3541 13ec 1099     		ldr	r1, [sp, #64]
 3542 13ee 8C46     		mov	ip, r1
 3543 13f0 6644     		add	r6, r6, ip
 3544              	.LVL802:
 3545 13f2 DA41     		rors	r2, r2, r3
 3546              	.LVL803:
 233:strong-arm\src\ripemd160/ripemd160.c **** 	GGG(ccc, ddd, eee, aaa, bbb, X[14],  8);
 3547              		.loc 1 233 0
 3548 13f4 2500     		movs	r5, r4
 3549 13f6 5540     		eors	r5, r2
 3550 13f8 3540     		ands	r5, r6
 3551 13fa 5540     		eors	r5, r2
 3552 13fc AC46     		mov	ip, r5
 3553 13fe 0C9D     		ldr	r5, [sp, #48]
 3554 1400 AA46     		mov	r10, r5
 3555 1402 D444     		add	ip, ip, r10
 3556 1404 6144     		add	r1, r1, ip
 3557 1406 864D     		ldr	r5, .L14
 3558 1408 AC46     		mov	ip, r5
 3559 140a 6144     		add	r1, r1, ip
 3560              	.LVL804:
 3561 140c 1825     		movs	r5, #24
 3562 140e E941     		rors	r1, r1, r5
 3563              	.LVL805:
 3564 1410 0F9D     		ldr	r5, [sp, #60]
 3565 1412 AC46     		mov	ip, r5
 3566              	.LVL806:
 3567 1414 6144     		add	r1, r1, ip
 3568              	.LVL807:
 3569 1416 DC41     		rors	r4, r4, r3
 3570              	.LVL808:
 234:strong-arm\src\ripemd160/ripemd160.c **** 	
 235:strong-arm\src\ripemd160/ripemd160.c **** 	/* parallel round 5 */
 236:strong-arm\src\ripemd160/ripemd160.c **** 	FFF(bbb, ccc, ddd, eee, aaa, X[12] ,  8);
 3571              		.loc 1 236 0
 3572 1418 3500     		movs	r5, r6
 3573 141a 4D40     		eors	r5, r1
 3574 141c 1094     		str	r4, [sp, #64]
 3575 141e 6540     		eors	r5, r4
 3576 1420 AC46     		mov	ip, r5
 3577 1422 0A9D     		ldr	r5, [sp, #40]
 3578 1424 AA46     		mov	r10, r5
 3579 1426 D444     		add	ip, ip, r10
 3580 1428 0F9D     		ldr	r5, [sp, #60]
 3581 142a 6544     		add	r5, r5, ip
 3582              	.LVL809:
 3583 142c 1824     		movs	r4, #24
ARM GAS  C:\Users\Ray\AppData\Local\Temp\ccdgjwii.s 			page 68


 3584              	.LVL810:
 3585 142e E541     		rors	r5, r5, r4
 3586              	.LVL811:
 3587 1430 AC46     		mov	ip, r5
 3588              	.LVL812:
 3589 1432 9444     		add	ip, ip, r2
 3590              	.LVL813:
 3591 1434 DE41     		rors	r6, r6, r3
 3592              	.LVL814:
 237:strong-arm\src\ripemd160/ripemd160.c **** 	FFF(aaa, bbb, ccc, ddd, eee, X[15] ,  5);
 3593              		.loc 1 237 0
 3594 1436 6546     		mov	r5, ip
 3595 1438 4D40     		eors	r5, r1
 3596 143a 7540     		eors	r5, r6
 3597 143c 2C00     		movs	r4, r5
 3598 143e 0D9D     		ldr	r5, [sp, #52]
 3599 1440 AA46     		mov	r10, r5
 3600 1442 2500     		movs	r5, r4
 3601 1444 5544     		add	r5, r5, r10
 3602 1446 5519     		adds	r5, r2, r5
 3603              	.LVL815:
 3604 1448 1B24     		movs	r4, #27
 3605 144a E541     		rors	r5, r5, r4
 3606              	.LVL816:
 3607 144c 109C     		ldr	r4, [sp, #64]
 3608 144e A246     		mov	r10, r4
 3609 1450 5544     		add	r5, r5, r10
 3610              	.LVL817:
 3611 1452 D941     		rors	r1, r1, r3
 3612              	.LVL818:
 238:strong-arm\src\ripemd160/ripemd160.c **** 	FFF(eee, aaa, bbb, ccc, ddd, X[10] , 12);
 3613              		.loc 1 238 0
 3614 1454 6246     		mov	r2, ip
 3615 1456 6A40     		eors	r2, r5
 3616 1458 0A91     		str	r1, [sp, #40]
 3617 145a 4A40     		eors	r2, r1
 3618 145c 0999     		ldr	r1, [sp, #36]
 3619              	.LVL819:
 3620 145e 8A46     		mov	r10, r1
 3621 1460 5244     		add	r2, r2, r10
 3622 1462 A418     		adds	r4, r4, r2
 3623              	.LVL820:
 3624 1464 4946     		mov	r1, r9
 3625 1466 CC41     		rors	r4, r4, r1
 3626              	.LVL821:
 3627 1468 3419     		adds	r4, r6, r4
 3628              	.LVL822:
 3629 146a 6146     		mov	r1, ip
 3630 146c D941     		rors	r1, r1, r3
 3631 146e 8C46     		mov	ip, r1
 3632              	.LVL823:
 239:strong-arm\src\ripemd160/ripemd160.c **** 	FFF(ddd, eee, aaa, bbb, ccc, X[ 4] ,  9);
 3633              		.loc 1 239 0
 3634 1470 2900     		movs	r1, r5
 3635              	.LVL824:
 3636 1472 6140     		eors	r1, r4
 3637 1474 0A00     		movs	r2, r1
ARM GAS  C:\Users\Ray\AppData\Local\Temp\ccdgjwii.s 			page 69


 3638 1476 6146     		mov	r1, ip
 3639 1478 4A40     		eors	r2, r1
 3640 147a 0499     		ldr	r1, [sp, #16]
 3641 147c 8A46     		mov	r10, r1
 3642 147e 5244     		add	r2, r2, r10
 3643 1480 B618     		adds	r6, r6, r2
 3644              	.LVL825:
 3645 1482 1721     		movs	r1, #23
 3646 1484 CE41     		rors	r6, r6, r1
 3647              	.LVL826:
 3648 1486 0A9A     		ldr	r2, [sp, #40]
 3649 1488 9246     		mov	r10, r2
 3650 148a 5644     		add	r6, r6, r10
 3651              	.LVL827:
 3652 148c DD41     		rors	r5, r5, r3
 3653              	.LVL828:
 240:strong-arm\src\ripemd160/ripemd160.c **** 	FFF(ccc, ddd, eee, aaa, bbb, X[ 1] , 12);
 3654              		.loc 1 240 0
 3655 148e 2100     		movs	r1, r4
 3656 1490 7140     		eors	r1, r6
 3657 1492 0A00     		movs	r2, r1
 3658 1494 6A40     		eors	r2, r5
 3659 1496 0199     		ldr	r1, [sp, #4]
 3660 1498 8A46     		mov	r10, r1
 3661 149a 5244     		add	r2, r2, r10
 3662 149c 0A99     		ldr	r1, [sp, #40]
 3663 149e 8918     		adds	r1, r1, r2
 3664              	.LVL829:
 3665 14a0 4A46     		mov	r2, r9
 3666 14a2 D141     		rors	r1, r1, r2
 3667              	.LVL830:
 3668 14a4 6144     		add	r1, r1, ip
 3669 14a6 8946     		mov	r9, r1
 3670              	.LVL831:
 3671 14a8 DC41     		rors	r4, r4, r3
 3672              	.LVL832:
 241:strong-arm\src\ripemd160/ripemd160.c **** 	FFF(bbb, ccc, ddd, eee, aaa, X[ 5] ,  5);
 3673              		.loc 1 241 0
 3674 14aa 3100     		movs	r1, r6
 3675              	.LVL833:
 3676 14ac 4A46     		mov	r2, r9
 3677 14ae 5140     		eors	r1, r2
 3678 14b0 0A00     		movs	r2, r1
 3679 14b2 6240     		eors	r2, r4
 3680 14b4 0599     		ldr	r1, [sp, #20]
 3681 14b6 8A46     		mov	r10, r1
 3682 14b8 5244     		add	r2, r2, r10
 3683 14ba 6244     		add	r2, r2, ip
 3684              	.LVL834:
 3685 14bc 1B21     		movs	r1, #27
 3686 14be CA41     		rors	r2, r2, r1
 3687              	.LVL835:
 3688 14c0 9446     		mov	ip, r2
 3689              	.LVL836:
 3690 14c2 AC44     		add	ip, ip, r5
 3691              	.LVL837:
 3692 14c4 DE41     		rors	r6, r6, r3
ARM GAS  C:\Users\Ray\AppData\Local\Temp\ccdgjwii.s 			page 70


 3693              	.LVL838:
 242:strong-arm\src\ripemd160/ripemd160.c **** 	FFF(aaa, bbb, ccc, ddd, eee, X[ 8] , 14);
 3694              		.loc 1 242 0
 3695 14c6 6146     		mov	r1, ip
 3696 14c8 4A46     		mov	r2, r9
 3697 14ca 5140     		eors	r1, r2
 3698 14cc 0A00     		movs	r2, r1
 3699 14ce 7240     		eors	r2, r6
 3700 14d0 0899     		ldr	r1, [sp, #32]
 3701 14d2 8A46     		mov	r10, r1
 3702 14d4 5244     		add	r2, r2, r10
 3703 14d6 AD18     		adds	r5, r5, r2
 3704              	.LVL839:
 3705 14d8 1221     		movs	r1, #18
 3706 14da CD41     		rors	r5, r5, r1
 3707              	.LVL840:
 3708 14dc 6519     		adds	r5, r4, r5
 3709              	.LVL841:
 3710 14de 4A46     		mov	r2, r9
 3711 14e0 DA41     		rors	r2, r2, r3
 3712 14e2 9146     		mov	r9, r2
 3713              	.LVL842:
 243:strong-arm\src\ripemd160/ripemd160.c **** 	FFF(eee, aaa, bbb, ccc, ddd, X[ 7] ,  6);
 3714              		.loc 1 243 0
 3715 14e4 6146     		mov	r1, ip
 3716 14e6 6940     		eors	r1, r5
 3717 14e8 0A00     		movs	r2, r1
 3718              	.LVL843:
 3719 14ea 4946     		mov	r1, r9
 3720 14ec 4A40     		eors	r2, r1
 3721 14ee 0799     		ldr	r1, [sp, #28]
 3722 14f0 8A46     		mov	r10, r1
 3723 14f2 5244     		add	r2, r2, r10
 3724 14f4 A418     		adds	r4, r4, r2
 3725              	.LVL844:
 3726 14f6 5946     		mov	r1, fp
 3727 14f8 CC41     		rors	r4, r4, r1
 3728              	.LVL845:
 3729 14fa 3419     		adds	r4, r6, r4
 3730              	.LVL846:
 3731 14fc 6146     		mov	r1, ip
 3732 14fe D941     		rors	r1, r1, r3
 3733 1500 8C46     		mov	ip, r1
 3734              	.LVL847:
 244:strong-arm\src\ripemd160/ripemd160.c **** 	FFF(ddd, eee, aaa, bbb, ccc, X[ 6] ,  8);
 3735              		.loc 1 244 0
 3736 1502 2900     		movs	r1, r5
 3737              	.LVL848:
 3738 1504 6140     		eors	r1, r4
 3739 1506 0A00     		movs	r2, r1
 3740 1508 6146     		mov	r1, ip
 3741 150a 4A40     		eors	r2, r1
 3742 150c 0699     		ldr	r1, [sp, #24]
 3743 150e 8A46     		mov	r10, r1
 3744 1510 5244     		add	r2, r2, r10
 3745 1512 B618     		adds	r6, r6, r2
 3746              	.LVL849:
ARM GAS  C:\Users\Ray\AppData\Local\Temp\ccdgjwii.s 			page 71


 3747 1514 1821     		movs	r1, #24
 3748 1516 CE41     		rors	r6, r6, r1
 3749              	.LVL850:
 3750 1518 4E44     		add	r6, r6, r9
 3751              	.LVL851:
 3752 151a DD41     		rors	r5, r5, r3
 3753              	.LVL852:
 245:strong-arm\src\ripemd160/ripemd160.c **** 	FFF(ccc, ddd, eee, aaa, bbb, X[ 2] , 13);
 3754              		.loc 1 245 0
 3755 151c 2100     		movs	r1, r4
 3756 151e 7140     		eors	r1, r6
 3757 1520 0A00     		movs	r2, r1
 3758 1522 6A40     		eors	r2, r5
 3759 1524 0299     		ldr	r1, [sp, #8]
 3760 1526 8A46     		mov	r10, r1
 3761 1528 5244     		add	r2, r2, r10
 3762 152a 4A44     		add	r2, r2, r9
 3763 152c 1100     		movs	r1, r2
 3764              	.LVL853:
 3765 152e 1322     		movs	r2, #19
 3766 1530 D141     		rors	r1, r1, r2
 3767              	.LVL854:
 3768 1532 6144     		add	r1, r1, ip
 3769              	.LVL855:
 3770 1534 DC41     		rors	r4, r4, r3
 3771              	.LVL856:
 3772 1536 A146     		mov	r9, r4
 3773              	.LVL857:
 246:strong-arm\src\ripemd160/ripemd160.c **** 	FFF(bbb, ccc, ddd, eee, aaa, X[13] ,  6);
 3774              		.loc 1 246 0
 3775 1538 3400     		movs	r4, r6
 3776              	.LVL858:
 3777 153a 4C40     		eors	r4, r1
 3778 153c 2200     		movs	r2, r4
 3779 153e 4C46     		mov	r4, r9
 3780 1540 6240     		eors	r2, r4
 3781 1542 0B9C     		ldr	r4, [sp, #44]
 3782 1544 A246     		mov	r10, r4
 3783 1546 5244     		add	r2, r2, r10
 3784 1548 6244     		add	r2, r2, ip
 3785              	.LVL859:
 3786 154a 5C46     		mov	r4, fp
 3787 154c E241     		rors	r2, r2, r4
 3788              	.LVL860:
 3789 154e 9446     		mov	ip, r2
 3790              	.LVL861:
 3791 1550 AC44     		add	ip, ip, r5
 3792              	.LVL862:
 3793 1552 DE41     		rors	r6, r6, r3
 3794              	.LVL863:
 247:strong-arm\src\ripemd160/ripemd160.c **** 	FFF(aaa, bbb, ccc, ddd, eee, X[14] ,  5);
 3795              		.loc 1 247 0
 3796 1554 6446     		mov	r4, ip
 3797 1556 4C40     		eors	r4, r1
 3798 1558 2200     		movs	r2, r4
 3799 155a 7240     		eors	r2, r6
 3800 155c 0C9C     		ldr	r4, [sp, #48]
ARM GAS  C:\Users\Ray\AppData\Local\Temp\ccdgjwii.s 			page 72


 3801 155e A246     		mov	r10, r4
 3802 1560 5244     		add	r2, r2, r10
 3803 1562 AD18     		adds	r5, r5, r2
 3804              	.LVL864:
 3805 1564 1B24     		movs	r4, #27
 3806 1566 E541     		rors	r5, r5, r4
 3807              	.LVL865:
 3808 1568 4D44     		add	r5, r5, r9
 3809              	.LVL866:
 3810 156a D941     		rors	r1, r1, r3
 3811              	.LVL867:
 3812 156c 8B46     		mov	fp, r1
 3813              	.LVL868:
 248:strong-arm\src\ripemd160/ripemd160.c **** 	FFF(eee, aaa, bbb, ccc, ddd, X[ 0] , 15);
 3814              		.loc 1 248 0
 3815 156e 6446     		mov	r4, ip
 3816 1570 6C40     		eors	r4, r5
 3817 1572 2200     		movs	r2, r4
 3818 1574 4A40     		eors	r2, r1
 3819 1576 009C     		ldr	r4, [sp]
 3820 1578 A246     		mov	r10, r4
 3821 157a 5244     		add	r2, r2, r10
 3822 157c 4A44     		add	r2, r2, r9
 3823 157e 1400     		movs	r4, r2
 3824              	.LVL869:
 3825 1580 1122     		movs	r2, #17
 3826              	.LVL870:
 3827 1582 D441     		rors	r4, r4, r2
 3828              	.LVL871:
 3829 1584 3419     		adds	r4, r6, r4
 3830              	.LVL872:
 3831 1586 6246     		mov	r2, ip
 3832 1588 DA41     		rors	r2, r2, r3
 3833 158a 9446     		mov	ip, r2
 3834              	.LVL873:
 249:strong-arm\src\ripemd160/ripemd160.c **** 	FFF(ddd, eee, aaa, bbb, ccc, X[ 3] , 13);
 3835              		.loc 1 249 0
 3836 158c 2A00     		movs	r2, r5
 3837              	.LVL874:
 3838 158e 6240     		eors	r2, r4
 3839 1590 6146     		mov	r1, ip
 3840              	.LVL875:
 3841 1592 5140     		eors	r1, r2
 3842 1594 039A     		ldr	r2, [sp, #12]
 3843 1596 9246     		mov	r10, r2
 3844 1598 0A00     		movs	r2, r1
 3845 159a 5244     		add	r2, r2, r10
 3846 159c B618     		adds	r6, r6, r2
 3847              	.LVL876:
 3848 159e 1321     		movs	r1, #19
 3849 15a0 CE41     		rors	r6, r6, r1
 3850              	.LVL877:
 3851 15a2 5E44     		add	r6, r6, fp
 3852              	.LVL878:
 3853 15a4 DD41     		rors	r5, r5, r3
 3854              	.LVL879:
 250:strong-arm\src\ripemd160/ripemd160.c **** 	FFF(ccc, ddd, eee, aaa, bbb, X[ 9] , 11);
ARM GAS  C:\Users\Ray\AppData\Local\Temp\ccdgjwii.s 			page 73


 3855              		.loc 1 250 0
 3856 15a6 2200     		movs	r2, r4
 3857 15a8 7240     		eors	r2, r6
 3858 15aa 6A40     		eors	r2, r5
 3859 15ac 4244     		add	r2, r2, r8
 3860 15ae 5A44     		add	r2, r2, fp
 3861 15b0 1100     		movs	r1, r2
 3862              	.LVL880:
 3863 15b2 1522     		movs	r2, #21
 3864 15b4 D141     		rors	r1, r1, r2
 3865              	.LVL881:
 3866 15b6 6144     		add	r1, r1, ip
 3867              	.LVL882:
 3868 15b8 DC41     		rors	r4, r4, r3
 3869              	.LVL883:
 251:strong-arm\src\ripemd160/ripemd160.c **** 	FFF(bbb, ccc, ddd, eee, aaa, X[11] , 11);
 3870              		.loc 1 251 0
 3871 15ba 3200     		movs	r2, r6
 3872 15bc 4A40     		eors	r2, r1
 3873 15be 6240     		eors	r2, r4
 3874 15c0 BA18     		adds	r2, r7, r2
 3875 15c2 6244     		add	r2, r2, ip
 3876              	.LVL884:
 3877 15c4 1527     		movs	r7, #21
 3878 15c6 FA41     		rors	r2, r2, r7
 3879              	.LVL885:
 3880 15c8 AA18     		adds	r2, r5, r2
 3881              	.LVL886:
 3882 15ca DE41     		rors	r6, r6, r3
 3883              	.LVL887:
 3884 15cc 3300     		movs	r3, r6
 3885              	.LVL888:
 252:strong-arm\src\ripemd160/ripemd160.c **** 	
 253:strong-arm\src\ripemd160/ripemd160.c **** 	/* combine results */
 254:strong-arm\src\ripemd160/ripemd160.c **** 	ddd += cc + MDbuf[1];
 3886              		.loc 1 254 0
 3887 15ce 129F     		ldr	r7, [sp, #72]
 3888 15d0 B846     		mov	r8, r7
 3889 15d2 4768     		ldr	r7, [r0, #4]
 3890 15d4 BC46     		mov	ip, r7
 3891 15d6 E044     		add	r8, r8, ip
 3892 15d8 4646     		mov	r6, r8
 3893 15da 9E19     		adds	r6, r3, r6
 3894              	.LVL889:
 255:strong-arm\src\ripemd160/ripemd160.c **** 	MDbuf[1] = MDbuf[2] + dd + eee;
 3895              		.loc 1 255 0
 3896 15dc 159F     		ldr	r7, [sp, #84]
 3897 15de 3B00     		movs	r3, r7
 3898 15e0 8768     		ldr	r7, [r0, #8]
 3899 15e2 BC46     		mov	ip, r7
 3900 15e4 6344     		add	r3, r3, ip
 3901 15e6 E418     		adds	r4, r4, r3
 3902              	.LVL890:
 3903 15e8 4460     		str	r4, [r0, #4]
 256:strong-arm\src\ripemd160/ripemd160.c **** 	MDbuf[2] = MDbuf[3] + ee + aaa;
 3904              		.loc 1 256 0
 3905 15ea 139B     		ldr	r3, [sp, #76]
ARM GAS  C:\Users\Ray\AppData\Local\Temp\ccdgjwii.s 			page 74


 3906 15ec C468     		ldr	r4, [r0, #12]
 3907 15ee A446     		mov	ip, r4
 3908 15f0 6344     		add	r3, r3, ip
 3909 15f2 ED18     		adds	r5, r5, r3
 3910              	.LVL891:
 3911 15f4 8560     		str	r5, [r0, #8]
 257:strong-arm\src\ripemd160/ripemd160.c **** 	MDbuf[3] = MDbuf[4] + aa + bbb;
 3912              		.loc 1 257 0
 3913 15f6 119D     		ldr	r5, [sp, #68]
 3914 15f8 2C00     		movs	r4, r5
 3915 15fa 0369     		ldr	r3, [r0, #16]
 3916 15fc 9846     		mov	r8, r3
 3917 15fe 4444     		add	r4, r4, r8
 3918 1600 1219     		adds	r2, r2, r4
 3919              	.LVL892:
 3920 1602 C260     		str	r2, [r0, #12]
 258:strong-arm\src\ripemd160/ripemd160.c **** 	MDbuf[4] = MDbuf[0] + bb + ccc;
 3921              		.loc 1 258 0
 3922 1604 149A     		ldr	r2, [sp, #80]
 3923 1606 0368     		ldr	r3, [r0]
 3924 1608 9C46     		mov	ip, r3
 3925 160a 6244     		add	r2, r2, ip
 3926 160c 8918     		adds	r1, r1, r2
 3927              	.LVL893:
 3928 160e 0161     		str	r1, [r0, #16]
 259:strong-arm\src\ripemd160/ripemd160.c **** 	MDbuf[0] = ddd;
 3929              		.loc 1 259 0
 3930 1610 0660     		str	r6, [r0]
 260:strong-arm\src\ripemd160/ripemd160.c **** }
 3931              		.loc 1 260 0
 3932 1612 17B0     		add	sp, sp, #92
 3933              		@ sp needed
 3934              	.LVL894:
 3935 1614 3CBC     		pop	{r2, r3, r4, r5}
 3936 1616 9046     		mov	r8, r2
 3937 1618 9946     		mov	r9, r3
 3938 161a A246     		mov	r10, r4
 3939 161c AB46     		mov	fp, r5
 3940 161e F0BD     		pop	{r4, r5, r6, r7, pc}
 3941              	.L15:
 3942              		.align	2
 3943              	.L14:
 3944 1620 E9766D7A 		.word	2053994217
 3945              		.cfi_endproc
 3946              	.LFE0:
 3947              		.size	compress, .-compress
 3948              		.section	.text.RIPEMD160,"ax",%progbits
 3949              		.align	2
 3950              		.global	RIPEMD160
 3951              		.code	16
 3952              		.thumb_func
 3953              		.type	RIPEMD160, %function
 3954              	RIPEMD160:
 3955              	.LFB1:
 261:strong-arm\src\ripemd160/ripemd160.c **** 
 262:strong-arm\src\ripemd160/ripemd160.c **** // TODO: We can't really handle data when len == 2^32-1.
 263:strong-arm\src\ripemd160/ripemd160.c **** void RIPEMD160 (uint8_t *hash, uint8_t const *msg, uint32_t len)
ARM GAS  C:\Users\Ray\AppData\Local\Temp\ccdgjwii.s 			page 75


 264:strong-arm\src\ripemd160/ripemd160.c **** {
 3956              		.loc 1 264 0
 3957              		.cfi_startproc
 3958              		@ args = 0, pretend = 0, frame = 88
 3959              		@ frame_needed = 0, uses_anonymous_args = 0
 3960              	.LVL895:
 3961 0000 F0B5     		push	{r4, r5, r6, r7, lr}
 3962              		.cfi_def_cfa_offset 20
 3963              		.cfi_offset 4, -20
 3964              		.cfi_offset 5, -16
 3965              		.cfi_offset 6, -12
 3966              		.cfi_offset 7, -8
 3967              		.cfi_offset 14, -4
 3968 0002 4746     		mov	r7, r8
 3969 0004 80B4     		push	{r7}
 3970              		.cfi_def_cfa_offset 24
 3971              		.cfi_offset 8, -24
 3972 0006 96B0     		sub	sp, sp, #88
 3973              		.cfi_def_cfa_offset 112
 3974 0008 0600     		movs	r6, r0
 3975 000a 0C00     		movs	r4, r1
 3976 000c 9046     		mov	r8, r2
 265:strong-arm\src\ripemd160/ripemd160.c **** 	uint32_t digest[5] = {0x67452301, 0xefcdab89, 0x98badcfe, 0x10325476, 0xc3d2e1f0UL};
 3977              		.loc 1 265 0
 3978 000e 11A9     		add	r1, sp, #68
 3979              	.LVL896:
 3980 0010 3D48     		ldr	r0, .L26
 3981              	.LVL897:
 3982 0012 0B00     		movs	r3, r1
 3983 0014 0200     		movs	r2, r0
 3984              	.LVL898:
 3985 0016 23CA     		ldmia	r2!, {r0, r1, r5}
 3986 0018 23C3     		stmia	r3!, {r0, r1, r5}
 3987 001a 03CA     		ldmia	r2!, {r0, r1}
 3988 001c 03C3     		stmia	r3!, {r0, r1}
 3989              	.LVL899:
 3990              	.LBB2:
 266:strong-arm\src\ripemd160/ripemd160.c **** 	
 267:strong-arm\src\ripemd160/ripemd160.c **** 	for (uint32_t i = 0; i < (len >> 6); ++i)
 3991              		.loc 1 267 0
 3992 001e 0025     		movs	r5, #0
 3993 0020 1AE0     		b	.L17
 3994              	.LVL900:
 3995              	.L18:
 3996              	.LBB3:
 3997              	.LBB4:
 268:strong-arm\src\ripemd160/ripemd160.c **** 	{
 269:strong-arm\src\ripemd160/ripemd160.c **** 		uint32_t chunk[16];
 270:strong-arm\src\ripemd160/ripemd160.c **** 		
 271:strong-arm\src\ripemd160/ripemd160.c **** 		for (int j = 0; j < 16; ++j)
 272:strong-arm\src\ripemd160/ripemd160.c **** 		{
 273:strong-arm\src\ripemd160/ripemd160.c **** 			chunk[j] = (uint32_t)(*(msg++));
 3998              		.loc 1 273 0 discriminator 3
 3999 0022 2278     		ldrb	r2, [r4]
 4000 0024 01A9     		add	r1, sp, #4
 4001 0026 B800     		lsls	r0, r7, #2
 4002 0028 4250     		str	r2, [r0, r1]
ARM GAS  C:\Users\Ray\AppData\Local\Temp\ccdgjwii.s 			page 76


 4003              	.LVL901:
 274:strong-arm\src\ripemd160/ripemd160.c **** 			chunk[j] |= (uint32_t)(*(msg++)) << 8;
 4004              		.loc 1 274 0 discriminator 3
 4005 002a 6378     		ldrb	r3, [r4, #1]
 4006 002c 1B02     		lsls	r3, r3, #8
 4007 002e 1343     		orrs	r3, r2
 4008 0030 4350     		str	r3, [r0, r1]
 4009              	.LVL902:
 275:strong-arm\src\ripemd160/ripemd160.c **** 			chunk[j] |= (uint32_t)(*(msg++)) << 16;
 4010              		.loc 1 275 0 discriminator 3
 4011 0032 A278     		ldrb	r2, [r4, #2]
 4012 0034 1204     		lsls	r2, r2, #16
 4013 0036 1343     		orrs	r3, r2
 4014 0038 4350     		str	r3, [r0, r1]
 4015              	.LVL903:
 276:strong-arm\src\ripemd160/ripemd160.c **** 			chunk[j] |= (uint32_t)(*(msg++)) << 24;
 4016              		.loc 1 276 0 discriminator 3
 4017 003a E278     		ldrb	r2, [r4, #3]
 4018 003c 1206     		lsls	r2, r2, #24
 4019 003e 1343     		orrs	r3, r2
 4020 0040 4350     		str	r3, [r0, r1]
 271:strong-arm\src\ripemd160/ripemd160.c **** 		{
 4021              		.loc 1 271 0 discriminator 3
 4022 0042 0137     		adds	r7, r7, #1
 4023              	.LVL904:
 4024              		.loc 1 276 0 discriminator 3
 4025 0044 0434     		adds	r4, r4, #4
 4026              	.LVL905:
 4027 0046 00E0     		b	.L19
 4028              	.LVL906:
 4029              	.L25:
 4030              	.LBE4:
 4031              	.LBE3:
 4032 0048 0027     		movs	r7, #0
 4033              	.L19:
 4034              	.LVL907:
 4035              	.LBB6:
 4036              	.LBB5:
 271:strong-arm\src\ripemd160/ripemd160.c **** 		{
 4037              		.loc 1 271 0 discriminator 1
 4038 004a 0F2F     		cmp	r7, #15
 4039 004c E9DD     		ble	.L18
 4040              	.LBE5:
 277:strong-arm\src\ripemd160/ripemd160.c **** 		}
 278:strong-arm\src\ripemd160/ripemd160.c **** 	 
 279:strong-arm\src\ripemd160/ripemd160.c **** 		compress (digest, chunk);
 4041              		.loc 1 279 0 discriminator 2
 4042 004e 01A9     		add	r1, sp, #4
 4043 0050 11A8     		add	r0, sp, #68
 4044 0052 FFF7FEFF 		bl	compress
 4045              	.LVL908:
 4046              	.LBE6:
 267:strong-arm\src\ripemd160/ripemd160.c **** 	{
 4047              		.loc 1 267 0 discriminator 2
 4048 0056 0135     		adds	r5, r5, #1
 4049              	.LVL909:
 4050              	.L17:
ARM GAS  C:\Users\Ray\AppData\Local\Temp\ccdgjwii.s 			page 77


 267:strong-arm\src\ripemd160/ripemd160.c **** 	{
 4051              		.loc 1 267 0 is_stmt 0 discriminator 1
 4052 0058 4346     		mov	r3, r8
 4053 005a 9B09     		lsrs	r3, r3, #6
 4054 005c 9D42     		cmp	r5, r3
 4055 005e F3D3     		bcc	.L25
 4056              	.LBE2:
 4057              	.LBB7:
 280:strong-arm\src\ripemd160/ripemd160.c **** 	}
 281:strong-arm\src\ripemd160/ripemd160.c **** 	
 282:strong-arm\src\ripemd160/ripemd160.c **** 	// Last chunk
 283:strong-arm\src\ripemd160/ripemd160.c **** 	{
 284:strong-arm\src\ripemd160/ripemd160.c **** 		uint32_t chunk[16] = {0};
 4058              		.loc 1 284 0 is_stmt 1
 4059 0060 4022     		movs	r2, #64
 4060 0062 0021     		movs	r1, #0
 4061 0064 01A8     		add	r0, sp, #4
 4062 0066 FFF7FEFF 		bl	memset
 4063              	.LVL910:
 4064              	.LBB8:
 285:strong-arm\src\ripemd160/ripemd160.c **** 		
 286:strong-arm\src\ripemd160/ripemd160.c **** 		for (uint32_t i = 0; i < (len & 63); ++i)
 4065              		.loc 1 286 0
 4066 006a 0022     		movs	r2, #0
 4067 006c 0CE0     		b	.L20
 4068              	.LVL911:
 4069              	.L21:
 287:strong-arm\src\ripemd160/ripemd160.c **** 			chunk[i >> 2] ^= (uint32_t) *msg++ << ((i&3) << 3);
 4070              		.loc 1 287 0 discriminator 3
 4071 006e 2378     		ldrb	r3, [r4]
 4072 0070 D100     		lsls	r1, r2, #3
 4073              	.LVL912:
 4074 0072 1820     		movs	r0, #24
 4075 0074 0140     		ands	r1, r0
 4076 0076 8B40     		lsls	r3, r3, r1
 4077 0078 9108     		lsrs	r1, r2, #2
 4078 007a 01A8     		add	r0, sp, #4
 4079 007c 8900     		lsls	r1, r1, #2
 4080 007e 0D58     		ldr	r5, [r1, r0]
 4081 0080 6B40     		eors	r3, r5
 4082 0082 0B50     		str	r3, [r1, r0]
 286:strong-arm\src\ripemd160/ripemd160.c **** 			chunk[i >> 2] ^= (uint32_t) *msg++ << ((i&3) << 3);
 4083              		.loc 1 286 0 discriminator 3
 4084 0084 0132     		adds	r2, r2, #1
 4085              	.LVL913:
 4086              		.loc 1 287 0 discriminator 3
 4087 0086 0134     		adds	r4, r4, #1
 4088              	.LVL914:
 4089              	.L20:
 286:strong-arm\src\ripemd160/ripemd160.c **** 			chunk[i >> 2] ^= (uint32_t) *msg++ << ((i&3) << 3);
 4090              		.loc 1 286 0 discriminator 1
 4091 0088 3F23     		movs	r3, #63
 4092 008a 4146     		mov	r1, r8
 4093 008c 0B40     		ands	r3, r1
 4094 008e 9A42     		cmp	r2, r3
 4095 0090 EDD3     		bcc	.L21
 4096              	.LVL915:
ARM GAS  C:\Users\Ray\AppData\Local\Temp\ccdgjwii.s 			page 78


 4097              	.LBE8:
 288:strong-arm\src\ripemd160/ripemd160.c **** 		
 289:strong-arm\src\ripemd160/ripemd160.c **** 		chunk[(len >> 2)&15] ^= (uint32_t)1 << (8*(len&3) + 7);
 4098              		.loc 1 289 0
 4099 0092 8A08     		lsrs	r2, r1, #2
 4100              	.LVL916:
 4101 0094 0F21     		movs	r1, #15
 4102              	.LVL917:
 4103 0096 1140     		ands	r1, r2
 4104 0098 0322     		movs	r2, #3
 4105 009a 4046     		mov	r0, r8
 4106 009c 0240     		ands	r2, r0
 4107 009e D200     		lsls	r2, r2, #3
 4108 00a0 0732     		adds	r2, r2, #7
 4109 00a2 0120     		movs	r0, #1
 4110 00a4 9040     		lsls	r0, r0, r2
 4111 00a6 01AC     		add	r4, sp, #4
 4112              	.LVL918:
 4113 00a8 8A00     		lsls	r2, r1, #2
 4114 00aa 1159     		ldr	r1, [r2, r4]
 4115 00ac 4140     		eors	r1, r0
 4116 00ae 1151     		str	r1, [r2, r4]
 290:strong-arm\src\ripemd160/ripemd160.c **** 		
 291:strong-arm\src\ripemd160/ripemd160.c **** 		if ((len & 63) > 55)
 4117              		.loc 1 291 0
 4118 00b0 372B     		cmp	r3, #55
 4119 00b2 08D9     		bls	.L22
 292:strong-arm\src\ripemd160/ripemd160.c **** 		{
 293:strong-arm\src\ripemd160/ripemd160.c **** 			compress (digest, chunk);
 4120              		.loc 1 293 0
 4121 00b4 2100     		movs	r1, r4
 4122 00b6 11A8     		add	r0, sp, #68
 4123 00b8 FFF7FEFF 		bl	compress
 4124              	.LVL919:
 294:strong-arm\src\ripemd160/ripemd160.c **** 			memset (chunk, 0, 64);
 4125              		.loc 1 294 0
 4126 00bc 4022     		movs	r2, #64
 4127 00be 0021     		movs	r1, #0
 4128 00c0 01A8     		add	r0, sp, #4
 4129 00c2 FFF7FEFF 		bl	memset
 4130              	.LVL920:
 4131              	.L22:
 295:strong-arm\src\ripemd160/ripemd160.c **** 		}
 296:strong-arm\src\ripemd160/ripemd160.c **** 		
 297:strong-arm\src\ripemd160/ripemd160.c **** 		chunk[14] = len << 3;
 4132              		.loc 1 297 0
 4133 00c6 4346     		mov	r3, r8
 4134 00c8 DB00     		lsls	r3, r3, #3
 4135 00ca 0F93     		str	r3, [sp, #60]
 298:strong-arm\src\ripemd160/ripemd160.c **** 		chunk[15] = (len >> 29);
 4136              		.loc 1 298 0
 4137 00cc 4346     		mov	r3, r8
 4138 00ce 5F0F     		lsrs	r7, r3, #29
 4139 00d0 1097     		str	r7, [sp, #64]
 299:strong-arm\src\ripemd160/ripemd160.c **** 		compress (digest, chunk);
 4140              		.loc 1 299 0
 4141 00d2 01A9     		add	r1, sp, #4
ARM GAS  C:\Users\Ray\AppData\Local\Temp\ccdgjwii.s 			page 79


 4142 00d4 11A8     		add	r0, sp, #68
 4143 00d6 FFF7FEFF 		bl	compress
 4144              	.LVL921:
 4145              	.LBE7:
 4146              	.LBB9:
 300:strong-arm\src\ripemd160/ripemd160.c **** 	}
 301:strong-arm\src\ripemd160/ripemd160.c **** 	
 302:strong-arm\src\ripemd160/ripemd160.c **** 	for (int i = 0; i < 5; ++i)
 4147              		.loc 1 302 0
 4148 00da 0021     		movs	r1, #0
 4149 00dc 0EE0     		b	.L23
 4150              	.LVL922:
 4151              	.L24:
 303:strong-arm\src\ripemd160/ripemd160.c **** 	{
 304:strong-arm\src\ripemd160/ripemd160.c **** 		*(hash++) = digest[i];
 4152              		.loc 1 304 0 discriminator 3
 4153 00de 11AB     		add	r3, sp, #68
 4154 00e0 8A00     		lsls	r2, r1, #2
 4155 00e2 D05C     		ldrb	r0, [r2, r3]
 4156 00e4 3070     		strb	r0, [r6]
 4157              	.LVL923:
 305:strong-arm\src\ripemd160/ripemd160.c **** 		*(hash++) = digest[i] >> 8;
 4158              		.loc 1 305 0 discriminator 3
 4159 00e6 D058     		ldr	r0, [r2, r3]
 4160 00e8 000A     		lsrs	r0, r0, #8
 4161 00ea 7070     		strb	r0, [r6, #1]
 4162              	.LVL924:
 306:strong-arm\src\ripemd160/ripemd160.c **** 		*(hash++) = digest[i] >> 16;
 4163              		.loc 1 306 0 discriminator 3
 4164 00ec D058     		ldr	r0, [r2, r3]
 4165 00ee 000C     		lsrs	r0, r0, #16
 4166 00f0 B070     		strb	r0, [r6, #2]
 4167              	.LVL925:
 307:strong-arm\src\ripemd160/ripemd160.c **** 		*(hash++) = digest[i] >> 24;
 4168              		.loc 1 307 0 discriminator 3
 4169 00f2 D358     		ldr	r3, [r2, r3]
 4170 00f4 1B0E     		lsrs	r3, r3, #24
 4171 00f6 F370     		strb	r3, [r6, #3]
 302:strong-arm\src\ripemd160/ripemd160.c **** 	{
 4172              		.loc 1 302 0 discriminator 3
 4173 00f8 0131     		adds	r1, r1, #1
 4174              	.LVL926:
 4175              		.loc 1 307 0 discriminator 3
 4176 00fa 0436     		adds	r6, r6, #4
 4177              	.LVL927:
 4178              	.L23:
 302:strong-arm\src\ripemd160/ripemd160.c **** 	{
 4179              		.loc 1 302 0 discriminator 1
 4180 00fc 0429     		cmp	r1, #4
 4181 00fe EEDD     		ble	.L24
 4182              	.LBE9:
 308:strong-arm\src\ripemd160/ripemd160.c **** 	}
 309:strong-arm\src\ripemd160/ripemd160.c **** }
 4183              		.loc 1 309 0
 4184 0100 16B0     		add	sp, sp, #88
 4185              		@ sp needed
 4186              	.LVL928:
ARM GAS  C:\Users\Ray\AppData\Local\Temp\ccdgjwii.s 			page 80


 4187              	.LVL929:
 4188 0102 04BC     		pop	{r2}
 4189 0104 9046     		mov	r8, r2
 4190 0106 F0BD     		pop	{r4, r5, r6, r7, pc}
 4191              	.L27:
 4192              		.align	2
 4193              	.L26:
 4194 0108 00000000 		.word	.LANCHOR0
 4195              		.cfi_endproc
 4196              	.LFE1:
 4197              		.size	RIPEMD160, .-RIPEMD160
 4198              		.section	.rodata
 4199              		.align	2
 4200              		.set	.LANCHOR0,. + 0
 4201              	.LC0:
 4202 0000 01234567 		.word	1732584193
 4203 0004 89ABCDEF 		.word	-271733879
 4204 0008 FEDCBA98 		.word	-1732584194
 4205 000c 76543210 		.word	271733878
 4206 0010 F0E1D2C3 		.word	-1009589776
 4207              		.text
 4208              	.Letext0:
 4209              		.file 2 "c:\\program files (x86)\\cypress\\psoc creator\\4.1\\psoc creator\\import\\gnu\\arm\\5.4.
 4210              		.file 3 "c:\\program files (x86)\\cypress\\psoc creator\\4.1\\psoc creator\\import\\gnu\\arm\\5.4.