ARM GAS  C:\Users\Ray\AppData\Local\Temp\ccdgjwii.s 			page 1


   1              		.syntax unified
   2              		.cpu cortex-m0
   3              		.fpu softvfp
   4              		.eabi_attribute 20, 1
   5              		.eabi_attribute 21, 1
   6              		.eabi_attribute 23, 3
   7              		.eabi_attribute 24, 1
   8              		.eabi_attribute 25, 1
   9              		.eabi_attribute 26, 1
  10              		.eabi_attribute 30, 1
  11              		.eabi_attribute 34, 0
  12              		.eabi_attribute 18, 4
  13              		.thumb
  14              		.syntax unified
  15              		.file	"ripemd160.c"
  16              		.text
  17              	.Ltext0:
  18              		.cfi_sections	.debug_frame
  19              		.section	.text.compress,"ax",%progbits
  20              		.align	2
  21              		.code	16
  22              		.thumb_func
  23              		.type	compress, %function
  24              	compress:
  25              	.LFB0:
  26              		.file 1 "strong-arm\\src\\ripemd160\\ripemd160.c"
   1:strong-arm\src\ripemd160/ripemd160.c **** #include <strong-arm/ripemd160.h>
   2:strong-arm\src\ripemd160/ripemd160.c **** #include <string.h>
   3:strong-arm\src\ripemd160/ripemd160.c **** 
   4:strong-arm\src\ripemd160/ripemd160.c **** 
   5:strong-arm\src\ripemd160/ripemd160.c **** #define ROL(x, n)	(((x) << (n)) | ((x) >> (32-(n))))
   6:strong-arm\src\ripemd160/ripemd160.c **** 
   7:strong-arm\src\ripemd160/ripemd160.c **** #define F(x, y, z)		((x) ^ (y) ^ (z)) 
   8:strong-arm\src\ripemd160/ripemd160.c **** #define G(x, y, z)		(((x) & (y)) | (~(x) & (z))) 
   9:strong-arm\src\ripemd160/ripemd160.c **** #define H(x, y, z)		(((x) | ~(y)) ^ (z))
  10:strong-arm\src\ripemd160/ripemd160.c **** #define IQ(x, y, z)		(((x) & (z)) | ((y) & ~(z))) 
  11:strong-arm\src\ripemd160/ripemd160.c **** #define J(x, y, z)		((x) ^ ((y) | ~(z)))
  12:strong-arm\src\ripemd160/ripemd160.c **** 
  13:strong-arm\src\ripemd160/ripemd160.c **** #define FF(a, b, c, d, e, x, s)        {\
  14:strong-arm\src\ripemd160/ripemd160.c ****       (a) += F((b), (c), (d)) + (x);\
  15:strong-arm\src\ripemd160/ripemd160.c ****       (a) = ROL((a), (s)) + (e);\
  16:strong-arm\src\ripemd160/ripemd160.c ****       (c) = ROL((c), 10);\
  17:strong-arm\src\ripemd160/ripemd160.c ****    }
  18:strong-arm\src\ripemd160/ripemd160.c **** #define GG(a, b, c, d, e, x, s)        {\
  19:strong-arm\src\ripemd160/ripemd160.c ****       (a) += G((b), (c), (d)) + (x) + 0x5a827999UL;\
  20:strong-arm\src\ripemd160/ripemd160.c ****       (a) = ROL((a), (s)) + (e);\
  21:strong-arm\src\ripemd160/ripemd160.c ****       (c) = ROL((c), 10);\
  22:strong-arm\src\ripemd160/ripemd160.c ****    }
  23:strong-arm\src\ripemd160/ripemd160.c **** #define HH(a, b, c, d, e, x, s)        {\
  24:strong-arm\src\ripemd160/ripemd160.c ****       (a) += H((b), (c), (d)) + (x) + 0x6ed9eba1UL;\
  25:strong-arm\src\ripemd160/ripemd160.c ****       (a) = ROL((a), (s)) + (e);\
  26:strong-arm\src\ripemd160/ripemd160.c ****       (c) = ROL((c), 10);\
  27:strong-arm\src\ripemd160/ripemd160.c ****    }
  28:strong-arm\src\ripemd160/ripemd160.c **** #define II(a, b, c, d, e, x, s)        {\
  29:strong-arm\src\ripemd160/ripemd160.c ****       (a) += IQ((b), (c), (d)) + (x) + 0x8f1bbcdcUL;\
  30:strong-arm\src\ripemd160/ripemd160.c ****       (a) = ROL((a), (s)) + (e);\
  31:strong-arm\src\ripemd160/ripemd160.c ****       (c) = ROL((c), 10);\
ARM GAS  C:\Users\Ray\AppData\Local\Temp\ccdgjwii.s 			page 2


  32:strong-arm\src\ripemd160/ripemd160.c ****    }
  33:strong-arm\src\ripemd160/ripemd160.c **** #define JJ(a, b, c, d, e, x, s)        {\
  34:strong-arm\src\ripemd160/ripemd160.c ****       (a) += J((b), (c), (d)) + (x) + 0xa953fd4eUL;\
  35:strong-arm\src\ripemd160/ripemd160.c ****       (a) = ROL((a), (s)) + (e);\
  36:strong-arm\src\ripemd160/ripemd160.c ****       (c) = ROL((c), 10);\
  37:strong-arm\src\ripemd160/ripemd160.c ****    }
  38:strong-arm\src\ripemd160/ripemd160.c **** #define FFF(a, b, c, d, e, x, s)        {\
  39:strong-arm\src\ripemd160/ripemd160.c ****       (a) += F((b), (c), (d)) + (x);\
  40:strong-arm\src\ripemd160/ripemd160.c ****       (a) = ROL((a), (s)) + (e);\
  41:strong-arm\src\ripemd160/ripemd160.c ****       (c) = ROL((c), 10);\
  42:strong-arm\src\ripemd160/ripemd160.c ****    }
  43:strong-arm\src\ripemd160/ripemd160.c **** #define GGG(a, b, c, d, e, x, s)        {\
  44:strong-arm\src\ripemd160/ripemd160.c ****       (a) += G((b), (c), (d)) + (x) + 0x7a6d76e9UL;\
  45:strong-arm\src\ripemd160/ripemd160.c ****       (a) = ROL((a), (s)) + (e);\
  46:strong-arm\src\ripemd160/ripemd160.c ****       (c) = ROL((c), 10);\
  47:strong-arm\src\ripemd160/ripemd160.c ****    }
  48:strong-arm\src\ripemd160/ripemd160.c **** #define HHH(a, b, c, d, e, x, s)        {\
  49:strong-arm\src\ripemd160/ripemd160.c ****       (a) += H((b), (c), (d)) + (x) + 0x6d703ef3UL;\
  50:strong-arm\src\ripemd160/ripemd160.c ****       (a) = ROL((a), (s)) + (e);\
  51:strong-arm\src\ripemd160/ripemd160.c ****       (c) = ROL((c), 10);\
  52:strong-arm\src\ripemd160/ripemd160.c ****    }
  53:strong-arm\src\ripemd160/ripemd160.c **** #define III(a, b, c, d, e, x, s)        {\
  54:strong-arm\src\ripemd160/ripemd160.c ****       (a) += IQ((b), (c), (d)) + (x) + 0x5c4dd124UL;\
  55:strong-arm\src\ripemd160/ripemd160.c ****       (a) = ROL((a), (s)) + (e);\
  56:strong-arm\src\ripemd160/ripemd160.c ****       (c) = ROL((c), 10);\
  57:strong-arm\src\ripemd160/ripemd160.c ****    }
  58:strong-arm\src\ripemd160/ripemd160.c **** #define JJJ(a, b, c, d, e, x, s)        {\
  59:strong-arm\src\ripemd160/ripemd160.c ****       (a) += J((b), (c), (d)) + (x) + 0x50a28be6UL;\
  60:strong-arm\src\ripemd160/ripemd160.c ****       (a) = ROL((a), (s)) + (e);\
  61:strong-arm\src\ripemd160/ripemd160.c ****       (c) = ROL((c), 10);\
  62:strong-arm\src\ripemd160/ripemd160.c ****    }
  63:strong-arm\src\ripemd160/ripemd160.c **** 
  64:strong-arm\src\ripemd160/ripemd160.c **** 
  65:strong-arm\src\ripemd160/ripemd160.c **** static void compress(uint32_t *MDbuf, uint32_t *X);
  66:strong-arm\src\ripemd160/ripemd160.c **** 
  67:strong-arm\src\ripemd160/ripemd160.c **** 
  68:strong-arm\src\ripemd160/ripemd160.c **** static void compress(uint32_t *MDbuf, uint32_t *X)
  69:strong-arm\src\ripemd160/ripemd160.c **** {
  27              		.loc 1 69 0
  28              		.cfi_startproc
  29              		@ args = 0, pretend = 0, frame = 88
  30              		@ frame_needed = 0, uses_anonymous_args = 0
  31              	.LVL0:
  32 0000 F0B5     		push	{r4, r5, r6, r7, lr}
  33              		.cfi_def_cfa_offset 20
  34              		.cfi_offset 4, -20
  35              		.cfi_offset 5, -16
  36              		.cfi_offset 6, -12
  37              		.cfi_offset 7, -8
  38              		.cfi_offset 14, -4
  39 0002 5F46     		mov	r7, fp
  40 0004 5646     		mov	r6, r10
  41 0006 4D46     		mov	r5, r9
  42 0008 4446     		mov	r4, r8
  43 000a F0B4     		push	{r4, r5, r6, r7}
  44              		.cfi_def_cfa_offset 36
  45              		.cfi_offset 8, -36
ARM GAS  C:\Users\Ray\AppData\Local\Temp\ccdgjwii.s 			page 3


  46              		.cfi_offset 9, -32
  47              		.cfi_offset 10, -28
  48              		.cfi_offset 11, -24
  49 000c 97B0     		sub	sp, sp, #92
  50              		.cfi_def_cfa_offset 128
  51 000e 8B46     		mov	fp, r1
  52              	.LVL1:
  70:strong-arm\src\ripemd160/ripemd160.c **** 	uint32_t aa = MDbuf[0],  bb = MDbuf[1],  cc = MDbuf[2], dd = MDbuf[3],  ee = MDbuf[4];
  71:strong-arm\src\ripemd160/ripemd160.c **** 	uint32_t aaa = MDbuf[0], bbb = MDbuf[1], ccc = MDbuf[2], ddd = MDbuf[3], eee = MDbuf[4];
  72:strong-arm\src\ripemd160/ripemd160.c **** 	
  73:strong-arm\src\ripemd160/ripemd160.c **** 	/* round 1 */
  74:strong-arm\src\ripemd160/ripemd160.c **** 	FF(aa, bb, cc, dd, ee, X[ 0], 11);
  53              		.loc 1 74 0
  54 0010 4268     		ldr	r2, [r0, #4]
  55 0012 8368     		ldr	r3, [r0, #8]
  56 0014 5A40     		eors	r2, r3
  57 0016 C368     		ldr	r3, [r0, #12]
  58 0018 5A40     		eors	r2, r3
  59 001a 0B68     		ldr	r3, [r1]
  60 001c 0093     		str	r3, [sp]
  61 001e 9C46     		mov	ip, r3
  62 0020 6244     		add	r2, r2, ip
  63 0022 0468     		ldr	r4, [r0]
  64 0024 A446     		mov	ip, r4
  65 0026 6244     		add	r2, r2, ip
  66              	.LVL2:
  67 0028 1524     		movs	r4, #21
  68 002a E241     		rors	r2, r2, r4
  69              	.LVL3:
  70 002c 0469     		ldr	r4, [r0, #16]
  71 002e A446     		mov	ip, r4
  72 0030 6244     		add	r2, r2, ip
  73              	.LVL4:
  74 0032 1623     		movs	r3, #22
  75 0034 8468     		ldr	r4, [r0, #8]
  76 0036 DC41     		rors	r4, r4, r3
  77 0038 2100     		movs	r1, r4
  78              	.LVL5:
  75:strong-arm\src\ripemd160/ripemd160.c **** 	FF(ee, aa, bb, cc, dd, X[ 1], 14);
  79              		.loc 1 75 0
  80 003a 4468     		ldr	r4, [r0, #4]
  81 003c 5440     		eors	r4, r2
  82 003e 4C40     		eors	r4, r1
  83 0040 5D46     		mov	r5, fp
  84 0042 6D68     		ldr	r5, [r5, #4]
  85 0044 0195     		str	r5, [sp, #4]
  86 0046 AC46     		mov	ip, r5
  87 0048 6444     		add	r4, r4, ip
  88 004a 0769     		ldr	r7, [r0, #16]
  89 004c BC46     		mov	ip, r7
  90 004e 6444     		add	r4, r4, ip
  91              	.LVL6:
  92 0050 1227     		movs	r7, #18
  93 0052 FC41     		rors	r4, r4, r7
  94              	.LVL7:
  95 0054 C768     		ldr	r7, [r0, #12]
  96 0056 BC46     		mov	ip, r7
ARM GAS  C:\Users\Ray\AppData\Local\Temp\ccdgjwii.s 			page 4


  97 0058 6444     		add	r4, r4, ip
  98              	.LVL8:
  99 005a 4768     		ldr	r7, [r0, #4]
 100 005c DF41     		rors	r7, r7, r3
 101              	.LVL9:
  76:strong-arm\src\ripemd160/ripemd160.c **** 	FF(dd, ee, aa, bb, cc, X[ 2], 15);
 102              		.loc 1 76 0
 103 005e 1500     		movs	r5, r2
 104 0060 6540     		eors	r5, r4
 105 0062 0F97     		str	r7, [sp, #60]
 106 0064 7D40     		eors	r5, r7
 107 0066 5E46     		mov	r6, fp
 108 0068 B768     		ldr	r7, [r6, #8]
 109              	.LVL10:
 110 006a 0297     		str	r7, [sp, #8]
 111 006c BC46     		mov	ip, r7
 112 006e 6544     		add	r5, r5, ip
 113 0070 C668     		ldr	r6, [r0, #12]
 114 0072 B446     		mov	ip, r6
 115 0074 6544     		add	r5, r5, ip
 116              	.LVL11:
 117 0076 1126     		movs	r6, #17
 118 0078 F541     		rors	r5, r5, r6
 119              	.LVL12:
 120 007a 0F00     		movs	r7, r1
 121              	.LVL13:
 122 007c 8C46     		mov	ip, r1
 123 007e 6544     		add	r5, r5, ip
 124              	.LVL14:
 125 0080 DA41     		rors	r2, r2, r3
 126              	.LVL15:
  77:strong-arm\src\ripemd160/ripemd160.c **** 	FF(cc, dd, ee, aa, bb, X[ 3], 12);
 127              		.loc 1 77 0
 128 0082 2100     		movs	r1, r4
 129              	.LVL16:
 130 0084 6940     		eors	r1, r5
 131 0086 5140     		eors	r1, r2
 132 0088 5E46     		mov	r6, fp
 133 008a F668     		ldr	r6, [r6, #12]
 134 008c 0396     		str	r6, [sp, #12]
 135 008e B446     		mov	ip, r6
 136 0090 6144     		add	r1, r1, ip
 137 0092 1097     		str	r7, [sp, #64]
 138 0094 BC46     		mov	ip, r7
 139 0096 6144     		add	r1, r1, ip
 140              	.LVL17:
 141 0098 1426     		movs	r6, #20
 142 009a F141     		rors	r1, r1, r6
 143              	.LVL18:
 144 009c 0F9E     		ldr	r6, [sp, #60]
 145 009e B446     		mov	ip, r6
 146 00a0 6144     		add	r1, r1, ip
 147              	.LVL19:
 148 00a2 DC41     		rors	r4, r4, r3
 149              	.LVL20:
 150 00a4 A046     		mov	r8, r4
 151              	.LVL21:
ARM GAS  C:\Users\Ray\AppData\Local\Temp\ccdgjwii.s 			page 5


  78:strong-arm\src\ripemd160/ripemd160.c **** 	FF(bb, cc, dd, ee, aa, X[ 4],  5);
 152              		.loc 1 78 0
 153 00a6 2C00     		movs	r4, r5
 154              	.LVL22:
 155 00a8 4C40     		eors	r4, r1
 156 00aa 2600     		movs	r6, r4
 157 00ac 4446     		mov	r4, r8
 158 00ae 6640     		eors	r6, r4
 159 00b0 5C46     		mov	r4, fp
 160 00b2 2769     		ldr	r7, [r4, #16]
 161 00b4 0497     		str	r7, [sp, #16]
 162 00b6 BC46     		mov	ip, r7
 163 00b8 6644     		add	r6, r6, ip
 164 00ba 0F9C     		ldr	r4, [sp, #60]
 165 00bc A446     		mov	ip, r4
 166 00be 6644     		add	r6, r6, ip
 167              	.LVL23:
 168 00c0 1B24     		movs	r4, #27
 169 00c2 E641     		rors	r6, r6, r4
 170              	.LVL24:
 171 00c4 9619     		adds	r6, r2, r6
 172              	.LVL25:
 173 00c6 DD41     		rors	r5, r5, r3
 174              	.LVL26:
  79:strong-arm\src\ripemd160/ripemd160.c **** 	FF(aa, bb, cc, dd, ee, X[ 5],  8);
 175              		.loc 1 79 0
 176 00c8 0C00     		movs	r4, r1
 177 00ca 7440     		eors	r4, r6
 178 00cc 2700     		movs	r7, r4
 179 00ce 6F40     		eors	r7, r5
 180 00d0 5C46     		mov	r4, fp
 181 00d2 6469     		ldr	r4, [r4, #20]
 182 00d4 0594     		str	r4, [sp, #20]
 183 00d6 A446     		mov	ip, r4
 184 00d8 6744     		add	r7, r7, ip
 185 00da D219     		adds	r2, r2, r7
 186              	.LVL27:
 187 00dc 1824     		movs	r4, #24
 188 00de E241     		rors	r2, r2, r4
 189              	.LVL28:
 190 00e0 4244     		add	r2, r2, r8
 191 00e2 9246     		mov	r10, r2
 192              	.LVL29:
 193 00e4 D941     		rors	r1, r1, r3
 194              	.LVL30:
  80:strong-arm\src\ripemd160/ripemd160.c **** 	FF(ee, aa, bb, cc, dd, X[ 6],  7);
 195              		.loc 1 80 0
 196 00e6 3200     		movs	r2, r6
 197              	.LVL31:
 198 00e8 5446     		mov	r4, r10
 199 00ea 6240     		eors	r2, r4
 200 00ec 1700     		movs	r7, r2
 201 00ee 4F40     		eors	r7, r1
 202 00f0 5A46     		mov	r2, fp
 203 00f2 9469     		ldr	r4, [r2, #24]
 204 00f4 0694     		str	r4, [sp, #24]
 205 00f6 A446     		mov	ip, r4
ARM GAS  C:\Users\Ray\AppData\Local\Temp\ccdgjwii.s 			page 6


 206 00f8 6744     		add	r7, r7, ip
 207 00fa 3C00     		movs	r4, r7
 208 00fc 4444     		add	r4, r4, r8
 209              	.LVL32:
 210 00fe 1922     		movs	r2, #25
 211 0100 D441     		rors	r4, r4, r2
 212              	.LVL33:
 213 0102 2C19     		adds	r4, r5, r4
 214              	.LVL34:
 215 0104 DE41     		rors	r6, r6, r3
 216              	.LVL35:
  81:strong-arm\src\ripemd160/ripemd160.c **** 	FF(dd, ee, aa, bb, cc, X[ 7],  9);
 217              		.loc 1 81 0
 218 0106 5246     		mov	r2, r10
 219 0108 6240     		eors	r2, r4
 220 010a 1700     		movs	r7, r2
 221 010c 7740     		eors	r7, r6
 222 010e 5A46     		mov	r2, fp
 223 0110 D269     		ldr	r2, [r2, #28]
 224 0112 0792     		str	r2, [sp, #28]
 225 0114 9046     		mov	r8, r2
 226 0116 4744     		add	r7, r7, r8
 227 0118 ED19     		adds	r5, r5, r7
 228              	.LVL36:
 229 011a 1722     		movs	r2, #23
 230 011c 9146     		mov	r9, r2
 231 011e D541     		rors	r5, r5, r2
 232              	.LVL37:
 233 0120 AC46     		mov	ip, r5
 234 0122 8C44     		add	ip, ip, r1
 235              	.LVL38:
 236 0124 5246     		mov	r2, r10
 237 0126 DA41     		rors	r2, r2, r3
 238              	.LVL39:
  82:strong-arm\src\ripemd160/ripemd160.c **** 	FF(cc, dd, ee, aa, bb, X[ 8], 11);
 239              		.loc 1 82 0
 240 0128 2500     		movs	r5, r4
 241 012a 6746     		mov	r7, ip
 242 012c 7D40     		eors	r5, r7
 243 012e 2F00     		movs	r7, r5
 244 0130 5740     		eors	r7, r2
 245 0132 5D46     		mov	r5, fp
 246 0134 2D6A     		ldr	r5, [r5, #32]
 247 0136 0895     		str	r5, [sp, #32]
 248 0138 A846     		mov	r8, r5
 249 013a 4744     		add	r7, r7, r8
 250 013c C919     		adds	r1, r1, r7
 251              	.LVL40:
 252 013e 1525     		movs	r5, #21
 253 0140 E941     		rors	r1, r1, r5
 254              	.LVL41:
 255 0142 7518     		adds	r5, r6, r1
 256              	.LVL42:
 257 0144 DC41     		rors	r4, r4, r3
 258              	.LVL43:
  83:strong-arm\src\ripemd160/ripemd160.c **** 	FF(bb, cc, dd, ee, aa, X[ 9], 13);
 259              		.loc 1 83 0
ARM GAS  C:\Users\Ray\AppData\Local\Temp\ccdgjwii.s 			page 7


 260 0146 6146     		mov	r1, ip
 261 0148 0A95     		str	r5, [sp, #40]
 262 014a 6940     		eors	r1, r5
 263 014c 0F00     		movs	r7, r1
 264 014e 6740     		eors	r7, r4
 265 0150 5946     		mov	r1, fp
 266 0152 496A     		ldr	r1, [r1, #36]
 267 0154 8846     		mov	r8, r1
 268 0156 4744     		add	r7, r7, r8
 269 0158 F619     		adds	r6, r6, r7
 270              	.LVL44:
 271 015a 1321     		movs	r1, #19
 272 015c CE41     		rors	r6, r6, r1
 273              	.LVL45:
 274 015e 9619     		adds	r6, r2, r6
 275              	.LVL46:
 276 0160 6746     		mov	r7, ip
 277 0162 DF41     		rors	r7, r7, r3
 278 0164 3D00     		movs	r5, r7
 279              	.LVL47:
  84:strong-arm\src\ripemd160/ripemd160.c **** 	FF(aa, bb, cc, dd, ee, X[10], 14);
 280              		.loc 1 84 0
 281 0166 0A99     		ldr	r1, [sp, #40]
 282 0168 7140     		eors	r1, r6
 283 016a 0F00     		movs	r7, r1
 284 016c 6F40     		eors	r7, r5
 285 016e 5946     		mov	r1, fp
 286 0170 896A     		ldr	r1, [r1, #40]
 287 0172 0991     		str	r1, [sp, #36]
 288 0174 8A46     		mov	r10, r1
 289 0176 5744     		add	r7, r7, r10
 290 0178 D219     		adds	r2, r2, r7
 291              	.LVL48:
 292 017a 1221     		movs	r1, #18
 293 017c CA41     		rors	r2, r2, r1
 294              	.LVL49:
 295 017e A718     		adds	r7, r4, r2
 296              	.LVL50:
 297 0180 0A99     		ldr	r1, [sp, #40]
 298 0182 D941     		rors	r1, r1, r3
 299              	.LVL51:
  85:strong-arm\src\ripemd160/ripemd160.c **** 	FF(ee, aa, bb, cc, dd, X[11], 15);
 300              		.loc 1 85 0
 301 0184 3200     		movs	r2, r6
 302 0186 0B97     		str	r7, [sp, #44]
 303 0188 7A40     		eors	r2, r7
 304 018a 0C91     		str	r1, [sp, #48]
 305 018c 4A40     		eors	r2, r1
 306 018e 9246     		mov	r10, r2
 307 0190 5A46     		mov	r2, fp
 308 0192 D76A     		ldr	r7, [r2, #44]
 309              	.LVL52:
 310 0194 BA44     		add	r10, r10, r7
 311 0196 5444     		add	r4, r4, r10
 312              	.LVL53:
 313 0198 1122     		movs	r2, #17
 314 019a D441     		rors	r4, r4, r2
ARM GAS  C:\Users\Ray\AppData\Local\Temp\ccdgjwii.s 			page 8


 315              	.LVL54:
 316 019c 2C19     		adds	r4, r5, r4
 317              	.LVL55:
 318 019e DE41     		rors	r6, r6, r3
 319              	.LVL56:
  86:strong-arm\src\ripemd160/ripemd160.c **** 	FF(dd, ee, aa, bb, cc, X[12],  6);
 320              		.loc 1 86 0
 321 01a0 0B9A     		ldr	r2, [sp, #44]
 322 01a2 6240     		eors	r2, r4
 323 01a4 0D96     		str	r6, [sp, #52]
 324 01a6 7240     		eors	r2, r6
 325 01a8 9246     		mov	r10, r2
 326 01aa 5A46     		mov	r2, fp
 327 01ac 126B     		ldr	r2, [r2, #48]
 328 01ae 0A92     		str	r2, [sp, #40]
 329 01b0 9446     		mov	ip, r2
 330 01b2 E244     		add	r10, r10, ip
 331 01b4 5544     		add	r5, r5, r10
 332              	.LVL57:
 333 01b6 1A21     		movs	r1, #26
 334              	.LVL58:
 335 01b8 CD41     		rors	r5, r5, r1
 336              	.LVL59:
 337 01ba 0C9E     		ldr	r6, [sp, #48]
 338              	.LVL60:
 339 01bc B446     		mov	ip, r6
 340 01be 6544     		add	r5, r5, ip
 341              	.LVL61:
 342 01c0 0B9A     		ldr	r2, [sp, #44]
 343 01c2 DA41     		rors	r2, r2, r3
 344              	.LVL62:
  87:strong-arm\src\ripemd160/ripemd160.c **** 	FF(cc, dd, ee, aa, bb, X[13],  7);
 345              		.loc 1 87 0
 346 01c4 2100     		movs	r1, r4
 347 01c6 6940     		eors	r1, r5
 348 01c8 5140     		eors	r1, r2
 349 01ca 8A46     		mov	r10, r1
 350 01cc 5946     		mov	r1, fp
 351 01ce 496B     		ldr	r1, [r1, #52]
 352 01d0 0B91     		str	r1, [sp, #44]
 353 01d2 8C46     		mov	ip, r1
 354 01d4 E244     		add	r10, r10, ip
 355 01d6 3100     		movs	r1, r6
 356 01d8 5144     		add	r1, r1, r10
 357              	.LVL63:
 358 01da 1926     		movs	r6, #25
 359 01dc F141     		rors	r1, r1, r6
 360              	.LVL64:
 361 01de 0D9E     		ldr	r6, [sp, #52]
 362 01e0 B446     		mov	ip, r6
 363 01e2 6144     		add	r1, r1, ip
 364 01e4 1191     		str	r1, [sp, #68]
 365              	.LVL65:
 366 01e6 DC41     		rors	r4, r4, r3
 367              	.LVL66:
  88:strong-arm\src\ripemd160/ripemd160.c **** 	FF(bb, cc, dd, ee, aa, X[14],  9);
 368              		.loc 1 88 0
ARM GAS  C:\Users\Ray\AppData\Local\Temp\ccdgjwii.s 			page 9


 369 01e8 2900     		movs	r1, r5
 370              	.LVL67:
 371 01ea 2E00     		movs	r6, r5
 372 01ec 119D     		ldr	r5, [sp, #68]
 373              	.LVL68:
 374 01ee 6E40     		eors	r6, r5
 375 01f0 6640     		eors	r6, r4
 376 01f2 B246     		mov	r10, r6
 377 01f4 5E46     		mov	r6, fp
 378 01f6 B66B     		ldr	r6, [r6, #56]
 379 01f8 0C96     		str	r6, [sp, #48]
 380 01fa B446     		mov	ip, r6
 381 01fc E244     		add	r10, r10, ip
 382 01fe 0D9D     		ldr	r5, [sp, #52]
 383 0200 5544     		add	r5, r5, r10
 384 0202 2E00     		movs	r6, r5
 385              	.LVL69:
 386 0204 4D46     		mov	r5, r9
 387              	.LVL70:
 388 0206 EE41     		rors	r6, r6, r5
 389              	.LVL71:
 390 0208 9619     		adds	r6, r2, r6
 391              	.LVL72:
 392 020a D941     		rors	r1, r1, r3
 393              	.LVL73:
  89:strong-arm\src\ripemd160/ripemd160.c **** 	FF(aa, bb, cc, dd, ee, X[15],  8);
 394              		.loc 1 89 0
 395 020c 119D     		ldr	r5, [sp, #68]
 396 020e 7540     		eors	r5, r6
 397 0210 1291     		str	r1, [sp, #72]
 398 0212 4D40     		eors	r5, r1
 399 0214 AA46     		mov	r10, r5
 400 0216 5D46     		mov	r5, fp
 401 0218 ED6B     		ldr	r5, [r5, #60]
 402 021a 0D95     		str	r5, [sp, #52]
 403 021c AC46     		mov	ip, r5
 404 021e E244     		add	r10, r10, ip
 405 0220 5244     		add	r2, r2, r10
 406              	.LVL74:
 407 0222 1825     		movs	r5, #24
 408 0224 EA41     		rors	r2, r2, r5
 409              	.LVL75:
 410 0226 9246     		mov	r10, r2
 411 0228 A244     		add	r10, r10, r4
 412              	.LVL76:
 413 022a 119A     		ldr	r2, [sp, #68]
 414 022c DA41     		rors	r2, r2, r3
 415              	.LVL77:
  90:strong-arm\src\ripemd160/ripemd160.c **** 	
  91:strong-arm\src\ripemd160/ripemd160.c **** 	/* round 2 */
  92:strong-arm\src\ripemd160/ripemd160.c **** 	GG(ee, aa, bb, cc, dd, X[ 7],  7);
 416              		.loc 1 92 0
 417 022e 3100     		movs	r1, r6
 418              	.LVL78:
 419 0230 5140     		eors	r1, r2
 420 0232 5546     		mov	r5, r10
 421 0234 2940     		ands	r1, r5
ARM GAS  C:\Users\Ray\AppData\Local\Temp\ccdgjwii.s 			page 10


 422 0236 5140     		eors	r1, r2
 423 0238 079D     		ldr	r5, [sp, #28]
 424 023a AC46     		mov	ip, r5
 425 023c 6144     		add	r1, r1, ip
 426 023e 6418     		adds	r4, r4, r1
 427              	.LVL79:
 428 0240 FE49     		ldr	r1, .L2
 429 0242 8C46     		mov	ip, r1
 430 0244 6444     		add	r4, r4, ip
 431              	.LVL80:
 432 0246 1921     		movs	r1, #25
 433 0248 CC41     		rors	r4, r4, r1
 434              	.LVL81:
 435 024a 129D     		ldr	r5, [sp, #72]
 436 024c AB46     		mov	fp, r5
 437              	.LVL82:
 438 024e A344     		add	fp, fp, r4
 439              	.LVL83:
 440 0250 DE41     		rors	r6, r6, r3
 441              	.LVL84:
  93:strong-arm\src\ripemd160/ripemd160.c **** 	GG(dd, ee, aa, bb, cc, X[ 4],  6);
 442              		.loc 1 93 0
 443 0252 5146     		mov	r1, r10
 444 0254 7140     		eors	r1, r6
 445 0256 5C46     		mov	r4, fp
 446 0258 2140     		ands	r1, r4
 447 025a 7140     		eors	r1, r6
 448 025c 049C     		ldr	r4, [sp, #16]
 449 025e A446     		mov	ip, r4
 450 0260 6144     		add	r1, r1, ip
 451 0262 AC46     		mov	ip, r5
 452 0264 6144     		add	r1, r1, ip
 453 0266 F54D     		ldr	r5, .L2
 454 0268 AC46     		mov	ip, r5
 455 026a 6144     		add	r1, r1, ip
 456              	.LVL85:
 457 026c 1A25     		movs	r5, #26
 458 026e E941     		rors	r1, r1, r5
 459              	.LVL86:
 460 0270 5118     		adds	r1, r2, r1
 461 0272 1191     		str	r1, [sp, #68]
 462              	.LVL87:
 463 0274 5546     		mov	r5, r10
 464 0276 DD41     		rors	r5, r5, r3
 465              	.LVL88:
  94:strong-arm\src\ripemd160/ripemd160.c **** 	GG(cc, dd, ee, aa, bb, X[13],  8);
 466              		.loc 1 94 0
 467 0278 5C46     		mov	r4, fp
 468 027a 6C40     		eors	r4, r5
 469 027c 0C40     		ands	r4, r1
 470 027e 6C40     		eors	r4, r5
 471 0280 A246     		mov	r10, r4
 472 0282 0B9C     		ldr	r4, [sp, #44]
 473 0284 A446     		mov	ip, r4
 474 0286 E244     		add	r10, r10, ip
 475 0288 5244     		add	r2, r2, r10
 476              	.LVL89:
ARM GAS  C:\Users\Ray\AppData\Local\Temp\ccdgjwii.s 			page 11


 477 028a EC4C     		ldr	r4, .L2
 478 028c A446     		mov	ip, r4
 479 028e 6244     		add	r2, r2, ip
 480              	.LVL90:
 481 0290 1824     		movs	r4, #24
 482 0292 E241     		rors	r2, r2, r4
 483              	.LVL91:
 484 0294 B218     		adds	r2, r6, r2
 485              	.LVL92:
 486 0296 5C46     		mov	r4, fp
 487 0298 DC41     		rors	r4, r4, r3
 488 029a A346     		mov	fp, r4
 489              	.LVL93:
  95:strong-arm\src\ripemd160/ripemd160.c **** 	GG(bb, cc, dd, ee, aa, X[ 1], 13);
 490              		.loc 1 95 0
 491 029c 0C00     		movs	r4, r1
 492              	.LVL94:
 493 029e 5946     		mov	r1, fp
 494              	.LVL95:
 495 02a0 4C40     		eors	r4, r1
 496              	.LVL96:
 497 02a2 1440     		ands	r4, r2
 498 02a4 4C40     		eors	r4, r1
 499 02a6 A246     		mov	r10, r4
 500 02a8 019C     		ldr	r4, [sp, #4]
 501 02aa A446     		mov	ip, r4
 502 02ac E244     		add	r10, r10, ip
 503 02ae 5644     		add	r6, r6, r10
 504              	.LVL97:
 505 02b0 E24C     		ldr	r4, .L2
 506 02b2 A446     		mov	ip, r4
 507 02b4 6644     		add	r6, r6, ip
 508              	.LVL98:
 509 02b6 1324     		movs	r4, #19
 510 02b8 E641     		rors	r6, r6, r4
 511              	.LVL99:
 512 02ba AE19     		adds	r6, r5, r6
 513              	.LVL100:
 514 02bc 1199     		ldr	r1, [sp, #68]
 515 02be D941     		rors	r1, r1, r3
 516 02c0 0C00     		movs	r4, r1
 517              	.LVL101:
  96:strong-arm\src\ripemd160/ripemd160.c **** 	GG(aa, bb, cc, dd, ee, X[10], 11);
 518              		.loc 1 96 0
 519 02c2 1100     		movs	r1, r2
 520              	.LVL102:
 521 02c4 6140     		eors	r1, r4
 522 02c6 3140     		ands	r1, r6
 523 02c8 1294     		str	r4, [sp, #72]
 524 02ca 6140     		eors	r1, r4
 525 02cc 8A46     		mov	r10, r1
 526 02ce 099C     		ldr	r4, [sp, #36]
 527              	.LVL103:
 528 02d0 A446     		mov	ip, r4
 529 02d2 E244     		add	r10, r10, ip
 530 02d4 5544     		add	r5, r5, r10
 531              	.LVL104:
ARM GAS  C:\Users\Ray\AppData\Local\Temp\ccdgjwii.s 			page 12


 532 02d6 D949     		ldr	r1, .L2
 533 02d8 8C46     		mov	ip, r1
 534 02da 6544     		add	r5, r5, ip
 535              	.LVL105:
 536 02dc 1521     		movs	r1, #21
 537 02de CD41     		rors	r5, r5, r1
 538              	.LVL106:
 539 02e0 5D44     		add	r5, r5, fp
 540              	.LVL107:
 541 02e2 DA41     		rors	r2, r2, r3
 542              	.LVL108:
  97:strong-arm\src\ripemd160/ripemd160.c **** 	GG(ee, aa, bb, cc, dd, X[ 6],  9);
 543              		.loc 1 97 0
 544 02e4 3100     		movs	r1, r6
 545 02e6 5140     		eors	r1, r2
 546 02e8 2940     		ands	r1, r5
 547 02ea 1192     		str	r2, [sp, #68]
 548 02ec 5140     		eors	r1, r2
 549 02ee 8A46     		mov	r10, r1
 550 02f0 069C     		ldr	r4, [sp, #24]
 551 02f2 A446     		mov	ip, r4
 552 02f4 E244     		add	r10, r10, ip
 553 02f6 D344     		add	fp, fp, r10
 554              	.LVL109:
 555 02f8 5C46     		mov	r4, fp
 556 02fa D049     		ldr	r1, .L2
 557 02fc 8C46     		mov	ip, r1
 558 02fe 6444     		add	r4, r4, ip
 559              	.LVL110:
 560 0300 4946     		mov	r1, r9
 561 0302 CC41     		rors	r4, r4, r1
 562              	.LVL111:
 563 0304 129A     		ldr	r2, [sp, #72]
 564              	.LVL112:
 565 0306 9446     		mov	ip, r2
 566              	.LVL113:
 567 0308 6444     		add	r4, r4, ip
 568              	.LVL114:
 569 030a DE41     		rors	r6, r6, r3
 570              	.LVL115:
  98:strong-arm\src\ripemd160/ripemd160.c **** 	GG(dd, ee, aa, bb, cc, X[15],  7);
 571              		.loc 1 98 0
 572 030c 2900     		movs	r1, r5
 573 030e 7140     		eors	r1, r6
 574 0310 2140     		ands	r1, r4
 575 0312 7140     		eors	r1, r6
 576 0314 8A46     		mov	r10, r1
 577 0316 0D99     		ldr	r1, [sp, #52]
 578 0318 8C46     		mov	ip, r1
 579 031a E244     		add	r10, r10, ip
 580 031c 1100     		movs	r1, r2
 581 031e 5144     		add	r1, r1, r10
 582 0320 0A00     		movs	r2, r1
 583 0322 C649     		ldr	r1, .L2
 584 0324 8C46     		mov	ip, r1
 585 0326 1100     		movs	r1, r2
 586 0328 6144     		add	r1, r1, ip
ARM GAS  C:\Users\Ray\AppData\Local\Temp\ccdgjwii.s 			page 13


 587              	.LVL116:
 588 032a 1922     		movs	r2, #25
 589 032c D141     		rors	r1, r1, r2
 590              	.LVL117:
 591 032e 119A     		ldr	r2, [sp, #68]
 592 0330 9446     		mov	ip, r2
 593              	.LVL118:
 594 0332 6144     		add	r1, r1, ip
 595              	.LVL119:
 596 0334 DD41     		rors	r5, r5, r3
 597              	.LVL120:
 598 0336 AB46     		mov	fp, r5
 599              	.LVL121:
  99:strong-arm\src\ripemd160/ripemd160.c **** 	GG(cc, dd, ee, aa, bb, X[ 3], 15);
 600              		.loc 1 99 0
 601 0338 2500     		movs	r5, r4
 602              	.LVL122:
 603 033a 5A46     		mov	r2, fp
 604 033c 5540     		eors	r5, r2
 605 033e 0D40     		ands	r5, r1
 606 0340 5540     		eors	r5, r2
 607 0342 AA46     		mov	r10, r5
 608 0344 039D     		ldr	r5, [sp, #12]
 609 0346 AC46     		mov	ip, r5
 610 0348 E244     		add	r10, r10, ip
 611 034a 119D     		ldr	r5, [sp, #68]
 612 034c 5544     		add	r5, r5, r10
 613 034e 2A00     		movs	r2, r5
 614 0350 BA4D     		ldr	r5, .L2
 615 0352 AC46     		mov	ip, r5
 616 0354 6244     		add	r2, r2, ip
 617              	.LVL123:
 618 0356 1125     		movs	r5, #17
 619 0358 EA41     		rors	r2, r2, r5
 620              	.LVL124:
 621 035a B218     		adds	r2, r6, r2
 622              	.LVL125:
 623 035c DC41     		rors	r4, r4, r3
 624              	.LVL126:
 100:strong-arm\src\ripemd160/ripemd160.c **** 	GG(bb, cc, dd, ee, aa, X[12],  7);
 625              		.loc 1 100 0
 626 035e 0D00     		movs	r5, r1
 627 0360 6540     		eors	r5, r4
 628 0362 1540     		ands	r5, r2
 629 0364 6540     		eors	r5, r4
 630 0366 AA46     		mov	r10, r5
 631 0368 0A9D     		ldr	r5, [sp, #40]
 632 036a AC46     		mov	ip, r5
 633 036c E244     		add	r10, r10, ip
 634 036e 5644     		add	r6, r6, r10
 635              	.LVL127:
 636 0370 B24D     		ldr	r5, .L2
 637 0372 AC46     		mov	ip, r5
 638 0374 6644     		add	r6, r6, ip
 639              	.LVL128:
 640 0376 1925     		movs	r5, #25
 641 0378 EE41     		rors	r6, r6, r5
ARM GAS  C:\Users\Ray\AppData\Local\Temp\ccdgjwii.s 			page 14


 642              	.LVL129:
 643 037a 5E44     		add	r6, r6, fp
 644              	.LVL130:
 645 037c D941     		rors	r1, r1, r3
 646              	.LVL131:
 101:strong-arm\src\ripemd160/ripemd160.c **** 	GG(aa, bb, cc, dd, ee, X[ 0], 12);
 647              		.loc 1 101 0
 648 037e 1500     		movs	r5, r2
 649 0380 4D40     		eors	r5, r1
 650 0382 3540     		ands	r5, r6
 651 0384 1191     		str	r1, [sp, #68]
 652 0386 4D40     		eors	r5, r1
 653 0388 AA46     		mov	r10, r5
 654 038a 009D     		ldr	r5, [sp]
 655 038c AC46     		mov	ip, r5
 656 038e E244     		add	r10, r10, ip
 657 0390 5D46     		mov	r5, fp
 658 0392 5544     		add	r5, r5, r10
 659 0394 A949     		ldr	r1, .L2
 660              	.LVL132:
 661 0396 8C46     		mov	ip, r1
 662 0398 6544     		add	r5, r5, ip
 663              	.LVL133:
 664 039a 1421     		movs	r1, #20
 665 039c CD41     		rors	r5, r5, r1
 666              	.LVL134:
 667 039e 6519     		adds	r5, r4, r5
 668              	.LVL135:
 669 03a0 DA41     		rors	r2, r2, r3
 670              	.LVL136:
 102:strong-arm\src\ripemd160/ripemd160.c **** 	GG(ee, aa, bb, cc, dd, X[ 9], 15);
 671              		.loc 1 102 0
 672 03a2 3100     		movs	r1, r6
 673 03a4 5140     		eors	r1, r2
 674 03a6 2940     		ands	r1, r5
 675 03a8 5140     		eors	r1, r2
 676 03aa 8A46     		mov	r10, r1
 677 03ac C244     		add	r10, r10, r8
 678 03ae 5444     		add	r4, r4, r10
 679              	.LVL137:
 680 03b0 6444     		add	r4, r4, ip
 681              	.LVL138:
 682 03b2 1121     		movs	r1, #17
 683 03b4 CC41     		rors	r4, r4, r1
 684              	.LVL139:
 685 03b6 1199     		ldr	r1, [sp, #68]
 686 03b8 8C46     		mov	ip, r1
 687 03ba 6444     		add	r4, r4, ip
 688              	.LVL140:
 689 03bc DE41     		rors	r6, r6, r3
 690              	.LVL141:
 691 03be B346     		mov	fp, r6
 692              	.LVL142:
 103:strong-arm\src\ripemd160/ripemd160.c **** 	GG(dd, ee, aa, bb, cc, X[ 5],  9);
 693              		.loc 1 103 0
 694 03c0 2900     		movs	r1, r5
 695 03c2 7140     		eors	r1, r6
ARM GAS  C:\Users\Ray\AppData\Local\Temp\ccdgjwii.s 			page 15


 696 03c4 2140     		ands	r1, r4
 697 03c6 7140     		eors	r1, r6
 698 03c8 8A46     		mov	r10, r1
 699 03ca 059E     		ldr	r6, [sp, #20]
 700              	.LVL143:
 701 03cc B446     		mov	ip, r6
 702 03ce E244     		add	r10, r10, ip
 703 03d0 1199     		ldr	r1, [sp, #68]
 704 03d2 5144     		add	r1, r1, r10
 705 03d4 994E     		ldr	r6, .L2
 706 03d6 B446     		mov	ip, r6
 707 03d8 6144     		add	r1, r1, ip
 708              	.LVL144:
 709 03da 4E46     		mov	r6, r9
 710 03dc F141     		rors	r1, r1, r6
 711              	.LVL145:
 712 03de 5118     		adds	r1, r2, r1
 713              	.LVL146:
 714 03e0 DD41     		rors	r5, r5, r3
 715              	.LVL147:
 104:strong-arm\src\ripemd160/ripemd160.c **** 	GG(cc, dd, ee, aa, bb, X[ 2], 11);
 716              		.loc 1 104 0
 717 03e2 2600     		movs	r6, r4
 718 03e4 6E40     		eors	r6, r5
 719 03e6 0E40     		ands	r6, r1
 720 03e8 6E40     		eors	r6, r5
 721 03ea B246     		mov	r10, r6
 722 03ec 029E     		ldr	r6, [sp, #8]
 723 03ee B446     		mov	ip, r6
 724 03f0 E244     		add	r10, r10, ip
 725 03f2 5244     		add	r2, r2, r10
 726              	.LVL148:
 727 03f4 914E     		ldr	r6, .L2
 728 03f6 B446     		mov	ip, r6
 729 03f8 6244     		add	r2, r2, ip
 730              	.LVL149:
 731 03fa 1526     		movs	r6, #21
 732 03fc F241     		rors	r2, r2, r6
 733              	.LVL150:
 734 03fe 5A44     		add	r2, r2, fp
 735              	.LVL151:
 736 0400 DC41     		rors	r4, r4, r3
 737              	.LVL152:
 105:strong-arm\src\ripemd160/ripemd160.c **** 	GG(bb, cc, dd, ee, aa, X[14],  7);
 738              		.loc 1 105 0
 739 0402 0E00     		movs	r6, r1
 740 0404 6640     		eors	r6, r4
 741 0406 1192     		str	r2, [sp, #68]
 742 0408 1640     		ands	r6, r2
 743 040a 6640     		eors	r6, r4
 744 040c B246     		mov	r10, r6
 745 040e 0C9E     		ldr	r6, [sp, #48]
 746 0410 B446     		mov	ip, r6
 747 0412 E244     		add	r10, r10, ip
 748 0414 D344     		add	fp, fp, r10
 749              	.LVL153:
 750 0416 5E46     		mov	r6, fp
ARM GAS  C:\Users\Ray\AppData\Local\Temp\ccdgjwii.s 			page 16


 751 0418 884A     		ldr	r2, .L2
 752              	.LVL154:
 753 041a 9446     		mov	ip, r2
 754 041c 6644     		add	r6, r6, ip
 755              	.LVL155:
 756 041e 1922     		movs	r2, #25
 757 0420 D641     		rors	r6, r6, r2
 758              	.LVL156:
 759 0422 B246     		mov	r10, r6
 760 0424 AA44     		add	r10, r10, r5
 761              	.LVL157:
 762 0426 D941     		rors	r1, r1, r3
 763              	.LVL158:
 106:strong-arm\src\ripemd160/ripemd160.c **** 	GG(aa, bb, cc, dd, ee, X[11], 13);
 764              		.loc 1 106 0
 765 0428 119E     		ldr	r6, [sp, #68]
 766 042a 4E40     		eors	r6, r1
 767 042c 5246     		mov	r2, r10
 768 042e 1640     		ands	r6, r2
 769 0430 4E40     		eors	r6, r1
 770 0432 BE19     		adds	r6, r7, r6
 771 0434 AD19     		adds	r5, r5, r6
 772              	.LVL159:
 773 0436 6544     		add	r5, r5, ip
 774              	.LVL160:
 775 0438 1322     		movs	r2, #19
 776 043a D541     		rors	r5, r5, r2
 777              	.LVL161:
 778 043c AB46     		mov	fp, r5
 779 043e A344     		add	fp, fp, r4
 780              	.LVL162:
 781 0440 119E     		ldr	r6, [sp, #68]
 782 0442 DE41     		rors	r6, r6, r3
 783              	.LVL163:
 107:strong-arm\src\ripemd160/ripemd160.c **** 	GG(ee, aa, bb, cc, dd, X[ 8], 12);
 784              		.loc 1 107 0
 785 0444 5A46     		mov	r2, fp
 786 0446 D543     		mvns	r5, r2
 787 0448 5246     		mov	r2, r10
 788 044a 1196     		str	r6, [sp, #68]
 789 044c 7240     		eors	r2, r6
 790 044e 1600     		movs	r6, r2
 791              	.LVL164:
 792 0450 5A46     		mov	r2, fp
 793 0452 1640     		ands	r6, r2
 794 0454 119A     		ldr	r2, [sp, #68]
 795 0456 5640     		eors	r6, r2
 796 0458 089A     		ldr	r2, [sp, #32]
 797 045a 9446     		mov	ip, r2
 798 045c 6644     		add	r6, r6, ip
 799 045e A419     		adds	r4, r4, r6
 800              	.LVL165:
 801 0460 764A     		ldr	r2, .L2
 802 0462 9446     		mov	ip, r2
 803 0464 6444     		add	r4, r4, ip
 804              	.LVL166:
 805 0466 1422     		movs	r2, #20
ARM GAS  C:\Users\Ray\AppData\Local\Temp\ccdgjwii.s 			page 17


 806 0468 D441     		rors	r4, r4, r2
 807              	.LVL167:
 808 046a 0C19     		adds	r4, r1, r4
 809              	.LVL168:
 810 046c 5246     		mov	r2, r10
 811 046e DA41     		rors	r2, r2, r3
 812 0470 1600     		movs	r6, r2
 813              	.LVL169:
 108:strong-arm\src\ripemd160/ripemd160.c **** 	
 109:strong-arm\src\ripemd160/ripemd160.c **** 	/* round 3 */
 110:strong-arm\src\ripemd160/ripemd160.c **** 	HH(dd, ee, aa, bb, cc, X[ 3], 11);
 814              		.loc 1 110 0
 815 0472 2543     		orrs	r5, r4
 816 0474 5540     		eors	r5, r2
 817 0476 039A     		ldr	r2, [sp, #12]
 818              	.LVL170:
 819 0478 9446     		mov	ip, r2
 820 047a 6544     		add	r5, r5, ip
 821 047c 4919     		adds	r1, r1, r5
 822              	.LVL171:
 823 047e 704A     		ldr	r2, .L2+4
 824 0480 9446     		mov	ip, r2
 825 0482 6144     		add	r1, r1, ip
 826              	.LVL172:
 827 0484 1522     		movs	r2, #21
 828 0486 D141     		rors	r1, r1, r2
 829              	.LVL173:
 830 0488 119D     		ldr	r5, [sp, #68]
 831 048a AC46     		mov	ip, r5
 832 048c 0A00     		movs	r2, r1
 833 048e 6244     		add	r2, r2, ip
 834 0490 1192     		str	r2, [sp, #68]
 835              	.LVL174:
 836 0492 5A46     		mov	r2, fp
 837              	.LVL175:
 838 0494 DA41     		rors	r2, r2, r3
 839 0496 9346     		mov	fp, r2
 840              	.LVL176:
 111:strong-arm\src\ripemd160/ripemd160.c **** 	HH(cc, dd, ee, aa, bb, X[10], 13);
 841              		.loc 1 111 0
 842 0498 E243     		mvns	r2, r4
 843              	.LVL177:
 844 049a 1199     		ldr	r1, [sp, #68]
 845 049c 0A43     		orrs	r2, r1
 846 049e 5946     		mov	r1, fp
 847 04a0 4A40     		eors	r2, r1
 848 04a2 9246     		mov	r10, r2
 849 04a4 099A     		ldr	r2, [sp, #36]
 850 04a6 9446     		mov	ip, r2
 851 04a8 E244     		add	r10, r10, ip
 852 04aa 5544     		add	r5, r5, r10
 853              	.LVL178:
 854 04ac 2A00     		movs	r2, r5
 855 04ae 644D     		ldr	r5, .L2+4
 856 04b0 AC46     		mov	ip, r5
 857 04b2 6244     		add	r2, r2, ip
 858              	.LVL179:
ARM GAS  C:\Users\Ray\AppData\Local\Temp\ccdgjwii.s 			page 18


 859 04b4 1325     		movs	r5, #19
 860 04b6 EA41     		rors	r2, r2, r5
 861              	.LVL180:
 862 04b8 B218     		adds	r2, r6, r2
 863              	.LVL181:
 864 04ba DC41     		rors	r4, r4, r3
 865              	.LVL182:
 112:strong-arm\src\ripemd160/ripemd160.c **** 	HH(bb, cc, dd, ee, aa, X[14],  6);
 866              		.loc 1 112 0
 867 04bc 1199     		ldr	r1, [sp, #68]
 868 04be CD43     		mvns	r5, r1
 869 04c0 1543     		orrs	r5, r2
 870 04c2 6540     		eors	r5, r4
 871 04c4 AA46     		mov	r10, r5
 872 04c6 0C9D     		ldr	r5, [sp, #48]
 873 04c8 AC46     		mov	ip, r5
 874 04ca E244     		add	r10, r10, ip
 875 04cc 5644     		add	r6, r6, r10
 876              	.LVL183:
 877 04ce 5C4D     		ldr	r5, .L2+4
 878 04d0 AC46     		mov	ip, r5
 879 04d2 6644     		add	r6, r6, ip
 880              	.LVL184:
 881 04d4 1A25     		movs	r5, #26
 882 04d6 EE41     		rors	r6, r6, r5
 883              	.LVL185:
 884 04d8 5E44     		add	r6, r6, fp
 885              	.LVL186:
 886 04da D941     		rors	r1, r1, r3
 887 04dc 8A46     		mov	r10, r1
 888              	.LVL187:
 113:strong-arm\src\ripemd160/ripemd160.c **** 	HH(aa, bb, cc, dd, ee, X[ 4],  7);
 889              		.loc 1 113 0
 890 04de D143     		mvns	r1, r2
 891              	.LVL188:
 892 04e0 3143     		orrs	r1, r6
 893 04e2 5546     		mov	r5, r10
 894 04e4 6940     		eors	r1, r5
 895 04e6 049D     		ldr	r5, [sp, #16]
 896 04e8 AC46     		mov	ip, r5
 897 04ea 6144     		add	r1, r1, ip
 898 04ec 5944     		add	r1, r1, fp
 899 04ee 544D     		ldr	r5, .L2+4
 900 04f0 AC46     		mov	ip, r5
 901 04f2 6144     		add	r1, r1, ip
 902              	.LVL189:
 903 04f4 1925     		movs	r5, #25
 904 04f6 E941     		rors	r1, r1, r5
 905              	.LVL190:
 906 04f8 8B46     		mov	fp, r1
 907              	.LVL191:
 908 04fa A344     		add	fp, fp, r4
 909              	.LVL192:
 910 04fc DA41     		rors	r2, r2, r3
 911              	.LVL193:
 912 04fe 1192     		str	r2, [sp, #68]
 913              	.LVL194:
ARM GAS  C:\Users\Ray\AppData\Local\Temp\ccdgjwii.s 			page 19


 114:strong-arm\src\ripemd160/ripemd160.c **** 	HH(ee, aa, bb, cc, dd, X[ 9], 14);
 914              		.loc 1 114 0
 915 0500 F543     		mvns	r5, r6
 916 0502 5A46     		mov	r2, fp
 917              	.LVL195:
 918 0504 1543     		orrs	r5, r2
 919 0506 119A     		ldr	r2, [sp, #68]
 920 0508 5540     		eors	r5, r2
 921 050a 4544     		add	r5, r5, r8
 922 050c 6419     		adds	r4, r4, r5
 923              	.LVL196:
 924 050e 6444     		add	r4, r4, ip
 925              	.LVL197:
 926 0510 1221     		movs	r1, #18
 927 0512 CC41     		rors	r4, r4, r1
 928              	.LVL198:
 929 0514 5444     		add	r4, r4, r10
 930              	.LVL199:
 931 0516 3100     		movs	r1, r6
 932 0518 D941     		rors	r1, r1, r3
 933 051a 0D00     		movs	r5, r1
 934              	.LVL200:
 115:strong-arm\src\ripemd160/ripemd160.c **** 	HH(dd, ee, aa, bb, cc, X[15],  9);
 935              		.loc 1 115 0
 936 051c 5A46     		mov	r2, fp
 937 051e D643     		mvns	r6, r2
 938 0520 2643     		orrs	r6, r4
 939 0522 4E40     		eors	r6, r1
 940 0524 0D99     		ldr	r1, [sp, #52]
 941              	.LVL201:
 942 0526 8C46     		mov	ip, r1
 943 0528 6644     		add	r6, r6, ip
 944 052a 5644     		add	r6, r6, r10
 945 052c 4449     		ldr	r1, .L2+4
 946 052e 8C46     		mov	ip, r1
 947 0530 6644     		add	r6, r6, ip
 948              	.LVL202:
 949 0532 4946     		mov	r1, r9
 950 0534 CE41     		rors	r6, r6, r1
 951              	.LVL203:
 952 0536 119A     		ldr	r2, [sp, #68]
 953 0538 9446     		mov	ip, r2
 954              	.LVL204:
 955 053a 6644     		add	r6, r6, ip
 956              	.LVL205:
 957 053c 5946     		mov	r1, fp
 958 053e D941     		rors	r1, r1, r3
 959 0540 8B46     		mov	fp, r1
 960              	.LVL206:
 116:strong-arm\src\ripemd160/ripemd160.c **** 	HH(cc, dd, ee, aa, bb, X[ 8], 13);
 961              		.loc 1 116 0
 962 0542 E143     		mvns	r1, r4
 963              	.LVL207:
 964 0544 3143     		orrs	r1, r6
 965 0546 5A46     		mov	r2, fp
 966 0548 5140     		eors	r1, r2
 967 054a 8A46     		mov	r10, r1
ARM GAS  C:\Users\Ray\AppData\Local\Temp\ccdgjwii.s 			page 20


 968 054c 0899     		ldr	r1, [sp, #32]
 969 054e 8C46     		mov	ip, r1
 970 0550 E244     		add	r10, r10, ip
 971 0552 119A     		ldr	r2, [sp, #68]
 972 0554 5244     		add	r2, r2, r10
 973 0556 3A49     		ldr	r1, .L2+4
 974 0558 8C46     		mov	ip, r1
 975 055a 6244     		add	r2, r2, ip
 976              	.LVL208:
 977 055c 1321     		movs	r1, #19
 978 055e CA41     		rors	r2, r2, r1
 979              	.LVL209:
 980 0560 AA18     		adds	r2, r5, r2
 981              	.LVL210:
 982 0562 DC41     		rors	r4, r4, r3
 983              	.LVL211:
 117:strong-arm\src\ripemd160/ripemd160.c **** 	HH(bb, cc, dd, ee, aa, X[ 1], 15);
 984              		.loc 1 117 0
 985 0564 F143     		mvns	r1, r6
 986 0566 1143     		orrs	r1, r2
 987 0568 6140     		eors	r1, r4
 988 056a 8A46     		mov	r10, r1
 989 056c 0199     		ldr	r1, [sp, #4]
 990 056e 8C46     		mov	ip, r1
 991 0570 E244     		add	r10, r10, ip
 992 0572 5544     		add	r5, r5, r10
 993              	.LVL212:
 994 0574 3249     		ldr	r1, .L2+4
 995 0576 8C46     		mov	ip, r1
 996 0578 6544     		add	r5, r5, ip
 997              	.LVL213:
 998 057a 1121     		movs	r1, #17
 999 057c CD41     		rors	r5, r5, r1
 1000              	.LVL214:
 1001 057e 5D44     		add	r5, r5, fp
 1002              	.LVL215:
 1003 0580 DE41     		rors	r6, r6, r3
 1004              	.LVL216:
 1005 0582 3100     		movs	r1, r6
 1006              	.LVL217:
 118:strong-arm\src\ripemd160/ripemd160.c **** 	HH(aa, bb, cc, dd, ee, X[ 2], 14);
 1007              		.loc 1 118 0
 1008 0584 D643     		mvns	r6, r2
 1009 0586 2E43     		orrs	r6, r5
 1010 0588 1191     		str	r1, [sp, #68]
 1011 058a 4E40     		eors	r6, r1
 1012 058c B246     		mov	r10, r6
 1013 058e 029E     		ldr	r6, [sp, #8]
 1014 0590 B446     		mov	ip, r6
 1015 0592 E244     		add	r10, r10, ip
 1016 0594 D344     		add	fp, fp, r10
 1017              	.LVL218:
 1018 0596 5946     		mov	r1, fp
 1019              	.LVL219:
 1020 0598 294E     		ldr	r6, .L2+4
 1021 059a B446     		mov	ip, r6
 1022 059c 6144     		add	r1, r1, ip
ARM GAS  C:\Users\Ray\AppData\Local\Temp\ccdgjwii.s 			page 21


 1023              	.LVL220:
 1024 059e 1226     		movs	r6, #18
 1025 05a0 F141     		rors	r1, r1, r6
 1026              	.LVL221:
 1027 05a2 6118     		adds	r1, r4, r1
 1028              	.LVL222:
 1029 05a4 1600     		movs	r6, r2
 1030 05a6 DE41     		rors	r6, r6, r3
 1031 05a8 B346     		mov	fp, r6
 1032              	.LVL223:
 119:strong-arm\src\ripemd160/ripemd160.c **** 	HH(ee, aa, bb, cc, dd, X[ 7],  8);
 1033              		.loc 1 119 0
 1034 05aa EA43     		mvns	r2, r5
 1035 05ac 0A43     		orrs	r2, r1
 1036 05ae 7240     		eors	r2, r6
 1037 05b0 9246     		mov	r10, r2
 1038 05b2 079A     		ldr	r2, [sp, #28]
 1039 05b4 9446     		mov	ip, r2
 1040 05b6 E244     		add	r10, r10, ip
 1041 05b8 5444     		add	r4, r4, r10
 1042              	.LVL224:
 1043 05ba 214E     		ldr	r6, .L2+4
 1044              	.LVL225:
 1045 05bc B446     		mov	ip, r6
 1046 05be 6444     		add	r4, r4, ip
 1047              	.LVL226:
 1048 05c0 1826     		movs	r6, #24
 1049 05c2 F441     		rors	r4, r4, r6
 1050              	.LVL227:
 1051 05c4 119A     		ldr	r2, [sp, #68]
 1052 05c6 9446     		mov	ip, r2
 1053 05c8 6444     		add	r4, r4, ip
 1054              	.LVL228:
 1055 05ca DD41     		rors	r5, r5, r3
 1056              	.LVL229:
 120:strong-arm\src\ripemd160/ripemd160.c **** 	HH(dd, ee, aa, bb, cc, X[ 0], 13);
 1057              		.loc 1 120 0
 1058 05cc CE43     		mvns	r6, r1
 1059 05ce 2643     		orrs	r6, r4
 1060 05d0 6E40     		eors	r6, r5
 1061 05d2 B246     		mov	r10, r6
 1062 05d4 009E     		ldr	r6, [sp]
 1063 05d6 B446     		mov	ip, r6
 1064 05d8 E244     		add	r10, r10, ip
 1065 05da 5244     		add	r2, r2, r10
 1066 05dc 1600     		movs	r6, r2
 1067 05de 184A     		ldr	r2, .L2+4
 1068 05e0 9446     		mov	ip, r2
 1069 05e2 6644     		add	r6, r6, ip
 1070              	.LVL230:
 1071 05e4 1322     		movs	r2, #19
 1072 05e6 D641     		rors	r6, r6, r2
 1073              	.LVL231:
 1074 05e8 5E44     		add	r6, r6, fp
 1075              	.LVL232:
 1076 05ea D941     		rors	r1, r1, r3
 1077              	.LVL233:
ARM GAS  C:\Users\Ray\AppData\Local\Temp\ccdgjwii.s 			page 22


 1078 05ec 8A46     		mov	r10, r1
 1079              	.LVL234:
 121:strong-arm\src\ripemd160/ripemd160.c **** 	HH(cc, dd, ee, aa, bb, X[ 6],  6);
 1080              		.loc 1 121 0
 1081 05ee E143     		mvns	r1, r4
 1082              	.LVL235:
 1083 05f0 3143     		orrs	r1, r6
 1084 05f2 5246     		mov	r2, r10
 1085 05f4 5140     		eors	r1, r2
 1086 05f6 069A     		ldr	r2, [sp, #24]
 1087 05f8 9446     		mov	ip, r2
 1088 05fa 6144     		add	r1, r1, ip
 1089 05fc 5944     		add	r1, r1, fp
 1090 05fe 104A     		ldr	r2, .L2+4
 1091 0600 9446     		mov	ip, r2
 1092 0602 6144     		add	r1, r1, ip
 1093              	.LVL236:
 1094 0604 1A22     		movs	r2, #26
 1095 0606 D141     		rors	r1, r1, r2
 1096              	.LVL237:
 1097 0608 6918     		adds	r1, r5, r1
 1098              	.LVL238:
 1099 060a DC41     		rors	r4, r4, r3
 1100              	.LVL239:
 1101 060c A346     		mov	fp, r4
 1102              	.LVL240:
 122:strong-arm\src\ripemd160/ripemd160.c **** 	HH(bb, cc, dd, ee, aa, X[13],  5);
 1103              		.loc 1 122 0
 1104 060e F243     		mvns	r2, r6
 1105 0610 0A43     		orrs	r2, r1
 1106 0612 6240     		eors	r2, r4
 1107 0614 0B9C     		ldr	r4, [sp, #44]
 1108              	.LVL241:
 1109 0616 A446     		mov	ip, r4
 1110 0618 6244     		add	r2, r2, ip
 1111 061a AD18     		adds	r5, r5, r2
 1112              	.LVL242:
 1113 061c 084C     		ldr	r4, .L2+4
 1114 061e A446     		mov	ip, r4
 1115 0620 6544     		add	r5, r5, ip
 1116              	.LVL243:
 1117 0622 1B24     		movs	r4, #27
 1118 0624 E541     		rors	r5, r5, r4
 1119              	.LVL244:
 1120 0626 5544     		add	r5, r5, r10
 1121              	.LVL245:
 1122 0628 DE41     		rors	r6, r6, r3
 1123              	.LVL246:
 123:strong-arm\src\ripemd160/ripemd160.c **** 	HH(aa, bb, cc, dd, ee, X[11], 12);
 1124              		.loc 1 123 0
 1125 062a CA43     		mvns	r2, r1
 1126 062c 2A43     		orrs	r2, r5
 1127 062e 1196     		str	r6, [sp, #68]
 1128 0630 7240     		eors	r2, r6
 1129 0632 BA18     		adds	r2, r7, r2
 1130 0634 5244     		add	r2, r2, r10
 1131 0636 6244     		add	r2, r2, ip
ARM GAS  C:\Users\Ray\AppData\Local\Temp\ccdgjwii.s 			page 23


 1132 0638 04E0     		b	.L3
 1133              	.L4:
 1134 063a C046     		.align	2
 1135              	.L2:
 1136 063c 9979825A 		.word	1518500249
 1137 0640 A1EBD96E 		.word	1859775393
 1138              	.L3:
 1139              	.LVL247:
 1140 0644 1424     		movs	r4, #20
 1141 0646 E241     		rors	r2, r2, r4
 1142              	.LVL248:
 1143 0648 5A44     		add	r2, r2, fp
 1144              	.LVL249:
 1145 064a D941     		rors	r1, r1, r3
 1146              	.LVL250:
 124:strong-arm\src\ripemd160/ripemd160.c **** 	HH(ee, aa, bb, cc, dd, X[ 5],  7);
 1147              		.loc 1 124 0
 1148 064c EC43     		mvns	r4, r5
 1149 064e 1443     		orrs	r4, r2
 1150 0650 4C40     		eors	r4, r1
 1151 0652 A246     		mov	r10, r4
 1152 0654 059C     		ldr	r4, [sp, #20]
 1153 0656 A446     		mov	ip, r4
 1154 0658 E244     		add	r10, r10, ip
 1155 065a D344     		add	fp, fp, r10
 1156              	.LVL251:
 1157 065c FE4C     		ldr	r4, .L5
 1158 065e A446     		mov	ip, r4
 1159 0660 5C46     		mov	r4, fp
 1160 0662 6444     		add	r4, r4, ip
 1161              	.LVL252:
 1162 0664 1926     		movs	r6, #25
 1163              	.LVL253:
 1164 0666 F441     		rors	r4, r4, r6
 1165              	.LVL254:
 1166 0668 119E     		ldr	r6, [sp, #68]
 1167 066a B446     		mov	ip, r6
 1168              	.LVL255:
 1169 066c 6444     		add	r4, r4, ip
 1170              	.LVL256:
 1171 066e DD41     		rors	r5, r5, r3
 1172              	.LVL257:
 1173 0670 AA46     		mov	r10, r5
 1174              	.LVL258:
 125:strong-arm\src\ripemd160/ripemd160.c **** 	HH(dd, ee, aa, bb, cc, X[12],  5);
 1175              		.loc 1 125 0
 1176 0672 D543     		mvns	r5, r2
 1177              	.LVL259:
 1178 0674 2543     		orrs	r5, r4
 1179 0676 5646     		mov	r6, r10
 1180 0678 6E40     		eors	r6, r5
 1181 067a 0A9D     		ldr	r5, [sp, #40]
 1182 067c AC46     		mov	ip, r5
 1183 067e 3500     		movs	r5, r6
 1184 0680 6544     		add	r5, r5, ip
 1185 0682 119E     		ldr	r6, [sp, #68]
 1186 0684 B446     		mov	ip, r6
ARM GAS  C:\Users\Ray\AppData\Local\Temp\ccdgjwii.s 			page 24


 1187 0686 6544     		add	r5, r5, ip
 1188 0688 F34E     		ldr	r6, .L5
 1189 068a B446     		mov	ip, r6
 1190 068c 6544     		add	r5, r5, ip
 1191              	.LVL260:
 1192 068e 1B26     		movs	r6, #27
 1193 0690 F541     		rors	r5, r5, r6
 1194              	.LVL261:
 1195 0692 4D19     		adds	r5, r1, r5
 1196              	.LVL262:
 1197 0694 DA41     		rors	r2, r2, r3
 1198              	.LVL263:
 1199 0696 9346     		mov	fp, r2
 1200              	.LVL264:
 126:strong-arm\src\ripemd160/ripemd160.c **** 	
 127:strong-arm\src\ripemd160/ripemd160.c **** 	/* round 4 */
 128:strong-arm\src\ripemd160/ripemd160.c **** 	II(cc, dd, ee, aa, bb, X[ 1], 11);
 1201              		.loc 1 128 0
 1202 0698 2600     		movs	r6, r4
 1203 069a 6E40     		eors	r6, r5
 1204 069c 1640     		ands	r6, r2
 1205 069e 6640     		eors	r6, r4
 1206 06a0 019A     		ldr	r2, [sp, #4]
 1207              	.LVL265:
 1208 06a2 9446     		mov	ip, r2
 1209 06a4 6644     		add	r6, r6, ip
 1210 06a6 8919     		adds	r1, r1, r6
 1211              	.LVL266:
 1212 06a8 EC4E     		ldr	r6, .L5+4
 1213 06aa B446     		mov	ip, r6
 1214 06ac 6144     		add	r1, r1, ip
 1215              	.LVL267:
 1216 06ae 1526     		movs	r6, #21
 1217 06b0 F141     		rors	r1, r1, r6
 1218              	.LVL268:
 1219 06b2 5144     		add	r1, r1, r10
 1220              	.LVL269:
 1221 06b4 2600     		movs	r6, r4
 1222 06b6 DE41     		rors	r6, r6, r3
 1223              	.LVL270:
 129:strong-arm\src\ripemd160/ripemd160.c **** 	II(bb, cc, dd, ee, aa, X[ 9], 12);
 1224              		.loc 1 129 0
 1225 06b8 2C00     		movs	r4, r5
 1226 06ba 4C40     		eors	r4, r1
 1227 06bc 3440     		ands	r4, r6
 1228 06be 6C40     		eors	r4, r5
 1229 06c0 4444     		add	r4, r4, r8
 1230 06c2 5444     		add	r4, r4, r10
 1231 06c4 6444     		add	r4, r4, ip
 1232              	.LVL271:
 1233 06c6 1422     		movs	r2, #20
 1234 06c8 D441     		rors	r4, r4, r2
 1235              	.LVL272:
 1236 06ca 5C44     		add	r4, r4, fp
 1237              	.LVL273:
 1238 06cc DD41     		rors	r5, r5, r3
 1239              	.LVL274:
ARM GAS  C:\Users\Ray\AppData\Local\Temp\ccdgjwii.s 			page 25


 1240 06ce 2A00     		movs	r2, r5
 1241              	.LVL275:
 130:strong-arm\src\ripemd160/ripemd160.c **** 	II(aa, bb, cc, dd, ee, X[11], 14);
 1242              		.loc 1 130 0
 1243 06d0 0D00     		movs	r5, r1
 1244 06d2 6540     		eors	r5, r4
 1245 06d4 1192     		str	r2, [sp, #68]
 1246 06d6 1540     		ands	r5, r2
 1247 06d8 4D40     		eors	r5, r1
 1248 06da AA46     		mov	r10, r5
 1249 06dc BA44     		add	r10, r10, r7
 1250 06de D344     		add	fp, fp, r10
 1251              	.LVL276:
 1252 06e0 5A46     		mov	r2, fp
 1253              	.LVL277:
 1254 06e2 6244     		add	r2, r2, ip
 1255              	.LVL278:
 1256 06e4 1225     		movs	r5, #18
 1257 06e6 EA41     		rors	r2, r2, r5
 1258              	.LVL279:
 1259 06e8 B218     		adds	r2, r6, r2
 1260              	.LVL280:
 1261 06ea D941     		rors	r1, r1, r3
 1262              	.LVL281:
 1263 06ec 8A46     		mov	r10, r1
 1264              	.LVL282:
 131:strong-arm\src\ripemd160/ripemd160.c **** 	II(ee, aa, bb, cc, dd, X[10], 15);
 1265              		.loc 1 131 0
 1266 06ee 2100     		movs	r1, r4
 1267              	.LVL283:
 1268 06f0 5140     		eors	r1, r2
 1269 06f2 5546     		mov	r5, r10
 1270 06f4 2940     		ands	r1, r5
 1271 06f6 6140     		eors	r1, r4
 1272 06f8 099D     		ldr	r5, [sp, #36]
 1273 06fa AC46     		mov	ip, r5
 1274 06fc 6144     		add	r1, r1, ip
 1275 06fe 7118     		adds	r1, r6, r1
 1276 0700 D64E     		ldr	r6, .L5+4
 1277              	.LVL284:
 1278 0702 B446     		mov	ip, r6
 1279 0704 6144     		add	r1, r1, ip
 1280              	.LVL285:
 1281 0706 1126     		movs	r6, #17
 1282 0708 F141     		rors	r1, r1, r6
 1283              	.LVL286:
 1284 070a 119D     		ldr	r5, [sp, #68]
 1285 070c AC46     		mov	ip, r5
 1286 070e 6144     		add	r1, r1, ip
 1287              	.LVL287:
 1288 0710 DC41     		rors	r4, r4, r3
 1289              	.LVL288:
 1290 0712 A346     		mov	fp, r4
 1291              	.LVL289:
 132:strong-arm\src\ripemd160/ripemd160.c **** 	II(dd, ee, aa, bb, cc, X[ 0], 14);
 1292              		.loc 1 132 0
 1293 0714 1600     		movs	r6, r2
ARM GAS  C:\Users\Ray\AppData\Local\Temp\ccdgjwii.s 			page 26


 1294 0716 4E40     		eors	r6, r1
 1295 0718 2640     		ands	r6, r4
 1296 071a 5640     		eors	r6, r2
 1297 071c 009C     		ldr	r4, [sp]
 1298              	.LVL290:
 1299 071e A446     		mov	ip, r4
 1300 0720 6644     		add	r6, r6, ip
 1301 0722 AD19     		adds	r5, r5, r6
 1302 0724 CD4E     		ldr	r6, .L5+4
 1303 0726 B446     		mov	ip, r6
 1304 0728 6544     		add	r5, r5, ip
 1305              	.LVL291:
 1306 072a 1226     		movs	r6, #18
 1307 072c F541     		rors	r5, r5, r6
 1308              	.LVL292:
 1309 072e 5544     		add	r5, r5, r10
 1310              	.LVL293:
 1311 0730 1600     		movs	r6, r2
 1312 0732 DE41     		rors	r6, r6, r3
 1313              	.LVL294:
 133:strong-arm\src\ripemd160/ripemd160.c **** 	II(cc, dd, ee, aa, bb, X[ 8], 15);
 1314              		.loc 1 133 0
 1315 0734 0A00     		movs	r2, r1
 1316 0736 6A40     		eors	r2, r5
 1317 0738 3240     		ands	r2, r6
 1318 073a 4A40     		eors	r2, r1
 1319 073c 089C     		ldr	r4, [sp, #32]
 1320 073e A446     		mov	ip, r4
 1321 0740 6244     		add	r2, r2, ip
 1322 0742 5244     		add	r2, r2, r10
 1323 0744 C54C     		ldr	r4, .L5+4
 1324 0746 A446     		mov	ip, r4
 1325 0748 6244     		add	r2, r2, ip
 1326              	.LVL295:
 1327 074a 1124     		movs	r4, #17
 1328 074c E241     		rors	r2, r2, r4
 1329              	.LVL296:
 1330 074e 5A44     		add	r2, r2, fp
 1331              	.LVL297:
 1332 0750 D941     		rors	r1, r1, r3
 1333              	.LVL298:
 1334 0752 0C00     		movs	r4, r1
 1335              	.LVL299:
 134:strong-arm\src\ripemd160/ripemd160.c **** 	II(bb, cc, dd, ee, aa, X[12],  9);
 1336              		.loc 1 134 0
 1337 0754 2900     		movs	r1, r5
 1338              	.LVL300:
 1339 0756 5140     		eors	r1, r2
 1340 0758 1194     		str	r4, [sp, #68]
 1341 075a 2140     		ands	r1, r4
 1342 075c 6940     		eors	r1, r5
 1343 075e 8A46     		mov	r10, r1
 1344 0760 0A99     		ldr	r1, [sp, #40]
 1345 0762 8C46     		mov	ip, r1
 1346 0764 E244     		add	r10, r10, ip
 1347 0766 D344     		add	fp, fp, r10
 1348              	.LVL301:
ARM GAS  C:\Users\Ray\AppData\Local\Temp\ccdgjwii.s 			page 27


 1349 0768 5C46     		mov	r4, fp
 1350              	.LVL302:
 1351 076a BC49     		ldr	r1, .L5+4
 1352 076c 8C46     		mov	ip, r1
 1353 076e 6444     		add	r4, r4, ip
 1354              	.LVL303:
 1355 0770 4946     		mov	r1, r9
 1356 0772 CC41     		rors	r4, r4, r1
 1357              	.LVL304:
 1358 0774 3419     		adds	r4, r6, r4
 1359              	.LVL305:
 1360 0776 DD41     		rors	r5, r5, r3
 1361              	.LVL306:
 1362 0778 AA46     		mov	r10, r5
 1363              	.LVL307:
 135:strong-arm\src\ripemd160/ripemd160.c **** 	II(aa, bb, cc, dd, ee, X[ 4],  8);
 1364              		.loc 1 135 0
 1365 077a 1500     		movs	r5, r2
 1366              	.LVL308:
 1367 077c 6540     		eors	r5, r4
 1368 077e 5146     		mov	r1, r10
 1369 0780 0D40     		ands	r5, r1
 1370 0782 5540     		eors	r5, r2
 1371 0784 0499     		ldr	r1, [sp, #16]
 1372 0786 8C46     		mov	ip, r1
 1373 0788 6544     		add	r5, r5, ip
 1374 078a 7519     		adds	r5, r6, r5
 1375 078c B34E     		ldr	r6, .L5+4
 1376              	.LVL309:
 1377 078e B446     		mov	ip, r6
 1378 0790 6544     		add	r5, r5, ip
 1379              	.LVL310:
 1380 0792 1826     		movs	r6, #24
 1381 0794 F541     		rors	r5, r5, r6
 1382              	.LVL311:
 1383 0796 119E     		ldr	r6, [sp, #68]
 1384 0798 B446     		mov	ip, r6
 1385 079a 6544     		add	r5, r5, ip
 1386              	.LVL312:
 1387 079c DA41     		rors	r2, r2, r3
 1388              	.LVL313:
 136:strong-arm\src\ripemd160/ripemd160.c **** 	II(ee, aa, bb, cc, dd, X[13],  9);
 1389              		.loc 1 136 0
 1390 079e 2600     		movs	r6, r4
 1391 07a0 6E40     		eors	r6, r5
 1392 07a2 1640     		ands	r6, r2
 1393 07a4 6640     		eors	r6, r4
 1394 07a6 0B99     		ldr	r1, [sp, #44]
 1395 07a8 8C46     		mov	ip, r1
 1396 07aa 6644     		add	r6, r6, ip
 1397 07ac 1199     		ldr	r1, [sp, #68]
 1398 07ae 8919     		adds	r1, r1, r6
 1399 07b0 AA4E     		ldr	r6, .L5+4
 1400 07b2 B446     		mov	ip, r6
 1401 07b4 6144     		add	r1, r1, ip
 1402              	.LVL314:
 1403 07b6 4E46     		mov	r6, r9
ARM GAS  C:\Users\Ray\AppData\Local\Temp\ccdgjwii.s 			page 28


 1404 07b8 F141     		rors	r1, r1, r6
 1405              	.LVL315:
 1406 07ba 5144     		add	r1, r1, r10
 1407 07bc 8B46     		mov	fp, r1
 1408              	.LVL316:
 1409 07be 2600     		movs	r6, r4
 1410 07c0 DE41     		rors	r6, r6, r3
 1411 07c2 3100     		movs	r1, r6
 1412              	.LVL317:
 137:strong-arm\src\ripemd160/ripemd160.c **** 	II(dd, ee, aa, bb, cc, X[ 3], 14);
 1413              		.loc 1 137 0
 1414 07c4 2E00     		movs	r6, r5
 1415 07c6 5C46     		mov	r4, fp
 1416 07c8 6640     		eors	r6, r4
 1417 07ca 3400     		movs	r4, r6
 1418 07cc 1191     		str	r1, [sp, #68]
 1419 07ce 0C40     		ands	r4, r1
 1420 07d0 6C40     		eors	r4, r5
 1421 07d2 0399     		ldr	r1, [sp, #12]
 1422              	.LVL318:
 1423 07d4 8C46     		mov	ip, r1
 1424 07d6 6444     		add	r4, r4, ip
 1425 07d8 5444     		add	r4, r4, r10
 1426 07da A04E     		ldr	r6, .L5+4
 1427 07dc B446     		mov	ip, r6
 1428 07de 6444     		add	r4, r4, ip
 1429              	.LVL319:
 1430 07e0 1226     		movs	r6, #18
 1431 07e2 F441     		rors	r4, r4, r6
 1432              	.LVL320:
 1433 07e4 1419     		adds	r4, r2, r4
 1434              	.LVL321:
 1435 07e6 DD41     		rors	r5, r5, r3
 1436              	.LVL322:
 138:strong-arm\src\ripemd160/ripemd160.c **** 	II(cc, dd, ee, aa, bb, X[ 7],  5);
 1437              		.loc 1 138 0
 1438 07e8 5E46     		mov	r6, fp
 1439 07ea 6640     		eors	r6, r4
 1440 07ec 2E40     		ands	r6, r5
 1441 07ee 5946     		mov	r1, fp
 1442 07f0 4E40     		eors	r6, r1
 1443 07f2 B246     		mov	r10, r6
 1444 07f4 0799     		ldr	r1, [sp, #28]
 1445 07f6 8C46     		mov	ip, r1
 1446 07f8 E244     		add	r10, r10, ip
 1447 07fa 5244     		add	r2, r2, r10
 1448              	.LVL323:
 1449 07fc 974E     		ldr	r6, .L5+4
 1450 07fe B446     		mov	ip, r6
 1451 0800 6244     		add	r2, r2, ip
 1452              	.LVL324:
 1453 0802 1B26     		movs	r6, #27
 1454 0804 F241     		rors	r2, r2, r6
 1455              	.LVL325:
 1456 0806 1199     		ldr	r1, [sp, #68]
 1457 0808 8C46     		mov	ip, r1
 1458 080a 6244     		add	r2, r2, ip
ARM GAS  C:\Users\Ray\AppData\Local\Temp\ccdgjwii.s 			page 29


 1459              	.LVL326:
 1460 080c 5E46     		mov	r6, fp
 1461 080e DE41     		rors	r6, r6, r3
 1462 0810 B246     		mov	r10, r6
 1463              	.LVL327:
 139:strong-arm\src\ripemd160/ripemd160.c **** 	II(bb, cc, dd, ee, aa, X[15],  6);
 1464              		.loc 1 139 0
 1465 0812 2600     		movs	r6, r4
 1466              	.LVL328:
 1467 0814 5640     		eors	r6, r2
 1468 0816 3100     		movs	r1, r6
 1469 0818 5646     		mov	r6, r10
 1470 081a 3140     		ands	r1, r6
 1471 081c 6140     		eors	r1, r4
 1472 081e 0D9E     		ldr	r6, [sp, #52]
 1473 0820 B446     		mov	ip, r6
 1474 0822 6144     		add	r1, r1, ip
 1475 0824 119E     		ldr	r6, [sp, #68]
 1476 0826 B446     		mov	ip, r6
 1477 0828 6144     		add	r1, r1, ip
 1478 082a 8C4E     		ldr	r6, .L5+4
 1479 082c B446     		mov	ip, r6
 1480 082e 6144     		add	r1, r1, ip
 1481              	.LVL329:
 1482 0830 1A26     		movs	r6, #26
 1483 0832 F141     		rors	r1, r1, r6
 1484              	.LVL330:
 1485 0834 6918     		adds	r1, r5, r1
 1486              	.LVL331:
 1487 0836 DC41     		rors	r4, r4, r3
 1488              	.LVL332:
 140:strong-arm\src\ripemd160/ripemd160.c **** 	II(aa, bb, cc, dd, ee, X[14],  8);
 1489              		.loc 1 140 0
 1490 0838 1600     		movs	r6, r2
 1491 083a 4E40     		eors	r6, r1
 1492 083c 2640     		ands	r6, r4
 1493 083e 5640     		eors	r6, r2
 1494 0840 B346     		mov	fp, r6
 1495 0842 0C9E     		ldr	r6, [sp, #48]
 1496 0844 B446     		mov	ip, r6
 1497 0846 5E46     		mov	r6, fp
 1498 0848 6644     		add	r6, r6, ip
 1499 084a AD19     		adds	r5, r5, r6
 1500              	.LVL333:
 1501 084c 834E     		ldr	r6, .L5+4
 1502 084e B446     		mov	ip, r6
 1503 0850 6544     		add	r5, r5, ip
 1504              	.LVL334:
 1505 0852 1826     		movs	r6, #24
 1506 0854 F541     		rors	r5, r5, r6
 1507              	.LVL335:
 1508 0856 5544     		add	r5, r5, r10
 1509 0858 AB46     		mov	fp, r5
 1510              	.LVL336:
 1511 085a DA41     		rors	r2, r2, r3
 1512              	.LVL337:
 1513 085c 1600     		movs	r6, r2
ARM GAS  C:\Users\Ray\AppData\Local\Temp\ccdgjwii.s 			page 30


 1514              	.LVL338:
 141:strong-arm\src\ripemd160/ripemd160.c **** 	II(ee, aa, bb, cc, dd, X[ 5],  6);
 1515              		.loc 1 141 0
 1516 085e 0A00     		movs	r2, r1
 1517              	.LVL339:
 1518 0860 6A40     		eors	r2, r5
 1519 0862 3240     		ands	r2, r6
 1520 0864 4A40     		eors	r2, r1
 1521 0866 059D     		ldr	r5, [sp, #20]
 1522              	.LVL340:
 1523 0868 AC46     		mov	ip, r5
 1524 086a 6244     		add	r2, r2, ip
 1525 086c 5244     		add	r2, r2, r10
 1526 086e 7B4D     		ldr	r5, .L5+4
 1527 0870 AC46     		mov	ip, r5
 1528 0872 6244     		add	r2, r2, ip
 1529              	.LVL341:
 1530 0874 1A25     		movs	r5, #26
 1531 0876 EA41     		rors	r2, r2, r5
 1532              	.LVL342:
 1533 0878 A218     		adds	r2, r4, r2
 1534              	.LVL343:
 1535 087a D941     		rors	r1, r1, r3
 1536              	.LVL344:
 1537 087c 1191     		str	r1, [sp, #68]
 1538              	.LVL345:
 142:strong-arm\src\ripemd160/ripemd160.c **** 	II(dd, ee, aa, bb, cc, X[ 6],  5);
 1539              		.loc 1 142 0
 1540 087e 5D46     		mov	r5, fp
 1541 0880 5540     		eors	r5, r2
 1542 0882 0D40     		ands	r5, r1
 1543 0884 5946     		mov	r1, fp
 1544              	.LVL346:
 1545 0886 4D40     		eors	r5, r1
 1546 0888 AA46     		mov	r10, r5
 1547 088a 069D     		ldr	r5, [sp, #24]
 1548 088c AC46     		mov	ip, r5
 1549 088e E244     		add	r10, r10, ip
 1550 0890 5444     		add	r4, r4, r10
 1551              	.LVL347:
 1552 0892 724D     		ldr	r5, .L5+4
 1553 0894 AC46     		mov	ip, r5
 1554 0896 6444     		add	r4, r4, ip
 1555              	.LVL348:
 1556 0898 1B25     		movs	r5, #27
 1557 089a EC41     		rors	r4, r4, r5
 1558              	.LVL349:
 1559 089c 3419     		adds	r4, r6, r4
 1560              	.LVL350:
 1561 089e 5D46     		mov	r5, fp
 1562 08a0 DD41     		rors	r5, r5, r3
 1563 08a2 AB46     		mov	fp, r5
 1564              	.LVL351:
 143:strong-arm\src\ripemd160/ripemd160.c **** 	II(cc, dd, ee, aa, bb, X[ 2], 12);
 1565              		.loc 1 143 0
 1566 08a4 1500     		movs	r5, r2
 1567              	.LVL352:
ARM GAS  C:\Users\Ray\AppData\Local\Temp\ccdgjwii.s 			page 31


 1568 08a6 6540     		eors	r5, r4
 1569 08a8 5946     		mov	r1, fp
 1570 08aa 0D40     		ands	r5, r1
 1571 08ac 5540     		eors	r5, r2
 1572 08ae AA46     		mov	r10, r5
 1573 08b0 029D     		ldr	r5, [sp, #8]
 1574 08b2 AC46     		mov	ip, r5
 1575 08b4 E244     		add	r10, r10, ip
 1576 08b6 5644     		add	r6, r6, r10
 1577              	.LVL353:
 1578 08b8 684D     		ldr	r5, .L5+4
 1579 08ba AC46     		mov	ip, r5
 1580 08bc 6644     		add	r6, r6, ip
 1581              	.LVL354:
 1582 08be 1425     		movs	r5, #20
 1583 08c0 EE41     		rors	r6, r6, r5
 1584              	.LVL355:
 1585 08c2 1199     		ldr	r1, [sp, #68]
 1586 08c4 8C46     		mov	ip, r1
 1587 08c6 6644     		add	r6, r6, ip
 1588              	.LVL356:
 1589 08c8 DA41     		rors	r2, r2, r3
 1590              	.LVL357:
 144:strong-arm\src\ripemd160/ripemd160.c **** 	
 145:strong-arm\src\ripemd160/ripemd160.c **** 	/* round 5 */
 146:strong-arm\src\ripemd160/ripemd160.c **** 	JJ(bb, cc, dd, ee, aa, X[ 4],  9);
 1591              		.loc 1 146 0
 1592 08ca 1292     		str	r2, [sp, #72]
 1593 08cc D543     		mvns	r5, r2
 1594 08ce 2543     		orrs	r5, r4
 1595 08d0 7540     		eors	r5, r6
 1596 08d2 AA46     		mov	r10, r5
 1597 08d4 049D     		ldr	r5, [sp, #16]
 1598 08d6 AC46     		mov	ip, r5
 1599 08d8 E244     		add	r10, r10, ip
 1600 08da 0A00     		movs	r2, r1
 1601              	.LVL358:
 1602 08dc 5244     		add	r2, r2, r10
 1603 08de 1100     		movs	r1, r2
 1604 08e0 5F4D     		ldr	r5, .L5+8
 1605 08e2 AC46     		mov	ip, r5
 1606 08e4 6144     		add	r1, r1, ip
 1607              	.LVL359:
 1608 08e6 4D46     		mov	r5, r9
 1609 08e8 E941     		rors	r1, r1, r5
 1610              	.LVL360:
 1611 08ea 5944     		add	r1, r1, fp
 1612              	.LVL361:
 1613 08ec DC41     		rors	r4, r4, r3
 1614              	.LVL362:
 147:strong-arm\src\ripemd160/ripemd160.c **** 	JJ(aa, bb, cc, dd, ee, X[ 0], 15);
 1615              		.loc 1 147 0
 1616 08ee E543     		mvns	r5, r4
 1617 08f0 3543     		orrs	r5, r6
 1618 08f2 4D40     		eors	r5, r1
 1619 08f4 AA46     		mov	r10, r5
 1620 08f6 009D     		ldr	r5, [sp]
ARM GAS  C:\Users\Ray\AppData\Local\Temp\ccdgjwii.s 			page 32


 1621 08f8 AC46     		mov	ip, r5
 1622 08fa E244     		add	r10, r10, ip
 1623 08fc 5D46     		mov	r5, fp
 1624 08fe 5544     		add	r5, r5, r10
 1625 0900 574A     		ldr	r2, .L5+8
 1626 0902 9446     		mov	ip, r2
 1627 0904 6544     		add	r5, r5, ip
 1628              	.LVL363:
 1629 0906 1122     		movs	r2, #17
 1630 0908 D541     		rors	r5, r5, r2
 1631              	.LVL364:
 1632 090a 129A     		ldr	r2, [sp, #72]
 1633 090c 9446     		mov	ip, r2
 1634              	.LVL365:
 1635 090e 6544     		add	r5, r5, ip
 1636              	.LVL366:
 1637 0910 DE41     		rors	r6, r6, r3
 1638              	.LVL367:
 1639 0912 B346     		mov	fp, r6
 1640              	.LVL368:
 148:strong-arm\src\ripemd160/ripemd160.c **** 	JJ(ee, aa, bb, cc, dd, X[ 5],  5);
 1641              		.loc 1 148 0
 1642 0914 F243     		mvns	r2, r6
 1643 0916 1600     		movs	r6, r2
 1644              	.LVL369:
 1645 0918 0E43     		orrs	r6, r1
 1646 091a 6E40     		eors	r6, r5
 1647 091c B246     		mov	r10, r6
 1648 091e 059E     		ldr	r6, [sp, #20]
 1649 0920 B446     		mov	ip, r6
 1650 0922 E244     		add	r10, r10, ip
 1651 0924 129A     		ldr	r2, [sp, #72]
 1652 0926 5244     		add	r2, r2, r10
 1653 0928 4D4E     		ldr	r6, .L5+8
 1654 092a B446     		mov	ip, r6
 1655 092c 6244     		add	r2, r2, ip
 1656              	.LVL370:
 1657 092e 1B26     		movs	r6, #27
 1658 0930 F241     		rors	r2, r2, r6
 1659              	.LVL371:
 1660 0932 A218     		adds	r2, r4, r2
 1661              	.LVL372:
 1662 0934 D941     		rors	r1, r1, r3
 1663              	.LVL373:
 1664 0936 1191     		str	r1, [sp, #68]
 1665              	.LVL374:
 149:strong-arm\src\ripemd160/ripemd160.c **** 	JJ(dd, ee, aa, bb, cc, X[ 9], 11);
 1666              		.loc 1 149 0
 1667 0938 CE43     		mvns	r6, r1
 1668 093a 2E43     		orrs	r6, r5
 1669 093c 5640     		eors	r6, r2
 1670 093e B246     		mov	r10, r6
 1671 0940 C244     		add	r10, r10, r8
 1672 0942 5444     		add	r4, r4, r10
 1673              	.LVL375:
 1674 0944 6444     		add	r4, r4, ip
 1675              	.LVL376:
ARM GAS  C:\Users\Ray\AppData\Local\Temp\ccdgjwii.s 			page 33


 1676 0946 1526     		movs	r6, #21
 1677 0948 F441     		rors	r4, r4, r6
 1678              	.LVL377:
 1679 094a 5C44     		add	r4, r4, fp
 1680              	.LVL378:
 1681 094c DD41     		rors	r5, r5, r3
 1682              	.LVL379:
 150:strong-arm\src\ripemd160/ripemd160.c **** 	JJ(cc, dd, ee, aa, bb, X[ 7],  6);
 1683              		.loc 1 150 0
 1684 094e EE43     		mvns	r6, r5
 1685 0950 1100     		movs	r1, r2
 1686              	.LVL380:
 1687 0952 1643     		orrs	r6, r2
 1688 0954 6640     		eors	r6, r4
 1689 0956 B246     		mov	r10, r6
 1690 0958 079E     		ldr	r6, [sp, #28]
 1691 095a B446     		mov	ip, r6
 1692 095c E244     		add	r10, r10, ip
 1693 095e 5E46     		mov	r6, fp
 1694 0960 5644     		add	r6, r6, r10
 1695 0962 3F4A     		ldr	r2, .L5+8
 1696              	.LVL381:
 1697 0964 9446     		mov	ip, r2
 1698 0966 6644     		add	r6, r6, ip
 1699              	.LVL382:
 1700 0968 1A22     		movs	r2, #26
 1701 096a D641     		rors	r6, r6, r2
 1702              	.LVL383:
 1703 096c B346     		mov	fp, r6
 1704              	.LVL384:
 1705 096e 119A     		ldr	r2, [sp, #68]
 1706 0970 9446     		mov	ip, r2
 1707 0972 E344     		add	fp, fp, ip
 1708              	.LVL385:
 1709 0974 0A00     		movs	r2, r1
 1710 0976 DA41     		rors	r2, r2, r3
 1711              	.LVL386:
 151:strong-arm\src\ripemd160/ripemd160.c **** 	JJ(bb, cc, dd, ee, aa, X[12],  8);
 1712              		.loc 1 151 0
 1713 0978 D643     		mvns	r6, r2
 1714 097a 2643     		orrs	r6, r4
 1715 097c 5946     		mov	r1, fp
 1716 097e 4E40     		eors	r6, r1
 1717 0980 B246     		mov	r10, r6
 1718 0982 0A9E     		ldr	r6, [sp, #40]
 1719 0984 B446     		mov	ip, r6
 1720 0986 E244     		add	r10, r10, ip
 1721 0988 1199     		ldr	r1, [sp, #68]
 1722 098a 5144     		add	r1, r1, r10
 1723 098c 344E     		ldr	r6, .L5+8
 1724 098e B446     		mov	ip, r6
 1725 0990 6144     		add	r1, r1, ip
 1726              	.LVL387:
 1727 0992 1826     		movs	r6, #24
 1728 0994 F141     		rors	r1, r1, r6
 1729              	.LVL388:
 1730 0996 6918     		adds	r1, r5, r1
ARM GAS  C:\Users\Ray\AppData\Local\Temp\ccdgjwii.s 			page 34


 1731              	.LVL389:
 1732 0998 DC41     		rors	r4, r4, r3
 1733              	.LVL390:
 1734 099a A246     		mov	r10, r4
 1735              	.LVL391:
 152:strong-arm\src\ripemd160/ripemd160.c **** 	JJ(aa, bb, cc, dd, ee, X[ 2], 13);
 1736              		.loc 1 152 0
 1737 099c E443     		mvns	r4, r4
 1738              	.LVL392:
 1739 099e 5E46     		mov	r6, fp
 1740 09a0 3443     		orrs	r4, r6
 1741 09a2 4C40     		eors	r4, r1
 1742 09a4 029E     		ldr	r6, [sp, #8]
 1743 09a6 B446     		mov	ip, r6
 1744 09a8 6444     		add	r4, r4, ip
 1745 09aa 2C19     		adds	r4, r5, r4
 1746 09ac 2C4D     		ldr	r5, .L5+8
 1747              	.LVL393:
 1748 09ae AC46     		mov	ip, r5
 1749 09b0 6444     		add	r4, r4, ip
 1750              	.LVL394:
 1751 09b2 1325     		movs	r5, #19
 1752 09b4 EC41     		rors	r4, r4, r5
 1753              	.LVL395:
 1754 09b6 1419     		adds	r4, r2, r4
 1755              	.LVL396:
 1756 09b8 5E46     		mov	r6, fp
 1757 09ba DE41     		rors	r6, r6, r3
 1758              	.LVL397:
 153:strong-arm\src\ripemd160/ripemd160.c **** 	JJ(ee, aa, bb, cc, dd, X[10], 12);
 1759              		.loc 1 153 0
 1760 09bc F543     		mvns	r5, r6
 1761 09be 0D43     		orrs	r5, r1
 1762 09c0 A346     		mov	fp, r4
 1763 09c2 6540     		eors	r5, r4
 1764 09c4 099C     		ldr	r4, [sp, #36]
 1765              	.LVL398:
 1766 09c6 A446     		mov	ip, r4
 1767 09c8 6544     		add	r5, r5, ip
 1768 09ca 5219     		adds	r2, r2, r5
 1769              	.LVL399:
 1770 09cc 244C     		ldr	r4, .L5+8
 1771 09ce A446     		mov	ip, r4
 1772 09d0 6244     		add	r2, r2, ip
 1773              	.LVL400:
 1774 09d2 1424     		movs	r4, #20
 1775 09d4 E241     		rors	r2, r2, r4
 1776              	.LVL401:
 1777 09d6 5244     		add	r2, r2, r10
 1778              	.LVL402:
 1779 09d8 D941     		rors	r1, r1, r3
 1780              	.LVL403:
 1781 09da 0D00     		movs	r5, r1
 1782              	.LVL404:
 154:strong-arm\src\ripemd160/ripemd160.c **** 	JJ(dd, ee, aa, bb, cc, X[14],  5);
 1783              		.loc 1 154 0
 1784 09dc C943     		mvns	r1, r1
ARM GAS  C:\Users\Ray\AppData\Local\Temp\ccdgjwii.s 			page 35


 1785              	.LVL405:
 1786 09de 5C46     		mov	r4, fp
 1787 09e0 2143     		orrs	r1, r4
 1788 09e2 5140     		eors	r1, r2
 1789 09e4 0C9C     		ldr	r4, [sp, #48]
 1790 09e6 A446     		mov	ip, r4
 1791 09e8 6144     		add	r1, r1, ip
 1792 09ea 5144     		add	r1, r1, r10
 1793 09ec 1C4C     		ldr	r4, .L5+8
 1794 09ee A446     		mov	ip, r4
 1795 09f0 6144     		add	r1, r1, ip
 1796              	.LVL406:
 1797 09f2 1B24     		movs	r4, #27
 1798 09f4 E141     		rors	r1, r1, r4
 1799              	.LVL407:
 1800 09f6 7118     		adds	r1, r6, r1
 1801              	.LVL408:
 1802 09f8 5C46     		mov	r4, fp
 1803 09fa DC41     		rors	r4, r4, r3
 1804 09fc A346     		mov	fp, r4
 1805              	.LVL409:
 155:strong-arm\src\ripemd160/ripemd160.c **** 	JJ(cc, dd, ee, aa, bb, X[ 1], 12);
 1806              		.loc 1 155 0
 1807 09fe E443     		mvns	r4, r4
 1808              	.LVL410:
 1809 0a00 1443     		orrs	r4, r2
 1810 0a02 4C40     		eors	r4, r1
 1811 0a04 A246     		mov	r10, r4
 1812 0a06 019C     		ldr	r4, [sp, #4]
 1813 0a08 A446     		mov	ip, r4
 1814 0a0a E244     		add	r10, r10, ip
 1815 0a0c 5644     		add	r6, r6, r10
 1816              	.LVL411:
 1817 0a0e 144C     		ldr	r4, .L5+8
 1818 0a10 A446     		mov	ip, r4
 1819 0a12 6644     		add	r6, r6, ip
 1820              	.LVL412:
 1821 0a14 1424     		movs	r4, #20
 1822 0a16 E641     		rors	r6, r6, r4
 1823              	.LVL413:
 1824 0a18 AE19     		adds	r6, r5, r6
 1825              	.LVL414:
 1826 0a1a DA41     		rors	r2, r2, r3
 1827              	.LVL415:
 1828 0a1c 9246     		mov	r10, r2
 1829              	.LVL416:
 156:strong-arm\src\ripemd160/ripemd160.c **** 	JJ(bb, cc, dd, ee, aa, X[ 3], 13);
 1830              		.loc 1 156 0
 1831 0a1e D243     		mvns	r2, r2
 1832              	.LVL417:
 1833 0a20 0A43     		orrs	r2, r1
 1834 0a22 7240     		eors	r2, r6
 1835 0a24 039C     		ldr	r4, [sp, #12]
 1836 0a26 A446     		mov	ip, r4
 1837 0a28 6244     		add	r2, r2, ip
 1838 0a2a AA18     		adds	r2, r5, r2
 1839 0a2c 0C4D     		ldr	r5, .L5+8
ARM GAS  C:\Users\Ray\AppData\Local\Temp\ccdgjwii.s 			page 36


 1840              	.LVL418:
 1841 0a2e AC46     		mov	ip, r5
 1842 0a30 6244     		add	r2, r2, ip
 1843              	.LVL419:
 1844 0a32 1325     		movs	r5, #19
 1845 0a34 EA41     		rors	r2, r2, r5
 1846              	.LVL420:
 1847 0a36 5A44     		add	r2, r2, fp
 1848              	.LVL421:
 1849 0a38 D941     		rors	r1, r1, r3
 1850              	.LVL422:
 157:strong-arm\src\ripemd160/ripemd160.c **** 	JJ(aa, bb, cc, dd, ee, X[ 8], 14);
 1851              		.loc 1 157 0
 1852 0a3a 1191     		str	r1, [sp, #68]
 1853 0a3c CD43     		mvns	r5, r1
 1854 0a3e 3543     		orrs	r5, r6
 1855 0a40 5540     		eors	r5, r2
 1856 0a42 0899     		ldr	r1, [sp, #32]
 1857              	.LVL423:
 1858 0a44 8C46     		mov	ip, r1
 1859 0a46 6544     		add	r5, r5, ip
 1860 0a48 2C00     		movs	r4, r5
 1861 0a4a 5C44     		add	r4, r4, fp
 1862 0a4c 0449     		ldr	r1, .L5+8
 1863 0a4e 8C46     		mov	ip, r1
 1864 0a50 6444     		add	r4, r4, ip
 1865              	.LVL424:
 1866 0a52 1221     		movs	r1, #18
 1867 0a54 06E0     		b	.L6
 1868              	.L7:
 1869 0a56 C046     		.align	2
 1870              	.L5:
 1871 0a58 A1EBD96E 		.word	1859775393
 1872 0a5c DCBC1B8F 		.word	-1894007588
 1873 0a60 4EFD53A9 		.word	-1454113458
 1874              	.L6:
 1875 0a64 CC41     		rors	r4, r4, r1
 1876              	.LVL425:
 1877 0a66 5444     		add	r4, r4, r10
 1878              	.LVL426:
 1879 0a68 DE41     		rors	r6, r6, r3
 1880              	.LVL427:
 158:strong-arm\src\ripemd160/ripemd160.c **** 	JJ(ee, aa, bb, cc, dd, X[11], 11);
 1881              		.loc 1 158 0
 1882 0a6a F543     		mvns	r5, r6
 1883 0a6c 1543     		orrs	r5, r2
 1884 0a6e 6540     		eors	r5, r4
 1885 0a70 7D19     		adds	r5, r7, r5
 1886 0a72 5544     		add	r5, r5, r10
 1887 0a74 6544     		add	r5, r5, ip
 1888              	.LVL428:
 1889 0a76 1521     		movs	r1, #21
 1890 0a78 CD41     		rors	r5, r5, r1
 1891              	.LVL429:
 1892 0a7a AA46     		mov	r10, r5
 1893              	.LVL430:
 1894 0a7c 119D     		ldr	r5, [sp, #68]
ARM GAS  C:\Users\Ray\AppData\Local\Temp\ccdgjwii.s 			page 37


 1895 0a7e AC46     		mov	ip, r5
 1896 0a80 E244     		add	r10, r10, ip
 1897              	.LVL431:
 1898 0a82 DA41     		rors	r2, r2, r3
 1899              	.LVL432:
 159:strong-arm\src\ripemd160/ripemd160.c **** 	JJ(dd, ee, aa, bb, cc, X[ 6],  8);
 1900              		.loc 1 159 0
 1901 0a84 D543     		mvns	r5, r2
 1902 0a86 2543     		orrs	r5, r4
 1903 0a88 5146     		mov	r1, r10
 1904 0a8a 4D40     		eors	r5, r1
 1905 0a8c 0699     		ldr	r1, [sp, #24]
 1906 0a8e 8C46     		mov	ip, r1
 1907 0a90 6544     		add	r5, r5, ip
 1908 0a92 1199     		ldr	r1, [sp, #68]
 1909 0a94 4919     		adds	r1, r1, r5
 1910 0a96 FE4D     		ldr	r5, .L8
 1911 0a98 AC46     		mov	ip, r5
 1912 0a9a 6144     		add	r1, r1, ip
 1913              	.LVL433:
 1914 0a9c 1825     		movs	r5, #24
 1915 0a9e E941     		rors	r1, r1, r5
 1916              	.LVL434:
 1917 0aa0 7118     		adds	r1, r6, r1
 1918              	.LVL435:
 1919 0aa2 2500     		movs	r5, r4
 1920 0aa4 DD41     		rors	r5, r5, r3
 1921              	.LVL436:
 160:strong-arm\src\ripemd160/ripemd160.c **** 	JJ(cc, dd, ee, aa, bb, X[15],  5);
 1922              		.loc 1 160 0
 1923 0aa6 1195     		str	r5, [sp, #68]
 1924 0aa8 EC43     		mvns	r4, r5
 1925 0aaa 5546     		mov	r5, r10
 1926              	.LVL437:
 1927 0aac 2C43     		orrs	r4, r5
 1928 0aae 4C40     		eors	r4, r1
 1929 0ab0 0D9D     		ldr	r5, [sp, #52]
 1930 0ab2 AC46     		mov	ip, r5
 1931 0ab4 6444     		add	r4, r4, ip
 1932 0ab6 3619     		adds	r6, r6, r4
 1933              	.LVL438:
 1934 0ab8 F54C     		ldr	r4, .L8
 1935 0aba A446     		mov	ip, r4
 1936 0abc 6644     		add	r6, r6, ip
 1937              	.LVL439:
 1938 0abe 1B24     		movs	r4, #27
 1939 0ac0 E641     		rors	r6, r6, r4
 1940              	.LVL440:
 1941 0ac2 9619     		adds	r6, r2, r6
 1942 0ac4 3500     		movs	r5, r6
 1943              	.LVL441:
 1944 0ac6 5646     		mov	r6, r10
 1945 0ac8 DE41     		rors	r6, r6, r3
 1946              	.LVL442:
 161:strong-arm\src\ripemd160/ripemd160.c **** 	JJ(bb, cc, dd, ee, aa, X[13],  6);
 1947              		.loc 1 161 0
 1948 0aca 1396     		str	r6, [sp, #76]
ARM GAS  C:\Users\Ray\AppData\Local\Temp\ccdgjwii.s 			page 38


 1949 0acc F443     		mvns	r4, r6
 1950 0ace 0C43     		orrs	r4, r1
 1951 0ad0 1295     		str	r5, [sp, #72]
 1952 0ad2 6C40     		eors	r4, r5
 1953 0ad4 0B9D     		ldr	r5, [sp, #44]
 1954              	.LVL443:
 1955 0ad6 AC46     		mov	ip, r5
 1956 0ad8 6444     		add	r4, r4, ip
 1957 0ada 1219     		adds	r2, r2, r4
 1958              	.LVL444:
 1959 0adc EC4C     		ldr	r4, .L8
 1960 0ade A446     		mov	ip, r4
 1961 0ae0 6244     		add	r2, r2, ip
 1962              	.LVL445:
 1963 0ae2 1A24     		movs	r4, #26
 1964 0ae4 E241     		rors	r2, r2, r4
 1965              	.LVL446:
 1966 0ae6 9246     		mov	r10, r2
 1967 0ae8 119A     		ldr	r2, [sp, #68]
 1968 0aea 9446     		mov	ip, r2
 1969 0aec E244     		add	r10, r10, ip
 1970 0aee 5246     		mov	r2, r10
 1971 0af0 1492     		str	r2, [sp, #80]
 1972              	.LVL447:
 1973 0af2 0A00     		movs	r2, r1
 1974              	.LVL448:
 1975 0af4 DA41     		rors	r2, r2, r3
 1976 0af6 1592     		str	r2, [sp, #84]
 1977              	.LVL449:
 162:strong-arm\src\ripemd160/ripemd160.c **** 	
 163:strong-arm\src\ripemd160/ripemd160.c **** 	/* parallel round 1 */
 164:strong-arm\src\ripemd160/ripemd160.c **** 	JJJ(aaa, bbb, ccc, ddd, eee, X[ 5],  8);
 1978              		.loc 1 164 0
 1979 0af8 C168     		ldr	r1, [r0, #12]
 1980 0afa C943     		mvns	r1, r1
 1981 0afc 8268     		ldr	r2, [r0, #8]
 1982              	.LVL450:
 1983 0afe 1143     		orrs	r1, r2
 1984 0b00 4268     		ldr	r2, [r0, #4]
 1985 0b02 5140     		eors	r1, r2
 1986 0b04 059A     		ldr	r2, [sp, #20]
 1987 0b06 9446     		mov	ip, r2
 1988 0b08 6144     		add	r1, r1, ip
 1989 0b0a 0268     		ldr	r2, [r0]
 1990 0b0c 9446     		mov	ip, r2
 1991 0b0e 6144     		add	r1, r1, ip
 1992 0b10 E04A     		ldr	r2, .L8+4
 1993 0b12 9446     		mov	ip, r2
 1994 0b14 6144     		add	r1, r1, ip
 1995              	.LVL451:
 1996 0b16 1822     		movs	r2, #24
 1997 0b18 D141     		rors	r1, r1, r2
 1998              	.LVL452:
 1999 0b1a 0269     		ldr	r2, [r0, #16]
 2000 0b1c 9446     		mov	ip, r2
 2001              	.LVL453:
 2002 0b1e 6144     		add	r1, r1, ip
ARM GAS  C:\Users\Ray\AppData\Local\Temp\ccdgjwii.s 			page 39


 2003              	.LVL454:
 165:strong-arm\src\ripemd160/ripemd160.c **** 	JJJ(eee, aaa, bbb, ccc, ddd, X[14],  9);
 2004              		.loc 1 165 0
 2005 0b20 109D     		ldr	r5, [sp, #64]
 2006 0b22 EC43     		mvns	r4, r5
 2007 0b24 4268     		ldr	r2, [r0, #4]
 2008 0b26 1443     		orrs	r4, r2
 2009 0b28 4C40     		eors	r4, r1
 2010 0b2a 0C9A     		ldr	r2, [sp, #48]
 2011 0b2c 9446     		mov	ip, r2
 2012 0b2e 6444     		add	r4, r4, ip
 2013 0b30 0669     		ldr	r6, [r0, #16]
 2014              	.LVL455:
 2015 0b32 B446     		mov	ip, r6
 2016 0b34 6444     		add	r4, r4, ip
 2017 0b36 D74E     		ldr	r6, .L8+4
 2018 0b38 B446     		mov	ip, r6
 2019 0b3a 6444     		add	r4, r4, ip
 2020              	.LVL456:
 2021 0b3c 4E46     		mov	r6, r9
 2022 0b3e F441     		rors	r4, r4, r6
 2023              	.LVL457:
 2024 0b40 C668     		ldr	r6, [r0, #12]
 2025 0b42 B446     		mov	ip, r6
 2026              	.LVL458:
 2027 0b44 6444     		add	r4, r4, ip
 2028              	.LVL459:
 166:strong-arm\src\ripemd160/ripemd160.c **** 	JJJ(ddd, eee, aaa, bbb, ccc, X[ 7],  9);
 2029              		.loc 1 166 0
 2030 0b46 0F9A     		ldr	r2, [sp, #60]
 2031 0b48 D643     		mvns	r6, r2
 2032 0b4a 0E43     		orrs	r6, r1
 2033 0b4c 6640     		eors	r6, r4
 2034 0b4e 079A     		ldr	r2, [sp, #28]
 2035 0b50 9446     		mov	ip, r2
 2036 0b52 6644     		add	r6, r6, ip
 2037 0b54 C268     		ldr	r2, [r0, #12]
 2038 0b56 9446     		mov	ip, r2
 2039 0b58 6644     		add	r6, r6, ip
 2040 0b5a CE4A     		ldr	r2, .L8+4
 2041 0b5c 9446     		mov	ip, r2
 2042 0b5e 6644     		add	r6, r6, ip
 2043              	.LVL460:
 2044 0b60 4A46     		mov	r2, r9
 2045 0b62 D641     		rors	r6, r6, r2
 2046              	.LVL461:
 2047 0b64 AC46     		mov	ip, r5
 2048              	.LVL462:
 2049 0b66 6644     		add	r6, r6, ip
 2050              	.LVL463:
 2051 0b68 D941     		rors	r1, r1, r3
 2052              	.LVL464:
 2053 0b6a 8A46     		mov	r10, r1
 2054              	.LVL465:
 167:strong-arm\src\ripemd160/ripemd160.c **** 	JJJ(ccc, ddd, eee, aaa, bbb, X[ 0], 11);
 2055              		.loc 1 167 0
 2056 0b6c CD43     		mvns	r5, r1
ARM GAS  C:\Users\Ray\AppData\Local\Temp\ccdgjwii.s 			page 40


 2057 0b6e 2543     		orrs	r5, r4
 2058 0b70 7540     		eors	r5, r6
 2059 0b72 009A     		ldr	r2, [sp]
 2060 0b74 9446     		mov	ip, r2
 2061 0b76 6544     		add	r5, r5, ip
 2062 0b78 109A     		ldr	r2, [sp, #64]
 2063 0b7a 9446     		mov	ip, r2
 2064 0b7c 6544     		add	r5, r5, ip
 2065 0b7e C54A     		ldr	r2, .L8+4
 2066 0b80 9446     		mov	ip, r2
 2067 0b82 6544     		add	r5, r5, ip
 2068              	.LVL466:
 2069 0b84 1522     		movs	r2, #21
 2070 0b86 D541     		rors	r5, r5, r2
 2071              	.LVL467:
 2072 0b88 0F99     		ldr	r1, [sp, #60]
 2073              	.LVL468:
 2074 0b8a 8C46     		mov	ip, r1
 2075              	.LVL469:
 2076 0b8c 6544     		add	r5, r5, ip
 2077              	.LVL470:
 2078 0b8e DC41     		rors	r4, r4, r3
 2079              	.LVL471:
 168:strong-arm\src\ripemd160/ripemd160.c **** 	JJJ(bbb, ccc, ddd, eee, aaa, X[ 9], 13);
 2080              		.loc 1 168 0
 2081 0b90 E243     		mvns	r2, r4
 2082 0b92 3243     		orrs	r2, r6
 2083 0b94 6A40     		eors	r2, r5
 2084 0b96 4244     		add	r2, r2, r8
 2085 0b98 9146     		mov	r9, r2
 2086 0b9a 4A46     		mov	r2, r9
 2087 0b9c 6244     		add	r2, r2, ip
 2088 0b9e BD49     		ldr	r1, .L8+4
 2089 0ba0 8C46     		mov	ip, r1
 2090 0ba2 6244     		add	r2, r2, ip
 2091              	.LVL472:
 2092 0ba4 1321     		movs	r1, #19
 2093 0ba6 CA41     		rors	r2, r2, r1
 2094              	.LVL473:
 2095 0ba8 5244     		add	r2, r2, r10
 2096              	.LVL474:
 2097 0baa DE41     		rors	r6, r6, r3
 2098              	.LVL475:
 2099 0bac B346     		mov	fp, r6
 2100              	.LVL476:
 169:strong-arm\src\ripemd160/ripemd160.c **** 	JJJ(aaa, bbb, ccc, ddd, eee, X[ 2], 15);
 2101              		.loc 1 169 0
 2102 0bae F143     		mvns	r1, r6
 2103 0bb0 0E00     		movs	r6, r1
 2104              	.LVL477:
 2105 0bb2 2E43     		orrs	r6, r5
 2106 0bb4 5640     		eors	r6, r2
 2107 0bb6 B146     		mov	r9, r6
 2108 0bb8 029E     		ldr	r6, [sp, #8]
 2109 0bba B446     		mov	ip, r6
 2110 0bbc E144     		add	r9, r9, ip
 2111 0bbe 5146     		mov	r1, r10
ARM GAS  C:\Users\Ray\AppData\Local\Temp\ccdgjwii.s 			page 41


 2112 0bc0 4944     		add	r1, r1, r9
 2113 0bc2 B44E     		ldr	r6, .L8+4
 2114 0bc4 B446     		mov	ip, r6
 2115 0bc6 6144     		add	r1, r1, ip
 2116              	.LVL478:
 2117 0bc8 1126     		movs	r6, #17
 2118 0bca F141     		rors	r1, r1, r6
 2119              	.LVL479:
 2120 0bcc 8A46     		mov	r10, r1
 2121              	.LVL480:
 2122 0bce A244     		add	r10, r10, r4
 2123              	.LVL481:
 2124 0bd0 DD41     		rors	r5, r5, r3
 2125              	.LVL482:
 170:strong-arm\src\ripemd160/ripemd160.c **** 	JJJ(eee, aaa, bbb, ccc, ddd, X[11], 15);
 2126              		.loc 1 170 0
 2127 0bd2 EE43     		mvns	r6, r5
 2128 0bd4 1643     		orrs	r6, r2
 2129 0bd6 5146     		mov	r1, r10
 2130 0bd8 4E40     		eors	r6, r1
 2131 0bda B146     		mov	r9, r6
 2132 0bdc B944     		add	r9, r9, r7
 2133 0bde 4C44     		add	r4, r4, r9
 2134              	.LVL483:
 2135 0be0 6444     		add	r4, r4, ip
 2136              	.LVL484:
 2137 0be2 1126     		movs	r6, #17
 2138 0be4 F441     		rors	r4, r4, r6
 2139              	.LVL485:
 2140 0be6 5C44     		add	r4, r4, fp
 2141              	.LVL486:
 2142 0be8 DA41     		rors	r2, r2, r3
 2143              	.LVL487:
 171:strong-arm\src\ripemd160/ripemd160.c **** 	JJJ(ddd, eee, aaa, bbb, ccc, X[ 4],  5);
 2144              		.loc 1 171 0
 2145 0bea D643     		mvns	r6, r2
 2146 0bec 0E43     		orrs	r6, r1
 2147 0bee 6640     		eors	r6, r4
 2148 0bf0 B146     		mov	r9, r6
 2149 0bf2 049E     		ldr	r6, [sp, #16]
 2150 0bf4 B446     		mov	ip, r6
 2151 0bf6 E144     		add	r9, r9, ip
 2152 0bf8 5E46     		mov	r6, fp
 2153 0bfa 4E44     		add	r6, r6, r9
 2154 0bfc A549     		ldr	r1, .L8+4
 2155 0bfe 8C46     		mov	ip, r1
 2156 0c00 6644     		add	r6, r6, ip
 2157              	.LVL488:
 2158 0c02 1B21     		movs	r1, #27
 2159 0c04 CE41     		rors	r6, r6, r1
 2160              	.LVL489:
 2161 0c06 AE19     		adds	r6, r5, r6
 2162              	.LVL490:
 2163 0c08 5146     		mov	r1, r10
 2164 0c0a D941     		rors	r1, r1, r3
 2165 0c0c 8A46     		mov	r10, r1
 2166              	.LVL491:
ARM GAS  C:\Users\Ray\AppData\Local\Temp\ccdgjwii.s 			page 42


 172:strong-arm\src\ripemd160/ripemd160.c **** 	JJJ(ccc, ddd, eee, aaa, bbb, X[13],  7);
 2167              		.loc 1 172 0
 2168 0c0e C943     		mvns	r1, r1
 2169              	.LVL492:
 2170 0c10 2143     		orrs	r1, r4
 2171 0c12 7140     		eors	r1, r6
 2172 0c14 8946     		mov	r9, r1
 2173 0c16 0B99     		ldr	r1, [sp, #44]
 2174 0c18 8C46     		mov	ip, r1
 2175 0c1a E144     		add	r9, r9, ip
 2176 0c1c 4D44     		add	r5, r5, r9
 2177              	.LVL493:
 2178 0c1e 9D49     		ldr	r1, .L8+4
 2179 0c20 8C46     		mov	ip, r1
 2180 0c22 6544     		add	r5, r5, ip
 2181              	.LVL494:
 2182 0c24 1921     		movs	r1, #25
 2183 0c26 CD41     		rors	r5, r5, r1
 2184              	.LVL495:
 2185 0c28 5519     		adds	r5, r2, r5
 2186              	.LVL496:
 2187 0c2a DC41     		rors	r4, r4, r3
 2188              	.LVL497:
 173:strong-arm\src\ripemd160/ripemd160.c **** 	JJJ(bbb, ccc, ddd, eee, aaa, X[ 6],  7);
 2189              		.loc 1 173 0
 2190 0c2c E143     		mvns	r1, r4
 2191 0c2e 3143     		orrs	r1, r6
 2192 0c30 6940     		eors	r1, r5
 2193 0c32 8946     		mov	r9, r1
 2194 0c34 0699     		ldr	r1, [sp, #24]
 2195 0c36 8C46     		mov	ip, r1
 2196 0c38 E144     		add	r9, r9, ip
 2197 0c3a 4A44     		add	r2, r2, r9
 2198              	.LVL498:
 2199 0c3c 9549     		ldr	r1, .L8+4
 2200 0c3e 8C46     		mov	ip, r1
 2201 0c40 6244     		add	r2, r2, ip
 2202              	.LVL499:
 2203 0c42 1921     		movs	r1, #25
 2204 0c44 CA41     		rors	r2, r2, r1
 2205              	.LVL500:
 2206 0c46 5244     		add	r2, r2, r10
 2207              	.LVL501:
 2208 0c48 DE41     		rors	r6, r6, r3
 2209              	.LVL502:
 2210 0c4a B346     		mov	fp, r6
 2211              	.LVL503:
 174:strong-arm\src\ripemd160/ripemd160.c **** 	JJJ(aaa, bbb, ccc, ddd, eee, X[15],  8);
 2212              		.loc 1 174 0
 2213 0c4c F143     		mvns	r1, r6
 2214 0c4e 2943     		orrs	r1, r5
 2215 0c50 5140     		eors	r1, r2
 2216 0c52 8C46     		mov	ip, r1
 2217 0c54 0D9E     		ldr	r6, [sp, #52]
 2218              	.LVL504:
 2219 0c56 B146     		mov	r9, r6
 2220 0c58 CC44     		add	ip, ip, r9
ARM GAS  C:\Users\Ray\AppData\Local\Temp\ccdgjwii.s 			page 43


 2221 0c5a 5146     		mov	r1, r10
 2222 0c5c 6144     		add	r1, r1, ip
 2223 0c5e 8D4E     		ldr	r6, .L8+4
 2224 0c60 B446     		mov	ip, r6
 2225 0c62 6144     		add	r1, r1, ip
 2226              	.LVL505:
 2227 0c64 1826     		movs	r6, #24
 2228 0c66 F141     		rors	r1, r1, r6
 2229              	.LVL506:
 2230 0c68 6118     		adds	r1, r4, r1
 2231              	.LVL507:
 2232 0c6a DD41     		rors	r5, r5, r3
 2233              	.LVL508:
 175:strong-arm\src\ripemd160/ripemd160.c **** 	JJJ(eee, aaa, bbb, ccc, ddd, X[ 8], 11);
 2234              		.loc 1 175 0
 2235 0c6c EE43     		mvns	r6, r5
 2236 0c6e 1643     		orrs	r6, r2
 2237 0c70 4E40     		eors	r6, r1
 2238 0c72 B446     		mov	ip, r6
 2239 0c74 089E     		ldr	r6, [sp, #32]
 2240 0c76 B146     		mov	r9, r6
 2241 0c78 CC44     		add	ip, ip, r9
 2242 0c7a 6444     		add	r4, r4, ip
 2243              	.LVL509:
 2244 0c7c 854E     		ldr	r6, .L8+4
 2245 0c7e B446     		mov	ip, r6
 2246 0c80 6444     		add	r4, r4, ip
 2247              	.LVL510:
 2248 0c82 1526     		movs	r6, #21
 2249 0c84 F441     		rors	r4, r4, r6
 2250              	.LVL511:
 2251 0c86 5C44     		add	r4, r4, fp
 2252              	.LVL512:
 2253 0c88 DA41     		rors	r2, r2, r3
 2254              	.LVL513:
 176:strong-arm\src\ripemd160/ripemd160.c **** 	JJJ(ddd, eee, aaa, bbb, ccc, X[ 1], 14);
 2255              		.loc 1 176 0
 2256 0c8a D343     		mvns	r3, r2
 2257 0c8c 0B43     		orrs	r3, r1
 2258 0c8e 6340     		eors	r3, r4
 2259 0c90 019E     		ldr	r6, [sp, #4]
 2260 0c92 B446     		mov	ip, r6
 2261 0c94 6344     		add	r3, r3, ip
 2262 0c96 5B44     		add	r3, r3, fp
 2263 0c98 1E00     		movs	r6, r3
 2264 0c9a 7E4B     		ldr	r3, .L8+4
 2265 0c9c 9C46     		mov	ip, r3
 2266 0c9e 6644     		add	r6, r6, ip
 2267              	.LVL514:
 2268 0ca0 1223     		movs	r3, #18
 2269 0ca2 DE41     		rors	r6, r6, r3
 2270              	.LVL515:
 2271 0ca4 AE19     		adds	r6, r5, r6
 2272              	.LVL516:
 2273 0ca6 0433     		adds	r3, r3, #4
 2274 0ca8 D941     		rors	r1, r1, r3
 2275              	.LVL517:
ARM GAS  C:\Users\Ray\AppData\Local\Temp\ccdgjwii.s 			page 44


 2276 0caa 8B46     		mov	fp, r1
 2277              	.LVL518:
 177:strong-arm\src\ripemd160/ripemd160.c **** 	JJJ(ccc, ddd, eee, aaa, bbb, X[10], 14);
 2278              		.loc 1 177 0
 2279 0cac C943     		mvns	r1, r1
 2280              	.LVL519:
 2281 0cae 2143     		orrs	r1, r4
 2282 0cb0 7140     		eors	r1, r6
 2283 0cb2 8C46     		mov	ip, r1
 2284 0cb4 0999     		ldr	r1, [sp, #36]
 2285 0cb6 8946     		mov	r9, r1
 2286 0cb8 CC44     		add	ip, ip, r9
 2287 0cba 6544     		add	r5, r5, ip
 2288              	.LVL520:
 2289 0cbc 7549     		ldr	r1, .L8+4
 2290 0cbe 8C46     		mov	ip, r1
 2291 0cc0 6544     		add	r5, r5, ip
 2292              	.LVL521:
 2293 0cc2 1221     		movs	r1, #18
 2294 0cc4 CD41     		rors	r5, r5, r1
 2295              	.LVL522:
 2296 0cc6 5519     		adds	r5, r2, r5
 2297              	.LVL523:
 2298 0cc8 DC41     		rors	r4, r4, r3
 2299              	.LVL524:
 178:strong-arm\src\ripemd160/ripemd160.c **** 	JJJ(bbb, ccc, ddd, eee, aaa, X[ 3], 12);
 2300              		.loc 1 178 0
 2301 0cca 0E94     		str	r4, [sp, #56]
 2302 0ccc E143     		mvns	r1, r4
 2303 0cce 3143     		orrs	r1, r6
 2304 0cd0 6940     		eors	r1, r5
 2305 0cd2 8C46     		mov	ip, r1
 2306 0cd4 0399     		ldr	r1, [sp, #12]
 2307 0cd6 8946     		mov	r9, r1
 2308 0cd8 CC44     		add	ip, ip, r9
 2309 0cda 6244     		add	r2, r2, ip
 2310              	.LVL525:
 2311 0cdc 6D49     		ldr	r1, .L8+4
 2312 0cde 8C46     		mov	ip, r1
 2313 0ce0 6244     		add	r2, r2, ip
 2314              	.LVL526:
 2315 0ce2 1421     		movs	r1, #20
 2316 0ce4 8946     		mov	r9, r1
 2317 0ce6 CA41     		rors	r2, r2, r1
 2318              	.LVL527:
 2319 0ce8 5A44     		add	r2, r2, fp
 2320              	.LVL528:
 2321 0cea DE41     		rors	r6, r6, r3
 2322              	.LVL529:
 179:strong-arm\src\ripemd160/ripemd160.c **** 	JJJ(aaa, bbb, ccc, ddd, eee, X[12],  6);
 2323              		.loc 1 179 0
 2324 0cec F143     		mvns	r1, r6
 2325 0cee 2943     		orrs	r1, r5
 2326 0cf0 5140     		eors	r1, r2
 2327 0cf2 8C46     		mov	ip, r1
 2328 0cf4 0A99     		ldr	r1, [sp, #40]
 2329 0cf6 8A46     		mov	r10, r1
ARM GAS  C:\Users\Ray\AppData\Local\Temp\ccdgjwii.s 			page 45


 2330 0cf8 D444     		add	ip, ip, r10
 2331 0cfa 5946     		mov	r1, fp
 2332 0cfc 6144     		add	r1, r1, ip
 2333 0cfe 654C     		ldr	r4, .L8+4
 2334              	.LVL530:
 2335 0d00 A446     		mov	ip, r4
 2336 0d02 6144     		add	r1, r1, ip
 2337              	.LVL531:
 2338 0d04 1A24     		movs	r4, #26
 2339 0d06 A346     		mov	fp, r4
 2340 0d08 E141     		rors	r1, r1, r4
 2341              	.LVL532:
 2342 0d0a 0E9C     		ldr	r4, [sp, #56]
 2343 0d0c A446     		mov	ip, r4
 2344 0d0e 6144     		add	r1, r1, ip
 2345              	.LVL533:
 2346 0d10 DD41     		rors	r5, r5, r3
 2347              	.LVL534:
 2348 0d12 2C00     		movs	r4, r5
 2349              	.LVL535:
 180:strong-arm\src\ripemd160/ripemd160.c **** 	
 181:strong-arm\src\ripemd160/ripemd160.c **** 	/* parallel round 2 */
 182:strong-arm\src\ripemd160/ripemd160.c **** 	III(eee, aaa, bbb, ccc, ddd, X[ 6],  9); 
 2350              		.loc 1 182 0
 2351 0d14 1500     		movs	r5, r2
 2352 0d16 4D40     		eors	r5, r1
 2353 0d18 0F94     		str	r4, [sp, #60]
 2354 0d1a 2540     		ands	r5, r4
 2355 0d1c 5540     		eors	r5, r2
 2356 0d1e AC46     		mov	ip, r5
 2357 0d20 069D     		ldr	r5, [sp, #24]
 2358 0d22 AA46     		mov	r10, r5
 2359 0d24 D444     		add	ip, ip, r10
 2360 0d26 0E9D     		ldr	r5, [sp, #56]
 2361 0d28 6544     		add	r5, r5, ip
 2362 0d2a 2C00     		movs	r4, r5
 2363              	.LVL536:
 2364 0d2c 5A4D     		ldr	r5, .L8+8
 2365 0d2e AC46     		mov	ip, r5
 2366 0d30 6444     		add	r4, r4, ip
 2367              	.LVL537:
 2368 0d32 1725     		movs	r5, #23
 2369 0d34 EC41     		rors	r4, r4, r5
 2370              	.LVL538:
 2371 0d36 3419     		adds	r4, r6, r4
 2372              	.LVL539:
 2373 0d38 DA41     		rors	r2, r2, r3
 2374              	.LVL540:
 183:strong-arm\src\ripemd160/ripemd160.c **** 	III(ddd, eee, aaa, bbb, ccc, X[11], 13);
 2375              		.loc 1 183 0
 2376 0d3a 0D00     		movs	r5, r1
 2377 0d3c 6540     		eors	r5, r4
 2378 0d3e 1540     		ands	r5, r2
 2379 0d40 4D40     		eors	r5, r1
 2380 0d42 AC46     		mov	ip, r5
 2381 0d44 BC44     		add	ip, ip, r7
 2382 0d46 6644     		add	r6, r6, ip
ARM GAS  C:\Users\Ray\AppData\Local\Temp\ccdgjwii.s 			page 46


 2383              	.LVL541:
 2384 0d48 534D     		ldr	r5, .L8+8
 2385 0d4a AC46     		mov	ip, r5
 2386 0d4c 6644     		add	r6, r6, ip
 2387              	.LVL542:
 2388 0d4e 1325     		movs	r5, #19
 2389 0d50 EE41     		rors	r6, r6, r5
 2390              	.LVL543:
 2391 0d52 0F9D     		ldr	r5, [sp, #60]
 2392 0d54 AC46     		mov	ip, r5
 2393 0d56 6644     		add	r6, r6, ip
 2394              	.LVL544:
 2395 0d58 D941     		rors	r1, r1, r3
 2396              	.LVL545:
 2397 0d5a 0D00     		movs	r5, r1
 2398              	.LVL546:
 184:strong-arm\src\ripemd160/ripemd160.c **** 	III(ccc, ddd, eee, aaa, bbb, X[ 3], 15);
 2399              		.loc 1 184 0
 2400 0d5c 2100     		movs	r1, r4
 2401              	.LVL547:
 2402 0d5e 7140     		eors	r1, r6
 2403 0d60 1095     		str	r5, [sp, #64]
 2404 0d62 2940     		ands	r1, r5
 2405 0d64 6140     		eors	r1, r4
 2406 0d66 8C46     		mov	ip, r1
 2407 0d68 0399     		ldr	r1, [sp, #12]
 2408 0d6a 8A46     		mov	r10, r1
 2409 0d6c D444     		add	ip, ip, r10
 2410 0d6e 0F99     		ldr	r1, [sp, #60]
 2411 0d70 8A46     		mov	r10, r1
 2412 0d72 E244     		add	r10, r10, ip
 2413 0d74 5546     		mov	r5, r10
 2414              	.LVL548:
 2415 0d76 4849     		ldr	r1, .L8+8
 2416 0d78 8C46     		mov	ip, r1
 2417 0d7a 6544     		add	r5, r5, ip
 2418              	.LVL549:
 2419 0d7c 1121     		movs	r1, #17
 2420 0d7e CD41     		rors	r5, r5, r1
 2421              	.LVL550:
 2422 0d80 5519     		adds	r5, r2, r5
 2423              	.LVL551:
 2424 0d82 DC41     		rors	r4, r4, r3
 2425              	.LVL552:
 185:strong-arm\src\ripemd160/ripemd160.c **** 	III(bbb, ccc, ddd, eee, aaa, X[ 7],  7);
 2426              		.loc 1 185 0
 2427 0d84 3100     		movs	r1, r6
 2428 0d86 6940     		eors	r1, r5
 2429 0d88 0E94     		str	r4, [sp, #56]
 2430 0d8a 2140     		ands	r1, r4
 2431 0d8c 7140     		eors	r1, r6
 2432 0d8e 8C46     		mov	ip, r1
 2433 0d90 0799     		ldr	r1, [sp, #28]
 2434 0d92 8A46     		mov	r10, r1
 2435 0d94 D444     		add	ip, ip, r10
 2436 0d96 6244     		add	r2, r2, ip
 2437              	.LVL553:
ARM GAS  C:\Users\Ray\AppData\Local\Temp\ccdgjwii.s 			page 47


 2438 0d98 3F49     		ldr	r1, .L8+8
 2439 0d9a 8C46     		mov	ip, r1
 2440 0d9c 6244     		add	r2, r2, ip
 2441              	.LVL554:
 2442 0d9e 1921     		movs	r1, #25
 2443 0da0 CA41     		rors	r2, r2, r1
 2444              	.LVL555:
 2445 0da2 109C     		ldr	r4, [sp, #64]
 2446              	.LVL556:
 2447 0da4 A446     		mov	ip, r4
 2448 0da6 6244     		add	r2, r2, ip
 2449              	.LVL557:
 2450 0da8 DE41     		rors	r6, r6, r3
 2451              	.LVL558:
 186:strong-arm\src\ripemd160/ripemd160.c **** 	III(aaa, bbb, ccc, ddd, eee, X[ 0], 12);
 2452              		.loc 1 186 0
 2453 0daa 2900     		movs	r1, r5
 2454 0dac 5140     		eors	r1, r2
 2455 0dae 3140     		ands	r1, r6
 2456 0db0 6940     		eors	r1, r5
 2457 0db2 8C46     		mov	ip, r1
 2458 0db4 0099     		ldr	r1, [sp]
 2459 0db6 8A46     		mov	r10, r1
 2460 0db8 D444     		add	ip, ip, r10
 2461 0dba 2100     		movs	r1, r4
 2462 0dbc 6144     		add	r1, r1, ip
 2463 0dbe 364C     		ldr	r4, .L8+8
 2464 0dc0 A446     		mov	ip, r4
 2465 0dc2 6144     		add	r1, r1, ip
 2466              	.LVL559:
 2467 0dc4 4C46     		mov	r4, r9
 2468 0dc6 E141     		rors	r1, r1, r4
 2469              	.LVL560:
 2470 0dc8 0E9C     		ldr	r4, [sp, #56]
 2471 0dca A446     		mov	ip, r4
 2472              	.LVL561:
 2473 0dcc 6144     		add	r1, r1, ip
 2474              	.LVL562:
 2475 0dce DD41     		rors	r5, r5, r3
 2476              	.LVL563:
 2477 0dd0 2C00     		movs	r4, r5
 2478              	.LVL564:
 187:strong-arm\src\ripemd160/ripemd160.c **** 	III(eee, aaa, bbb, ccc, ddd, X[13],  8);
 2479              		.loc 1 187 0
 2480 0dd2 1500     		movs	r5, r2
 2481 0dd4 4D40     		eors	r5, r1
 2482 0dd6 0F94     		str	r4, [sp, #60]
 2483 0dd8 2540     		ands	r5, r4
 2484 0dda 5540     		eors	r5, r2
 2485 0ddc AC46     		mov	ip, r5
 2486 0dde 0B9D     		ldr	r5, [sp, #44]
 2487 0de0 AA46     		mov	r10, r5
 2488 0de2 D444     		add	ip, ip, r10
 2489 0de4 0E9D     		ldr	r5, [sp, #56]
 2490 0de6 6544     		add	r5, r5, ip
 2491 0de8 2C00     		movs	r4, r5
 2492              	.LVL565:
ARM GAS  C:\Users\Ray\AppData\Local\Temp\ccdgjwii.s 			page 48


 2493 0dea 2B4D     		ldr	r5, .L8+8
 2494 0dec AC46     		mov	ip, r5
 2495 0dee 6444     		add	r4, r4, ip
 2496              	.LVL566:
 2497 0df0 1825     		movs	r5, #24
 2498 0df2 EC41     		rors	r4, r4, r5
 2499              	.LVL567:
 2500 0df4 3419     		adds	r4, r6, r4
 2501              	.LVL568:
 2502 0df6 DA41     		rors	r2, r2, r3
 2503              	.LVL569:
 2504 0df8 0E92     		str	r2, [sp, #56]
 2505              	.LVL570:
 188:strong-arm\src\ripemd160/ripemd160.c **** 	III(ddd, eee, aaa, bbb, ccc, X[ 5],  9);
 2506              		.loc 1 188 0
 2507 0dfa 0D00     		movs	r5, r1
 2508 0dfc 2200     		movs	r2, r4
 2509              	.LVL571:
 2510 0dfe 6540     		eors	r5, r4
 2511 0e00 0E9C     		ldr	r4, [sp, #56]
 2512              	.LVL572:
 2513 0e02 2540     		ands	r5, r4
 2514 0e04 4D40     		eors	r5, r1
 2515 0e06 AC46     		mov	ip, r5
 2516 0e08 059D     		ldr	r5, [sp, #20]
 2517 0e0a AA46     		mov	r10, r5
 2518 0e0c D444     		add	ip, ip, r10
 2519 0e0e 6644     		add	r6, r6, ip
 2520              	.LVL573:
 2521 0e10 214D     		ldr	r5, .L8+8
 2522 0e12 AC46     		mov	ip, r5
 2523 0e14 6644     		add	r6, r6, ip
 2524              	.LVL574:
 2525 0e16 1725     		movs	r5, #23
 2526 0e18 EE41     		rors	r6, r6, r5
 2527              	.LVL575:
 2528 0e1a 0F9C     		ldr	r4, [sp, #60]
 2529 0e1c A446     		mov	ip, r4
 2530 0e1e 6644     		add	r6, r6, ip
 2531              	.LVL576:
 2532 0e20 D941     		rors	r1, r1, r3
 2533              	.LVL577:
 189:strong-arm\src\ripemd160/ripemd160.c **** 	III(ccc, ddd, eee, aaa, bbb, X[10], 11);
 2534              		.loc 1 189 0
 2535 0e22 1500     		movs	r5, r2
 2536 0e24 7540     		eors	r5, r6
 2537 0e26 0D40     		ands	r5, r1
 2538 0e28 5540     		eors	r5, r2
 2539 0e2a AC46     		mov	ip, r5
 2540 0e2c 099D     		ldr	r5, [sp, #36]
 2541 0e2e AA46     		mov	r10, r5
 2542 0e30 D444     		add	ip, ip, r10
 2543 0e32 6444     		add	r4, r4, ip
 2544 0e34 2500     		movs	r5, r4
 2545 0e36 184C     		ldr	r4, .L8+8
 2546 0e38 A446     		mov	ip, r4
 2547 0e3a 6544     		add	r5, r5, ip
ARM GAS  C:\Users\Ray\AppData\Local\Temp\ccdgjwii.s 			page 49


 2548              	.LVL578:
 2549 0e3c 1524     		movs	r4, #21
 2550 0e3e E541     		rors	r5, r5, r4
 2551              	.LVL579:
 2552 0e40 0E9C     		ldr	r4, [sp, #56]
 2553 0e42 A446     		mov	ip, r4
 2554              	.LVL580:
 2555 0e44 6544     		add	r5, r5, ip
 2556              	.LVL581:
 2557 0e46 DA41     		rors	r2, r2, r3
 2558              	.LVL582:
 190:strong-arm\src\ripemd160/ripemd160.c **** 	III(bbb, ccc, ddd, eee, aaa, X[14],  7);
 2559              		.loc 1 190 0
 2560 0e48 3400     		movs	r4, r6
 2561 0e4a 6C40     		eors	r4, r5
 2562 0e4c 0F92     		str	r2, [sp, #60]
 2563 0e4e 1440     		ands	r4, r2
 2564 0e50 7440     		eors	r4, r6
 2565 0e52 A446     		mov	ip, r4
 2566 0e54 0C9C     		ldr	r4, [sp, #48]
 2567 0e56 A246     		mov	r10, r4
 2568 0e58 D444     		add	ip, ip, r10
 2569 0e5a 0E9A     		ldr	r2, [sp, #56]
 2570              	.LVL583:
 2571 0e5c 6244     		add	r2, r2, ip
 2572 0e5e 0E4C     		ldr	r4, .L8+8
 2573 0e60 A446     		mov	ip, r4
 2574 0e62 6244     		add	r2, r2, ip
 2575              	.LVL584:
 2576 0e64 1924     		movs	r4, #25
 2577 0e66 E241     		rors	r2, r2, r4
 2578              	.LVL585:
 2579 0e68 8A18     		adds	r2, r1, r2
 2580              	.LVL586:
 2581 0e6a DE41     		rors	r6, r6, r3
 2582              	.LVL587:
 191:strong-arm\src\ripemd160/ripemd160.c **** 	III(aaa, bbb, ccc, ddd, eee, X[15],  7);
 2583              		.loc 1 191 0
 2584 0e6c 2C00     		movs	r4, r5
 2585 0e6e 5440     		eors	r4, r2
 2586 0e70 3440     		ands	r4, r6
 2587 0e72 6C40     		eors	r4, r5
 2588 0e74 A446     		mov	ip, r4
 2589 0e76 0D9C     		ldr	r4, [sp, #52]
 2590 0e78 A246     		mov	r10, r4
 2591 0e7a D444     		add	ip, ip, r10
 2592 0e7c 6144     		add	r1, r1, ip
 2593              	.LVL588:
 2594 0e7e 064C     		ldr	r4, .L8+8
 2595 0e80 A446     		mov	ip, r4
 2596 0e82 6144     		add	r1, r1, ip
 2597              	.LVL589:
 2598 0e84 1924     		movs	r4, #25
 2599 0e86 E141     		rors	r1, r1, r4
 2600              	.LVL590:
 2601 0e88 0F9C     		ldr	r4, [sp, #60]
 2602 0e8a A446     		mov	ip, r4
ARM GAS  C:\Users\Ray\AppData\Local\Temp\ccdgjwii.s 			page 50


 2603 0e8c 6144     		add	r1, r1, ip
 2604 0e8e 05E0     		b	.L9
 2605              	.L10:
 2606              		.align	2
 2607              	.L8:
 2608 0e90 4EFD53A9 		.word	-1454113458
 2609 0e94 E68BA250 		.word	1352829926
 2610 0e98 24D14D5C 		.word	1548603684
 2611              	.L9:
 2612              	.LVL591:
 2613 0e9c DD41     		rors	r5, r5, r3
 2614              	.LVL592:
 192:strong-arm\src\ripemd160/ripemd160.c **** 	III(eee, aaa, bbb, ccc, ddd, X[ 8], 12);
 2615              		.loc 1 192 0
 2616 0e9e 1400     		movs	r4, r2
 2617 0ea0 4C40     		eors	r4, r1
 2618 0ea2 1095     		str	r5, [sp, #64]
 2619 0ea4 2C40     		ands	r4, r5
 2620 0ea6 5440     		eors	r4, r2
 2621 0ea8 A446     		mov	ip, r4
 2622 0eaa 089D     		ldr	r5, [sp, #32]
 2623              	.LVL593:
 2624 0eac AA46     		mov	r10, r5
 2625 0eae D444     		add	ip, ip, r10
 2626 0eb0 0F9C     		ldr	r4, [sp, #60]
 2627 0eb2 6444     		add	r4, r4, ip
 2628 0eb4 FD4D     		ldr	r5, .L11
 2629 0eb6 AC46     		mov	ip, r5
 2630 0eb8 6444     		add	r4, r4, ip
 2631              	.LVL594:
 2632 0eba 4D46     		mov	r5, r9
 2633 0ebc EC41     		rors	r4, r4, r5
 2634              	.LVL595:
 2635 0ebe 3419     		adds	r4, r6, r4
 2636              	.LVL596:
 2637 0ec0 DA41     		rors	r2, r2, r3
 2638              	.LVL597:
 2639 0ec2 0E92     		str	r2, [sp, #56]
 2640              	.LVL598:
 193:strong-arm\src\ripemd160/ripemd160.c **** 	III(ddd, eee, aaa, bbb, ccc, X[12],  7);
 2641              		.loc 1 193 0
 2642 0ec4 0D00     		movs	r5, r1
 2643 0ec6 2200     		movs	r2, r4
 2644              	.LVL599:
 2645 0ec8 6540     		eors	r5, r4
 2646 0eca 0E9C     		ldr	r4, [sp, #56]
 2647              	.LVL600:
 2648 0ecc 2540     		ands	r5, r4
 2649 0ece 4D40     		eors	r5, r1
 2650 0ed0 AC46     		mov	ip, r5
 2651 0ed2 0A9D     		ldr	r5, [sp, #40]
 2652 0ed4 AA46     		mov	r10, r5
 2653 0ed6 D444     		add	ip, ip, r10
 2654 0ed8 6644     		add	r6, r6, ip
 2655              	.LVL601:
 2656 0eda F44D     		ldr	r5, .L11
 2657 0edc AC46     		mov	ip, r5
ARM GAS  C:\Users\Ray\AppData\Local\Temp\ccdgjwii.s 			page 51


 2658 0ede 6644     		add	r6, r6, ip
 2659              	.LVL602:
 2660 0ee0 1925     		movs	r5, #25
 2661 0ee2 EE41     		rors	r6, r6, r5
 2662              	.LVL603:
 2663 0ee4 109C     		ldr	r4, [sp, #64]
 2664 0ee6 A446     		mov	ip, r4
 2665 0ee8 6644     		add	r6, r6, ip
 2666              	.LVL604:
 2667 0eea D941     		rors	r1, r1, r3
 2668              	.LVL605:
 194:strong-arm\src\ripemd160/ripemd160.c **** 	III(ccc, ddd, eee, aaa, bbb, X[ 4],  6);
 2669              		.loc 1 194 0
 2670 0eec 1500     		movs	r5, r2
 2671 0eee 7540     		eors	r5, r6
 2672 0ef0 0D40     		ands	r5, r1
 2673 0ef2 5540     		eors	r5, r2
 2674 0ef4 AC46     		mov	ip, r5
 2675 0ef6 049D     		ldr	r5, [sp, #16]
 2676 0ef8 AA46     		mov	r10, r5
 2677 0efa D444     		add	ip, ip, r10
 2678 0efc 6444     		add	r4, r4, ip
 2679 0efe 2500     		movs	r5, r4
 2680 0f00 EA4C     		ldr	r4, .L11
 2681 0f02 A446     		mov	ip, r4
 2682 0f04 6544     		add	r5, r5, ip
 2683              	.LVL606:
 2684 0f06 5C46     		mov	r4, fp
 2685 0f08 E541     		rors	r5, r5, r4
 2686              	.LVL607:
 2687 0f0a 0E9C     		ldr	r4, [sp, #56]
 2688 0f0c A446     		mov	ip, r4
 2689              	.LVL608:
 2690 0f0e 6544     		add	r5, r5, ip
 2691              	.LVL609:
 2692 0f10 DA41     		rors	r2, r2, r3
 2693              	.LVL610:
 195:strong-arm\src\ripemd160/ripemd160.c **** 	III(bbb, ccc, ddd, eee, aaa, X[ 9], 15);
 2694              		.loc 1 195 0
 2695 0f12 3400     		movs	r4, r6
 2696 0f14 6C40     		eors	r4, r5
 2697 0f16 0F92     		str	r2, [sp, #60]
 2698 0f18 1440     		ands	r4, r2
 2699 0f1a 7440     		eors	r4, r6
 2700 0f1c A446     		mov	ip, r4
 2701 0f1e C444     		add	ip, ip, r8
 2702 0f20 0E9A     		ldr	r2, [sp, #56]
 2703              	.LVL611:
 2704 0f22 6244     		add	r2, r2, ip
 2705 0f24 E14C     		ldr	r4, .L11
 2706 0f26 A446     		mov	ip, r4
 2707 0f28 6244     		add	r2, r2, ip
 2708              	.LVL612:
 2709 0f2a 1124     		movs	r4, #17
 2710 0f2c E241     		rors	r2, r2, r4
 2711              	.LVL613:
 2712 0f2e 8A18     		adds	r2, r1, r2
ARM GAS  C:\Users\Ray\AppData\Local\Temp\ccdgjwii.s 			page 52


 2713              	.LVL614:
 2714 0f30 DE41     		rors	r6, r6, r3
 2715              	.LVL615:
 196:strong-arm\src\ripemd160/ripemd160.c **** 	III(aaa, bbb, ccc, ddd, eee, X[ 1], 13);
 2716              		.loc 1 196 0
 2717 0f32 2C00     		movs	r4, r5
 2718 0f34 5440     		eors	r4, r2
 2719 0f36 1096     		str	r6, [sp, #64]
 2720 0f38 3440     		ands	r4, r6
 2721 0f3a 6C40     		eors	r4, r5
 2722 0f3c A446     		mov	ip, r4
 2723 0f3e 019C     		ldr	r4, [sp, #4]
 2724 0f40 A246     		mov	r10, r4
 2725 0f42 D444     		add	ip, ip, r10
 2726 0f44 6144     		add	r1, r1, ip
 2727              	.LVL616:
 2728 0f46 D94C     		ldr	r4, .L11
 2729 0f48 A446     		mov	ip, r4
 2730 0f4a 6144     		add	r1, r1, ip
 2731              	.LVL617:
 2732 0f4c 1324     		movs	r4, #19
 2733 0f4e E141     		rors	r1, r1, r4
 2734              	.LVL618:
 2735 0f50 0F9E     		ldr	r6, [sp, #60]
 2736              	.LVL619:
 2737 0f52 B446     		mov	ip, r6
 2738 0f54 6144     		add	r1, r1, ip
 2739              	.LVL620:
 2740 0f56 DD41     		rors	r5, r5, r3
 2741              	.LVL621:
 197:strong-arm\src\ripemd160/ripemd160.c **** 	III(eee, aaa, bbb, ccc, ddd, X[ 2], 11);
 2742              		.loc 1 197 0
 2743 0f58 1400     		movs	r4, r2
 2744 0f5a 4C40     		eors	r4, r1
 2745 0f5c 2C40     		ands	r4, r5
 2746 0f5e 5440     		eors	r4, r2
 2747 0f60 A446     		mov	ip, r4
 2748 0f62 029C     		ldr	r4, [sp, #8]
 2749 0f64 A246     		mov	r10, r4
 2750 0f66 D444     		add	ip, ip, r10
 2751 0f68 3400     		movs	r4, r6
 2752 0f6a 6444     		add	r4, r4, ip
 2753 0f6c 2600     		movs	r6, r4
 2754 0f6e CF4C     		ldr	r4, .L11
 2755 0f70 A446     		mov	ip, r4
 2756 0f72 3400     		movs	r4, r6
 2757 0f74 6444     		add	r4, r4, ip
 2758              	.LVL622:
 2759 0f76 1526     		movs	r6, #21
 2760 0f78 F441     		rors	r4, r4, r6
 2761              	.LVL623:
 2762 0f7a 109E     		ldr	r6, [sp, #64]
 2763 0f7c B446     		mov	ip, r6
 2764              	.LVL624:
 2765 0f7e 6444     		add	r4, r4, ip
 2766              	.LVL625:
 2767 0f80 DA41     		rors	r2, r2, r3
ARM GAS  C:\Users\Ray\AppData\Local\Temp\ccdgjwii.s 			page 53


 2768              	.LVL626:
 2769 0f82 0E92     		str	r2, [sp, #56]
 2770              	.LVL627:
 198:strong-arm\src\ripemd160/ripemd160.c **** 	
 199:strong-arm\src\ripemd160/ripemd160.c **** 	/* parallel round 3 */
 200:strong-arm\src\ripemd160/ripemd160.c **** 	HHH(ddd, eee, aaa, bbb, ccc, X[15],  9);
 2771              		.loc 1 200 0
 2772 0f84 CE43     		mvns	r6, r1
 2773 0f86 3200     		movs	r2, r6
 2774              	.LVL628:
 2775 0f88 2243     		orrs	r2, r4
 2776 0f8a 0E9E     		ldr	r6, [sp, #56]
 2777 0f8c 7240     		eors	r2, r6
 2778 0f8e 9446     		mov	ip, r2
 2779 0f90 0D9A     		ldr	r2, [sp, #52]
 2780 0f92 9246     		mov	r10, r2
 2781 0f94 D444     		add	ip, ip, r10
 2782 0f96 109E     		ldr	r6, [sp, #64]
 2783 0f98 6644     		add	r6, r6, ip
 2784 0f9a C54A     		ldr	r2, .L11+4
 2785 0f9c 9446     		mov	ip, r2
 2786 0f9e 6644     		add	r6, r6, ip
 2787              	.LVL629:
 2788 0fa0 1722     		movs	r2, #23
 2789 0fa2 D641     		rors	r6, r6, r2
 2790              	.LVL630:
 2791 0fa4 AE19     		adds	r6, r5, r6
 2792              	.LVL631:
 2793 0fa6 D941     		rors	r1, r1, r3
 2794              	.LVL632:
 201:strong-arm\src\ripemd160/ripemd160.c **** 	HHH(ccc, ddd, eee, aaa, bbb, X[ 5],  7);
 2795              		.loc 1 201 0
 2796 0fa8 E243     		mvns	r2, r4
 2797 0faa 3243     		orrs	r2, r6
 2798 0fac 4A40     		eors	r2, r1
 2799 0fae 9446     		mov	ip, r2
 2800 0fb0 059A     		ldr	r2, [sp, #20]
 2801 0fb2 9246     		mov	r10, r2
 2802 0fb4 D444     		add	ip, ip, r10
 2803 0fb6 6544     		add	r5, r5, ip
 2804              	.LVL633:
 2805 0fb8 BD4A     		ldr	r2, .L11+4
 2806 0fba 9446     		mov	ip, r2
 2807 0fbc 6544     		add	r5, r5, ip
 2808              	.LVL634:
 2809 0fbe 1922     		movs	r2, #25
 2810 0fc0 D541     		rors	r5, r5, r2
 2811              	.LVL635:
 2812 0fc2 0E9A     		ldr	r2, [sp, #56]
 2813 0fc4 9446     		mov	ip, r2
 2814 0fc6 6544     		add	r5, r5, ip
 2815              	.LVL636:
 2816 0fc8 DC41     		rors	r4, r4, r3
 2817              	.LVL637:
 202:strong-arm\src\ripemd160/ripemd160.c **** 	HHH(bbb, ccc, ddd, eee, aaa, X[ 1], 15);
 2818              		.loc 1 202 0
 2819 0fca F243     		mvns	r2, r6
ARM GAS  C:\Users\Ray\AppData\Local\Temp\ccdgjwii.s 			page 54


 2820 0fcc 2A43     		orrs	r2, r5
 2821 0fce 0F94     		str	r4, [sp, #60]
 2822 0fd0 6240     		eors	r2, r4
 2823 0fd2 9246     		mov	r10, r2
 2824 0fd4 019A     		ldr	r2, [sp, #4]
 2825 0fd6 9446     		mov	ip, r2
 2826 0fd8 E244     		add	r10, r10, ip
 2827 0fda 0E9A     		ldr	r2, [sp, #56]
 2828 0fdc 5244     		add	r2, r2, r10
 2829 0fde B44C     		ldr	r4, .L11+4
 2830              	.LVL638:
 2831 0fe0 A446     		mov	ip, r4
 2832 0fe2 6244     		add	r2, r2, ip
 2833              	.LVL639:
 2834 0fe4 1124     		movs	r4, #17
 2835 0fe6 E241     		rors	r2, r2, r4
 2836              	.LVL640:
 2837 0fe8 9246     		mov	r10, r2
 2838              	.LVL641:
 2839 0fea 8A44     		add	r10, r10, r1
 2840              	.LVL642:
 2841 0fec DE41     		rors	r6, r6, r3
 2842              	.LVL643:
 203:strong-arm\src\ripemd160/ripemd160.c **** 	HHH(aaa, bbb, ccc, ddd, eee, X[ 3], 11);
 2843              		.loc 1 203 0
 2844 0fee EA43     		mvns	r2, r5
 2845 0ff0 5446     		mov	r4, r10
 2846 0ff2 2243     		orrs	r2, r4
 2847 0ff4 1096     		str	r6, [sp, #64]
 2848 0ff6 7240     		eors	r2, r6
 2849 0ff8 039E     		ldr	r6, [sp, #12]
 2850              	.LVL644:
 2851 0ffa B446     		mov	ip, r6
 2852 0ffc 6244     		add	r2, r2, ip
 2853 0ffe 8918     		adds	r1, r1, r2
 2854              	.LVL645:
 2855 1000 AB4C     		ldr	r4, .L11+4
 2856 1002 A446     		mov	ip, r4
 2857 1004 6144     		add	r1, r1, ip
 2858              	.LVL646:
 2859 1006 1524     		movs	r4, #21
 2860 1008 E141     		rors	r1, r1, r4
 2861              	.LVL647:
 2862 100a 0F9A     		ldr	r2, [sp, #60]
 2863 100c 9446     		mov	ip, r2
 2864 100e 6144     		add	r1, r1, ip
 2865              	.LVL648:
 2866 1010 DD41     		rors	r5, r5, r3
 2867              	.LVL649:
 204:strong-arm\src\ripemd160/ripemd160.c **** 	HHH(eee, aaa, bbb, ccc, ddd, X[ 7],  8);
 2868              		.loc 1 204 0
 2869 1012 5446     		mov	r4, r10
 2870 1014 E243     		mvns	r2, r4
 2871 1016 0A43     		orrs	r2, r1
 2872 1018 6A40     		eors	r2, r5
 2873 101a 079E     		ldr	r6, [sp, #28]
 2874 101c B446     		mov	ip, r6
ARM GAS  C:\Users\Ray\AppData\Local\Temp\ccdgjwii.s 			page 55


 2875 101e 6244     		add	r2, r2, ip
 2876 1020 0F9E     		ldr	r6, [sp, #60]
 2877 1022 B446     		mov	ip, r6
 2878 1024 6244     		add	r2, r2, ip
 2879 1026 A24C     		ldr	r4, .L11+4
 2880 1028 A446     		mov	ip, r4
 2881 102a 6244     		add	r2, r2, ip
 2882              	.LVL650:
 2883 102c 1824     		movs	r4, #24
 2884 102e E241     		rors	r2, r2, r4
 2885              	.LVL651:
 2886 1030 109C     		ldr	r4, [sp, #64]
 2887 1032 A446     		mov	ip, r4
 2888              	.LVL652:
 2889 1034 6244     		add	r2, r2, ip
 2890 1036 0E92     		str	r2, [sp, #56]
 2891              	.LVL653:
 2892 1038 5446     		mov	r4, r10
 2893 103a DC41     		rors	r4, r4, r3
 2894              	.LVL654:
 205:strong-arm\src\ripemd160/ripemd160.c **** 	HHH(ddd, eee, aaa, bbb, ccc, X[14],  6);
 2895              		.loc 1 205 0
 2896 103c 0A00     		movs	r2, r1
 2897              	.LVL655:
 2898 103e CE43     		mvns	r6, r1
 2899 1040 0E99     		ldr	r1, [sp, #56]
 2900              	.LVL656:
 2901 1042 0E43     		orrs	r6, r1
 2902 1044 6640     		eors	r6, r4
 2903 1046 B446     		mov	ip, r6
 2904 1048 0C9E     		ldr	r6, [sp, #48]
 2905 104a B246     		mov	r10, r6
 2906 104c D444     		add	ip, ip, r10
 2907 104e 1099     		ldr	r1, [sp, #64]
 2908 1050 6144     		add	r1, r1, ip
 2909 1052 0E00     		movs	r6, r1
 2910 1054 9649     		ldr	r1, .L11+4
 2911 1056 8C46     		mov	ip, r1
 2912 1058 6644     		add	r6, r6, ip
 2913              	.LVL657:
 2914 105a 5946     		mov	r1, fp
 2915 105c CE41     		rors	r6, r6, r1
 2916              	.LVL658:
 2917 105e AE19     		adds	r6, r5, r6
 2918              	.LVL659:
 2919 1060 DA41     		rors	r2, r2, r3
 2920              	.LVL660:
 206:strong-arm\src\ripemd160/ripemd160.c **** 	HHH(ccc, ddd, eee, aaa, bbb, X[ 6],  6);
 2921              		.loc 1 206 0
 2922 1062 0E99     		ldr	r1, [sp, #56]
 2923 1064 C943     		mvns	r1, r1
 2924 1066 3143     		orrs	r1, r6
 2925 1068 0F92     		str	r2, [sp, #60]
 2926 106a 5140     		eors	r1, r2
 2927 106c 8C46     		mov	ip, r1
 2928 106e 0699     		ldr	r1, [sp, #24]
 2929 1070 8A46     		mov	r10, r1
ARM GAS  C:\Users\Ray\AppData\Local\Temp\ccdgjwii.s 			page 56


 2930 1072 D444     		add	ip, ip, r10
 2931 1074 6544     		add	r5, r5, ip
 2932              	.LVL661:
 2933 1076 8E49     		ldr	r1, .L11+4
 2934 1078 8C46     		mov	ip, r1
 2935 107a 6544     		add	r5, r5, ip
 2936              	.LVL662:
 2937 107c 5946     		mov	r1, fp
 2938 107e CD41     		rors	r5, r5, r1
 2939              	.LVL663:
 2940 1080 6519     		adds	r5, r4, r5
 2941              	.LVL664:
 2942 1082 0E9A     		ldr	r2, [sp, #56]
 2943              	.LVL665:
 2944 1084 DA41     		rors	r2, r2, r3
 2945              	.LVL666:
 207:strong-arm\src\ripemd160/ripemd160.c **** 	HHH(bbb, ccc, ddd, eee, aaa, X[ 9], 14);
 2946              		.loc 1 207 0
 2947 1086 F143     		mvns	r1, r6
 2948 1088 2943     		orrs	r1, r5
 2949 108a 5140     		eors	r1, r2
 2950 108c 8C46     		mov	ip, r1
 2951 108e C444     		add	ip, ip, r8
 2952 1090 6444     		add	r4, r4, ip
 2953              	.LVL667:
 2954 1092 8749     		ldr	r1, .L11+4
 2955 1094 8C46     		mov	ip, r1
 2956 1096 6444     		add	r4, r4, ip
 2957              	.LVL668:
 2958 1098 1221     		movs	r1, #18
 2959 109a CC41     		rors	r4, r4, r1
 2960              	.LVL669:
 2961 109c 0F99     		ldr	r1, [sp, #60]
 2962 109e 8C46     		mov	ip, r1
 2963 10a0 6444     		add	r4, r4, ip
 2964              	.LVL670:
 2965 10a2 DE41     		rors	r6, r6, r3
 2966              	.LVL671:
 208:strong-arm\src\ripemd160/ripemd160.c **** 	HHH(aaa, bbb, ccc, ddd, eee, X[11], 12);
 2967              		.loc 1 208 0
 2968 10a4 E943     		mvns	r1, r5
 2969 10a6 0E94     		str	r4, [sp, #56]
 2970 10a8 2143     		orrs	r1, r4
 2971 10aa 7140     		eors	r1, r6
 2972 10ac 8C46     		mov	ip, r1
 2973 10ae BC44     		add	ip, ip, r7
 2974 10b0 0F99     		ldr	r1, [sp, #60]
 2975 10b2 6144     		add	r1, r1, ip
 2976 10b4 7E4C     		ldr	r4, .L11+4
 2977              	.LVL672:
 2978 10b6 A446     		mov	ip, r4
 2979 10b8 6144     		add	r1, r1, ip
 2980              	.LVL673:
 2981 10ba 4C46     		mov	r4, r9
 2982 10bc E141     		rors	r1, r1, r4
 2983              	.LVL674:
 2984 10be 5118     		adds	r1, r2, r1
ARM GAS  C:\Users\Ray\AppData\Local\Temp\ccdgjwii.s 			page 57


 2985              	.LVL675:
 2986 10c0 DD41     		rors	r5, r5, r3
 2987              	.LVL676:
 2988 10c2 0F95     		str	r5, [sp, #60]
 2989              	.LVL677:
 209:strong-arm\src\ripemd160/ripemd160.c **** 	HHH(eee, aaa, bbb, ccc, ddd, X[ 8], 13);
 2990              		.loc 1 209 0
 2991 10c4 0E9C     		ldr	r4, [sp, #56]
 2992 10c6 E443     		mvns	r4, r4
 2993 10c8 2500     		movs	r5, r4
 2994              	.LVL678:
 2995 10ca 0D43     		orrs	r5, r1
 2996 10cc 0F9C     		ldr	r4, [sp, #60]
 2997 10ce 6540     		eors	r5, r4
 2998 10d0 AC46     		mov	ip, r5
 2999 10d2 089D     		ldr	r5, [sp, #32]
 3000 10d4 AA46     		mov	r10, r5
 3001 10d6 D444     		add	ip, ip, r10
 3002 10d8 6244     		add	r2, r2, ip
 3003              	.LVL679:
 3004 10da 754C     		ldr	r4, .L11+4
 3005 10dc A446     		mov	ip, r4
 3006 10de 6244     		add	r2, r2, ip
 3007              	.LVL680:
 3008 10e0 1324     		movs	r4, #19
 3009 10e2 E241     		rors	r2, r2, r4
 3010              	.LVL681:
 3011 10e4 B218     		adds	r2, r6, r2
 3012              	.LVL682:
 3013 10e6 0E9C     		ldr	r4, [sp, #56]
 3014 10e8 DC41     		rors	r4, r4, r3
 3015 10ea 2500     		movs	r5, r4
 3016              	.LVL683:
 210:strong-arm\src\ripemd160/ripemd160.c **** 	HHH(ddd, eee, aaa, bbb, ccc, X[12],  5);
 3017              		.loc 1 210 0
 3018 10ec CC43     		mvns	r4, r1
 3019              	.LVL684:
 3020 10ee 1443     		orrs	r4, r2
 3021 10f0 1095     		str	r5, [sp, #64]
 3022 10f2 6C40     		eors	r4, r5
 3023 10f4 A446     		mov	ip, r4
 3024 10f6 0A9C     		ldr	r4, [sp, #40]
 3025 10f8 A246     		mov	r10, r4
 3026 10fa D444     		add	ip, ip, r10
 3027 10fc 6644     		add	r6, r6, ip
 3028              	.LVL685:
 3029 10fe 6C4C     		ldr	r4, .L11+4
 3030 1100 A446     		mov	ip, r4
 3031 1102 6644     		add	r6, r6, ip
 3032              	.LVL686:
 3033 1104 1B24     		movs	r4, #27
 3034 1106 0E94     		str	r4, [sp, #56]
 3035 1108 E641     		rors	r6, r6, r4
 3036              	.LVL687:
 3037 110a 0F9C     		ldr	r4, [sp, #60]
 3038 110c A446     		mov	ip, r4
 3039 110e 6644     		add	r6, r6, ip
ARM GAS  C:\Users\Ray\AppData\Local\Temp\ccdgjwii.s 			page 58


 3040              	.LVL688:
 3041 1110 D941     		rors	r1, r1, r3
 3042              	.LVL689:
 211:strong-arm\src\ripemd160/ripemd160.c **** 	HHH(ccc, ddd, eee, aaa, bbb, X[ 2], 14);
 3043              		.loc 1 211 0
 3044 1112 D443     		mvns	r4, r2
 3045 1114 3443     		orrs	r4, r6
 3046 1116 4C40     		eors	r4, r1
 3047 1118 A446     		mov	ip, r4
 3048 111a 029D     		ldr	r5, [sp, #8]
 3049              	.LVL690:
 3050 111c AA46     		mov	r10, r5
 3051 111e D444     		add	ip, ip, r10
 3052 1120 0F9D     		ldr	r5, [sp, #60]
 3053 1122 6544     		add	r5, r5, ip
 3054 1124 624C     		ldr	r4, .L11+4
 3055 1126 A446     		mov	ip, r4
 3056 1128 6544     		add	r5, r5, ip
 3057              	.LVL691:
 3058 112a 1224     		movs	r4, #18
 3059 112c E541     		rors	r5, r5, r4
 3060              	.LVL692:
 3061 112e 109C     		ldr	r4, [sp, #64]
 3062 1130 A446     		mov	ip, r4
 3063              	.LVL693:
 3064 1132 6544     		add	r5, r5, ip
 3065              	.LVL694:
 3066 1134 1400     		movs	r4, r2
 3067 1136 DC41     		rors	r4, r4, r3
 3068 1138 A446     		mov	ip, r4
 3069              	.LVL695:
 212:strong-arm\src\ripemd160/ripemd160.c **** 	HHH(bbb, ccc, ddd, eee, aaa, X[10], 13);
 3070              		.loc 1 212 0
 3071 113a F243     		mvns	r2, r6
 3072 113c 2A43     		orrs	r2, r5
 3073 113e 6240     		eors	r2, r4
 3074 1140 099C     		ldr	r4, [sp, #36]
 3075              	.LVL696:
 3076 1142 A246     		mov	r10, r4
 3077 1144 5244     		add	r2, r2, r10
 3078 1146 109C     		ldr	r4, [sp, #64]
 3079 1148 A418     		adds	r4, r4, r2
 3080 114a 594A     		ldr	r2, .L11+4
 3081 114c 9246     		mov	r10, r2
 3082 114e 5444     		add	r4, r4, r10
 3083              	.LVL697:
 3084 1150 1322     		movs	r2, #19
 3085 1152 D441     		rors	r4, r4, r2
 3086              	.LVL698:
 3087 1154 0C19     		adds	r4, r1, r4
 3088              	.LVL699:
 3089 1156 DE41     		rors	r6, r6, r3
 3090              	.LVL700:
 213:strong-arm\src\ripemd160/ripemd160.c **** 	HHH(aaa, bbb, ccc, ddd, eee, X[ 0], 13);
 3091              		.loc 1 213 0
 3092 1158 EA43     		mvns	r2, r5
 3093 115a 2243     		orrs	r2, r4
ARM GAS  C:\Users\Ray\AppData\Local\Temp\ccdgjwii.s 			page 59


 3094 115c 0F96     		str	r6, [sp, #60]
 3095 115e 7240     		eors	r2, r6
 3096 1160 009E     		ldr	r6, [sp]
 3097              	.LVL701:
 3098 1162 B246     		mov	r10, r6
 3099 1164 5244     		add	r2, r2, r10
 3100 1166 8918     		adds	r1, r1, r2
 3101              	.LVL702:
 3102 1168 514E     		ldr	r6, .L11+4
 3103 116a B246     		mov	r10, r6
 3104 116c 5144     		add	r1, r1, r10
 3105              	.LVL703:
 3106 116e 1326     		movs	r6, #19
 3107 1170 F141     		rors	r1, r1, r6
 3108              	.LVL704:
 3109 1172 6144     		add	r1, r1, ip
 3110              	.LVL705:
 3111 1174 DD41     		rors	r5, r5, r3
 3112              	.LVL706:
 214:strong-arm\src\ripemd160/ripemd160.c **** 	HHH(eee, aaa, bbb, ccc, ddd, X[ 4],  7);
 3113              		.loc 1 214 0
 3114 1176 E243     		mvns	r2, r4
 3115 1178 0A43     		orrs	r2, r1
 3116 117a 6A40     		eors	r2, r5
 3117 117c 049E     		ldr	r6, [sp, #16]
 3118 117e B246     		mov	r10, r6
 3119 1180 5244     		add	r2, r2, r10
 3120 1182 6244     		add	r2, r2, ip
 3121 1184 4A4E     		ldr	r6, .L11+4
 3122 1186 B446     		mov	ip, r6
 3123              	.LVL707:
 3124 1188 6244     		add	r2, r2, ip
 3125              	.LVL708:
 3126 118a 1926     		movs	r6, #25
 3127 118c F241     		rors	r2, r2, r6
 3128              	.LVL709:
 3129 118e 0F9E     		ldr	r6, [sp, #60]
 3130 1190 B446     		mov	ip, r6
 3131 1192 6244     		add	r2, r2, ip
 3132              	.LVL710:
 3133 1194 DC41     		rors	r4, r4, r3
 3134              	.LVL711:
 3135 1196 2600     		movs	r6, r4
 3136              	.LVL712:
 215:strong-arm\src\ripemd160/ripemd160.c **** 	HHH(ddd, eee, aaa, bbb, ccc, X[13],  5);
 3137              		.loc 1 215 0
 3138 1198 CC43     		mvns	r4, r1
 3139              	.LVL713:
 3140 119a 1443     		orrs	r4, r2
 3141 119c 1096     		str	r6, [sp, #64]
 3142 119e 7440     		eors	r4, r6
 3143 11a0 A446     		mov	ip, r4
 3144 11a2 0B9C     		ldr	r4, [sp, #44]
 3145 11a4 A246     		mov	r10, r4
 3146 11a6 D444     		add	ip, ip, r10
 3147 11a8 0F9E     		ldr	r6, [sp, #60]
 3148              	.LVL714:
ARM GAS  C:\Users\Ray\AppData\Local\Temp\ccdgjwii.s 			page 60


 3149 11aa 6644     		add	r6, r6, ip
 3150 11ac 404C     		ldr	r4, .L11+4
 3151 11ae A446     		mov	ip, r4
 3152 11b0 6644     		add	r6, r6, ip
 3153              	.LVL715:
 3154 11b2 1B24     		movs	r4, #27
 3155 11b4 E641     		rors	r6, r6, r4
 3156              	.LVL716:
 3157 11b6 AE19     		adds	r6, r5, r6
 3158              	.LVL717:
 3159 11b8 D941     		rors	r1, r1, r3
 3160              	.LVL718:
 216:strong-arm\src\ripemd160/ripemd160.c **** 	
 217:strong-arm\src\ripemd160/ripemd160.c **** 	/* parallel round 4 */   
 218:strong-arm\src\ripemd160/ripemd160.c **** 	GGG(ccc, ddd, eee, aaa, bbb, X[ 8], 15);
 3161              		.loc 1 218 0
 3162 11ba 1400     		movs	r4, r2
 3163 11bc 4C40     		eors	r4, r1
 3164 11be 3440     		ands	r4, r6
 3165 11c0 0F91     		str	r1, [sp, #60]
 3166 11c2 4C40     		eors	r4, r1
 3167 11c4 A446     		mov	ip, r4
 3168 11c6 089C     		ldr	r4, [sp, #32]
 3169 11c8 A246     		mov	r10, r4
 3170 11ca D444     		add	ip, ip, r10
 3171 11cc 6544     		add	r5, r5, ip
 3172              	.LVL719:
 3173 11ce 394C     		ldr	r4, .L11+8
 3174 11d0 A446     		mov	ip, r4
 3175 11d2 6544     		add	r5, r5, ip
 3176              	.LVL720:
 3177 11d4 1124     		movs	r4, #17
 3178 11d6 E541     		rors	r5, r5, r4
 3179              	.LVL721:
 3180 11d8 1099     		ldr	r1, [sp, #64]
 3181              	.LVL722:
 3182 11da 8C46     		mov	ip, r1
 3183 11dc 6544     		add	r5, r5, ip
 3184              	.LVL723:
 3185 11de DA41     		rors	r2, r2, r3
 3186              	.LVL724:
 219:strong-arm\src\ripemd160/ripemd160.c **** 	GGG(bbb, ccc, ddd, eee, aaa, X[ 6],  5);
 3187              		.loc 1 219 0
 3188 11e0 3400     		movs	r4, r6
 3189 11e2 5440     		eors	r4, r2
 3190 11e4 2C40     		ands	r4, r5
 3191 11e6 5440     		eors	r4, r2
 3192 11e8 A446     		mov	ip, r4
 3193 11ea 069C     		ldr	r4, [sp, #24]
 3194 11ec A246     		mov	r10, r4
 3195 11ee D444     		add	ip, ip, r10
 3196 11f0 0C00     		movs	r4, r1
 3197 11f2 6444     		add	r4, r4, ip
 3198 11f4 2F49     		ldr	r1, .L11+8
 3199 11f6 8C46     		mov	ip, r1
 3200 11f8 6444     		add	r4, r4, ip
 3201              	.LVL725:
ARM GAS  C:\Users\Ray\AppData\Local\Temp\ccdgjwii.s 			page 61


 3202 11fa 1B21     		movs	r1, #27
 3203 11fc CC41     		rors	r4, r4, r1
 3204              	.LVL726:
 3205 11fe 0F99     		ldr	r1, [sp, #60]
 3206 1200 8C46     		mov	ip, r1
 3207              	.LVL727:
 3208 1202 6444     		add	r4, r4, ip
 3209 1204 2100     		movs	r1, r4
 3210              	.LVL728:
 3211 1206 DE41     		rors	r6, r6, r3
 3212              	.LVL729:
 220:strong-arm\src\ripemd160/ripemd160.c **** 	GGG(aaa, bbb, ccc, ddd, eee, X[ 4],  8);
 3213              		.loc 1 220 0
 3214 1208 2C00     		movs	r4, r5
 3215 120a 7440     		eors	r4, r6
 3216 120c 1091     		str	r1, [sp, #64]
 3217 120e 0C40     		ands	r4, r1
 3218 1210 7440     		eors	r4, r6
 3219 1212 A446     		mov	ip, r4
 3220 1214 049C     		ldr	r4, [sp, #16]
 3221 1216 A246     		mov	r10, r4
 3222 1218 D444     		add	ip, ip, r10
 3223 121a 0F99     		ldr	r1, [sp, #60]
 3224              	.LVL730:
 3225 121c 6144     		add	r1, r1, ip
 3226 121e 254C     		ldr	r4, .L11+8
 3227 1220 A446     		mov	ip, r4
 3228 1222 6144     		add	r1, r1, ip
 3229              	.LVL731:
 3230 1224 1824     		movs	r4, #24
 3231 1226 E141     		rors	r1, r1, r4
 3232              	.LVL732:
 3233 1228 5118     		adds	r1, r2, r1
 3234              	.LVL733:
 3235 122a DD41     		rors	r5, r5, r3
 3236              	.LVL734:
 221:strong-arm\src\ripemd160/ripemd160.c **** 	GGG(eee, aaa, bbb, ccc, ddd, X[ 1], 11);
 3237              		.loc 1 221 0
 3238 122c 109C     		ldr	r4, [sp, #64]
 3239 122e 6C40     		eors	r4, r5
 3240 1230 0C40     		ands	r4, r1
 3241 1232 6C40     		eors	r4, r5
 3242 1234 A446     		mov	ip, r4
 3243 1236 019C     		ldr	r4, [sp, #4]
 3244 1238 A246     		mov	r10, r4
 3245 123a D444     		add	ip, ip, r10
 3246 123c 6244     		add	r2, r2, ip
 3247              	.LVL735:
 3248 123e 1D4C     		ldr	r4, .L11+8
 3249 1240 A446     		mov	ip, r4
 3250 1242 6244     		add	r2, r2, ip
 3251              	.LVL736:
 3252 1244 1524     		movs	r4, #21
 3253 1246 E241     		rors	r2, r2, r4
 3254              	.LVL737:
 3255 1248 9446     		mov	ip, r2
 3256 124a B444     		add	ip, ip, r6
ARM GAS  C:\Users\Ray\AppData\Local\Temp\ccdgjwii.s 			page 62


 3257              	.LVL738:
 3258 124c 109C     		ldr	r4, [sp, #64]
 3259 124e DC41     		rors	r4, r4, r3
 3260              	.LVL739:
 222:strong-arm\src\ripemd160/ripemd160.c **** 	GGG(ddd, eee, aaa, bbb, ccc, X[ 3], 14);
 3261              		.loc 1 222 0
 3262 1250 0F91     		str	r1, [sp, #60]
 3263 1252 0A00     		movs	r2, r1
 3264 1254 6240     		eors	r2, r4
 3265 1256 6146     		mov	r1, ip
 3266              	.LVL740:
 3267 1258 0A40     		ands	r2, r1
 3268 125a 6240     		eors	r2, r4
 3269 125c 1100     		movs	r1, r2
 3270 125e 039A     		ldr	r2, [sp, #12]
 3271 1260 9246     		mov	r10, r2
 3272 1262 0A00     		movs	r2, r1
 3273 1264 5244     		add	r2, r2, r10
 3274 1266 B218     		adds	r2, r6, r2
 3275 1268 1249     		ldr	r1, .L11+8
 3276 126a 8A46     		mov	r10, r1
 3277 126c 5244     		add	r2, r2, r10
 3278              	.LVL741:
 3279 126e 1221     		movs	r1, #18
 3280 1270 CA41     		rors	r2, r2, r1
 3281              	.LVL742:
 3282 1272 AA18     		adds	r2, r5, r2
 3283              	.LVL743:
 3284 1274 0F9E     		ldr	r6, [sp, #60]
 3285 1276 DE41     		rors	r6, r6, r3
 3286              	.LVL744:
 223:strong-arm\src\ripemd160/ripemd160.c **** 	GGG(ccc, ddd, eee, aaa, bbb, X[11], 14);
 3287              		.loc 1 223 0
 3288 1278 6146     		mov	r1, ip
 3289 127a 0F96     		str	r6, [sp, #60]
 3290 127c 7140     		eors	r1, r6
 3291 127e 0E00     		movs	r6, r1
 3292              	.LVL745:
 3293 1280 1640     		ands	r6, r2
 3294 1282 0F99     		ldr	r1, [sp, #60]
 3295 1284 4E40     		eors	r6, r1
 3296 1286 BE19     		adds	r6, r7, r6
 3297 1288 AE19     		adds	r6, r5, r6
 3298 128a 5644     		add	r6, r6, r10
 3299              	.LVL746:
 3300 128c 1221     		movs	r1, #18
 3301 128e CE41     		rors	r6, r6, r1
 3302              	.LVL747:
 3303 1290 A619     		adds	r6, r4, r6
 3304              	.LVL748:
 3305 1292 6146     		mov	r1, ip
 3306 1294 D941     		rors	r1, r1, r3
 3307 1296 8C46     		mov	ip, r1
 3308              	.LVL749:
 224:strong-arm\src\ripemd160/ripemd160.c **** 	GGG(bbb, ccc, ddd, eee, aaa, X[15],  6);
 3309              		.loc 1 224 0
 3310 1298 5140     		eors	r1, r2
ARM GAS  C:\Users\Ray\AppData\Local\Temp\ccdgjwii.s 			page 63


 3311              	.LVL750:
 3312 129a 0D00     		movs	r5, r1
 3313 129c 3540     		ands	r5, r6
 3314 129e 6146     		mov	r1, ip
 3315 12a0 4D40     		eors	r5, r1
 3316 12a2 0D99     		ldr	r1, [sp, #52]
 3317 12a4 8A46     		mov	r10, r1
 3318 12a6 5544     		add	r5, r5, r10
 3319 12a8 6519     		adds	r5, r4, r5
 3320 12aa 05E0     		b	.L12
 3321              	.L13:
 3322              		.align	2
 3323              	.L11:
 3324 12ac 24D14D5C 		.word	1548603684
 3325 12b0 F33E706D 		.word	1836072691
 3326 12b4 E9766D7A 		.word	2053994217
 3327              	.L12:
 3328 12b8 D949     		ldr	r1, .L14
 3329 12ba 8A46     		mov	r10, r1
 3330 12bc 5544     		add	r5, r5, r10
 3331              	.LVL751:
 3332 12be 5946     		mov	r1, fp
 3333 12c0 CD41     		rors	r5, r5, r1
 3334              	.LVL752:
 3335 12c2 0F99     		ldr	r1, [sp, #60]
 3336 12c4 8A46     		mov	r10, r1
 3337              	.LVL753:
 3338 12c6 5544     		add	r5, r5, r10
 3339              	.LVL754:
 3340 12c8 DA41     		rors	r2, r2, r3
 3341              	.LVL755:
 225:strong-arm\src\ripemd160/ripemd160.c **** 	GGG(aaa, bbb, ccc, ddd, eee, X[ 0], 14);
 3342              		.loc 1 225 0
 3343 12ca 3100     		movs	r1, r6
 3344 12cc 5140     		eors	r1, r2
 3345 12ce 0C00     		movs	r4, r1
 3346 12d0 2C40     		ands	r4, r5
 3347 12d2 1092     		str	r2, [sp, #64]
 3348 12d4 5440     		eors	r4, r2
 3349 12d6 009A     		ldr	r2, [sp]
 3350              	.LVL756:
 3351 12d8 9246     		mov	r10, r2
 3352 12da 5444     		add	r4, r4, r10
 3353 12dc 0F9A     		ldr	r2, [sp, #60]
 3354 12de 1119     		adds	r1, r2, r4
 3355 12e0 CF4C     		ldr	r4, .L14
 3356 12e2 A246     		mov	r10, r4
 3357 12e4 5144     		add	r1, r1, r10
 3358              	.LVL757:
 3359 12e6 1224     		movs	r4, #18
 3360 12e8 E141     		rors	r1, r1, r4
 3361              	.LVL758:
 3362 12ea 6144     		add	r1, r1, ip
 3363              	.LVL759:
 3364 12ec DE41     		rors	r6, r6, r3
 3365              	.LVL760:
 3366 12ee 3200     		movs	r2, r6
ARM GAS  C:\Users\Ray\AppData\Local\Temp\ccdgjwii.s 			page 64


 3367              	.LVL761:
 226:strong-arm\src\ripemd160/ripemd160.c **** 	GGG(eee, aaa, bbb, ccc, ddd, X[ 5],  6);
 3368              		.loc 1 226 0
 3369 12f0 2E00     		movs	r6, r5
 3370 12f2 5640     		eors	r6, r2
 3371 12f4 3400     		movs	r4, r6
 3372 12f6 0C40     		ands	r4, r1
 3373 12f8 0F92     		str	r2, [sp, #60]
 3374 12fa 5440     		eors	r4, r2
 3375 12fc 059E     		ldr	r6, [sp, #20]
 3376 12fe B246     		mov	r10, r6
 3377 1300 5444     		add	r4, r4, r10
 3378 1302 6444     		add	r4, r4, ip
 3379 1304 C64E     		ldr	r6, .L14
 3380 1306 B446     		mov	ip, r6
 3381              	.LVL762:
 3382 1308 6444     		add	r4, r4, ip
 3383              	.LVL763:
 3384 130a 5E46     		mov	r6, fp
 3385 130c F441     		rors	r4, r4, r6
 3386              	.LVL764:
 3387 130e 109A     		ldr	r2, [sp, #64]
 3388              	.LVL765:
 3389 1310 9446     		mov	ip, r2
 3390 1312 6444     		add	r4, r4, ip
 3391              	.LVL766:
 3392 1314 DD41     		rors	r5, r5, r3
 3393              	.LVL767:
 227:strong-arm\src\ripemd160/ripemd160.c **** 	GGG(ddd, eee, aaa, bbb, ccc, X[12],  9);
 3394              		.loc 1 227 0
 3395 1316 0A00     		movs	r2, r1
 3396 1318 6A40     		eors	r2, r5
 3397 131a 2240     		ands	r2, r4
 3398 131c 6A40     		eors	r2, r5
 3399 131e 9446     		mov	ip, r2
 3400 1320 0A9E     		ldr	r6, [sp, #40]
 3401 1322 B246     		mov	r10, r6
 3402 1324 D444     		add	ip, ip, r10
 3403 1326 109A     		ldr	r2, [sp, #64]
 3404 1328 6244     		add	r2, r2, ip
 3405 132a BD4E     		ldr	r6, .L14
 3406 132c B446     		mov	ip, r6
 3407 132e 6244     		add	r2, r2, ip
 3408              	.LVL768:
 3409 1330 1726     		movs	r6, #23
 3410 1332 F241     		rors	r2, r2, r6
 3411              	.LVL769:
 3412 1334 0F9E     		ldr	r6, [sp, #60]
 3413 1336 B246     		mov	r10, r6
 3414 1338 5244     		add	r2, r2, r10
 3415              	.LVL770:
 3416 133a D941     		rors	r1, r1, r3
 3417              	.LVL771:
 3418 133c 8C46     		mov	ip, r1
 3419              	.LVL772:
 228:strong-arm\src\ripemd160/ripemd160.c **** 	GGG(ccc, ddd, eee, aaa, bbb, X[ 2], 12);
 3420              		.loc 1 228 0
ARM GAS  C:\Users\Ray\AppData\Local\Temp\ccdgjwii.s 			page 65


 3421 133e 6140     		eors	r1, r4
 3422              	.LVL773:
 3423 1340 1140     		ands	r1, r2
 3424 1342 6646     		mov	r6, ip
 3425 1344 7140     		eors	r1, r6
 3426 1346 029E     		ldr	r6, [sp, #8]
 3427 1348 B246     		mov	r10, r6
 3428 134a 5144     		add	r1, r1, r10
 3429 134c 0F9E     		ldr	r6, [sp, #60]
 3430 134e B246     		mov	r10, r6
 3431 1350 5144     		add	r1, r1, r10
 3432 1352 B34E     		ldr	r6, .L14
 3433 1354 B246     		mov	r10, r6
 3434 1356 5144     		add	r1, r1, r10
 3435              	.LVL774:
 3436 1358 4E46     		mov	r6, r9
 3437 135a F141     		rors	r1, r1, r6
 3438              	.LVL775:
 3439 135c 6918     		adds	r1, r5, r1
 3440 135e 8A46     		mov	r10, r1
 3441              	.LVL776:
 3442 1360 DC41     		rors	r4, r4, r3
 3443              	.LVL777:
 3444 1362 0F94     		str	r4, [sp, #60]
 3445              	.LVL778:
 229:strong-arm\src\ripemd160/ripemd160.c **** 	GGG(bbb, ccc, ddd, eee, aaa, X[13],  9);
 3446              		.loc 1 229 0
 3447 1364 1100     		movs	r1, r2
 3448              	.LVL779:
 3449 1366 6140     		eors	r1, r4
 3450 1368 0E00     		movs	r6, r1
 3451 136a 5446     		mov	r4, r10
 3452              	.LVL780:
 3453 136c 2640     		ands	r6, r4
 3454 136e 0F99     		ldr	r1, [sp, #60]
 3455 1370 4E40     		eors	r6, r1
 3456 1372 0B99     		ldr	r1, [sp, #44]
 3457 1374 8A46     		mov	r10, r1
 3458              	.LVL781:
 3459 1376 5644     		add	r6, r6, r10
 3460 1378 AD19     		adds	r5, r5, r6
 3461              	.LVL782:
 3462 137a A949     		ldr	r1, .L14
 3463 137c 8A46     		mov	r10, r1
 3464 137e 5544     		add	r5, r5, r10
 3465              	.LVL783:
 3466 1380 1721     		movs	r1, #23
 3467 1382 CD41     		rors	r5, r5, r1
 3468              	.LVL784:
 3469 1384 6544     		add	r5, r5, ip
 3470              	.LVL785:
 3471 1386 1100     		movs	r1, r2
 3472 1388 D941     		rors	r1, r1, r3
 3473 138a 0E00     		movs	r6, r1
 3474              	.LVL786:
 230:strong-arm\src\ripemd160/ripemd160.c **** 	GGG(aaa, bbb, ccc, ddd, eee, X[ 9], 12);
 3475              		.loc 1 230 0
ARM GAS  C:\Users\Ray\AppData\Local\Temp\ccdgjwii.s 			page 66


 3476 138c 2100     		movs	r1, r4
 3477              	.LVL787:
 3478 138e 7140     		eors	r1, r6
 3479 1390 0A00     		movs	r2, r1
 3480 1392 2A40     		ands	r2, r5
 3481 1394 7240     		eors	r2, r6
 3482 1396 4244     		add	r2, r2, r8
 3483 1398 6244     		add	r2, r2, ip
 3484 139a 5244     		add	r2, r2, r10
 3485              	.LVL788:
 3486 139c 4946     		mov	r1, r9
 3487 139e CA41     		rors	r2, r2, r1
 3488              	.LVL789:
 3489 13a0 0F99     		ldr	r1, [sp, #60]
 3490 13a2 8C46     		mov	ip, r1
 3491              	.LVL790:
 3492 13a4 6244     		add	r2, r2, ip
 3493              	.LVL791:
 3494 13a6 DC41     		rors	r4, r4, r3
 3495              	.LVL792:
 231:strong-arm\src\ripemd160/ripemd160.c **** 	GGG(eee, aaa, bbb, ccc, ddd, X[ 7],  5);
 3496              		.loc 1 231 0
 3497 13a8 2900     		movs	r1, r5
 3498 13aa 6140     		eors	r1, r4
 3499 13ac 1140     		ands	r1, r2
 3500 13ae 1094     		str	r4, [sp, #64]
 3501 13b0 6140     		eors	r1, r4
 3502 13b2 8C46     		mov	ip, r1
 3503 13b4 0799     		ldr	r1, [sp, #28]
 3504 13b6 8A46     		mov	r10, r1
 3505 13b8 D444     		add	ip, ip, r10
 3506 13ba 0F99     		ldr	r1, [sp, #60]
 3507 13bc 6144     		add	r1, r1, ip
 3508 13be 0C00     		movs	r4, r1
 3509              	.LVL793:
 3510 13c0 9749     		ldr	r1, .L14
 3511 13c2 8C46     		mov	ip, r1
 3512 13c4 6444     		add	r4, r4, ip
 3513              	.LVL794:
 3514 13c6 1B21     		movs	r1, #27
 3515 13c8 CC41     		rors	r4, r4, r1
 3516              	.LVL795:
 3517 13ca 3419     		adds	r4, r6, r4
 3518              	.LVL796:
 3519 13cc DD41     		rors	r5, r5, r3
 3520              	.LVL797:
 232:strong-arm\src\ripemd160/ripemd160.c **** 	GGG(ddd, eee, aaa, bbb, ccc, X[10], 15);
 3521              		.loc 1 232 0
 3522 13ce 1100     		movs	r1, r2
 3523 13d0 6940     		eors	r1, r5
 3524 13d2 2140     		ands	r1, r4
 3525 13d4 0F95     		str	r5, [sp, #60]
 3526 13d6 6940     		eors	r1, r5
 3527 13d8 8C46     		mov	ip, r1
 3528 13da 0999     		ldr	r1, [sp, #36]
 3529 13dc 8A46     		mov	r10, r1
 3530 13de D444     		add	ip, ip, r10
ARM GAS  C:\Users\Ray\AppData\Local\Temp\ccdgjwii.s 			page 67


 3531 13e0 6644     		add	r6, r6, ip
 3532              	.LVL798:
 3533 13e2 8F4D     		ldr	r5, .L14
 3534              	.LVL799:
 3535 13e4 AC46     		mov	ip, r5
 3536 13e6 6644     		add	r6, r6, ip
 3537              	.LVL800:
 3538 13e8 1125     		movs	r5, #17
 3539 13ea EE41     		rors	r6, r6, r5
 3540              	.LVL801:
 3541 13ec 1099     		ldr	r1, [sp, #64]
 3542 13ee 8C46     		mov	ip, r1
 3543 13f0 6644     		add	r6, r6, ip
 3544              	.LVL802:
 3545 13f2 DA41     		rors	r2, r2, r3
 3546              	.LVL803:
 233:strong-arm\src\ripemd160/ripemd160.c **** 	GGG(ccc, ddd, eee, aaa, bbb, X[14],  8);
 3547              		.loc 1 233 0
 3548 13f4 2500     		movs	r5, r4
 3549 13f6 5540     		eors	r5, r2
 3550 13f8 3540     		ands	r5, r6
 3551 13fa 5540     		eors	r5, r2
 3552 13fc AC46     		mov	ip, r5
 3553 13fe 0C9D     		ldr	r5, [sp, #48]
 3554 1400 AA46     		mov	r10, r5
 3555 1402 D444     		add	ip, ip, r10
 3556 1404 6144     		add	r1, r1, ip
 3557 1406 864D     		ldr	r5, .L14
 3558 1408 AC46     		mov	ip, r5
 3559 140a 6144     		add	r1, r1, ip
 3560              	.LVL804:
 3561 140c 1825     		movs	r5, #24
 3562 140e E941     		rors	r1, r1, r5
 3563              	.LVL805:
 3564 1410 0F9D     		ldr	r5, [sp, #60]
 3565 1412 AC46     		mov	ip, r5
 3566              	.LVL806:
 3567 1414 6144     		add	r1, r1, ip
 3568              	.LVL807:
 3569 1416 DC41     		rors	r4, r4, r3
 3570              	.LVL808:
 234:strong-arm\src\ripemd160/ripemd160.c **** 	
 235:strong-arm\src\ripemd160/ripemd160.c **** 	/* parallel round 5 */
 236:strong-arm\src\ripemd160/ripemd160.c **** 	FFF(bbb, ccc, ddd, eee, aaa, X[12] ,  8);
 3571              		.loc 1 236 0
 3572 1418 3500     		movs	r5, r6
 3573 141a 4D40     		eors	r5, r1
 3574 141c 1094     		str	r4, [sp, #64]
 3575 141e 6540     		eors	r5, r4
 3576 1420 AC46     		mov	ip, r5
 3577 1422 0A9D     		ldr	r5, [sp, #40]
 3578 1424 AA46     		mov	r10, r5
 3579 1426 D444     		add	ip, ip, r10
 3580 1428 0F9D     		ldr	r5, [sp, #60]
 3581 142a 6544     		add	r5, r5, ip
 3582              	.LVL809:
 3583 142c 1824     		movs	r4, #24
ARM GAS  C:\Users\Ray\AppData\Local\Temp\ccdgjwii.s 			page 68


 3584              	.LVL810:
 3585 142e E541     		rors	r5, r5, r4
 3586              	.LVL811:
 3587 1430 AC46     		mov	ip, r5
 3588              	.LVL812:
 3589 1432 9444     		add	ip, ip, r2
 3590              	.LVL813:
 3591 1434 DE41     		rors	r6, r6, r3
 3592              	.LVL814:
 237:strong-arm\src\ripemd160/ripemd160.c **** 	FFF(aaa, bbb, ccc, ddd, eee, X[15] ,  5);
 3593              		.loc 1 237 0
 3594 1436 6546     		mov	r5, ip
 3595 1438 4D40     		eors	r5, r1
 3596 143a 7540     		eors	r5, r6
 3597 143c 2C00     		movs	r4, r5
 3598 143e 0D9D     		ldr	r5, [sp, #52]
 3599 1440 AA46     		mov	r10, r5
 3600 1442 2500     		movs	r5, r4
 3601 1444 5544     		add	r5, r5, r10
 3602 1446 5519     		adds	r5, r2, r5
 3603              	.LVL815:
 3604 1448 1B24     		movs	r4, #27
 3605 144a E541     		rors	r5, r5, r4
 3606              	.LVL816:
 3607 144c 109C     		ldr	r4, [sp, #64]
 3608 144e A246     		mov	r10, r4
 3609 1450 5544     		add	r5, r5, r10
 3610              	.LVL817:
 3611 1452 D941     		rors	r1, r1, r3
 3612              	.LVL818:
 238:strong-arm\src\ripemd160/ripemd160.c **** 	FFF(eee, aaa, bbb, ccc, ddd, X[10] , 12);
 3613              		.loc 1 238 0
 3614 1454 6246     		mov	r2, ip
 3615 1456 6A40     		eors	r2, r5
 3616 1458 0A91     		str	r1, [sp, #40]
 3617 145a 4A40     		eors	r2, r1
 3618 145c 0999     		ldr	r1, [sp, #36]
 3619              	.LVL819:
 3620 145e 8A46     		mov	r10, r1
 3621 1460 5244     		add	r2, r2, r10
 3622 1462 A418     		adds	r4, r4, r2
 3623              	.LVL820:
 3624 1464 4946     		mov	r1, r9
 3625 1466 CC41     		rors	r4, r4, r1
 3626              	.LVL821:
 3627 1468 3419     		adds	r4, r6, r4
 3628              	.LVL822:
 3629 146a 6146     		mov	r1, ip
 3630 146c D941     		rors	r1, r1, r3
 3631 146e 8C46     		mov	ip, r1
 3632              	.LVL823:
 239:strong-arm\src\ripemd160/ripemd160.c **** 	FFF(ddd, eee, aaa, bbb, ccc, X[ 4] ,  9);
 3633              		.loc 1 239 0
 3634 1470 2900     		movs	r1, r5
 3635              	.LVL824:
 3636 1472 6140     		eors	r1, r4
 3637 1474 0A00     		movs	r2, r1
ARM GAS  C:\Users\Ray\AppData\Local\Temp\ccdgjwii.s 			page 69


 3638 1476 6146     		mov	r1, ip
 3639 1478 4A40     		eors	r2, r1
 3640 147a 0499     		ldr	r1, [sp, #16]
 3641 147c 8A46     		mov	r10, r1
 3642 147e 5244     		add	r2, r2, r10
 3643 1480 B618     		adds	r6, r6, r2
 3644              	.LVL825:
 3645 1482 1721     		movs	r1, #23
 3646 1484 CE41     		rors	r6, r6, r1
 3647              	.LVL826:
 3648 1486 0A9A     		ldr	r2, [sp, #40]
 3649 1488 9246     		mov	r10, r2
 3650 148a 5644     		add	r6, r6, r10
 3651              	.LVL827:
 3652 148c DD41     		rors	r5, r5, r3
 3653              	.LVL828:
 240:strong-arm\src\ripemd160/ripemd160.c **** 	FFF(ccc, ddd, eee, aaa, bbb, X[ 1] , 12);
 3654              		.loc 1 240 0
 3655 148e 2100     		movs	r1, r4
 3656 1490 7140     		eors	r1, r6
 3657 1492 0A00     		movs	r2, r1
 3658 1494 6A40     		eors	r2, r5
 3659 1496 0199     		ldr	r1, [sp, #4]
 3660 1498 8A46     		mov	r10, r1
 3661 149a 5244     		add	r2, r2, r10
 3662 149c 0A99     		ldr	r1, [sp, #40]
 3663 149e 8918     		adds	r1, r1, r2
 3664              	.LVL829:
 3665 14a0 4A46     		mov	r2, r9
 3666 14a2 D141     		rors	r1, r1, r2
 3667              	.LVL830:
 3668 14a4 6144     		add	r1, r1, ip
 3669 14a6 8946     		mov	r9, r1
 3670              	.LVL831:
 3671 14a8 DC41     		rors	r4, r4, r3
 3672              	.LVL832:
 241:strong-arm\src\ripemd160/ripemd160.c **** 	FFF(bbb, ccc, ddd, eee, aaa, X[ 5] ,  5);
 3673              		.loc 1 241 0
 3674 14aa 3100     		movs	r1, r6
 3675              	.LVL833:
 3676 14ac 4A46     		mov	r2, r9
 3677 14ae 5140     		eors	r1, r2
 3678 14b0 0A00     		movs	r2, r1
 3679 14b2 6240     		eors	r2, r4
 3680 14b4 0599     		ldr	r1, [sp, #20]
 3681 14b6 8A46     		mov	r10, r1
 3682 14b8 5244     		add	r2, r2, r10
 3683 14ba 6244     		add	r2, r2, ip
 3684              	.LVL834:
 3685 14bc 1B21     		movs	r1, #27
 3686 14be CA41     		rors	r2, r2, r1
 3687              	.LVL835:
 3688 14c0 9446     		mov	ip, r2
 3689              	.LVL836:
 3690 14c2 AC44     		add	ip, ip, r5
 3691              	.LVL837:
 3692 14c4 DE41     		rors	r6, r6, r3
ARM GAS  C:\Users\Ray\AppData\Local\Temp\ccdgjwii.s 			page 70


 3693              	.LVL838:
 242:strong-arm\src\ripemd160/ripemd160.c **** 	FFF(aaa, bbb, ccc, ddd, eee, X[ 8] , 14);
 3694              		.loc 1 242 0
 3695 14c6 6146     		mov	r1, ip
 3696 14c8 4A46     		mov	r2, r9
 3697 14ca 5140     		eors	r1, r2
 3698 14cc 0A00     		movs	r2, r1
 3699 14ce 7240     		eors	r2, r6
 3700 14d0 0899     		ldr	r1, [sp, #32]
 3701 14d2 8A46     		mov	r10, r1
 3702 14d4 5244     		add	r2, r2, r10
 3703 14d6 AD18     		adds	r5, r5, r2
 3704              	.LVL839:
 3705 14d8 1221     		movs	r1, #18
 3706 14da CD41     		rors	r5, r5, r1
 3707              	.LVL840:
 3708 14dc 6519     		adds	r5, r4, r5
 3709              	.LVL841:
 3710 14de 4A46     		mov	r2, r9
 3711 14e0 DA41     		rors	r2, r2, r3
 3712 14e2 9146     		mov	r9, r2
 3713              	.LVL842:
 243:strong-arm\src\ripemd160/ripemd160.c **** 	FFF(eee, aaa, bbb, ccc, ddd, X[ 7] ,  6);
 3714              		.loc 1 243 0
 3715 14e4 6146     		mov	r1, ip
 3716 14e6 6940     		eors	r1, r5
 3717 14e8 0A00     		movs	r2, r1
 3718              	.LVL843:
 3719 14ea 4946     		mov	r1, r9
 3720 14ec 4A40     		eors	r2, r1
 3721 14ee 0799     		ldr	r1, [sp, #28]
 3722 14f0 8A46     		mov	r10, r1
 3723 14f2 5244     		add	r2, r2, r10
 3724 14f4 A418     		adds	r4, r4, r2
 3725              	.LVL844:
 3726 14f6 5946     		mov	r1, fp
 3727 14f8 CC41     		rors	r4, r4, r1
 3728              	.LVL845:
 3729 14fa 3419     		adds	r4, r6, r4
 3730              	.LVL846:
 3731 14fc 6146     		mov	r1, ip
 3732 14fe D941     		rors	r1, r1, r3
 3733 1500 8C46     		mov	ip, r1
 3734              	.LVL847:
 244:strong-arm\src\ripemd160/ripemd160.c **** 	FFF(ddd, eee, aaa, bbb, ccc, X[ 6] ,  8);
 3735              		.loc 1 244 0
 3736 1502 2900     		movs	r1, r5
 3737              	.LVL848:
 3738 1504 6140     		eors	r1, r4
 3739 1506 0A00     		movs	r2, r1
 3740 1508 6146     		mov	r1, ip
 3741 150a 4A40     		eors	r2, r1
 3742 150c 0699     		ldr	r1, [sp, #24]
 3743 150e 8A46     		mov	r10, r1
 3744 1510 5244     		add	r2, r2, r10
 3745 1512 B618     		adds	r6, r6, r2
 3746              	.LVL849:
ARM GAS  C:\Users\Ray\AppData\Local\Temp\ccdgjwii.s 			page 71


 3747 1514 1821     		movs	r1, #24
 3748 1516 CE41     		rors	r6, r6, r1
 3749              	.LVL850:
 3750 1518 4E44     		add	r6, r6, r9
 3751              	.LVL851:
 3752 151a DD41     		rors	r5, r5, r3
 3753              	.LVL852:
 245:strong-arm\src\ripemd160/ripemd160.c **** 	FFF(ccc, ddd, eee, aaa, bbb, X[ 2] , 13);
 3754              		.loc 1 245 0
 3755 151c 2100     		movs	r1, r4
 3756 151e 7140     		eors	r1, r6
 3757 1520 0A00     		movs	r2, r1
 3758 1522 6A40     		eors	r2, r5
 3759 1524 0299     		ldr	r1, [sp, #8]
 3760 1526 8A46     		mov	r10, r1
 3761 1528 5244     		add	r2, r2, r10
 3762 152a 4A44     		add	r2, r2, r9
 3763 152c 1100     		movs	r1, r2
 3764              	.LVL853:
 3765 152e 1322     		movs	r2, #19
 3766 1530 D141     		rors	r1, r1, r2
 3767              	.LVL854:
 3768 1532 6144     		add	r1, r1, ip
 3769              	.LVL855:
 3770 1534 DC41     		rors	r4, r4, r3
 3771              	.LVL856:
 3772 1536 A146     		mov	r9, r4
 3773              	.LVL857:
 246:strong-arm\src\ripemd160/ripemd160.c **** 	FFF(bbb, ccc, ddd, eee, aaa, X[13] ,  6);
 3774              		.loc 1 246 0
 3775 1538 3400     		movs	r4, r6
 3776              	.LVL858:
 3777 153a 4C40     		eors	r4, r1
 3778 153c 2200     		movs	r2, r4
 3779 153e 4C46     		mov	r4, r9
 3780 1540 6240     		eors	r2, r4
 3781 1542 0B9C     		ldr	r4, [sp, #44]
 3782 1544 A246     		mov	r10, r4
 3783 1546 5244     		add	r2, r2, r10
 3784 1548 6244     		add	r2, r2, ip
 3785              	.LVL859:
 3786 154a 5C46     		mov	r4, fp
 3787 154c E241     		rors	r2, r2, r4
 3788              	.LVL860:
 3789 154e 9446     		mov	ip, r2
 3790              	.LVL861:
 3791 1550 AC44     		add	ip, ip, r5
 3792              	.LVL862:
 3793 1552 DE41     		rors	r6, r6, r3
 3794              	.LVL863:
 247:strong-arm\src\ripemd160/ripemd160.c **** 	FFF(aaa, bbb, ccc, ddd, eee, X[14] ,  5);
 3795              		.loc 1 247 0
 3796 1554 6446     		mov	r4, ip
 3797 1556 4C40     		eors	r4, r1
 3798 1558 2200     		movs	r2, r4
 3799 155a 7240     		eors	r2, r6
 3800 155c 0C9C     		ldr	r4, [sp, #48]
ARM GAS  C:\Users\Ray\AppData\Local\Temp\ccdgjwii.s 			page 72


 3801 155e A246     		mov	r10, r4
 3802 1560 5244     		add	r2, r2, r10
 3803 1562 AD18     		adds	r5, r5, r2
 3804              	.LVL864:
 3805 1564 1B24     		movs	r4, #27
 3806 1566 E541     		rors	r5, r5, r4
 3807              	.LVL865:
 3808 1568 4D44     		add	r5, r5, r9
 3809              	.LVL866:
 3810 156a D941     		rors	r1, r1, r3
 3811              	.LVL867:
 3812 156c 8B46     		mov	fp, r1
 3813              	.LVL868:
 248:strong-arm\src\ripemd160/ripemd160.c **** 	FFF(eee, aaa, bbb, ccc, ddd, X[ 0] , 15);
 3814              		.loc 1 248 0
 3815 156e 6446     		mov	r4, ip
 3816 1570 6C40     		eors	r4, r5
 3817 1572 2200     		movs	r2, r4
 3818 1574 4A40     		eors	r2, r1
 3819 1576 009C     		ldr	r4, [sp]
 3820 1578 A246     		mov	r10, r4
 3821 157a 5244     		add	r2, r2, r10
 3822 157c 4A44     		add	r2, r2, r9
 3823 157e 1400     		movs	r4, r2
 3824              	.LVL869:
 3825 1580 1122     		movs	r2, #17
 3826              	.LVL870:
 3827 1582 D441     		rors	r4, r4, r2
 3828              	.LVL871:
 3829 1584 3419     		adds	r4, r6, r4
 3830              	.LVL872:
 3831 1586 6246     		mov	r2, ip
 3832 1588 DA41     		rors	r2, r2, r3
 3833 158a 9446     		mov	ip, r2
 3834              	.LVL873:
 249:strong-arm\src\ripemd160/ripemd160.c **** 	FFF(ddd, eee, aaa, bbb, ccc, X[ 3] , 13);
 3835              		.loc 1 249 0
 3836 158c 2A00     		movs	r2, r5
 3837              	.LVL874:
 3838 158e 6240     		eors	r2, r4
 3839 1590 6146     		mov	r1, ip
 3840              	.LVL875:
 3841 1592 5140     		eors	r1, r2
 3842 1594 039A     		ldr	r2, [sp, #12]
 3843 1596 9246     		mov	r10, r2
 3844 1598 0A00     		movs	r2, r1
 3845 159a 5244     		add	r2, r2, r10
 3846 159c B618     		adds	r6, r6, r2
 3847              	.LVL876:
 3848 159e 1321     		movs	r1, #19
 3849 15a0 CE41     		rors	r6, r6, r1
 3850              	.LVL877:
 3851 15a2 5E44     		add	r6, r6, fp
 3852              	.LVL878:
 3853 15a4 DD41     		rors	r5, r5, r3
 3854              	.LVL879:
 250:strong-arm\src\ripemd160/ripemd160.c **** 	FFF(ccc, ddd, eee, aaa, bbb, X[ 9] , 11);
ARM GAS  C:\Users\Ray\AppData\Local\Temp\ccdgjwii.s 			page 73


 3855              		.loc 1 250 0
 3856 15a6 2200     		movs	r2, r4
 3857 15a8 7240     		eors	r2, r6
 3858 15aa 6A40     		eors	r2, r5
 3859 15ac 4244     		add	r2, r2, r8
 3860 15ae 5A44     		add	r2, r2, fp
 3861 15b0 1100     		movs	r1, r2
 3862              	.LVL880:
 3863 15b2 1522     		movs	r2, #21
 3864 15b4 D141     		rors	r1, r1, r2
 3865              	.LVL881:
 3866 15b6 6144     		add	r1, r1, ip
 3867              	.LVL882:
 3868 15b8 DC41     		rors	r4, r4, r3
 3869              	.LVL883:
 251:strong-arm\src\ripemd160/ripemd160.c **** 	FFF(bbb, ccc, ddd, eee, aaa, X[11] , 11);
 3870              		.loc 1 251 0
 3871 15ba 3200     		movs	r2, r6
 3872 15bc 4A40     		eors	r2, r1
 3873 15be 6240     		eors	r2, r4
 3874 15c0 BA18     		adds	r2, r7, r2
 3875 15c2 6244     		add	r2, r2, ip
 3876              	.LVL884:
 3877 15c4 1527     		movs	r7, #21
 3878 15c6 FA41     		rors	r2, r2, r7
 3879              	.LVL885:
 3880 15c8 AA18     		adds	r2, r5, r2
 3881              	.LVL886:
 3882 15ca DE41     		rors	r6, r6, r3
 3883              	.LVL887:
 3884 15cc 3300     		movs	r3, r6
 3885              	.LVL888:
 252:strong-arm\src\ripemd160/ripemd160.c **** 	
 253:strong-arm\src\ripemd160/ripemd160.c **** 	/* combine results */
 254:strong-arm\src\ripemd160/ripemd160.c **** 	ddd += cc + MDbuf[1];
 3886              		.loc 1 254 0
 3887 15ce 129F     		ldr	r7, [sp, #72]
 3888 15d0 B846     		mov	r8, r7
 3889 15d2 4768     		ldr	r7, [r0, #4]
 3890 15d4 BC46     		mov	ip, r7
 3891 15d6 E044     		add	r8, r8, ip
 3892 15d8 4646     		mov	r6, r8
 3893 15da 9E19     		adds	r6, r3, r6
 3894              	.LVL889:
 255:strong-arm\src\ripemd160/ripemd160.c **** 	MDbuf[1] = MDbuf[2] + dd + eee;
 3895              		.loc 1 255 0
 3896 15dc 159F     		ldr	r7, [sp, #84]
 3897 15de 3B00     		movs	r3, r7
 3898 15e0 8768     		ldr	r7, [r0, #8]
 3899 15e2 BC46     		mov	ip, r7
 3900 15e4 6344     		add	r3, r3, ip
 3901 15e6 E418     		adds	r4, r4, r3
 3902              	.LVL890:
 3903 15e8 4460     		str	r4, [r0, #4]
 256:strong-arm\src\ripemd160/ripemd160.c **** 	MDbuf[2] = MDbuf[3] + ee + aaa;
 3904              		.loc 1 256 0
 3905 15ea 139B     		ldr	r3, [sp, #76]
ARM GAS  C:\Users\Ray\AppData\Local\Temp\ccdgjwii.s 			page 74


 3906 15ec C468     		ldr	r4, [r0, #12]
 3907 15ee A446     		mov	ip, r4
 3908 15f0 6344     		add	r3, r3, ip
 3909 15f2 ED18     		adds	r5, r5, r3
 3910              	.LVL891:
 3911 15f4 8560     		str	r5, [r0, #8]
 257:strong-arm\src\ripemd160/ripemd160.c **** 	MDbuf[3] = MDbuf[4] + aa + bbb;
 3912              		.loc 1 257 0
 3913 15f6 119D     		ldr	r5, [sp, #68]
 3914 15f8 2C00     		movs	r4, r5
 3915 15fa 0369     		ldr	r3, [r0, #16]
 3916 15fc 9846     		mov	r8, r3
 3917 15fe 4444     		add	r4, r4, r8
 3918 1600 1219     		adds	r2, r2, r4
 3919              	.LVL892:
 3920 1602 C260     		str	r2, [r0, #12]
 258:strong-arm\src\ripemd160/ripemd160.c **** 	MDbuf[4] = MDbuf[0] + bb + ccc;
 3921              		.loc 1 258 0
 3922 1604 149A     		ldr	r2, [sp, #80]
 3923 1606 0368     		ldr	r3, [r0]
 3924 1608 9C46     		mov	ip, r3
 3925 160a 6244     		add	r2, r2, ip
 3926 160c 8918     		adds	r1, r1, r2
 3927              	.LVL893:
 3928 160e 0161     		str	r1, [r0, #16]
 259:strong-arm\src\ripemd160/ripemd160.c **** 	MDbuf[0] = ddd;
 3929              		.loc 1 259 0
 3930 1610 0660     		str	r6, [r0]
 260:strong-arm\src\ripemd160/ripemd160.c **** }
 3931              		.loc 1 260 0
 3932 1612 17B0     		add	sp, sp, #92
 3933              		@ sp needed
 3934              	.LVL894:
 3935 1614 3CBC     		pop	{r2, r3, r4, r5}
 3936 1616 9046     		mov	r8, r2
 3937 1618 9946     		mov	r9, r3
 3938 161a A246     		mov	r10, r4
 3939 161c AB46     		mov	fp, r5
 3940 161e F0BD     		pop	{r4, r5, r6, r7, pc}
 3941              	.L15:
 3942              		.align	2
 3943              	.L14:
 3944 1620 E9766D7A 		.word	2053994217
 3945              		.cfi_endproc
 3946              	.LFE0:
 3947              		.size	compress, .-compress
 3948              		.section	.text.RIPEMD160,"ax",%progbits
 3949              		.align	2
 3950              		.global	RIPEMD160
 3951              		.code	16
 3952              		.thumb_func
 3953              		.type	RIPEMD160, %function
 3954              	RIPEMD160:
 3955              	.LFB1:
 261:strong-arm\src\ripemd160/ripemd160.c **** 
 262:strong-arm\src\ripemd160/ripemd160.c **** // TODO: We can't really handle data when len == 2^32-1.
 263:strong-arm\src\ripemd160/ripemd160.c **** void RIPEMD160 (uint8_t *hash, uint8_t const *msg, uint32_t len)
ARM GAS  C:\Users\Ray\AppData\Local\Temp\ccdgjwii.s 			page 75


 264:strong-arm\src\ripemd160/ripemd160.c **** {
 3956              		.loc 1 264 0
 3957              		.cfi_startproc
 3958              		@ args = 0, pretend = 0, frame = 88
 3959              		@ frame_needed = 0, uses_anonymous_args = 0
 3960              	.LVL895:
 3961 0000 F0B5     		push	{r4, r5, r6, r7, lr}
 3962              		.cfi_def_cfa_offset 20
 3963              		.cfi_offset 4, -20
 3964              		.cfi_offset 5, -16
 3965              		.cfi_offset 6, -12
 3966              		.cfi_offset 7, -8
 3967              		.cfi_offset 14, -4
 3968 0002 4746     		mov	r7, r8
 3969 0004 80B4     		push	{r7}
 3970              		.cfi_def_cfa_offset 24
 3971              		.cfi_offset 8, -24
 3972 0006 96B0     		sub	sp, sp, #88
 3973              		.cfi_def_cfa_offset 112
 3974 0008 0600     		movs	r6, r0
 3975 000a 0C00     		movs	r4, r1
 3976 000c 9046     		mov	r8, r2
 265:strong-arm\src\ripemd160/ripemd160.c **** 	uint32_t digest[5] = {0x67452301, 0xefcdab89, 0x98badcfe, 0x10325476, 0xc3d2e1f0UL};
 3977              		.loc 1 265 0
 3978 000e 11A9     		add	r1, sp, #68
 3979              	.LVL896:
 3980 0010 3D48     		ldr	r0, .L26
 3981              	.LVL897:
 3982 0012 0B00     		movs	r3, r1
 3983 0014 0200     		movs	r2, r0
 3984              	.LVL898:
 3985 0016 23CA     		ldmia	r2!, {r0, r1, r5}
 3986 0018 23C3     		stmia	r3!, {r0, r1, r5}
 3987 001a 03CA     		ldmia	r2!, {r0, r1}
 3988 001c 03C3     		stmia	r3!, {r0, r1}
 3989              	.LVL899:
 3990              	.LBB2:
 266:strong-arm\src\ripemd160/ripemd160.c **** 	
 267:strong-arm\src\ripemd160/ripemd160.c **** 	for (uint32_t i = 0; i < (len >> 6); ++i)
 3991              		.loc 1 267 0
 3992 001e 0025     		movs	r5, #0
 3993 0020 1AE0     		b	.L17
 3994              	.LVL900:
 3995              	.L18:
 3996              	.LBB3:
 3997              	.LBB4:
 268:strong-arm\src\ripemd160/ripemd160.c **** 	{
 269:strong-arm\src\ripemd160/ripemd160.c **** 		uint32_t chunk[16];
 270:strong-arm\src\ripemd160/ripemd160.c **** 		
 271:strong-arm\src\ripemd160/ripemd160.c **** 		for (int j = 0; j < 16; ++j)
 272:strong-arm\src\ripemd160/ripemd160.c **** 		{
 273:strong-arm\src\ripemd160/ripemd160.c **** 			chunk[j] = (uint32_t)(*(msg++));
 3998              		.loc 1 273 0 discriminator 3
 3999 0022 2278     		ldrb	r2, [r4]
 4000 0024 01A9     		add	r1, sp, #4
 4001 0026 B800     		lsls	r0, r7, #2
 4002 0028 4250     		str	r2, [r0, r1]
ARM GAS  C:\Users\Ray\AppData\Local\Temp\ccdgjwii.s 			page 76


 4003              	.LVL901:
 274:strong-arm\src\ripemd160/ripemd160.c **** 			chunk[j] |= (uint32_t)(*(msg++)) << 8;
 4004              		.loc 1 274 0 discriminator 3
 4005 002a 6378     		ldrb	r3, [r4, #1]
 4006 002c 1B02     		lsls	r3, r3, #8
 4007 002e 1343     		orrs	r3, r2
 4008 0030 4350     		str	r3, [r0, r1]
 4009              	.LVL902:
 275:strong-arm\src\ripemd160/ripemd160.c **** 			chunk[j] |= (uint32_t)(*(msg++)) << 16;
 4010              		.loc 1 275 0 discriminator 3
 4011 0032 A278     		ldrb	r2, [r4, #2]
 4012 0034 1204     		lsls	r2, r2, #16
 4013 0036 1343     		orrs	r3, r2
 4014 0038 4350     		str	r3, [r0, r1]
 4015              	.LVL903:
 276:strong-arm\src\ripemd160/ripemd160.c **** 			chunk[j] |= (uint32_t)(*(msg++)) << 24;
 4016              		.loc 1 276 0 discriminator 3
 4017 003a E278     		ldrb	r2, [r4, #3]
 4018 003c 1206     		lsls	r2, r2, #24
 4019 003e 1343     		orrs	r3, r2
 4020 0040 4350     		str	r3, [r0, r1]
 271:strong-arm\src\ripemd160/ripemd160.c **** 		{
 4021              		.loc 1 271 0 discriminator 3
 4022 0042 0137     		adds	r7, r7, #1
 4023              	.LVL904:
 4024              		.loc 1 276 0 discriminator 3
 4025 0044 0434     		adds	r4, r4, #4
 4026              	.LVL905:
 4027 0046 00E0     		b	.L19
 4028              	.LVL906:
 4029              	.L25:
 4030              	.LBE4:
 4031              	.LBE3:
 4032 0048 0027     		movs	r7, #0
 4033              	.L19:
 4034              	.LVL907:
 4035              	.LBB6:
 4036              	.LBB5:
 271:strong-arm\src\ripemd160/ripemd160.c **** 		{
 4037              		.loc 1 271 0 discriminator 1
 4038 004a 0F2F     		cmp	r7, #15
 4039 004c E9DD     		ble	.L18
 4040              	.LBE5:
 277:strong-arm\src\ripemd160/ripemd160.c **** 		}
 278:strong-arm\src\ripemd160/ripemd160.c **** 	 
 279:strong-arm\src\ripemd160/ripemd160.c **** 		compress (digest, chunk);
 4041              		.loc 1 279 0 discriminator 2
 4042 004e 01A9     		add	r1, sp, #4
 4043 0050 11A8     		add	r0, sp, #68
 4044 0052 FFF7FEFF 		bl	compress
 4045              	.LVL908:
 4046              	.LBE6:
 267:strong-arm\src\ripemd160/ripemd160.c **** 	{
 4047              		.loc 1 267 0 discriminator 2
 4048 0056 0135     		adds	r5, r5, #1
 4049              	.LVL909:
 4050              	.L17:
ARM GAS  C:\Users\Ray\AppData\Local\Temp\ccdgjwii.s 			page 77


 267:strong-arm\src\ripemd160/ripemd160.c **** 	{
 4051              		.loc 1 267 0 is_stmt 0 discriminator 1
 4052 0058 4346     		mov	r3, r8
 4053 005a 9B09     		lsrs	r3, r3, #6
 4054 005c 9D42     		cmp	r5, r3
 4055 005e F3D3     		bcc	.L25
 4056              	.LBE2:
 4057              	.LBB7:
 280:strong-arm\src\ripemd160/ripemd160.c **** 	}
 281:strong-arm\src\ripemd160/ripemd160.c **** 	
 282:strong-arm\src\ripemd160/ripemd160.c **** 	// Last chunk
 283:strong-arm\src\ripemd160/ripemd160.c **** 	{
 284:strong-arm\src\ripemd160/ripemd160.c **** 		uint32_t chunk[16] = {0};
 4058              		.loc 1 284 0 is_stmt 1
 4059 0060 4022     		movs	r2, #64
 4060 0062 0021     		movs	r1, #0
 4061 0064 01A8     		add	r0, sp, #4
 4062 0066 FFF7FEFF 		bl	memset
 4063              	.LVL910:
 4064              	.LBB8:
 285:strong-arm\src\ripemd160/ripemd160.c **** 		
 286:strong-arm\src\ripemd160/ripemd160.c **** 		for (uint32_t i = 0; i < (len & 63); ++i)
 4065              		.loc 1 286 0
 4066 006a 0022     		movs	r2, #0
 4067 006c 0CE0     		b	.L20
 4068              	.LVL911:
 4069              	.L21:
 287:strong-arm\src\ripemd160/ripemd160.c **** 			chunk[i >> 2] ^= (uint32_t) *msg++ << ((i&3) << 3);
 4070              		.loc 1 287 0 discriminator 3
 4071 006e 2378     		ldrb	r3, [r4]
 4072 0070 D100     		lsls	r1, r2, #3
 4073              	.LVL912:
 4074 0072 1820     		movs	r0, #24
 4075 0074 0140     		ands	r1, r0
 4076 0076 8B40     		lsls	r3, r3, r1
 4077 0078 9108     		lsrs	r1, r2, #2
 4078 007a 01A8     		add	r0, sp, #4
 4079 007c 8900     		lsls	r1, r1, #2
 4080 007e 0D58     		ldr	r5, [r1, r0]
 4081 0080 6B40     		eors	r3, r5
 4082 0082 0B50     		str	r3, [r1, r0]
 286:strong-arm\src\ripemd160/ripemd160.c **** 			chunk[i >> 2] ^= (uint32_t) *msg++ << ((i&3) << 3);
 4083              		.loc 1 286 0 discriminator 3
 4084 0084 0132     		adds	r2, r2, #1
 4085              	.LVL913:
 4086              		.loc 1 287 0 discriminator 3
 4087 0086 0134     		adds	r4, r4, #1
 4088              	.LVL914:
 4089              	.L20:
 286:strong-arm\src\ripemd160/ripemd160.c **** 			chunk[i >> 2] ^= (uint32_t) *msg++ << ((i&3) << 3);
 4090              		.loc 1 286 0 discriminator 1
 4091 0088 3F23     		movs	r3, #63
 4092 008a 4146     		mov	r1, r8
 4093 008c 0B40     		ands	r3, r1
 4094 008e 9A42     		cmp	r2, r3
 4095 0090 EDD3     		bcc	.L21
 4096              	.LVL915:
ARM GAS  C:\Users\Ray\AppData\Local\Temp\ccdgjwii.s 			page 78


 4097              	.LBE8:
 288:strong-arm\src\ripemd160/ripemd160.c **** 		
 289:strong-arm\src\ripemd160/ripemd160.c **** 		chunk[(len >> 2)&15] ^= (uint32_t)1 << (8*(len&3) + 7);
 4098              		.loc 1 289 0
 4099 0092 8A08     		lsrs	r2, r1, #2
 4100              	.LVL916:
 4101 0094 0F21     		movs	r1, #15
 4102              	.LVL917:
 4103 0096 1140     		ands	r1, r2
 4104 0098 0322     		movs	r2, #3
 4105 009a 4046     		mov	r0, r8
 4106 009c 0240     		ands	r2, r0
 4107 009e D200     		lsls	r2, r2, #3
 4108 00a0 0732     		adds	r2, r2, #7
 4109 00a2 0120     		movs	r0, #1
 4110 00a4 9040     		lsls	r0, r0, r2
 4111 00a6 01AC     		add	r4, sp, #4
 4112              	.LVL918:
 4113 00a8 8A00     		lsls	r2, r1, #2
 4114 00aa 1159     		ldr	r1, [r2, r4]
 4115 00ac 4140     		eors	r1, r0
 4116 00ae 1151     		str	r1, [r2, r4]
 290:strong-arm\src\ripemd160/ripemd160.c **** 		
 291:strong-arm\src\ripemd160/ripemd160.c **** 		if ((len & 63) > 55)
 4117              		.loc 1 291 0
 4118 00b0 372B     		cmp	r3, #55
 4119 00b2 08D9     		bls	.L22
 292:strong-arm\src\ripemd160/ripemd160.c **** 		{
 293:strong-arm\src\ripemd160/ripemd160.c **** 			compress (digest, chunk);
 4120              		.loc 1 293 0
 4121 00b4 2100     		movs	r1, r4
 4122 00b6 11A8     		add	r0, sp, #68
 4123 00b8 FFF7FEFF 		bl	compress
 4124              	.LVL919:
 294:strong-arm\src\ripemd160/ripemd160.c **** 			memset (chunk, 0, 64);
 4125              		.loc 1 294 0
 4126 00bc 4022     		movs	r2, #64
 4127 00be 0021     		movs	r1, #0
 4128 00c0 01A8     		add	r0, sp, #4
 4129 00c2 FFF7FEFF 		bl	memset
 4130              	.LVL920:
 4131              	.L22:
 295:strong-arm\src\ripemd160/ripemd160.c **** 		}
 296:strong-arm\src\ripemd160/ripemd160.c **** 		
 297:strong-arm\src\ripemd160/ripemd160.c **** 		chunk[14] = len << 3;
 4132              		.loc 1 297 0
 4133 00c6 4346     		mov	r3, r8
 4134 00c8 DB00     		lsls	r3, r3, #3
 4135 00ca 0F93     		str	r3, [sp, #60]
 298:strong-arm\src\ripemd160/ripemd160.c **** 		chunk[15] = (len >> 29);
 4136              		.loc 1 298 0
 4137 00cc 4346     		mov	r3, r8
 4138 00ce 5F0F     		lsrs	r7, r3, #29
 4139 00d0 1097     		str	r7, [sp, #64]
 299:strong-arm\src\ripemd160/ripemd160.c **** 		compress (digest, chunk);
 4140              		.loc 1 299 0
 4141 00d2 01A9     		add	r1, sp, #4
ARM GAS  C:\Users\Ray\AppData\Local\Temp\ccdgjwii.s 			page 79


 4142 00d4 11A8     		add	r0, sp, #68
 4143 00d6 FFF7FEFF 		bl	compress
 4144              	.LVL921:
 4145              	.LBE7:
 4146              	.LBB9:
 300:strong-arm\src\ripemd160/ripemd160.c **** 	}
 301:strong-arm\src\ripemd160/ripemd160.c **** 	
 302:strong-arm\src\ripemd160/ripemd160.c **** 	for (int i = 0; i < 5; ++i)
 4147              		.loc 1 302 0
 4148 00da 0021     		movs	r1, #0
 4149 00dc 0EE0     		b	.L23
 4150              	.LVL922:
 4151              	.L24:
 303:strong-arm\src\ripemd160/ripemd160.c **** 	{
 304:strong-arm\src\ripemd160/ripemd160.c **** 		*(hash++) = digest[i];
 4152              		.loc 1 304 0 discriminator 3
 4153 00de 11AB     		add	r3, sp, #68
 4154 00e0 8A00     		lsls	r2, r1, #2
 4155 00e2 D05C     		ldrb	r0, [r2, r3]
 4156 00e4 3070     		strb	r0, [r6]
 4157              	.LVL923:
 305:strong-arm\src\ripemd160/ripemd160.c **** 		*(hash++) = digest[i] >> 8;
 4158              		.loc 1 305 0 discriminator 3
 4159 00e6 D058     		ldr	r0, [r2, r3]
 4160 00e8 000A     		lsrs	r0, r0, #8
 4161 00ea 7070     		strb	r0, [r6, #1]
 4162              	.LVL924:
 306:strong-arm\src\ripemd160/ripemd160.c **** 		*(hash++) = digest[i] >> 16;
 4163              		.loc 1 306 0 discriminator 3
 4164 00ec D058     		ldr	r0, [r2, r3]
 4165 00ee 000C     		lsrs	r0, r0, #16
 4166 00f0 B070     		strb	r0, [r6, #2]
 4167              	.LVL925:
 307:strong-arm\src\ripemd160/ripemd160.c **** 		*(hash++) = digest[i] >> 24;
 4168              		.loc 1 307 0 discriminator 3
 4169 00f2 D358     		ldr	r3, [r2, r3]
 4170 00f4 1B0E     		lsrs	r3, r3, #24
 4171 00f6 F370     		strb	r3, [r6, #3]
 302:strong-arm\src\ripemd160/ripemd160.c **** 	{
 4172              		.loc 1 302 0 discriminator 3
 4173 00f8 0131     		adds	r1, r1, #1
 4174              	.LVL926:
 4175              		.loc 1 307 0 discriminator 3
 4176 00fa 0436     		adds	r6, r6, #4
 4177              	.LVL927:
 4178              	.L23:
 302:strong-arm\src\ripemd160/ripemd160.c **** 	{
 4179              		.loc 1 302 0 discriminator 1
 4180 00fc 0429     		cmp	r1, #4
 4181 00fe EEDD     		ble	.L24
 4182              	.LBE9:
 308:strong-arm\src\ripemd160/ripemd160.c **** 	}
 309:strong-arm\src\ripemd160/ripemd160.c **** }
 4183              		.loc 1 309 0
 4184 0100 16B0     		add	sp, sp, #88
 4185              		@ sp needed
 4186              	.LVL928:
ARM GAS  C:\Users\Ray\AppData\Local\Temp\ccdgjwii.s 			page 80


 4187              	.LVL929:
 4188 0102 04BC     		pop	{r2}
 4189 0104 9046     		mov	r8, r2
 4190 0106 F0BD     		pop	{r4, r5, r6, r7, pc}
 4191              	.L27:
 4192              		.align	2
 4193              	.L26:
 4194 0108 00000000 		.word	.LANCHOR0
 4195              		.cfi_endproc
 4196              	.LFE1:
 4197              		.size	RIPEMD160, .-RIPEMD160
 4198              		.section	.rodata
 4199              		.align	2
 4200              		.set	.LANCHOR0,. + 0
 4201              	.LC0:
 4202 0000 01234567 		.word	1732584193
 4203 0004 89ABCDEF 		.word	-271733879
 4204 0008 FEDCBA98 		.word	-1732584194
 4205 000c 76543210 		.word	271733878
 4206 0010 F0E1D2C3 		.word	-1009589776
 4207              		.text
 4208              	.Letext0:
 4209              		.file 2 "c:\\program files (x86)\\cypress\\psoc creator\\4.1\\psoc creator\\import\\gnu\\arm\\5.4.
 4210              		.file 3 "c:\\program files (x86)\\cypress\\psoc creator\\4.1\\psoc creator\\import\\gnu\\arm\\5.4.
 4211              		.section	.debug_info,"",%progbits
 4212              	.Ldebug_info0:
 4213 0000 22030000 		.4byte	0x322
 4214 0004 0400     		.2byte	0x4
 4215 0006 00000000 		.4byte	.Ldebug_abbrev0
 4216 000a 04       		.byte	0x4
 4217 000b 01       		.uleb128 0x1
 4218 000c C7000000 		.4byte	.LASF20
 4219 0010 0C       		.byte	0xc
 4220 0011 1D000000 		.4byte	.LASF21
 4221 0015 8D010000 		.4byte	.LASF22
 4222 0019 30000000 		.4byte	.Ldebug_ranges0+0x30
 4223 001d 00000000 		.4byte	0
 4224 0021 00000000 		.4byte	.Ldebug_line0
 4225 0025 02       		.uleb128 0x2
 4226 0026 01       		.byte	0x1
 4227 0027 06       		.byte	0x6
 4228 0028 0C020000 		.4byte	.LASF0
 4229 002c 03       		.uleb128 0x3
 4230 002d 00000000 		.4byte	.LASF5
 4231 0031 02       		.byte	0x2
 4232 0032 1D       		.byte	0x1d
 4233 0033 37000000 		.4byte	0x37
 4234 0037 02       		.uleb128 0x2
 4235 0038 01       		.byte	0x1
 4236 0039 08       		.byte	0x8
 4237 003a 42000000 		.4byte	.LASF1
 4238 003e 02       		.uleb128 0x2
 4239 003f 02       		.byte	0x2
 4240 0040 05       		.byte	0x5
 4241 0041 7D010000 		.4byte	.LASF2
 4242 0045 02       		.uleb128 0x2
 4243 0046 02       		.byte	0x2
ARM GAS  C:\Users\Ray\AppData\Local\Temp\ccdgjwii.s 			page 81


 4244 0047 07       		.byte	0x7
 4245 0048 62000000 		.4byte	.LASF3
 4246 004c 02       		.uleb128 0x2
 4247 004d 04       		.byte	0x4
 4248 004e 05       		.byte	0x5
 4249 004f 03020000 		.4byte	.LASF4
 4250 0053 03       		.uleb128 0x3
 4251 0054 85000000 		.4byte	.LASF6
 4252 0058 02       		.byte	0x2
 4253 0059 41       		.byte	0x41
 4254 005a 5E000000 		.4byte	0x5e
 4255 005e 02       		.uleb128 0x2
 4256 005f 04       		.byte	0x4
 4257 0060 07       		.byte	0x7
 4258 0061 50000000 		.4byte	.LASF7
 4259 0065 02       		.uleb128 0x2
 4260 0066 08       		.byte	0x8
 4261 0067 05       		.byte	0x5
 4262 0068 6A010000 		.4byte	.LASF8
 4263 006c 02       		.uleb128 0x2
 4264 006d 08       		.byte	0x8
 4265 006e 07       		.byte	0x7
 4266 006f A3000000 		.4byte	.LASF9
 4267 0073 04       		.uleb128 0x4
 4268 0074 04       		.byte	0x4
 4269 0075 05       		.byte	0x5
 4270 0076 696E7400 		.ascii	"int\000"
 4271 007a 02       		.uleb128 0x2
 4272 007b 04       		.byte	0x4
 4273 007c 07       		.byte	0x7
 4274 007d 96000000 		.4byte	.LASF10
 4275 0081 03       		.uleb128 0x3
 4276 0082 BA000000 		.4byte	.LASF11
 4277 0086 03       		.byte	0x3
 4278 0087 18       		.byte	0x18
 4279 0088 2C000000 		.4byte	0x2c
 4280 008c 03       		.uleb128 0x3
 4281 008d 75000000 		.4byte	.LASF12
 4282 0091 03       		.byte	0x3
 4283 0092 30       		.byte	0x30
 4284 0093 53000000 		.4byte	0x53
 4285 0097 02       		.uleb128 0x2
 4286 0098 08       		.byte	0x8
 4287 0099 04       		.byte	0x4
 4288 009a 55010000 		.4byte	.LASF13
 4289 009e 02       		.uleb128 0x2
 4290 009f 04       		.byte	0x4
 4291 00a0 07       		.byte	0x7
 4292 00a1 61010000 		.4byte	.LASF14
 4293 00a5 02       		.uleb128 0x2
 4294 00a6 01       		.byte	0x1
 4295 00a7 08       		.byte	0x8
 4296 00a8 78010000 		.4byte	.LASF15
 4297 00ac 05       		.uleb128 0x5
 4298 00ad 14000000 		.4byte	.LASF23
 4299 00b1 01       		.byte	0x1
 4300 00b2 44       		.byte	0x44
ARM GAS  C:\Users\Ray\AppData\Local\Temp\ccdgjwii.s 			page 82


 4301 00b3 00000000 		.4byte	.LFB0
 4302 00b7 24160000 		.4byte	.LFE0-.LFB0
 4303 00bb 01       		.uleb128 0x1
 4304 00bc 9C       		.byte	0x9c
 4305 00bd 6D010000 		.4byte	0x16d
 4306 00c1 06       		.uleb128 0x6
 4307 00c2 87010000 		.4byte	.LASF16
 4308 00c6 01       		.byte	0x1
 4309 00c7 44       		.byte	0x44
 4310 00c8 6D010000 		.4byte	0x16d
 4311 00cc 01       		.uleb128 0x1
 4312 00cd 50       		.byte	0x50
 4313 00ce 07       		.uleb128 0x7
 4314 00cf 5800     		.ascii	"X\000"
 4315 00d1 01       		.byte	0x1
 4316 00d2 44       		.byte	0x44
 4317 00d3 6D010000 		.4byte	0x16d
 4318 00d7 00000000 		.4byte	.LLST0
 4319 00db 08       		.uleb128 0x8
 4320 00dc 616100   		.ascii	"aa\000"
 4321 00df 01       		.byte	0x1
 4322 00e0 46       		.byte	0x46
 4323 00e1 8C000000 		.4byte	0x8c
 4324 00e5 2C000000 		.4byte	.LLST1
 4325 00e9 08       		.uleb128 0x8
 4326 00ea 626200   		.ascii	"bb\000"
 4327 00ed 01       		.byte	0x1
 4328 00ee 46       		.byte	0x46
 4329 00ef 8C000000 		.4byte	0x8c
 4330 00f3 8C030000 		.4byte	.LLST2
 4331 00f7 08       		.uleb128 0x8
 4332 00f8 636300   		.ascii	"cc\000"
 4333 00fb 01       		.byte	0x1
 4334 00fc 46       		.byte	0x46
 4335 00fd 8C000000 		.4byte	0x8c
 4336 0101 B7060000 		.4byte	.LLST3
 4337 0105 08       		.uleb128 0x8
 4338 0106 646400   		.ascii	"dd\000"
 4339 0109 01       		.byte	0x1
 4340 010a 46       		.byte	0x46
 4341 010b 8C000000 		.4byte	0x8c
 4342 010f D9090000 		.4byte	.LLST4
 4343 0113 08       		.uleb128 0x8
 4344 0114 656500   		.ascii	"ee\000"
 4345 0117 01       		.byte	0x1
 4346 0118 46       		.byte	0x46
 4347 0119 8C000000 		.4byte	0x8c
 4348 011d D60D0000 		.4byte	.LLST5
 4349 0121 08       		.uleb128 0x8
 4350 0122 61616100 		.ascii	"aaa\000"
 4351 0126 01       		.byte	0x1
 4352 0127 47       		.byte	0x47
 4353 0128 8C000000 		.4byte	0x8c
 4354 012c FF100000 		.4byte	.LLST6
 4355 0130 08       		.uleb128 0x8
 4356 0131 62626200 		.ascii	"bbb\000"
 4357 0135 01       		.byte	0x1
ARM GAS  C:\Users\Ray\AppData\Local\Temp\ccdgjwii.s 			page 83


 4358 0136 47       		.byte	0x47
 4359 0137 8C000000 		.4byte	0x8c
 4360 013b FA140000 		.4byte	.LLST7
 4361 013f 08       		.uleb128 0x8
 4362 0140 63636300 		.ascii	"ccc\000"
 4363 0144 01       		.byte	0x1
 4364 0145 47       		.byte	0x47
 4365 0146 8C000000 		.4byte	0x8c
 4366 014a 49190000 		.4byte	.LLST8
 4367 014e 08       		.uleb128 0x8
 4368 014f 64646400 		.ascii	"ddd\000"
 4369 0153 01       		.byte	0x1
 4370 0154 47       		.byte	0x47
 4371 0155 8C000000 		.4byte	0x8c
 4372 0159 B61D0000 		.4byte	.LLST9
 4373 015d 08       		.uleb128 0x8
 4374 015e 65656500 		.ascii	"eee\000"
 4375 0162 01       		.byte	0x1
 4376 0163 47       		.byte	0x47
 4377 0164 8C000000 		.4byte	0x8c
 4378 0168 C2200000 		.4byte	.LLST10
 4379 016c 00       		.byte	0
 4380 016d 09       		.uleb128 0x9
 4381 016e 04       		.byte	0x4
 4382 016f 8C000000 		.4byte	0x8c
 4383 0173 0A       		.uleb128 0xa
 4384 0174 0A000000 		.4byte	.LASF24
 4385 0178 01       		.byte	0x1
 4386 0179 0701     		.2byte	0x107
 4387 017b 00000000 		.4byte	.LFB1
 4388 017f 0C010000 		.4byte	.LFE1-.LFB1
 4389 0183 01       		.uleb128 0x1
 4390 0184 9C       		.byte	0x9c
 4391 0185 EB020000 		.4byte	0x2eb
 4392 0189 0B       		.uleb128 0xb
 4393 018a C2000000 		.4byte	.LASF17
 4394 018e 01       		.byte	0x1
 4395 018f 0701     		.2byte	0x107
 4396 0191 EB020000 		.4byte	0x2eb
 4397 0195 9A240000 		.4byte	.LLST11
 4398 0199 0C       		.uleb128 0xc
 4399 019a 6D736700 		.ascii	"msg\000"
 4400 019e 01       		.byte	0x1
 4401 019f 0701     		.2byte	0x107
 4402 01a1 F1020000 		.4byte	0x2f1
 4403 01a5 F7240000 		.4byte	.LLST12
 4404 01a9 0C       		.uleb128 0xc
 4405 01aa 6C656E00 		.ascii	"len\000"
 4406 01ae 01       		.byte	0x1
 4407 01af 0701     		.2byte	0x107
 4408 01b1 8C000000 		.4byte	0x8c
 4409 01b5 6C250000 		.4byte	.LLST13
 4410 01b9 0D       		.uleb128 0xd
 4411 01ba FC010000 		.4byte	.LASF18
 4412 01be 01       		.byte	0x1
 4413 01bf 0901     		.2byte	0x109
 4414 01c1 FC020000 		.4byte	0x2fc
ARM GAS  C:\Users\Ray\AppData\Local\Temp\ccdgjwii.s 			page 84


 4415 01c5 02       		.uleb128 0x2
 4416 01c6 91       		.byte	0x91
 4417 01c7 54       		.sleb128 -44
 4418 01c8 0E       		.uleb128 0xe
 4419 01c9 1E000000 		.4byte	.LBB2
 4420 01cd 42000000 		.4byte	.LBE2-.LBB2
 4421 01d1 29020000 		.4byte	0x229
 4422 01d5 0F       		.uleb128 0xf
 4423 01d6 6900     		.ascii	"i\000"
 4424 01d8 01       		.byte	0x1
 4425 01d9 0B01     		.2byte	0x10b
 4426 01db 8C000000 		.4byte	0x8c
 4427 01df C4250000 		.4byte	.LLST14
 4428 01e3 10       		.uleb128 0x10
 4429 01e4 00000000 		.4byte	.Ldebug_ranges0+0
 4430 01e8 0D       		.uleb128 0xd
 4431 01e9 90000000 		.4byte	.LASF19
 4432 01ed 01       		.byte	0x1
 4433 01ee 0D01     		.2byte	0x10d
 4434 01f0 0C030000 		.4byte	0x30c
 4435 01f4 03       		.uleb128 0x3
 4436 01f5 91       		.byte	0x91
 4437 01f6 947F     		.sleb128 -108
 4438 01f8 11       		.uleb128 0x11
 4439 01f9 18000000 		.4byte	.Ldebug_ranges0+0x18
 4440 01fd 10020000 		.4byte	0x210
 4441 0201 0F       		.uleb128 0xf
 4442 0202 6A00     		.ascii	"j\000"
 4443 0204 01       		.byte	0x1
 4444 0205 0F01     		.2byte	0x10f
 4445 0207 73000000 		.4byte	0x73
 4446 020b E3250000 		.4byte	.LLST15
 4447 020f 00       		.byte	0
 4448 0210 12       		.uleb128 0x12
 4449 0211 56000000 		.4byte	.LVL908
 4450 0215 AC000000 		.4byte	0xac
 4451 0219 13       		.uleb128 0x13
 4452 021a 01       		.uleb128 0x1
 4453 021b 50       		.byte	0x50
 4454 021c 02       		.uleb128 0x2
 4455 021d 91       		.byte	0x91
 4456 021e 54       		.sleb128 -44
 4457 021f 13       		.uleb128 0x13
 4458 0220 01       		.uleb128 0x1
 4459 0221 51       		.byte	0x51
 4460 0222 03       		.uleb128 0x3
 4461 0223 91       		.byte	0x91
 4462 0224 947F     		.sleb128 -108
 4463 0226 00       		.byte	0
 4464 0227 00       		.byte	0
 4465 0228 00       		.byte	0
 4466 0229 0E       		.uleb128 0xe
 4467 022a 60000000 		.4byte	.LBB7
 4468 022e 7A000000 		.4byte	.LBE7-.LBB7
 4469 0232 D2020000 		.4byte	0x2d2
 4470 0236 0D       		.uleb128 0xd
 4471 0237 90000000 		.4byte	.LASF19
ARM GAS  C:\Users\Ray\AppData\Local\Temp\ccdgjwii.s 			page 85


 4472 023b 01       		.byte	0x1
 4473 023c 1C01     		.2byte	0x11c
 4474 023e 0C030000 		.4byte	0x30c
 4475 0242 03       		.uleb128 0x3
 4476 0243 91       		.byte	0x91
 4477 0244 947F     		.sleb128 -108
 4478 0246 0E       		.uleb128 0xe
 4479 0247 6A000000 		.4byte	.LBB8
 4480 024b 28000000 		.4byte	.LBE8-.LBB8
 4481 024f 62020000 		.4byte	0x262
 4482 0253 0F       		.uleb128 0xf
 4483 0254 6900     		.ascii	"i\000"
 4484 0256 01       		.byte	0x1
 4485 0257 1E01     		.2byte	0x11e
 4486 0259 8C000000 		.4byte	0x8c
 4487 025d 01260000 		.4byte	.LLST16
 4488 0261 00       		.byte	0
 4489 0262 14       		.uleb128 0x14
 4490 0263 6A000000 		.4byte	.LVL910
 4491 0267 1C030000 		.4byte	0x31c
 4492 026b 82020000 		.4byte	0x282
 4493 026f 13       		.uleb128 0x13
 4494 0270 01       		.uleb128 0x1
 4495 0271 50       		.byte	0x50
 4496 0272 03       		.uleb128 0x3
 4497 0273 91       		.byte	0x91
 4498 0274 947F     		.sleb128 -108
 4499 0276 13       		.uleb128 0x13
 4500 0277 01       		.uleb128 0x1
 4501 0278 51       		.byte	0x51
 4502 0279 01       		.uleb128 0x1
 4503 027a 30       		.byte	0x30
 4504 027b 13       		.uleb128 0x13
 4505 027c 01       		.uleb128 0x1
 4506 027d 52       		.byte	0x52
 4507 027e 02       		.uleb128 0x2
 4508 027f 08       		.byte	0x8
 4509 0280 40       		.byte	0x40
 4510 0281 00       		.byte	0
 4511 0282 14       		.uleb128 0x14
 4512 0283 BC000000 		.4byte	.LVL919
 4513 0287 AC000000 		.4byte	0xac
 4514 028b 9C020000 		.4byte	0x29c
 4515 028f 13       		.uleb128 0x13
 4516 0290 01       		.uleb128 0x1
 4517 0291 50       		.byte	0x50
 4518 0292 02       		.uleb128 0x2
 4519 0293 91       		.byte	0x91
 4520 0294 54       		.sleb128 -44
 4521 0295 13       		.uleb128 0x13
 4522 0296 01       		.uleb128 0x1
 4523 0297 51       		.byte	0x51
 4524 0298 02       		.uleb128 0x2
 4525 0299 74       		.byte	0x74
 4526 029a 00       		.sleb128 0
 4527 029b 00       		.byte	0
 4528 029c 14       		.uleb128 0x14
ARM GAS  C:\Users\Ray\AppData\Local\Temp\ccdgjwii.s 			page 86


 4529 029d C6000000 		.4byte	.LVL920
 4530 02a1 1C030000 		.4byte	0x31c
 4531 02a5 BB020000 		.4byte	0x2bb
 4532 02a9 13       		.uleb128 0x13
 4533 02aa 01       		.uleb128 0x1
 4534 02ab 50       		.byte	0x50
 4535 02ac 02       		.uleb128 0x2
 4536 02ad 74       		.byte	0x74
 4537 02ae 00       		.sleb128 0
 4538 02af 13       		.uleb128 0x13
 4539 02b0 01       		.uleb128 0x1
 4540 02b1 51       		.byte	0x51
 4541 02b2 01       		.uleb128 0x1
 4542 02b3 30       		.byte	0x30
 4543 02b4 13       		.uleb128 0x13
 4544 02b5 01       		.uleb128 0x1
 4545 02b6 52       		.byte	0x52
 4546 02b7 02       		.uleb128 0x2
 4547 02b8 08       		.byte	0x8
 4548 02b9 40       		.byte	0x40
 4549 02ba 00       		.byte	0
 4550 02bb 12       		.uleb128 0x12
 4551 02bc DA000000 		.4byte	.LVL921
 4552 02c0 AC000000 		.4byte	0xac
 4553 02c4 13       		.uleb128 0x13
 4554 02c5 01       		.uleb128 0x1
 4555 02c6 50       		.byte	0x50
 4556 02c7 02       		.uleb128 0x2
 4557 02c8 91       		.byte	0x91
 4558 02c9 54       		.sleb128 -44
 4559 02ca 13       		.uleb128 0x13
 4560 02cb 01       		.uleb128 0x1
 4561 02cc 51       		.byte	0x51
 4562 02cd 02       		.uleb128 0x2
 4563 02ce 74       		.byte	0x74
 4564 02cf 00       		.sleb128 0
 4565 02d0 00       		.byte	0
 4566 02d1 00       		.byte	0
 4567 02d2 15       		.uleb128 0x15
 4568 02d3 DA000000 		.4byte	.LBB9
 4569 02d7 26000000 		.4byte	.LBE9-.LBB9
 4570 02db 0F       		.uleb128 0xf
 4571 02dc 6900     		.ascii	"i\000"
 4572 02de 01       		.byte	0x1
 4573 02df 2E01     		.2byte	0x12e
 4574 02e1 73000000 		.4byte	0x73
 4575 02e5 20260000 		.4byte	.LLST17
 4576 02e9 00       		.byte	0
 4577 02ea 00       		.byte	0
 4578 02eb 09       		.uleb128 0x9
 4579 02ec 04       		.byte	0x4
 4580 02ed 81000000 		.4byte	0x81
 4581 02f1 09       		.uleb128 0x9
 4582 02f2 04       		.byte	0x4
 4583 02f3 F7020000 		.4byte	0x2f7
 4584 02f7 16       		.uleb128 0x16
 4585 02f8 81000000 		.4byte	0x81
ARM GAS  C:\Users\Ray\AppData\Local\Temp\ccdgjwii.s 			page 87


 4586 02fc 17       		.uleb128 0x17
 4587 02fd 8C000000 		.4byte	0x8c
 4588 0301 0C030000 		.4byte	0x30c
 4589 0305 18       		.uleb128 0x18
 4590 0306 9E000000 		.4byte	0x9e
 4591 030a 04       		.byte	0x4
 4592 030b 00       		.byte	0
 4593 030c 17       		.uleb128 0x17
 4594 030d 8C000000 		.4byte	0x8c
 4595 0311 1C030000 		.4byte	0x31c
 4596 0315 18       		.uleb128 0x18
 4597 0316 9E000000 		.4byte	0x9e
 4598 031a 0F       		.byte	0xf
 4599 031b 00       		.byte	0
 4600 031c 19       		.uleb128 0x19
 4601 031d 7E000000 		.4byte	.LASF25
 4602 0321 7E000000 		.4byte	.LASF25
 4603 0325 00       		.byte	0
 4604              		.section	.debug_abbrev,"",%progbits
 4605              	.Ldebug_abbrev0:
 4606 0000 01       		.uleb128 0x1
 4607 0001 11       		.uleb128 0x11
 4608 0002 01       		.byte	0x1
 4609 0003 25       		.uleb128 0x25
 4610 0004 0E       		.uleb128 0xe
 4611 0005 13       		.uleb128 0x13
 4612 0006 0B       		.uleb128 0xb
 4613 0007 03       		.uleb128 0x3
 4614 0008 0E       		.uleb128 0xe
 4615 0009 1B       		.uleb128 0x1b
 4616 000a 0E       		.uleb128 0xe
 4617 000b 55       		.uleb128 0x55
 4618 000c 17       		.uleb128 0x17
 4619 000d 11       		.uleb128 0x11
 4620 000e 01       		.uleb128 0x1
 4621 000f 10       		.uleb128 0x10
 4622 0010 17       		.uleb128 0x17
 4623 0011 00       		.byte	0
 4624 0012 00       		.byte	0
 4625 0013 02       		.uleb128 0x2
 4626 0014 24       		.uleb128 0x24
 4627 0015 00       		.byte	0
 4628 0016 0B       		.uleb128 0xb
 4629 0017 0B       		.uleb128 0xb
 4630 0018 3E       		.uleb128 0x3e
 4631 0019 0B       		.uleb128 0xb
 4632 001a 03       		.uleb128 0x3
 4633 001b 0E       		.uleb128 0xe
 4634 001c 00       		.byte	0
 4635 001d 00       		.byte	0
 4636 001e 03       		.uleb128 0x3
 4637 001f 16       		.uleb128 0x16
 4638 0020 00       		.byte	0
 4639 0021 03       		.uleb128 0x3
 4640 0022 0E       		.uleb128 0xe
 4641 0023 3A       		.uleb128 0x3a
 4642 0024 0B       		.uleb128 0xb
ARM GAS  C:\Users\Ray\AppData\Local\Temp\ccdgjwii.s 			page 88


 4643 0025 3B       		.uleb128 0x3b
 4644 0026 0B       		.uleb128 0xb
 4645 0027 49       		.uleb128 0x49
 4646 0028 13       		.uleb128 0x13
 4647 0029 00       		.byte	0
 4648 002a 00       		.byte	0
 4649 002b 04       		.uleb128 0x4
 4650 002c 24       		.uleb128 0x24
 4651 002d 00       		.byte	0
 4652 002e 0B       		.uleb128 0xb
 4653 002f 0B       		.uleb128 0xb
 4654 0030 3E       		.uleb128 0x3e
 4655 0031 0B       		.uleb128 0xb
 4656 0032 03       		.uleb128 0x3
 4657 0033 08       		.uleb128 0x8
 4658 0034 00       		.byte	0
 4659 0035 00       		.byte	0
 4660 0036 05       		.uleb128 0x5
 4661 0037 2E       		.uleb128 0x2e
 4662 0038 01       		.byte	0x1
 4663 0039 03       		.uleb128 0x3
 4664 003a 0E       		.uleb128 0xe
 4665 003b 3A       		.uleb128 0x3a
 4666 003c 0B       		.uleb128 0xb
 4667 003d 3B       		.uleb128 0x3b
 4668 003e 0B       		.uleb128 0xb
 4669 003f 27       		.uleb128 0x27
 4670 0040 19       		.uleb128 0x19
 4671 0041 11       		.uleb128 0x11
 4672 0042 01       		.uleb128 0x1
 4673 0043 12       		.uleb128 0x12
 4674 0044 06       		.uleb128 0x6
 4675 0045 40       		.uleb128 0x40
 4676 0046 18       		.uleb128 0x18
 4677 0047 9742     		.uleb128 0x2117
 4678 0049 19       		.uleb128 0x19
 4679 004a 01       		.uleb128 0x1
 4680 004b 13       		.uleb128 0x13
 4681 004c 00       		.byte	0
 4682 004d 00       		.byte	0
 4683 004e 06       		.uleb128 0x6
 4684 004f 05       		.uleb128 0x5
 4685 0050 00       		.byte	0
 4686 0051 03       		.uleb128 0x3
 4687 0052 0E       		.uleb128 0xe
 4688 0053 3A       		.uleb128 0x3a
 4689 0054 0B       		.uleb128 0xb
 4690 0055 3B       		.uleb128 0x3b
 4691 0056 0B       		.uleb128 0xb
 4692 0057 49       		.uleb128 0x49
 4693 0058 13       		.uleb128 0x13
 4694 0059 02       		.uleb128 0x2
 4695 005a 18       		.uleb128 0x18
 4696 005b 00       		.byte	0
 4697 005c 00       		.byte	0
 4698 005d 07       		.uleb128 0x7
 4699 005e 05       		.uleb128 0x5
ARM GAS  C:\Users\Ray\AppData\Local\Temp\ccdgjwii.s 			page 89


 4700 005f 00       		.byte	0
 4701 0060 03       		.uleb128 0x3
 4702 0061 08       		.uleb128 0x8
 4703 0062 3A       		.uleb128 0x3a
 4704 0063 0B       		.uleb128 0xb
 4705 0064 3B       		.uleb128 0x3b
 4706 0065 0B       		.uleb128 0xb
 4707 0066 49       		.uleb128 0x49
 4708 0067 13       		.uleb128 0x13
 4709 0068 02       		.uleb128 0x2
 4710 0069 17       		.uleb128 0x17
 4711 006a 00       		.byte	0
 4712 006b 00       		.byte	0
 4713 006c 08       		.uleb128 0x8
 4714 006d 34       		.uleb128 0x34
 4715 006e 00       		.byte	0
 4716 006f 03       		.uleb128 0x3
 4717 0070 08       		.uleb128 0x8
 4718 0071 3A       		.uleb128 0x3a
 4719 0072 0B       		.uleb128 0xb
 4720 0073 3B       		.uleb128 0x3b
 4721 0074 0B       		.uleb128 0xb
 4722 0075 49       		.uleb128 0x49
 4723 0076 13       		.uleb128 0x13
 4724 0077 02       		.uleb128 0x2
 4725 0078 17       		.uleb128 0x17
 4726 0079 00       		.byte	0
 4727 007a 00       		.byte	0
 4728 007b 09       		.uleb128 0x9
 4729 007c 0F       		.uleb128 0xf
 4730 007d 00       		.byte	0
 4731 007e 0B       		.uleb128 0xb
 4732 007f 0B       		.uleb128 0xb
 4733 0080 49       		.uleb128 0x49
 4734 0081 13       		.uleb128 0x13
 4735 0082 00       		.byte	0
 4736 0083 00       		.byte	0
 4737 0084 0A       		.uleb128 0xa
 4738 0085 2E       		.uleb128 0x2e
 4739 0086 01       		.byte	0x1
 4740 0087 3F       		.uleb128 0x3f
 4741 0088 19       		.uleb128 0x19
 4742 0089 03       		.uleb128 0x3
 4743 008a 0E       		.uleb128 0xe
 4744 008b 3A       		.uleb128 0x3a
 4745 008c 0B       		.uleb128 0xb
 4746 008d 3B       		.uleb128 0x3b
 4747 008e 05       		.uleb128 0x5
 4748 008f 27       		.uleb128 0x27
 4749 0090 19       		.uleb128 0x19
 4750 0091 11       		.uleb128 0x11
 4751 0092 01       		.uleb128 0x1
 4752 0093 12       		.uleb128 0x12
 4753 0094 06       		.uleb128 0x6
 4754 0095 40       		.uleb128 0x40
 4755 0096 18       		.uleb128 0x18
 4756 0097 9742     		.uleb128 0x2117
ARM GAS  C:\Users\Ray\AppData\Local\Temp\ccdgjwii.s 			page 90


 4757 0099 19       		.uleb128 0x19
 4758 009a 01       		.uleb128 0x1
 4759 009b 13       		.uleb128 0x13
 4760 009c 00       		.byte	0
 4761 009d 00       		.byte	0
 4762 009e 0B       		.uleb128 0xb
 4763 009f 05       		.uleb128 0x5
 4764 00a0 00       		.byte	0
 4765 00a1 03       		.uleb128 0x3
 4766 00a2 0E       		.uleb128 0xe
 4767 00a3 3A       		.uleb128 0x3a
 4768 00a4 0B       		.uleb128 0xb
 4769 00a5 3B       		.uleb128 0x3b
 4770 00a6 05       		.uleb128 0x5
 4771 00a7 49       		.uleb128 0x49
 4772 00a8 13       		.uleb128 0x13
 4773 00a9 02       		.uleb128 0x2
 4774 00aa 17       		.uleb128 0x17
 4775 00ab 00       		.byte	0
 4776 00ac 00       		.byte	0
 4777 00ad 0C       		.uleb128 0xc
 4778 00ae 05       		.uleb128 0x5
 4779 00af 00       		.byte	0
 4780 00b0 03       		.uleb128 0x3
 4781 00b1 08       		.uleb128 0x8
 4782 00b2 3A       		.uleb128 0x3a
 4783 00b3 0B       		.uleb128 0xb
 4784 00b4 3B       		.uleb128 0x3b
 4785 00b5 05       		.uleb128 0x5
 4786 00b6 49       		.uleb128 0x49
 4787 00b7 13       		.uleb128 0x13
 4788 00b8 02       		.uleb128 0x2
 4789 00b9 17       		.uleb128 0x17
 4790 00ba 00       		.byte	0
 4791 00bb 00       		.byte	0
 4792 00bc 0D       		.uleb128 0xd
 4793 00bd 34       		.uleb128 0x34
 4794 00be 00       		.byte	0
 4795 00bf 03       		.uleb128 0x3
 4796 00c0 0E       		.uleb128 0xe
 4797 00c1 3A       		.uleb128 0x3a
 4798 00c2 0B       		.uleb128 0xb
 4799 00c3 3B       		.uleb128 0x3b
 4800 00c4 05       		.uleb128 0x5
 4801 00c5 49       		.uleb128 0x49
 4802 00c6 13       		.uleb128 0x13
 4803 00c7 02       		.uleb128 0x2
 4804 00c8 18       		.uleb128 0x18
 4805 00c9 00       		.byte	0
 4806 00ca 00       		.byte	0
 4807 00cb 0E       		.uleb128 0xe
 4808 00cc 0B       		.uleb128 0xb
 4809 00cd 01       		.byte	0x1
 4810 00ce 11       		.uleb128 0x11
 4811 00cf 01       		.uleb128 0x1
 4812 00d0 12       		.uleb128 0x12
 4813 00d1 06       		.uleb128 0x6
ARM GAS  C:\Users\Ray\AppData\Local\Temp\ccdgjwii.s 			page 91


 4814 00d2 01       		.uleb128 0x1
 4815 00d3 13       		.uleb128 0x13
 4816 00d4 00       		.byte	0
 4817 00d5 00       		.byte	0
 4818 00d6 0F       		.uleb128 0xf
 4819 00d7 34       		.uleb128 0x34
 4820 00d8 00       		.byte	0
 4821 00d9 03       		.uleb128 0x3
 4822 00da 08       		.uleb128 0x8
 4823 00db 3A       		.uleb128 0x3a
 4824 00dc 0B       		.uleb128 0xb
 4825 00dd 3B       		.uleb128 0x3b
 4826 00de 05       		.uleb128 0x5
 4827 00df 49       		.uleb128 0x49
 4828 00e0 13       		.uleb128 0x13
 4829 00e1 02       		.uleb128 0x2
 4830 00e2 17       		.uleb128 0x17
 4831 00e3 00       		.byte	0
 4832 00e4 00       		.byte	0
 4833 00e5 10       		.uleb128 0x10
 4834 00e6 0B       		.uleb128 0xb
 4835 00e7 01       		.byte	0x1
 4836 00e8 55       		.uleb128 0x55
 4837 00e9 17       		.uleb128 0x17
 4838 00ea 00       		.byte	0
 4839 00eb 00       		.byte	0
 4840 00ec 11       		.uleb128 0x11
 4841 00ed 0B       		.uleb128 0xb
 4842 00ee 01       		.byte	0x1
 4843 00ef 55       		.uleb128 0x55
 4844 00f0 17       		.uleb128 0x17
 4845 00f1 01       		.uleb128 0x1
 4846 00f2 13       		.uleb128 0x13
 4847 00f3 00       		.byte	0
 4848 00f4 00       		.byte	0
 4849 00f5 12       		.uleb128 0x12
 4850 00f6 898201   		.uleb128 0x4109
 4851 00f9 01       		.byte	0x1
 4852 00fa 11       		.uleb128 0x11
 4853 00fb 01       		.uleb128 0x1
 4854 00fc 31       		.uleb128 0x31
 4855 00fd 13       		.uleb128 0x13
 4856 00fe 00       		.byte	0
 4857 00ff 00       		.byte	0
 4858 0100 13       		.uleb128 0x13
 4859 0101 8A8201   		.uleb128 0x410a
 4860 0104 00       		.byte	0
 4861 0105 02       		.uleb128 0x2
 4862 0106 18       		.uleb128 0x18
 4863 0107 9142     		.uleb128 0x2111
 4864 0109 18       		.uleb128 0x18
 4865 010a 00       		.byte	0
 4866 010b 00       		.byte	0
 4867 010c 14       		.uleb128 0x14
 4868 010d 898201   		.uleb128 0x4109
 4869 0110 01       		.byte	0x1
 4870 0111 11       		.uleb128 0x11
ARM GAS  C:\Users\Ray\AppData\Local\Temp\ccdgjwii.s 			page 92


 4871 0112 01       		.uleb128 0x1
 4872 0113 31       		.uleb128 0x31
 4873 0114 13       		.uleb128 0x13
 4874 0115 01       		.uleb128 0x1
 4875 0116 13       		.uleb128 0x13
 4876 0117 00       		.byte	0
 4877 0118 00       		.byte	0
 4878 0119 15       		.uleb128 0x15
 4879 011a 0B       		.uleb128 0xb
 4880 011b 01       		.byte	0x1
 4881 011c 11       		.uleb128 0x11
 4882 011d 01       		.uleb128 0x1
 4883 011e 12       		.uleb128 0x12
 4884 011f 06       		.uleb128 0x6
 4885 0120 00       		.byte	0
 4886 0121 00       		.byte	0
 4887 0122 16       		.uleb128 0x16
 4888 0123 26       		.uleb128 0x26
 4889 0124 00       		.byte	0
 4890 0125 49       		.uleb128 0x49
 4891 0126 13       		.uleb128 0x13
 4892 0127 00       		.byte	0
 4893 0128 00       		.byte	0
 4894 0129 17       		.uleb128 0x17
 4895 012a 01       		.uleb128 0x1
 4896 012b 01       		.byte	0x1
 4897 012c 49       		.uleb128 0x49
 4898 012d 13       		.uleb128 0x13
 4899 012e 01       		.uleb128 0x1
 4900 012f 13       		.uleb128 0x13
 4901 0130 00       		.byte	0
 4902 0131 00       		.byte	0
 4903 0132 18       		.uleb128 0x18
 4904 0133 21       		.uleb128 0x21
 4905 0134 00       		.byte	0
 4906 0135 49       		.uleb128 0x49
 4907 0136 13       		.uleb128 0x13
 4908 0137 2F       		.uleb128 0x2f
 4909 0138 0B       		.uleb128 0xb
 4910 0139 00       		.byte	0
 4911 013a 00       		.byte	0
 4912 013b 19       		.uleb128 0x19
 4913 013c 2E       		.uleb128 0x2e
 4914 013d 00       		.byte	0
 4915 013e 3F       		.uleb128 0x3f
 4916 013f 19       		.uleb128 0x19
 4917 0140 3C       		.uleb128 0x3c
 4918 0141 19       		.uleb128 0x19
 4919 0142 6E       		.uleb128 0x6e
 4920 0143 0E       		.uleb128 0xe
 4921 0144 03       		.uleb128 0x3
 4922 0145 0E       		.uleb128 0xe
 4923 0146 00       		.byte	0
 4924 0147 00       		.byte	0
 4925 0148 00       		.byte	0
 4926              		.section	.debug_loc,"",%progbits
 4927              	.Ldebug_loc0:
ARM GAS  C:\Users\Ray\AppData\Local\Temp\ccdgjwii.s 			page 93


 4928              	.LLST0:
 4929 0000 00000000 		.4byte	.LVL0
 4930 0004 3A000000 		.4byte	.LVL5
 4931 0008 0100     		.2byte	0x1
 4932 000a 51       		.byte	0x51
 4933 000b 3A000000 		.4byte	.LVL5
 4934 000f 4E020000 		.4byte	.LVL82
 4935 0013 0100     		.2byte	0x1
 4936 0015 5B       		.byte	0x5b
 4937 0016 4E020000 		.4byte	.LVL82
 4938 001a 24160000 		.4byte	.LFE0
 4939 001e 0400     		.2byte	0x4
 4940 0020 F3       		.byte	0xf3
 4941 0021 01       		.uleb128 0x1
 4942 0022 51       		.byte	0x51
 4943 0023 9F       		.byte	0x9f
 4944 0024 00000000 		.4byte	0
 4945 0028 00000000 		.4byte	0
 4946              	.LLST1:
 4947 002c 10000000 		.4byte	.LVL1
 4948 0030 28000000 		.4byte	.LVL2
 4949 0034 0200     		.2byte	0x2
 4950 0036 70       		.byte	0x70
 4951 0037 00       		.sleb128 0
 4952 0038 28000000 		.4byte	.LVL2
 4953 003c 2C000000 		.4byte	.LVL3
 4954 0040 0100     		.2byte	0x1
 4955 0042 52       		.byte	0x52
 4956 0043 2C000000 		.4byte	.LVL3
 4957 0047 32000000 		.4byte	.LVL4
 4958 004b 1300     		.2byte	0x13
 4959 004d 70       		.byte	0x70
 4960 004e 04       		.sleb128 4
 4961 004f 06       		.byte	0x6
 4962 0050 70       		.byte	0x70
 4963 0051 08       		.sleb128 8
 4964 0052 06       		.byte	0x6
 4965 0053 27       		.byte	0x27
 4966 0054 70       		.byte	0x70
 4967 0055 0C       		.sleb128 12
 4968 0056 06       		.byte	0x6
 4969 0057 27       		.byte	0x27
 4970 0058 70       		.byte	0x70
 4971 0059 00       		.sleb128 0
 4972 005a 06       		.byte	0x6
 4973 005b 22       		.byte	0x22
 4974 005c 73       		.byte	0x73
 4975 005d 00       		.sleb128 0
 4976 005e 22       		.byte	0x22
 4977 005f 9F       		.byte	0x9f
 4978 0060 32000000 		.4byte	.LVL4
 4979 0064 E0000000 		.4byte	.LVL28
 4980 0068 0100     		.2byte	0x1
 4981 006a 52       		.byte	0x52
 4982 006b E0000000 		.4byte	.LVL28
 4983 006f E4000000 		.4byte	.LVL29
 4984 0073 3000     		.2byte	0x30
ARM GAS  C:\Users\Ray\AppData\Local\Temp\ccdgjwii.s 			page 94


 4985 0075 70       		.byte	0x70
 4986 0076 04       		.sleb128 4
 4987 0077 06       		.byte	0x6
 4988 0078 70       		.byte	0x70
 4989 0079 08       		.sleb128 8
 4990 007a 06       		.byte	0x6
 4991 007b 27       		.byte	0x27
 4992 007c 70       		.byte	0x70
 4993 007d 0C       		.sleb128 12
 4994 007e 06       		.byte	0x6
 4995 007f 27       		.byte	0x27
 4996 0080 70       		.byte	0x70
 4997 0081 00       		.sleb128 0
 4998 0082 06       		.byte	0x6
 4999 0083 22       		.byte	0x22
 5000 0084 7B       		.byte	0x7b
 5001 0085 00       		.sleb128 0
 5002 0086 06       		.byte	0x6
 5003 0087 22       		.byte	0x22
 5004 0088 45       		.byte	0x45
 5005 0089 14       		.byte	0x14
 5006 008a 14       		.byte	0x14
 5007 008b 1F       		.byte	0x1f
 5008 008c 23       		.byte	0x23
 5009 008d 20       		.uleb128 0x20
 5010 008e 24       		.byte	0x24
 5011 008f 17       		.byte	0x17
 5012 0090 25       		.byte	0x25
 5013 0091 21       		.byte	0x21
 5014 0092 70       		.byte	0x70
 5015 0093 10       		.sleb128 16
 5016 0094 06       		.byte	0x6
 5017 0095 22       		.byte	0x22
 5018 0096 73       		.byte	0x73
 5019 0097 00       		.sleb128 0
 5020 0098 14       		.byte	0x14
 5021 0099 14       		.byte	0x14
 5022 009a 1F       		.byte	0x1f
 5023 009b 23       		.byte	0x23
 5024 009c 20       		.uleb128 0x20
 5025 009d 24       		.byte	0x24
 5026 009e 17       		.byte	0x17
 5027 009f 25       		.byte	0x25
 5028 00a0 21       		.byte	0x21
 5029 00a1 77       		.byte	0x77
 5030 00a2 00       		.sleb128 0
 5031 00a3 22       		.byte	0x22
 5032 00a4 9F       		.byte	0x9f
 5033 00a5 E4000000 		.4byte	.LVL29
 5034 00a9 E8000000 		.4byte	.LVL31
 5035 00ad 0100     		.2byte	0x1
 5036 00af 52       		.byte	0x52
 5037 00b0 E8000000 		.4byte	.LVL31
 5038 00b4 28010000 		.4byte	.LVL39
 5039 00b8 0100     		.2byte	0x1
 5040 00ba 5A       		.byte	0x5a
 5041 00bb 28010000 		.4byte	.LVL39
ARM GAS  C:\Users\Ray\AppData\Local\Temp\ccdgjwii.s 			page 95


 5042 00bf 7E010000 		.4byte	.LVL49
 5043 00c3 0100     		.2byte	0x1
 5044 00c5 52       		.byte	0x52
 5045 00c6 80010000 		.4byte	.LVL50
 5046 00ca 94010000 		.4byte	.LVL52
 5047 00ce 0100     		.2byte	0x1
 5048 00d0 57       		.byte	0x57
 5049 00d1 94010000 		.4byte	.LVL52
 5050 00d5 C4010000 		.4byte	.LVL62
 5051 00d9 0300     		.2byte	0x3
 5052 00db 91       		.byte	0x91
 5053 00dc AC7F     		.sleb128 -84
 5054 00de C4010000 		.4byte	.LVL62
 5055 00e2 26020000 		.4byte	.LVL75
 5056 00e6 0100     		.2byte	0x1
 5057 00e8 52       		.byte	0x52
 5058 00e9 2A020000 		.4byte	.LVL76
 5059 00ed 78020000 		.4byte	.LVL88
 5060 00f1 0100     		.2byte	0x1
 5061 00f3 5A       		.byte	0x5a
 5062 00f4 78020000 		.4byte	.LVL88
 5063 00f8 D6020000 		.4byte	.LVL104
 5064 00fc 0100     		.2byte	0x1
 5065 00fe 55       		.byte	0x55
 5066 00ff DC020000 		.4byte	.LVL105
 5067 0103 E0020000 		.4byte	.LVL106
 5068 0107 0100     		.2byte	0x1
 5069 0109 55       		.byte	0x55
 5070 010a E2020000 		.4byte	.LVL107
 5071 010e 36030000 		.4byte	.LVL120
 5072 0112 0100     		.2byte	0x1
 5073 0114 55       		.byte	0x55
 5074 0115 38030000 		.4byte	.LVL121
 5075 0119 3A030000 		.4byte	.LVL122
 5076 011d 0100     		.2byte	0x1
 5077 011f 55       		.byte	0x55
 5078 0120 3A030000 		.4byte	.LVL122
 5079 0124 9A030000 		.4byte	.LVL133
 5080 0128 0100     		.2byte	0x1
 5081 012a 5B       		.byte	0x5b
 5082 012b 9A030000 		.4byte	.LVL133
 5083 012f 9E030000 		.4byte	.LVL134
 5084 0133 0100     		.2byte	0x1
 5085 0135 55       		.byte	0x55
 5086 0136 9E030000 		.4byte	.LVL134
 5087 013a A0030000 		.4byte	.LVL135
 5088 013e 0900     		.2byte	0x9
 5089 0140 7A       		.byte	0x7a
 5090 0141 00       		.sleb128 0
 5091 0142 7B       		.byte	0x7b
 5092 0143 00       		.sleb128 0
 5093 0144 22       		.byte	0x22
 5094 0145 7C       		.byte	0x7c
 5095 0146 00       		.sleb128 0
 5096 0147 22       		.byte	0x22
 5097 0148 9F       		.byte	0x9f
 5098 0149 A0030000 		.4byte	.LVL135
ARM GAS  C:\Users\Ray\AppData\Local\Temp\ccdgjwii.s 			page 96


 5099 014d 36040000 		.4byte	.LVL159
 5100 0151 0100     		.2byte	0x1
 5101 0153 55       		.byte	0x55
 5102 0154 38040000 		.4byte	.LVL160
 5103 0158 3C040000 		.4byte	.LVL161
 5104 015c 0100     		.2byte	0x1
 5105 015e 55       		.byte	0x55
 5106 015f 40040000 		.4byte	.LVL162
 5107 0163 98040000 		.4byte	.LVL176
 5108 0167 0100     		.2byte	0x1
 5109 0169 5B       		.byte	0x5b
 5110 016a 98040000 		.4byte	.LVL176
 5111 016e 9A040000 		.4byte	.LVL177
 5112 0172 0100     		.2byte	0x1
 5113 0174 52       		.byte	0x52
 5114 0175 9A040000 		.4byte	.LVL177
 5115 0179 F4040000 		.4byte	.LVL189
 5116 017d 0100     		.2byte	0x1
 5117 017f 5B       		.byte	0x5b
 5118 0180 F4040000 		.4byte	.LVL189
 5119 0184 F8040000 		.4byte	.LVL190
 5120 0188 0100     		.2byte	0x1
 5121 018a 51       		.byte	0x51
 5122 018b F8040000 		.4byte	.LVL190
 5123 018f FA040000 		.4byte	.LVL191
 5124 0193 1500     		.2byte	0x15
 5125 0195 72       		.byte	0x72
 5126 0196 00       		.sleb128 0
 5127 0197 20       		.byte	0x20
 5128 0198 76       		.byte	0x76
 5129 0199 00       		.sleb128 0
 5130 019a 21       		.byte	0x21
 5131 019b 7A       		.byte	0x7a
 5132 019c 00       		.sleb128 0
 5133 019d 27       		.byte	0x27
 5134 019e 7C       		.byte	0x7c
 5135 019f 00       		.sleb128 0
 5136 01a0 22       		.byte	0x22
 5137 01a1 91       		.byte	0x91
 5138 01a2 907F     		.sleb128 -112
 5139 01a4 06       		.byte	0x6
 5140 01a5 22       		.byte	0x22
 5141 01a6 7B       		.byte	0x7b
 5142 01a7 00       		.sleb128 0
 5143 01a8 22       		.byte	0x22
 5144 01a9 9F       		.byte	0x9f
 5145 01aa FC040000 		.4byte	.LVL192
 5146 01ae 42050000 		.4byte	.LVL206
 5147 01b2 0100     		.2byte	0x1
 5148 01b4 5B       		.byte	0x5b
 5149 01b5 42050000 		.4byte	.LVL206
 5150 01b9 44050000 		.4byte	.LVL207
 5151 01bd 0100     		.2byte	0x1
 5152 01bf 51       		.byte	0x51
 5153 01c0 44050000 		.4byte	.LVL207
 5154 01c4 96050000 		.4byte	.LVL218
 5155 01c8 0100     		.2byte	0x1
ARM GAS  C:\Users\Ray\AppData\Local\Temp\ccdgjwii.s 			page 97


 5156 01ca 5B       		.byte	0x5b
 5157 01cb 9E050000 		.4byte	.LVL220
 5158 01cf A2050000 		.4byte	.LVL221
 5159 01d3 0100     		.2byte	0x1
 5160 01d5 51       		.byte	0x51
 5161 01d6 A2050000 		.4byte	.LVL221
 5162 01da A4050000 		.4byte	.LVL222
 5163 01de 0600     		.2byte	0x6
 5164 01e0 7B       		.byte	0x7b
 5165 01e1 00       		.sleb128 0
 5166 01e2 7C       		.byte	0x7c
 5167 01e3 00       		.sleb128 0
 5168 01e4 22       		.byte	0x22
 5169 01e5 9F       		.byte	0x9f
 5170 01e6 A4050000 		.4byte	.LVL222
 5171 01ea EC050000 		.4byte	.LVL233
 5172 01ee 0100     		.2byte	0x1
 5173 01f0 51       		.byte	0x51
 5174 01f1 EE050000 		.4byte	.LVL234
 5175 01f5 F0050000 		.4byte	.LVL235
 5176 01f9 0100     		.2byte	0x1
 5177 01fb 51       		.byte	0x51
 5178 01fc F0050000 		.4byte	.LVL235
 5179 0200 44060000 		.4byte	.LVL247
 5180 0204 0100     		.2byte	0x1
 5181 0206 5A       		.byte	0x5a
 5182 0207 44060000 		.4byte	.LVL247
 5183 020b 48060000 		.4byte	.LVL248
 5184 020f 0100     		.2byte	0x1
 5185 0211 52       		.byte	0x52
 5186 0212 48060000 		.4byte	.LVL248
 5187 0216 4A060000 		.4byte	.LVL249
 5188 021a 1300     		.2byte	0x13
 5189 021c 71       		.byte	0x71
 5190 021d 00       		.sleb128 0
 5191 021e 20       		.byte	0x20
 5192 021f 75       		.byte	0x75
 5193 0220 00       		.sleb128 0
 5194 0221 21       		.byte	0x21
 5195 0222 76       		.byte	0x76
 5196 0223 00       		.sleb128 0
 5197 0224 27       		.byte	0x27
 5198 0225 77       		.byte	0x77
 5199 0226 00       		.sleb128 0
 5200 0227 22       		.byte	0x22
 5201 0228 7A       		.byte	0x7a
 5202 0229 00       		.sleb128 0
 5203 022a 22       		.byte	0x22
 5204 022b 7C       		.byte	0x7c
 5205 022c 00       		.sleb128 0
 5206 022d 22       		.byte	0x22
 5207 022e 9F       		.byte	0x9f
 5208 022f 4A060000 		.4byte	.LVL249
 5209 0233 96060000 		.4byte	.LVL263
 5210 0237 0100     		.2byte	0x1
 5211 0239 52       		.byte	0x52
 5212 023a 98060000 		.4byte	.LVL264
ARM GAS  C:\Users\Ray\AppData\Local\Temp\ccdgjwii.s 			page 98


 5213 023e A2060000 		.4byte	.LVL265
 5214 0242 0100     		.2byte	0x1
 5215 0244 52       		.byte	0x52
 5216 0245 A2060000 		.4byte	.LVL265
 5217 0249 E0060000 		.4byte	.LVL276
 5218 024d 0100     		.2byte	0x1
 5219 024f 5B       		.byte	0x5b
 5220 0250 E4060000 		.4byte	.LVL278
 5221 0254 E8060000 		.4byte	.LVL279
 5222 0258 0100     		.2byte	0x1
 5223 025a 52       		.byte	0x52
 5224 025b E8060000 		.4byte	.LVL279
 5225 025f EA060000 		.4byte	.LVL280
 5226 0263 0600     		.2byte	0x6
 5227 0265 7B       		.byte	0x7b
 5228 0266 00       		.sleb128 0
 5229 0267 7C       		.byte	0x7c
 5230 0268 00       		.sleb128 0
 5231 0269 22       		.byte	0x22
 5232 026a 9F       		.byte	0x9f
 5233 026b EA060000 		.4byte	.LVL280
 5234 026f 34070000 		.4byte	.LVL294
 5235 0273 0100     		.2byte	0x1
 5236 0275 52       		.byte	0x52
 5237 0276 34070000 		.4byte	.LVL294
 5238 027a 8E070000 		.4byte	.LVL309
 5239 027e 0100     		.2byte	0x1
 5240 0280 56       		.byte	0x56
 5241 0281 92070000 		.4byte	.LVL310
 5242 0285 96070000 		.4byte	.LVL311
 5243 0289 0100     		.2byte	0x1
 5244 028b 55       		.byte	0x55
 5245 028c 9C070000 		.4byte	.LVL312
 5246 0290 4C080000 		.4byte	.LVL333
 5247 0294 0100     		.2byte	0x1
 5248 0296 55       		.byte	0x55
 5249 0297 52080000 		.4byte	.LVL334
 5250 029b 56080000 		.4byte	.LVL335
 5251 029f 0100     		.2byte	0x1
 5252 02a1 55       		.byte	0x55
 5253 02a2 5A080000 		.4byte	.LVL336
 5254 02a6 68080000 		.4byte	.LVL340
 5255 02aa 0100     		.2byte	0x1
 5256 02ac 55       		.byte	0x55
 5257 02ad 68080000 		.4byte	.LVL340
 5258 02b1 A4080000 		.4byte	.LVL351
 5259 02b5 0100     		.2byte	0x1
 5260 02b7 5B       		.byte	0x5b
 5261 02b8 A4080000 		.4byte	.LVL351
 5262 02bc A6080000 		.4byte	.LVL352
 5263 02c0 0100     		.2byte	0x1
 5264 02c2 55       		.byte	0x55
 5265 02c3 A6080000 		.4byte	.LVL352
 5266 02c7 06090000 		.4byte	.LVL363
 5267 02cb 0100     		.2byte	0x1
 5268 02cd 5B       		.byte	0x5b
 5269 02ce 06090000 		.4byte	.LVL363
ARM GAS  C:\Users\Ray\AppData\Local\Temp\ccdgjwii.s 			page 99


 5270 02d2 0A090000 		.4byte	.LVL364
 5271 02d6 0100     		.2byte	0x1
 5272 02d8 55       		.byte	0x55
 5273 02d9 0A090000 		.4byte	.LVL364
 5274 02dd 0E090000 		.4byte	.LVL365
 5275 02e1 0900     		.2byte	0x9
 5276 02e3 7A       		.byte	0x7a
 5277 02e4 00       		.sleb128 0
 5278 02e5 7B       		.byte	0x7b
 5279 02e6 00       		.sleb128 0
 5280 02e7 22       		.byte	0x22
 5281 02e8 7C       		.byte	0x7c
 5282 02e9 00       		.sleb128 0
 5283 02ea 22       		.byte	0x22
 5284 02eb 9F       		.byte	0x9f
 5285 02ec 0E090000 		.4byte	.LVL365
 5286 02f0 10090000 		.4byte	.LVL366
 5287 02f4 0C00     		.2byte	0xc
 5288 02f6 7A       		.byte	0x7a
 5289 02f7 00       		.sleb128 0
 5290 02f8 7B       		.byte	0x7b
 5291 02f9 00       		.sleb128 0
 5292 02fa 22       		.byte	0x22
 5293 02fb 0C       		.byte	0xc
 5294 02fc B202AC56 		.4byte	0x56ac02b2
 5295 0300 1C       		.byte	0x1c
 5296 0301 9F       		.byte	0x9f
 5297 0302 10090000 		.4byte	.LVL366
 5298 0306 AE090000 		.4byte	.LVL393
 5299 030a 0100     		.2byte	0x1
 5300 030c 55       		.byte	0x55
 5301 030d B2090000 		.4byte	.LVL394
 5302 0311 B6090000 		.4byte	.LVL395
 5303 0315 0100     		.2byte	0x1
 5304 0317 54       		.byte	0x54
 5305 0318 B8090000 		.4byte	.LVL396
 5306 031c C6090000 		.4byte	.LVL398
 5307 0320 0100     		.2byte	0x1
 5308 0322 54       		.byte	0x54
 5309 0323 C6090000 		.4byte	.LVL398
 5310 0327 FE090000 		.4byte	.LVL409
 5311 032b 0100     		.2byte	0x1
 5312 032d 5B       		.byte	0x5b
 5313 032e FE090000 		.4byte	.LVL409
 5314 0332 000A0000 		.4byte	.LVL410
 5315 0336 0100     		.2byte	0x1
 5316 0338 54       		.byte	0x54
 5317 0339 000A0000 		.4byte	.LVL410
 5318 033d 520A0000 		.4byte	.LVL424
 5319 0341 0100     		.2byte	0x1
 5320 0343 5B       		.byte	0x5b
 5321 0344 520A0000 		.4byte	.LVL424
 5322 0348 660A0000 		.4byte	.LVL425
 5323 034c 0100     		.2byte	0x1
 5324 034e 54       		.byte	0x54
 5325 034f 660A0000 		.4byte	.LVL425
 5326 0353 680A0000 		.4byte	.LVL426
ARM GAS  C:\Users\Ray\AppData\Local\Temp\ccdgjwii.s 			page 100


 5327 0357 0900     		.2byte	0x9
 5328 0359 75       		.byte	0x75
 5329 035a 00       		.sleb128 0
 5330 035b 7B       		.byte	0x7b
 5331 035c 00       		.sleb128 0
 5332 035d 22       		.byte	0x22
 5333 035e 7C       		.byte	0x7c
 5334 035f 00       		.sleb128 0
 5335 0360 22       		.byte	0x22
 5336 0361 9F       		.byte	0x9f
 5337 0362 680A0000 		.4byte	.LVL426
 5338 0366 A60A0000 		.4byte	.LVL436
 5339 036a 0100     		.2byte	0x1
 5340 036c 54       		.byte	0x54
 5341 036d A60A0000 		.4byte	.LVL436
 5342 0371 AC0A0000 		.4byte	.LVL437
 5343 0375 0100     		.2byte	0x1
 5344 0377 55       		.byte	0x55
 5345 0378 AC0A0000 		.4byte	.LVL437
 5346 037c 24160000 		.4byte	.LFE0
 5347 0380 0200     		.2byte	0x2
 5348 0382 91       		.byte	0x91
 5349 0383 44       		.sleb128 -60
 5350 0384 00000000 		.4byte	0
 5351 0388 00000000 		.4byte	0
 5352              	.LLST2:
 5353 038c 10000000 		.4byte	.LVL1
 5354 0390 5E000000 		.4byte	.LVL9
 5355 0394 0200     		.2byte	0x2
 5356 0396 70       		.byte	0x70
 5357 0397 04       		.sleb128 4
 5358 0398 5E000000 		.4byte	.LVL9
 5359 039c 6A000000 		.4byte	.LVL10
 5360 03a0 0100     		.2byte	0x1
 5361 03a2 57       		.byte	0x57
 5362 03a3 6A000000 		.4byte	.LVL10
 5363 03a7 C0000000 		.4byte	.LVL23
 5364 03ab 0300     		.2byte	0x3
 5365 03ad 91       		.byte	0x91
 5366 03ae BC7F     		.sleb128 -68
 5367 03b0 C0000000 		.4byte	.LVL23
 5368 03b4 C4000000 		.4byte	.LVL24
 5369 03b8 0100     		.2byte	0x1
 5370 03ba 56       		.byte	0x56
 5371 03bb C4000000 		.4byte	.LVL24
 5372 03bf C6000000 		.4byte	.LVL25
 5373 03c3 1100     		.2byte	0x11
 5374 03c5 75       		.byte	0x75
 5375 03c6 00       		.sleb128 0
 5376 03c7 71       		.byte	0x71
 5377 03c8 00       		.sleb128 0
 5378 03c9 27       		.byte	0x27
 5379 03ca 78       		.byte	0x78
 5380 03cb 00       		.sleb128 0
 5381 03cc 27       		.byte	0x27
 5382 03cd 91       		.byte	0x91
 5383 03ce BC7F     		.sleb128 -68
ARM GAS  C:\Users\Ray\AppData\Local\Temp\ccdgjwii.s 			page 101


 5384 03d0 06       		.byte	0x6
 5385 03d1 22       		.byte	0x22
 5386 03d2 77       		.byte	0x77
 5387 03d3 00       		.sleb128 0
 5388 03d4 22       		.byte	0x22
 5389 03d5 9F       		.byte	0x9f
 5390 03d6 C6000000 		.4byte	.LVL25
 5391 03da 5E010000 		.4byte	.LVL45
 5392 03de 0100     		.2byte	0x1
 5393 03e0 56       		.byte	0x56
 5394 03e1 60010000 		.4byte	.LVL46
 5395 03e5 BC010000 		.4byte	.LVL60
 5396 03e9 0100     		.2byte	0x1
 5397 03eb 56       		.byte	0x56
 5398 03ec BC010000 		.4byte	.LVL60
 5399 03f0 04020000 		.4byte	.LVL69
 5400 03f4 0300     		.2byte	0x3
 5401 03f6 91       		.byte	0x91
 5402 03f7 B47F     		.sleb128 -76
 5403 03f9 04020000 		.4byte	.LVL69
 5404 03fd 06020000 		.4byte	.LVL70
 5405 0401 0100     		.2byte	0x1
 5406 0403 55       		.byte	0x55
 5407 0404 06020000 		.4byte	.LVL70
 5408 0408 08020000 		.4byte	.LVL71
 5409 040c 0100     		.2byte	0x1
 5410 040e 56       		.byte	0x56
 5411 040f 08020000 		.4byte	.LVL71
 5412 0413 0A020000 		.4byte	.LVL72
 5413 0417 0800     		.2byte	0x8
 5414 0419 91       		.byte	0x91
 5415 041a B47F     		.sleb128 -76
 5416 041c 06       		.byte	0x6
 5417 041d 7A       		.byte	0x7a
 5418 041e 00       		.sleb128 0
 5419 041f 22       		.byte	0x22
 5420 0420 9F       		.byte	0x9f
 5421 0421 0A020000 		.4byte	.LVL72
 5422 0425 B0020000 		.4byte	.LVL97
 5423 0429 0100     		.2byte	0x1
 5424 042b 56       		.byte	0x56
 5425 042c B6020000 		.4byte	.LVL98
 5426 0430 BA020000 		.4byte	.LVL99
 5427 0434 0100     		.2byte	0x1
 5428 0436 56       		.byte	0x56
 5429 0437 BC020000 		.4byte	.LVL100
 5430 043b 70030000 		.4byte	.LVL127
 5431 043f 0100     		.2byte	0x1
 5432 0441 56       		.byte	0x56
 5433 0442 76030000 		.4byte	.LVL128
 5434 0446 7A030000 		.4byte	.LVL129
 5435 044a 0100     		.2byte	0x1
 5436 044c 56       		.byte	0x56
 5437 044d 7C030000 		.4byte	.LVL130
 5438 0451 BE030000 		.4byte	.LVL141
 5439 0455 0100     		.2byte	0x1
 5440 0457 56       		.byte	0x56
ARM GAS  C:\Users\Ray\AppData\Local\Temp\ccdgjwii.s 			page 102


 5441 0458 C0030000 		.4byte	.LVL142
 5442 045c CC030000 		.4byte	.LVL143
 5443 0460 0100     		.2byte	0x1
 5444 0462 56       		.byte	0x56
 5445 0463 CC030000 		.4byte	.LVL143
 5446 0467 16040000 		.4byte	.LVL153
 5447 046b 0100     		.2byte	0x1
 5448 046d 5B       		.byte	0x5b
 5449 046e 1E040000 		.4byte	.LVL155
 5450 0472 22040000 		.4byte	.LVL156
 5451 0476 0100     		.2byte	0x1
 5452 0478 56       		.byte	0x56
 5453 0479 22040000 		.4byte	.LVL156
 5454 047d 26040000 		.4byte	.LVL157
 5455 0481 0600     		.2byte	0x6
 5456 0483 7B       		.byte	0x7b
 5457 0484 00       		.sleb128 0
 5458 0485 7C       		.byte	0x7c
 5459 0486 00       		.sleb128 0
 5460 0487 22       		.byte	0x22
 5461 0488 9F       		.byte	0x9f
 5462 0489 26040000 		.4byte	.LVL157
 5463 048d 72040000 		.4byte	.LVL169
 5464 0491 0100     		.2byte	0x1
 5465 0493 5A       		.byte	0x5a
 5466 0494 72040000 		.4byte	.LVL169
 5467 0498 78040000 		.4byte	.LVL170
 5468 049c 0100     		.2byte	0x1
 5469 049e 52       		.byte	0x52
 5470 049f 78040000 		.4byte	.LVL170
 5471 04a3 CE040000 		.4byte	.LVL183
 5472 04a7 0100     		.2byte	0x1
 5473 04a9 56       		.byte	0x56
 5474 04aa D4040000 		.4byte	.LVL184
 5475 04ae D8040000 		.4byte	.LVL185
 5476 04b2 0100     		.2byte	0x1
 5477 04b4 56       		.byte	0x56
 5478 04b5 DA040000 		.4byte	.LVL186
 5479 04b9 1C050000 		.4byte	.LVL200
 5480 04bd 0100     		.2byte	0x1
 5481 04bf 56       		.byte	0x56
 5482 04c0 1C050000 		.4byte	.LVL200
 5483 04c4 26050000 		.4byte	.LVL201
 5484 04c8 0100     		.2byte	0x1
 5485 04ca 51       		.byte	0x51
 5486 04cb 26050000 		.4byte	.LVL201
 5487 04cf 74050000 		.4byte	.LVL212
 5488 04d3 0100     		.2byte	0x1
 5489 04d5 55       		.byte	0x55
 5490 04d6 7A050000 		.4byte	.LVL213
 5491 04da 7E050000 		.4byte	.LVL214
 5492 04de 0100     		.2byte	0x1
 5493 04e0 55       		.byte	0x55
 5494 04e1 80050000 		.4byte	.LVL215
 5495 04e5 1C060000 		.4byte	.LVL242
 5496 04e9 0100     		.2byte	0x1
 5497 04eb 55       		.byte	0x55
ARM GAS  C:\Users\Ray\AppData\Local\Temp\ccdgjwii.s 			page 103


 5498 04ec 22060000 		.4byte	.LVL243
 5499 04f0 26060000 		.4byte	.LVL244
 5500 04f4 0100     		.2byte	0x1
 5501 04f6 55       		.byte	0x55
 5502 04f7 28060000 		.4byte	.LVL245
 5503 04fb 70060000 		.4byte	.LVL257
 5504 04ff 0100     		.2byte	0x1
 5505 0501 55       		.byte	0x55
 5506 0502 72060000 		.4byte	.LVL258
 5507 0506 74060000 		.4byte	.LVL259
 5508 050a 0100     		.2byte	0x1
 5509 050c 55       		.byte	0x55
 5510 050d 74060000 		.4byte	.LVL259
 5511 0511 C6060000 		.4byte	.LVL271
 5512 0515 0100     		.2byte	0x1
 5513 0517 5A       		.byte	0x5a
 5514 0518 C6060000 		.4byte	.LVL271
 5515 051c CA060000 		.4byte	.LVL272
 5516 0520 0100     		.2byte	0x1
 5517 0522 54       		.byte	0x54
 5518 0523 CA060000 		.4byte	.LVL272
 5519 0527 CC060000 		.4byte	.LVL273
 5520 052b 1500     		.2byte	0x15
 5521 052d 75       		.byte	0x75
 5522 052e 00       		.sleb128 0
 5523 052f 71       		.byte	0x71
 5524 0530 00       		.sleb128 0
 5525 0531 27       		.byte	0x27
 5526 0532 76       		.byte	0x76
 5527 0533 00       		.sleb128 0
 5528 0534 1A       		.byte	0x1a
 5529 0535 75       		.byte	0x75
 5530 0536 00       		.sleb128 0
 5531 0537 27       		.byte	0x27
 5532 0538 78       		.byte	0x78
 5533 0539 00       		.sleb128 0
 5534 053a 22       		.byte	0x22
 5535 053b 7A       		.byte	0x7a
 5536 053c 00       		.sleb128 0
 5537 053d 22       		.byte	0x22
 5538 053e 7C       		.byte	0x7c
 5539 053f 00       		.sleb128 0
 5540 0540 22       		.byte	0x22
 5541 0541 9F       		.byte	0x9f
 5542 0542 CC060000 		.4byte	.LVL273
 5543 0546 12070000 		.4byte	.LVL288
 5544 054a 0100     		.2byte	0x1
 5545 054c 54       		.byte	0x54
 5546 054d 14070000 		.4byte	.LVL289
 5547 0551 1E070000 		.4byte	.LVL290
 5548 0555 0100     		.2byte	0x1
 5549 0557 54       		.byte	0x54
 5550 0558 1E070000 		.4byte	.LVL290
 5551 055c 68070000 		.4byte	.LVL301
 5552 0560 0100     		.2byte	0x1
 5553 0562 5B       		.byte	0x5b
 5554 0563 70070000 		.4byte	.LVL303
ARM GAS  C:\Users\Ray\AppData\Local\Temp\ccdgjwii.s 			page 104


 5555 0567 74070000 		.4byte	.LVL304
 5556 056b 0100     		.2byte	0x1
 5557 056d 54       		.byte	0x54
 5558 056e 74070000 		.4byte	.LVL304
 5559 0572 76070000 		.4byte	.LVL305
 5560 0576 0600     		.2byte	0x6
 5561 0578 7B       		.byte	0x7b
 5562 0579 00       		.sleb128 0
 5563 057a 7C       		.byte	0x7c
 5564 057b 00       		.sleb128 0
 5565 057c 22       		.byte	0x22
 5566 057d 9F       		.byte	0x9f
 5567 057e 76070000 		.4byte	.LVL305
 5568 0582 C4070000 		.4byte	.LVL317
 5569 0586 0100     		.2byte	0x1
 5570 0588 54       		.byte	0x54
 5571 0589 C4070000 		.4byte	.LVL317
 5572 058d D4070000 		.4byte	.LVL318
 5573 0591 0100     		.2byte	0x1
 5574 0593 51       		.byte	0x51
 5575 0594 D4070000 		.4byte	.LVL318
 5576 0598 30080000 		.4byte	.LVL329
 5577 059c 0200     		.2byte	0x2
 5578 059e 91       		.byte	0x91
 5579 059f 44       		.sleb128 -60
 5580 05a0 30080000 		.4byte	.LVL329
 5581 05a4 34080000 		.4byte	.LVL330
 5582 05a8 0100     		.2byte	0x1
 5583 05aa 51       		.byte	0x51
 5584 05ab 34080000 		.4byte	.LVL330
 5585 05af 36080000 		.4byte	.LVL331
 5586 05b3 1800     		.2byte	0x18
 5587 05b5 74       		.byte	0x74
 5588 05b6 00       		.sleb128 0
 5589 05b7 72       		.byte	0x72
 5590 05b8 00       		.sleb128 0
 5591 05b9 27       		.byte	0x27
 5592 05ba 7A       		.byte	0x7a
 5593 05bb 00       		.sleb128 0
 5594 05bc 1A       		.byte	0x1a
 5595 05bd 74       		.byte	0x74
 5596 05be 00       		.sleb128 0
 5597 05bf 27       		.byte	0x27
 5598 05c0 7C       		.byte	0x7c
 5599 05c1 00       		.sleb128 0
 5600 05c2 22       		.byte	0x22
 5601 05c3 91       		.byte	0x91
 5602 05c4 B47F     		.sleb128 -76
 5603 05c6 06       		.byte	0x6
 5604 05c7 22       		.byte	0x22
 5605 05c8 91       		.byte	0x91
 5606 05c9 44       		.sleb128 -60
 5607 05ca 06       		.byte	0x6
 5608 05cb 22       		.byte	0x22
 5609 05cc 9F       		.byte	0x9f
 5610 05cd 36080000 		.4byte	.LVL331
 5611 05d1 7C080000 		.4byte	.LVL344
ARM GAS  C:\Users\Ray\AppData\Local\Temp\ccdgjwii.s 			page 105


 5612 05d5 0100     		.2byte	0x1
 5613 05d7 51       		.byte	0x51
 5614 05d8 7E080000 		.4byte	.LVL345
 5615 05dc 86080000 		.4byte	.LVL346
 5616 05e0 0100     		.2byte	0x1
 5617 05e2 51       		.byte	0x51
 5618 05e3 86080000 		.4byte	.LVL346
 5619 05e7 E6080000 		.4byte	.LVL359
 5620 05eb 0200     		.2byte	0x2
 5621 05ed 91       		.byte	0x91
 5622 05ee 44       		.sleb128 -60
 5623 05ef E6080000 		.4byte	.LVL359
 5624 05f3 EA080000 		.4byte	.LVL360
 5625 05f7 0100     		.2byte	0x1
 5626 05f9 51       		.byte	0x51
 5627 05fa EA080000 		.4byte	.LVL360
 5628 05fe EC080000 		.4byte	.LVL361
 5629 0602 0600     		.2byte	0x6
 5630 0604 72       		.byte	0x72
 5631 0605 00       		.sleb128 0
 5632 0606 7C       		.byte	0x7c
 5633 0607 00       		.sleb128 0
 5634 0608 22       		.byte	0x22
 5635 0609 9F       		.byte	0x9f
 5636 060a EC080000 		.4byte	.LVL361
 5637 060e 36090000 		.4byte	.LVL373
 5638 0612 0100     		.2byte	0x1
 5639 0614 51       		.byte	0x51
 5640 0615 38090000 		.4byte	.LVL374
 5641 0619 52090000 		.4byte	.LVL380
 5642 061d 0100     		.2byte	0x1
 5643 061f 51       		.byte	0x51
 5644 0620 52090000 		.4byte	.LVL380
 5645 0624 92090000 		.4byte	.LVL387
 5646 0628 0200     		.2byte	0x2
 5647 062a 91       		.byte	0x91
 5648 062b 44       		.sleb128 -60
 5649 062c 92090000 		.4byte	.LVL387
 5650 0630 96090000 		.4byte	.LVL388
 5651 0634 0100     		.2byte	0x1
 5652 0636 51       		.byte	0x51
 5653 0637 96090000 		.4byte	.LVL388
 5654 063b 98090000 		.4byte	.LVL389
 5655 063f 0A00     		.2byte	0xa
 5656 0641 91       		.byte	0x91
 5657 0642 44       		.sleb128 -60
 5658 0643 06       		.byte	0x6
 5659 0644 7A       		.byte	0x7a
 5660 0645 00       		.sleb128 0
 5661 0646 22       		.byte	0x22
 5662 0647 7C       		.byte	0x7c
 5663 0648 00       		.sleb128 0
 5664 0649 22       		.byte	0x22
 5665 064a 9F       		.byte	0x9f
 5666 064b 98090000 		.4byte	.LVL389
 5667 064f DA090000 		.4byte	.LVL403
 5668 0653 0100     		.2byte	0x1
ARM GAS  C:\Users\Ray\AppData\Local\Temp\ccdgjwii.s 			page 106


 5669 0655 51       		.byte	0x51
 5670 0656 DC090000 		.4byte	.LVL404
 5671 065a DE090000 		.4byte	.LVL405
 5672 065e 0100     		.2byte	0x1
 5673 0660 51       		.byte	0x51
 5674 0661 DE090000 		.4byte	.LVL405
 5675 0665 2E0A0000 		.4byte	.LVL418
 5676 0669 0100     		.2byte	0x1
 5677 066b 55       		.byte	0x55
 5678 066c 320A0000 		.4byte	.LVL419
 5679 0670 360A0000 		.4byte	.LVL420
 5680 0674 0100     		.2byte	0x1
 5681 0676 52       		.byte	0x52
 5682 0677 380A0000 		.4byte	.LVL421
 5683 067b DC0A0000 		.4byte	.LVL444
 5684 067f 0100     		.2byte	0x1
 5685 0681 52       		.byte	0x52
 5686 0682 E20A0000 		.4byte	.LVL445
 5687 0686 E60A0000 		.4byte	.LVL446
 5688 068a 0100     		.2byte	0x1
 5689 068c 52       		.byte	0x52
 5690 068d F20A0000 		.4byte	.LVL447
 5691 0691 F40A0000 		.4byte	.LVL448
 5692 0695 0100     		.2byte	0x1
 5693 0697 52       		.byte	0x52
 5694 0698 F40A0000 		.4byte	.LVL448
 5695 069c 6C0B0000 		.4byte	.LVL465
 5696 06a0 0100     		.2byte	0x1
 5697 06a2 5A       		.byte	0x5a
 5698 06a3 6C0B0000 		.4byte	.LVL465
 5699 06a7 24160000 		.4byte	.LFE0
 5700 06ab 0200     		.2byte	0x2
 5701 06ad 91       		.byte	0x91
 5702 06ae 50       		.sleb128 -48
 5703 06af 00000000 		.4byte	0
 5704 06b3 00000000 		.4byte	0
 5705              	.LLST3:
 5706 06b7 10000000 		.4byte	.LVL1
 5707 06bb 3A000000 		.4byte	.LVL5
 5708 06bf 0200     		.2byte	0x2
 5709 06c1 70       		.byte	0x70
 5710 06c2 08       		.sleb128 8
 5711 06c3 3A000000 		.4byte	.LVL5
 5712 06c7 84000000 		.4byte	.LVL16
 5713 06cb 0100     		.2byte	0x1
 5714 06cd 51       		.byte	0x51
 5715 06ce 84000000 		.4byte	.LVL16
 5716 06d2 98000000 		.4byte	.LVL17
 5717 06d6 0100     		.2byte	0x1
 5718 06d8 57       		.byte	0x57
 5719 06d9 98000000 		.4byte	.LVL17
 5720 06dd 9C000000 		.4byte	.LVL18
 5721 06e1 0100     		.2byte	0x1
 5722 06e3 51       		.byte	0x51
 5723 06e4 9C000000 		.4byte	.LVL18
 5724 06e8 A2000000 		.4byte	.LVL19
 5725 06ec 1000     		.2byte	0x10
ARM GAS  C:\Users\Ray\AppData\Local\Temp\ccdgjwii.s 			page 107


 5726 06ee 74       		.byte	0x74
 5727 06ef 00       		.sleb128 0
 5728 06f0 75       		.byte	0x75
 5729 06f1 00       		.sleb128 0
 5730 06f2 27       		.byte	0x27
 5731 06f3 72       		.byte	0x72
 5732 06f4 00       		.sleb128 0
 5733 06f5 27       		.byte	0x27
 5734 06f6 77       		.byte	0x77
 5735 06f7 00       		.sleb128 0
 5736 06f8 22       		.byte	0x22
 5737 06f9 7B       		.byte	0x7b
 5738 06fa 0C       		.sleb128 12
 5739 06fb 06       		.byte	0x6
 5740 06fc 22       		.byte	0x22
 5741 06fd 9F       		.byte	0x9f
 5742 06fe A2000000 		.4byte	.LVL19
 5743 0702 42010000 		.4byte	.LVL41
 5744 0706 0100     		.2byte	0x1
 5745 0708 51       		.byte	0x51
 5746 0709 44010000 		.4byte	.LVL42
 5747 070d 66010000 		.4byte	.LVL47
 5748 0711 0100     		.2byte	0x1
 5749 0713 55       		.byte	0x55
 5750 0714 66010000 		.4byte	.LVL47
 5751 0718 84010000 		.4byte	.LVL51
 5752 071c 0300     		.2byte	0x3
 5753 071e 91       		.byte	0x91
 5754 071f A87F     		.sleb128 -88
 5755 0721 84010000 		.4byte	.LVL51
 5756 0725 B8010000 		.4byte	.LVL58
 5757 0729 0100     		.2byte	0x1
 5758 072b 51       		.byte	0x51
 5759 072c B8010000 		.4byte	.LVL58
 5760 0730 DA010000 		.4byte	.LVL63
 5761 0734 0300     		.2byte	0x3
 5762 0736 91       		.byte	0x91
 5763 0737 B07F     		.sleb128 -80
 5764 0739 DA010000 		.4byte	.LVL63
 5765 073d DE010000 		.4byte	.LVL64
 5766 0741 0100     		.2byte	0x1
 5767 0743 51       		.byte	0x51
 5768 0744 DE010000 		.4byte	.LVL64
 5769 0748 E6010000 		.4byte	.LVL65
 5770 074c 0800     		.2byte	0x8
 5771 074e 91       		.byte	0x91
 5772 074f B07F     		.sleb128 -80
 5773 0751 06       		.byte	0x6
 5774 0752 7A       		.byte	0x7a
 5775 0753 00       		.sleb128 0
 5776 0754 22       		.byte	0x22
 5777 0755 9F       		.byte	0x9f
 5778 0756 E6010000 		.4byte	.LVL65
 5779 075a EA010000 		.4byte	.LVL67
 5780 075e 0100     		.2byte	0x1
 5781 0760 51       		.byte	0x51
 5782 0761 EA010000 		.4byte	.LVL67
ARM GAS  C:\Users\Ray\AppData\Local\Temp\ccdgjwii.s 			page 108


 5783 0765 2E020000 		.4byte	.LVL77
 5784 0769 0200     		.2byte	0x2
 5785 076b 91       		.byte	0x91
 5786 076c 44       		.sleb128 -60
 5787 076d 2E020000 		.4byte	.LVL77
 5788 0771 8A020000 		.4byte	.LVL89
 5789 0775 0100     		.2byte	0x1
 5790 0777 52       		.byte	0x52
 5791 0778 90020000 		.4byte	.LVL90
 5792 077c 94020000 		.4byte	.LVL91
 5793 0780 0100     		.2byte	0x1
 5794 0782 52       		.byte	0x52
 5795 0783 96020000 		.4byte	.LVL92
 5796 0787 06030000 		.4byte	.LVL112
 5797 078b 0100     		.2byte	0x1
 5798 078d 52       		.byte	0x52
 5799 078e 06030000 		.4byte	.LVL112
 5800 0792 56030000 		.4byte	.LVL123
 5801 0796 0200     		.2byte	0x2
 5802 0798 91       		.byte	0x91
 5803 0799 44       		.sleb128 -60
 5804 079a 56030000 		.4byte	.LVL123
 5805 079e 5A030000 		.4byte	.LVL124
 5806 07a2 0100     		.2byte	0x1
 5807 07a4 52       		.byte	0x52
 5808 07a5 5A030000 		.4byte	.LVL124
 5809 07a9 5C030000 		.4byte	.LVL125
 5810 07ad 0A00     		.2byte	0xa
 5811 07af 91       		.byte	0x91
 5812 07b0 44       		.sleb128 -60
 5813 07b1 06       		.byte	0x6
 5814 07b2 7A       		.byte	0x7a
 5815 07b3 00       		.sleb128 0
 5816 07b4 22       		.byte	0x22
 5817 07b5 7C       		.byte	0x7c
 5818 07b6 00       		.sleb128 0
 5819 07b7 22       		.byte	0x22
 5820 07b8 9F       		.byte	0x9f
 5821 07b9 5C030000 		.4byte	.LVL125
 5822 07bd F4030000 		.4byte	.LVL148
 5823 07c1 0100     		.2byte	0x1
 5824 07c3 52       		.byte	0x52
 5825 07c4 FA030000 		.4byte	.LVL149
 5826 07c8 FE030000 		.4byte	.LVL150
 5827 07cc 0100     		.2byte	0x1
 5828 07ce 52       		.byte	0x52
 5829 07cf 00040000 		.4byte	.LVL151
 5830 07d3 1A040000 		.4byte	.LVL154
 5831 07d7 0100     		.2byte	0x1
 5832 07d9 52       		.byte	0x52
 5833 07da 1A040000 		.4byte	.LVL154
 5834 07de 44040000 		.4byte	.LVL163
 5835 07e2 0200     		.2byte	0x2
 5836 07e4 91       		.byte	0x91
 5837 07e5 44       		.sleb128 -60
 5838 07e6 44040000 		.4byte	.LVL163
 5839 07ea 50040000 		.4byte	.LVL164
ARM GAS  C:\Users\Ray\AppData\Local\Temp\ccdgjwii.s 			page 109


 5840 07ee 0100     		.2byte	0x1
 5841 07f0 56       		.byte	0x56
 5842 07f1 50040000 		.4byte	.LVL164
 5843 07f5 92040000 		.4byte	.LVL174
 5844 07f9 0200     		.2byte	0x2
 5845 07fb 91       		.byte	0x91
 5846 07fc 44       		.sleb128 -60
 5847 07fd 92040000 		.4byte	.LVL174
 5848 0801 AC040000 		.4byte	.LVL178
 5849 0805 0100     		.2byte	0x1
 5850 0807 55       		.byte	0x55
 5851 0808 B4040000 		.4byte	.LVL179
 5852 080c B8040000 		.4byte	.LVL180
 5853 0810 0100     		.2byte	0x1
 5854 0812 52       		.byte	0x52
 5855 0813 BA040000 		.4byte	.LVL181
 5856 0817 FE040000 		.4byte	.LVL193
 5857 081b 0100     		.2byte	0x1
 5858 081d 52       		.byte	0x52
 5859 081e 00050000 		.4byte	.LVL194
 5860 0822 04050000 		.4byte	.LVL195
 5861 0826 0100     		.2byte	0x1
 5862 0828 52       		.byte	0x52
 5863 0829 04050000 		.4byte	.LVL195
 5864 082d 5C050000 		.4byte	.LVL208
 5865 0831 0200     		.2byte	0x2
 5866 0833 91       		.byte	0x91
 5867 0834 44       		.sleb128 -60
 5868 0835 5C050000 		.4byte	.LVL208
 5869 0839 60050000 		.4byte	.LVL209
 5870 083d 0100     		.2byte	0x1
 5871 083f 52       		.byte	0x52
 5872 0840 60050000 		.4byte	.LVL209
 5873 0844 62050000 		.4byte	.LVL210
 5874 0848 0A00     		.2byte	0xa
 5875 084a 91       		.byte	0x91
 5876 084b 44       		.sleb128 -60
 5877 084c 06       		.byte	0x6
 5878 084d 7A       		.byte	0x7a
 5879 084e 00       		.sleb128 0
 5880 084f 22       		.byte	0x22
 5881 0850 7C       		.byte	0x7c
 5882 0851 00       		.sleb128 0
 5883 0852 22       		.byte	0x22
 5884 0853 9F       		.byte	0x9f
 5885 0854 62050000 		.4byte	.LVL210
 5886 0858 AA050000 		.4byte	.LVL223
 5887 085c 0100     		.2byte	0x1
 5888 085e 52       		.byte	0x52
 5889 085f AA050000 		.4byte	.LVL223
 5890 0863 BC050000 		.4byte	.LVL225
 5891 0867 0100     		.2byte	0x1
 5892 0869 56       		.byte	0x56
 5893 086a BC050000 		.4byte	.LVL225
 5894 086e 04060000 		.4byte	.LVL236
 5895 0872 0100     		.2byte	0x1
 5896 0874 5B       		.byte	0x5b
ARM GAS  C:\Users\Ray\AppData\Local\Temp\ccdgjwii.s 			page 110


 5897 0875 04060000 		.4byte	.LVL236
 5898 0879 08060000 		.4byte	.LVL237
 5899 087d 0100     		.2byte	0x1
 5900 087f 51       		.byte	0x51
 5901 0880 08060000 		.4byte	.LVL237
 5902 0884 0A060000 		.4byte	.LVL238
 5903 0888 1500     		.2byte	0x15
 5904 088a 74       		.byte	0x74
 5905 088b 00       		.sleb128 0
 5906 088c 20       		.byte	0x20
 5907 088d 76       		.byte	0x76
 5908 088e 00       		.sleb128 0
 5909 088f 21       		.byte	0x21
 5910 0890 7A       		.byte	0x7a
 5911 0891 00       		.sleb128 0
 5912 0892 27       		.byte	0x27
 5913 0893 7C       		.byte	0x7c
 5914 0894 00       		.sleb128 0
 5915 0895 22       		.byte	0x22
 5916 0896 91       		.byte	0x91
 5917 0897 987F     		.sleb128 -104
 5918 0899 06       		.byte	0x6
 5919 089a 22       		.byte	0x22
 5920 089b 7B       		.byte	0x7b
 5921 089c 00       		.sleb128 0
 5922 089d 22       		.byte	0x22
 5923 089e 9F       		.byte	0x9f
 5924 089f 0A060000 		.4byte	.LVL238
 5925 08a3 A8060000 		.4byte	.LVL266
 5926 08a7 0100     		.2byte	0x1
 5927 08a9 51       		.byte	0x51
 5928 08aa AE060000 		.4byte	.LVL267
 5929 08ae B2060000 		.4byte	.LVL268
 5930 08b2 0100     		.2byte	0x1
 5931 08b4 51       		.byte	0x51
 5932 08b5 B4060000 		.4byte	.LVL269
 5933 08b9 EC060000 		.4byte	.LVL281
 5934 08bd 0100     		.2byte	0x1
 5935 08bf 51       		.byte	0x51
 5936 08c0 EE060000 		.4byte	.LVL282
 5937 08c4 F0060000 		.4byte	.LVL283
 5938 08c8 0100     		.2byte	0x1
 5939 08ca 51       		.byte	0x51
 5940 08cb F0060000 		.4byte	.LVL283
 5941 08cf 4A070000 		.4byte	.LVL295
 5942 08d3 0100     		.2byte	0x1
 5943 08d5 5A       		.byte	0x5a
 5944 08d6 4A070000 		.4byte	.LVL295
 5945 08da 4E070000 		.4byte	.LVL296
 5946 08de 0100     		.2byte	0x1
 5947 08e0 52       		.byte	0x52
 5948 08e1 4E070000 		.4byte	.LVL296
 5949 08e5 50070000 		.4byte	.LVL297
 5950 08e9 1700     		.2byte	0x17
 5951 08eb 71       		.byte	0x71
 5952 08ec 00       		.sleb128 0
 5953 08ed 75       		.byte	0x75
ARM GAS  C:\Users\Ray\AppData\Local\Temp\ccdgjwii.s 			page 111


 5954 08ee 00       		.sleb128 0
 5955 08ef 27       		.byte	0x27
 5956 08f0 76       		.byte	0x76
 5957 08f1 00       		.sleb128 0
 5958 08f2 1A       		.byte	0x1a
 5959 08f3 71       		.byte	0x71
 5960 08f4 00       		.sleb128 0
 5961 08f5 27       		.byte	0x27
 5962 08f6 7C       		.byte	0x7c
 5963 08f7 00       		.sleb128 0
 5964 08f8 22       		.byte	0x22
 5965 08f9 91       		.byte	0x91
 5966 08fa A07F     		.sleb128 -96
 5967 08fc 06       		.byte	0x6
 5968 08fd 22       		.byte	0x22
 5969 08fe 7A       		.byte	0x7a
 5970 08ff 00       		.sleb128 0
 5971 0900 22       		.byte	0x22
 5972 0901 9F       		.byte	0x9f
 5973 0902 50070000 		.4byte	.LVL297
 5974 0906 FC070000 		.4byte	.LVL323
 5975 090a 0100     		.2byte	0x1
 5976 090c 52       		.byte	0x52
 5977 090d 02080000 		.4byte	.LVL324
 5978 0911 06080000 		.4byte	.LVL325
 5979 0915 0100     		.2byte	0x1
 5980 0917 52       		.byte	0x52
 5981 0918 0C080000 		.4byte	.LVL326
 5982 091c 5C080000 		.4byte	.LVL337
 5983 0920 0100     		.2byte	0x1
 5984 0922 52       		.byte	0x52
 5985 0923 5E080000 		.4byte	.LVL338
 5986 0927 60080000 		.4byte	.LVL339
 5987 092b 0100     		.2byte	0x1
 5988 092d 52       		.byte	0x52
 5989 092e 60080000 		.4byte	.LVL339
 5990 0932 B8080000 		.4byte	.LVL353
 5991 0936 0100     		.2byte	0x1
 5992 0938 56       		.byte	0x56
 5993 0939 BE080000 		.4byte	.LVL354
 5994 093d C2080000 		.4byte	.LVL355
 5995 0941 0100     		.2byte	0x1
 5996 0943 56       		.byte	0x56
 5997 0944 C8080000 		.4byte	.LVL356
 5998 0948 12090000 		.4byte	.LVL367
 5999 094c 0100     		.2byte	0x1
 6000 094e 56       		.byte	0x56
 6001 094f 14090000 		.4byte	.LVL368
 6002 0953 18090000 		.4byte	.LVL369
 6003 0957 0100     		.2byte	0x1
 6004 0959 56       		.byte	0x56
 6005 095a 18090000 		.4byte	.LVL369
 6006 095e 68090000 		.4byte	.LVL382
 6007 0962 0100     		.2byte	0x1
 6008 0964 5B       		.byte	0x5b
 6009 0965 68090000 		.4byte	.LVL382
 6010 0969 6C090000 		.4byte	.LVL383
ARM GAS  C:\Users\Ray\AppData\Local\Temp\ccdgjwii.s 			page 112


 6011 096d 0100     		.2byte	0x1
 6012 096f 56       		.byte	0x56
 6013 0970 6C090000 		.4byte	.LVL383
 6014 0974 6E090000 		.4byte	.LVL384
 6015 0978 0900     		.2byte	0x9
 6016 097a 7A       		.byte	0x7a
 6017 097b 00       		.sleb128 0
 6018 097c 7B       		.byte	0x7b
 6019 097d 00       		.sleb128 0
 6020 097e 22       		.byte	0x22
 6021 097f 7C       		.byte	0x7c
 6022 0980 00       		.sleb128 0
 6023 0981 22       		.byte	0x22
 6024 0982 9F       		.byte	0x9f
 6025 0983 74090000 		.4byte	.LVL385
 6026 0987 BC090000 		.4byte	.LVL397
 6027 098b 0100     		.2byte	0x1
 6028 098d 5B       		.byte	0x5b
 6029 098e BC090000 		.4byte	.LVL397
 6030 0992 0E0A0000 		.4byte	.LVL411
 6031 0996 0100     		.2byte	0x1
 6032 0998 56       		.byte	0x56
 6033 0999 140A0000 		.4byte	.LVL412
 6034 099d 180A0000 		.4byte	.LVL413
 6035 09a1 0100     		.2byte	0x1
 6036 09a3 56       		.byte	0x56
 6037 09a4 1A0A0000 		.4byte	.LVL414
 6038 09a8 B80A0000 		.4byte	.LVL438
 6039 09ac 0100     		.2byte	0x1
 6040 09ae 56       		.byte	0x56
 6041 09af BE0A0000 		.4byte	.LVL439
 6042 09b3 C20A0000 		.4byte	.LVL440
 6043 09b7 0100     		.2byte	0x1
 6044 09b9 56       		.byte	0x56
 6045 09ba C60A0000 		.4byte	.LVL441
 6046 09be D60A0000 		.4byte	.LVL443
 6047 09c2 0100     		.2byte	0x1
 6048 09c4 55       		.byte	0x55
 6049 09c5 D60A0000 		.4byte	.LVL443
 6050 09c9 24160000 		.4byte	.LFE0
 6051 09cd 0200     		.2byte	0x2
 6052 09cf 91       		.byte	0x91
 6053 09d0 48       		.sleb128 -56
 6054 09d1 00000000 		.4byte	0
 6055 09d5 00000000 		.4byte	0
 6056              	.LLST4:
 6057 09d9 10000000 		.4byte	.LVL1
 6058 09dd 76000000 		.4byte	.LVL11
 6059 09e1 0200     		.2byte	0x2
 6060 09e3 70       		.byte	0x70
 6061 09e4 0C       		.sleb128 12
 6062 09e5 76000000 		.4byte	.LVL11
 6063 09e9 7A000000 		.4byte	.LVL12
 6064 09ed 0100     		.2byte	0x1
 6065 09ef 55       		.byte	0x55
 6066 09f0 7A000000 		.4byte	.LVL12
 6067 09f4 7C000000 		.4byte	.LVL13
ARM GAS  C:\Users\Ray\AppData\Local\Temp\ccdgjwii.s 			page 113


 6068 09f8 1200     		.2byte	0x12
 6069 09fa 72       		.byte	0x72
 6070 09fb 00       		.sleb128 0
 6071 09fc 74       		.byte	0x74
 6072 09fd 00       		.sleb128 0
 6073 09fe 27       		.byte	0x27
 6074 09ff 91       		.byte	0x91
 6075 0a00 BC7F     		.sleb128 -68
 6076 0a02 06       		.byte	0x6
 6077 0a03 27       		.byte	0x27
 6078 0a04 70       		.byte	0x70
 6079 0a05 0C       		.sleb128 12
 6080 0a06 06       		.byte	0x6
 6081 0a07 22       		.byte	0x22
 6082 0a08 77       		.byte	0x77
 6083 0a09 00       		.sleb128 0
 6084 0a0a 22       		.byte	0x22
 6085 0a0b 9F       		.byte	0x9f
 6086 0a0c 7C000000 		.4byte	.LVL13
 6087 0a10 80000000 		.4byte	.LVL14
 6088 0a14 1300     		.2byte	0x13
 6089 0a16 72       		.byte	0x72
 6090 0a17 00       		.sleb128 0
 6091 0a18 74       		.byte	0x74
 6092 0a19 00       		.sleb128 0
 6093 0a1a 27       		.byte	0x27
 6094 0a1b 91       		.byte	0x91
 6095 0a1c BC7F     		.sleb128 -68
 6096 0a1e 06       		.byte	0x6
 6097 0a1f 27       		.byte	0x27
 6098 0a20 70       		.byte	0x70
 6099 0a21 0C       		.sleb128 12
 6100 0a22 06       		.byte	0x6
 6101 0a23 22       		.byte	0x22
 6102 0a24 7B       		.byte	0x7b
 6103 0a25 08       		.sleb128 8
 6104 0a26 06       		.byte	0x6
 6105 0a27 22       		.byte	0x22
 6106 0a28 9F       		.byte	0x9f
 6107 0a29 80000000 		.4byte	.LVL14
 6108 0a2d 20010000 		.4byte	.LVL37
 6109 0a31 0100     		.2byte	0x1
 6110 0a33 55       		.byte	0x55
 6111 0a34 24010000 		.4byte	.LVL38
 6112 0a38 66010000 		.4byte	.LVL47
 6113 0a3c 0100     		.2byte	0x1
 6114 0a3e 5C       		.byte	0x5c
 6115 0a3f 66010000 		.4byte	.LVL47
 6116 0a43 BA010000 		.4byte	.LVL59
 6117 0a47 0100     		.2byte	0x1
 6118 0a49 55       		.byte	0x55
 6119 0a4a C0010000 		.4byte	.LVL61
 6120 0a4e EE010000 		.4byte	.LVL68
 6121 0a52 0100     		.2byte	0x1
 6122 0a54 55       		.byte	0x55
 6123 0a55 EE010000 		.4byte	.LVL68
 6124 0a59 30020000 		.4byte	.LVL78
ARM GAS  C:\Users\Ray\AppData\Local\Temp\ccdgjwii.s 			page 114


 6125 0a5d 0100     		.2byte	0x1
 6126 0a5f 51       		.byte	0x51
 6127 0a60 30020000 		.4byte	.LVL78
 6128 0a64 6C020000 		.4byte	.LVL85
 6129 0a68 0200     		.2byte	0x2
 6130 0a6a 91       		.byte	0x91
 6131 0a6b 48       		.sleb128 -56
 6132 0a6c 6C020000 		.4byte	.LVL85
 6133 0a70 70020000 		.4byte	.LVL86
 6134 0a74 0100     		.2byte	0x1
 6135 0a76 51       		.byte	0x51
 6136 0a77 70020000 		.4byte	.LVL86
 6137 0a7b 74020000 		.4byte	.LVL87
 6138 0a7f 1600     		.2byte	0x16
 6139 0a81 7A       		.byte	0x7a
 6140 0a82 00       		.sleb128 0
 6141 0a83 76       		.byte	0x76
 6142 0a84 00       		.sleb128 0
 6143 0a85 27       		.byte	0x27
 6144 0a86 7B       		.byte	0x7b
 6145 0a87 00       		.sleb128 0
 6146 0a88 1A       		.byte	0x1a
 6147 0a89 76       		.byte	0x76
 6148 0a8a 00       		.sleb128 0
 6149 0a8b 27       		.byte	0x27
 6150 0a8c 74       		.byte	0x74
 6151 0a8d 00       		.sleb128 0
 6152 0a8e 22       		.byte	0x22
 6153 0a8f 7C       		.byte	0x7c
 6154 0a90 00       		.sleb128 0
 6155 0a91 22       		.byte	0x22
 6156 0a92 91       		.byte	0x91
 6157 0a93 48       		.sleb128 -56
 6158 0a94 06       		.byte	0x6
 6159 0a95 22       		.byte	0x22
 6160 0a96 9F       		.byte	0x9f
 6161 0a97 74020000 		.4byte	.LVL87
 6162 0a9b A0020000 		.4byte	.LVL95
 6163 0a9f 0100     		.2byte	0x1
 6164 0aa1 51       		.byte	0x51
 6165 0aa2 A0020000 		.4byte	.LVL95
 6166 0aa6 A2020000 		.4byte	.LVL96
 6167 0aaa 0100     		.2byte	0x1
 6168 0aac 54       		.byte	0x54
 6169 0aad A2020000 		.4byte	.LVL96
 6170 0ab1 C2020000 		.4byte	.LVL101
 6171 0ab5 0200     		.2byte	0x2
 6172 0ab7 91       		.byte	0x91
 6173 0ab8 44       		.sleb128 -60
 6174 0ab9 C2020000 		.4byte	.LVL101
 6175 0abd C4020000 		.4byte	.LVL102
 6176 0ac1 0100     		.2byte	0x1
 6177 0ac3 51       		.byte	0x51
 6178 0ac4 C4020000 		.4byte	.LVL102
 6179 0ac8 D0020000 		.4byte	.LVL103
 6180 0acc 0100     		.2byte	0x1
 6181 0ace 54       		.byte	0x54
ARM GAS  C:\Users\Ray\AppData\Local\Temp\ccdgjwii.s 			page 115


 6182 0acf D0020000 		.4byte	.LVL103
 6183 0ad3 2A030000 		.4byte	.LVL116
 6184 0ad7 0200     		.2byte	0x2
 6185 0ad9 91       		.byte	0x91
 6186 0ada 48       		.sleb128 -56
 6187 0adb 2A030000 		.4byte	.LVL116
 6188 0adf 2E030000 		.4byte	.LVL117
 6189 0ae3 0100     		.2byte	0x1
 6190 0ae5 51       		.byte	0x51
 6191 0ae6 2E030000 		.4byte	.LVL117
 6192 0aea 32030000 		.4byte	.LVL118
 6193 0aee 0A00     		.2byte	0xa
 6194 0af0 91       		.byte	0x91
 6195 0af1 48       		.sleb128 -56
 6196 0af2 06       		.byte	0x6
 6197 0af3 7A       		.byte	0x7a
 6198 0af4 00       		.sleb128 0
 6199 0af5 22       		.byte	0x22
 6200 0af6 7C       		.byte	0x7c
 6201 0af7 00       		.sleb128 0
 6202 0af8 22       		.byte	0x22
 6203 0af9 9F       		.byte	0x9f
 6204 0afa 32030000 		.4byte	.LVL118
 6205 0afe 34030000 		.4byte	.LVL119
 6206 0b02 0D00     		.2byte	0xd
 6207 0b04 91       		.byte	0x91
 6208 0b05 48       		.sleb128 -56
 6209 0b06 06       		.byte	0x6
 6210 0b07 7A       		.byte	0x7a
 6211 0b08 00       		.sleb128 0
 6212 0b09 22       		.byte	0x22
 6213 0b0a 23       		.byte	0x23
 6214 0b0b 99F389D4 		.uleb128 0x5a827999
 6214      05
 6215 0b10 9F       		.byte	0x9f
 6216 0b11 34030000 		.4byte	.LVL119
 6217 0b15 96030000 		.4byte	.LVL132
 6218 0b19 0100     		.2byte	0x1
 6219 0b1b 51       		.byte	0x51
 6220 0b1c 96030000 		.4byte	.LVL132
 6221 0b20 DA030000 		.4byte	.LVL144
 6222 0b24 0200     		.2byte	0x2
 6223 0b26 91       		.byte	0x91
 6224 0b27 44       		.sleb128 -60
 6225 0b28 DA030000 		.4byte	.LVL144
 6226 0b2c DE030000 		.4byte	.LVL145
 6227 0b30 0100     		.2byte	0x1
 6228 0b32 51       		.byte	0x51
 6229 0b33 DE030000 		.4byte	.LVL145
 6230 0b37 E0030000 		.4byte	.LVL146
 6231 0b3b 0A00     		.2byte	0xa
 6232 0b3d 91       		.byte	0x91
 6233 0b3e 44       		.sleb128 -60
 6234 0b3f 06       		.byte	0x6
 6235 0b40 7A       		.byte	0x7a
 6236 0b41 00       		.sleb128 0
 6237 0b42 22       		.byte	0x22
ARM GAS  C:\Users\Ray\AppData\Local\Temp\ccdgjwii.s 			page 116


 6238 0b43 7C       		.byte	0x7c
 6239 0b44 00       		.sleb128 0
 6240 0b45 22       		.byte	0x22
 6241 0b46 9F       		.byte	0x9f
 6242 0b47 E0030000 		.4byte	.LVL146
 6243 0b4b 7E040000 		.4byte	.LVL171
 6244 0b4f 0100     		.2byte	0x1
 6245 0b51 51       		.byte	0x51
 6246 0b52 84040000 		.4byte	.LVL172
 6247 0b56 88040000 		.4byte	.LVL173
 6248 0b5a 0100     		.2byte	0x1
 6249 0b5c 51       		.byte	0x51
 6250 0b5d 92040000 		.4byte	.LVL174
 6251 0b61 94040000 		.4byte	.LVL175
 6252 0b65 0100     		.2byte	0x1
 6253 0b67 52       		.byte	0x52
 6254 0b68 94040000 		.4byte	.LVL175
 6255 0b6c DE040000 		.4byte	.LVL187
 6256 0b70 0200     		.2byte	0x2
 6257 0b72 91       		.byte	0x91
 6258 0b73 44       		.sleb128 -60
 6259 0b74 DE040000 		.4byte	.LVL187
 6260 0b78 E0040000 		.4byte	.LVL188
 6261 0b7c 0100     		.2byte	0x1
 6262 0b7e 51       		.byte	0x51
 6263 0b7f E0040000 		.4byte	.LVL188
 6264 0b83 32050000 		.4byte	.LVL202
 6265 0b87 0100     		.2byte	0x1
 6266 0b89 5A       		.byte	0x5a
 6267 0b8a 32050000 		.4byte	.LVL202
 6268 0b8e 36050000 		.4byte	.LVL203
 6269 0b92 0100     		.2byte	0x1
 6270 0b94 56       		.byte	0x56
 6271 0b95 36050000 		.4byte	.LVL203
 6272 0b99 3A050000 		.4byte	.LVL204
 6273 0b9d 1500     		.2byte	0x15
 6274 0b9f 7B       		.byte	0x7b
 6275 0ba0 00       		.sleb128 0
 6276 0ba1 20       		.byte	0x20
 6277 0ba2 74       		.byte	0x74
 6278 0ba3 00       		.sleb128 0
 6279 0ba4 21       		.byte	0x21
 6280 0ba5 75       		.byte	0x75
 6281 0ba6 00       		.sleb128 0
 6282 0ba7 27       		.byte	0x27
 6283 0ba8 7C       		.byte	0x7c
 6284 0ba9 00       		.sleb128 0
 6285 0baa 22       		.byte	0x22
 6286 0bab 91       		.byte	0x91
 6287 0bac B47F     		.sleb128 -76
 6288 0bae 06       		.byte	0x6
 6289 0baf 22       		.byte	0x22
 6290 0bb0 7A       		.byte	0x7a
 6291 0bb1 00       		.sleb128 0
 6292 0bb2 22       		.byte	0x22
 6293 0bb3 9F       		.byte	0x9f
 6294 0bb4 3A050000 		.4byte	.LVL204
ARM GAS  C:\Users\Ray\AppData\Local\Temp\ccdgjwii.s 			page 117


 6295 0bb8 3C050000 		.4byte	.LVL205
 6296 0bbc 1800     		.2byte	0x18
 6297 0bbe 7B       		.byte	0x7b
 6298 0bbf 00       		.sleb128 0
 6299 0bc0 20       		.byte	0x20
 6300 0bc1 74       		.byte	0x74
 6301 0bc2 00       		.sleb128 0
 6302 0bc3 21       		.byte	0x21
 6303 0bc4 75       		.byte	0x75
 6304 0bc5 00       		.sleb128 0
 6305 0bc6 27       		.byte	0x27
 6306 0bc7 91       		.byte	0x91
 6307 0bc8 B47F     		.sleb128 -76
 6308 0bca 06       		.byte	0x6
 6309 0bcb 22       		.byte	0x22
 6310 0bcc 7A       		.byte	0x7a
 6311 0bcd 00       		.sleb128 0
 6312 0bce 22       		.byte	0x22
 6313 0bcf 23       		.byte	0x23
 6314 0bd0 A1D7E7F6 		.uleb128 0x6ed9eba1
 6314      06
 6315 0bd5 9F       		.byte	0x9f
 6316 0bd6 3C050000 		.4byte	.LVL205
 6317 0bda 82050000 		.4byte	.LVL216
 6318 0bde 0100     		.2byte	0x1
 6319 0be0 56       		.byte	0x56
 6320 0be1 84050000 		.4byte	.LVL217
 6321 0be5 98050000 		.4byte	.LVL219
 6322 0be9 0100     		.2byte	0x1
 6323 0beb 51       		.byte	0x51
 6324 0bec 98050000 		.4byte	.LVL219
 6325 0bf0 E4050000 		.4byte	.LVL230
 6326 0bf4 0200     		.2byte	0x2
 6327 0bf6 91       		.byte	0x91
 6328 0bf7 44       		.sleb128 -60
 6329 0bf8 E4050000 		.4byte	.LVL230
 6330 0bfc E8050000 		.4byte	.LVL231
 6331 0c00 0100     		.2byte	0x1
 6332 0c02 56       		.byte	0x56
 6333 0c03 E8050000 		.4byte	.LVL231
 6334 0c07 EA050000 		.4byte	.LVL232
 6335 0c0b 0A00     		.2byte	0xa
 6336 0c0d 91       		.byte	0x91
 6337 0c0e 44       		.sleb128 -60
 6338 0c0f 06       		.byte	0x6
 6339 0c10 7A       		.byte	0x7a
 6340 0c11 00       		.sleb128 0
 6341 0c12 22       		.byte	0x22
 6342 0c13 7C       		.byte	0x7c
 6343 0c14 00       		.sleb128 0
 6344 0c15 22       		.byte	0x22
 6345 0c16 9F       		.byte	0x9f
 6346 0c17 EA050000 		.4byte	.LVL232
 6347 0c1b 66060000 		.4byte	.LVL253
 6348 0c1f 0100     		.2byte	0x1
 6349 0c21 56       		.byte	0x56
 6350 0c22 66060000 		.4byte	.LVL253
ARM GAS  C:\Users\Ray\AppData\Local\Temp\ccdgjwii.s 			page 118


 6351 0c26 8E060000 		.4byte	.LVL260
 6352 0c2a 0200     		.2byte	0x2
 6353 0c2c 91       		.byte	0x91
 6354 0c2d 44       		.sleb128 -60
 6355 0c2e 8E060000 		.4byte	.LVL260
 6356 0c32 92060000 		.4byte	.LVL261
 6357 0c36 0100     		.2byte	0x1
 6358 0c38 55       		.byte	0x55
 6359 0c39 92060000 		.4byte	.LVL261
 6360 0c3d 94060000 		.4byte	.LVL262
 6361 0c41 1600     		.2byte	0x16
 6362 0c43 72       		.byte	0x72
 6363 0c44 00       		.sleb128 0
 6364 0c45 20       		.byte	0x20
 6365 0c46 74       		.byte	0x74
 6366 0c47 00       		.sleb128 0
 6367 0c48 21       		.byte	0x21
 6368 0c49 7A       		.byte	0x7a
 6369 0c4a 00       		.sleb128 0
 6370 0c4b 27       		.byte	0x27
 6371 0c4c 7C       		.byte	0x7c
 6372 0c4d 00       		.sleb128 0
 6373 0c4e 22       		.byte	0x22
 6374 0c4f 91       		.byte	0x91
 6375 0c50 A87F     		.sleb128 -88
 6376 0c52 06       		.byte	0x6
 6377 0c53 22       		.byte	0x22
 6378 0c54 91       		.byte	0x91
 6379 0c55 44       		.sleb128 -60
 6380 0c56 06       		.byte	0x6
 6381 0c57 22       		.byte	0x22
 6382 0c58 9F       		.byte	0x9f
 6383 0c59 94060000 		.4byte	.LVL262
 6384 0c5d CE060000 		.4byte	.LVL274
 6385 0c61 0100     		.2byte	0x1
 6386 0c63 55       		.byte	0x55
 6387 0c64 D0060000 		.4byte	.LVL275
 6388 0c68 E2060000 		.4byte	.LVL277
 6389 0c6c 0100     		.2byte	0x1
 6390 0c6e 52       		.byte	0x52
 6391 0c6f E2060000 		.4byte	.LVL277
 6392 0c73 2A070000 		.4byte	.LVL291
 6393 0c77 0200     		.2byte	0x2
 6394 0c79 91       		.byte	0x91
 6395 0c7a 44       		.sleb128 -60
 6396 0c7b 2A070000 		.4byte	.LVL291
 6397 0c7f 2E070000 		.4byte	.LVL292
 6398 0c83 0100     		.2byte	0x1
 6399 0c85 55       		.byte	0x55
 6400 0c86 2E070000 		.4byte	.LVL292
 6401 0c8a 30070000 		.4byte	.LVL293
 6402 0c8e 1700     		.2byte	0x17
 6403 0c90 72       		.byte	0x72
 6404 0c91 00       		.sleb128 0
 6405 0c92 71       		.byte	0x71
 6406 0c93 00       		.sleb128 0
 6407 0c94 27       		.byte	0x27
ARM GAS  C:\Users\Ray\AppData\Local\Temp\ccdgjwii.s 			page 119


 6408 0c95 7B       		.byte	0x7b
 6409 0c96 00       		.sleb128 0
 6410 0c97 1A       		.byte	0x1a
 6411 0c98 72       		.byte	0x72
 6412 0c99 00       		.sleb128 0
 6413 0c9a 27       		.byte	0x27
 6414 0c9b 7C       		.byte	0x7c
 6415 0c9c 00       		.sleb128 0
 6416 0c9d 22       		.byte	0x22
 6417 0c9e 7D       		.byte	0x7d
 6418 0c9f 00       		.sleb128 0
 6419 0ca0 06       		.byte	0x6
 6420 0ca1 22       		.byte	0x22
 6421 0ca2 91       		.byte	0x91
 6422 0ca3 44       		.sleb128 -60
 6423 0ca4 06       		.byte	0x6
 6424 0ca5 22       		.byte	0x22
 6425 0ca6 9F       		.byte	0x9f
 6426 0ca7 30070000 		.4byte	.LVL293
 6427 0cab 78070000 		.4byte	.LVL306
 6428 0caf 0100     		.2byte	0x1
 6429 0cb1 55       		.byte	0x55
 6430 0cb2 7A070000 		.4byte	.LVL307
 6431 0cb6 7C070000 		.4byte	.LVL308
 6432 0cba 0100     		.2byte	0x1
 6433 0cbc 55       		.byte	0x55
 6434 0cbd 7C070000 		.4byte	.LVL308
 6435 0cc1 E0070000 		.4byte	.LVL319
 6436 0cc5 0100     		.2byte	0x1
 6437 0cc7 5A       		.byte	0x5a
 6438 0cc8 E0070000 		.4byte	.LVL319
 6439 0ccc E4070000 		.4byte	.LVL320
 6440 0cd0 0100     		.2byte	0x1
 6441 0cd2 54       		.byte	0x54
 6442 0cd3 E4070000 		.4byte	.LVL320
 6443 0cd7 E6070000 		.4byte	.LVL321
 6444 0cdb 1600     		.2byte	0x16
 6445 0cdd 75       		.byte	0x75
 6446 0cde 00       		.sleb128 0
 6447 0cdf 7B       		.byte	0x7b
 6448 0ce0 00       		.sleb128 0
 6449 0ce1 27       		.byte	0x27
 6450 0ce2 91       		.byte	0x91
 6451 0ce3 44       		.sleb128 -60
 6452 0ce4 06       		.byte	0x6
 6453 0ce5 1A       		.byte	0x1a
 6454 0ce6 75       		.byte	0x75
 6455 0ce7 00       		.sleb128 0
 6456 0ce8 27       		.byte	0x27
 6457 0ce9 71       		.byte	0x71
 6458 0cea 00       		.sleb128 0
 6459 0ceb 22       		.byte	0x22
 6460 0cec 7A       		.byte	0x7a
 6461 0ced 00       		.sleb128 0
 6462 0cee 22       		.byte	0x22
 6463 0cef 7C       		.byte	0x7c
 6464 0cf0 00       		.sleb128 0
ARM GAS  C:\Users\Ray\AppData\Local\Temp\ccdgjwii.s 			page 120


 6465 0cf1 22       		.byte	0x22
 6466 0cf2 9F       		.byte	0x9f
 6467 0cf3 E6070000 		.4byte	.LVL321
 6468 0cf7 92080000 		.4byte	.LVL347
 6469 0cfb 0100     		.2byte	0x1
 6470 0cfd 54       		.byte	0x54
 6471 0cfe 98080000 		.4byte	.LVL348
 6472 0d02 9C080000 		.4byte	.LVL349
 6473 0d06 0100     		.2byte	0x1
 6474 0d08 54       		.byte	0x54
 6475 0d09 9E080000 		.4byte	.LVL350
 6476 0d0d 44090000 		.4byte	.LVL375
 6477 0d11 0100     		.2byte	0x1
 6478 0d13 54       		.byte	0x54
 6479 0d14 46090000 		.4byte	.LVL376
 6480 0d18 4A090000 		.4byte	.LVL377
 6481 0d1c 0100     		.2byte	0x1
 6482 0d1e 54       		.byte	0x54
 6483 0d1f 4C090000 		.4byte	.LVL378
 6484 0d23 9A090000 		.4byte	.LVL390
 6485 0d27 0100     		.2byte	0x1
 6486 0d29 54       		.byte	0x54
 6487 0d2a 9C090000 		.4byte	.LVL391
 6488 0d2e 9E090000 		.4byte	.LVL392
 6489 0d32 0100     		.2byte	0x1
 6490 0d34 54       		.byte	0x54
 6491 0d35 9E090000 		.4byte	.LVL392
 6492 0d39 F2090000 		.4byte	.LVL406
 6493 0d3d 0100     		.2byte	0x1
 6494 0d3f 5A       		.byte	0x5a
 6495 0d40 F2090000 		.4byte	.LVL406
 6496 0d44 F6090000 		.4byte	.LVL407
 6497 0d48 0100     		.2byte	0x1
 6498 0d4a 51       		.byte	0x51
 6499 0d4b F6090000 		.4byte	.LVL407
 6500 0d4f F8090000 		.4byte	.LVL408
 6501 0d53 1500     		.2byte	0x15
 6502 0d55 75       		.byte	0x75
 6503 0d56 00       		.sleb128 0
 6504 0d57 20       		.byte	0x20
 6505 0d58 7B       		.byte	0x7b
 6506 0d59 00       		.sleb128 0
 6507 0d5a 21       		.byte	0x21
 6508 0d5b 72       		.byte	0x72
 6509 0d5c 00       		.sleb128 0
 6510 0d5d 27       		.byte	0x27
 6511 0d5e 7C       		.byte	0x7c
 6512 0d5f 00       		.sleb128 0
 6513 0d60 22       		.byte	0x22
 6514 0d61 91       		.byte	0x91
 6515 0d62 B07F     		.sleb128 -80
 6516 0d64 06       		.byte	0x6
 6517 0d65 22       		.byte	0x22
 6518 0d66 7A       		.byte	0x7a
 6519 0d67 00       		.sleb128 0
 6520 0d68 22       		.byte	0x22
 6521 0d69 9F       		.byte	0x9f
ARM GAS  C:\Users\Ray\AppData\Local\Temp\ccdgjwii.s 			page 121


 6522 0d6a F8090000 		.4byte	.LVL408
 6523 0d6e 440A0000 		.4byte	.LVL423
 6524 0d72 0100     		.2byte	0x1
 6525 0d74 51       		.byte	0x51
 6526 0d75 440A0000 		.4byte	.LVL423
 6527 0d79 9C0A0000 		.4byte	.LVL433
 6528 0d7d 0200     		.2byte	0x2
 6529 0d7f 91       		.byte	0x91
 6530 0d80 44       		.sleb128 -60
 6531 0d81 9C0A0000 		.4byte	.LVL433
 6532 0d85 A00A0000 		.4byte	.LVL434
 6533 0d89 0100     		.2byte	0x1
 6534 0d8b 51       		.byte	0x51
 6535 0d8c A00A0000 		.4byte	.LVL434
 6536 0d90 A20A0000 		.4byte	.LVL435
 6537 0d94 1600     		.2byte	0x16
 6538 0d96 72       		.byte	0x72
 6539 0d97 00       		.sleb128 0
 6540 0d98 20       		.byte	0x20
 6541 0d99 74       		.byte	0x74
 6542 0d9a 00       		.sleb128 0
 6543 0d9b 21       		.byte	0x21
 6544 0d9c 7A       		.byte	0x7a
 6545 0d9d 00       		.sleb128 0
 6546 0d9e 27       		.byte	0x27
 6547 0d9f 7C       		.byte	0x7c
 6548 0da0 00       		.sleb128 0
 6549 0da1 22       		.byte	0x22
 6550 0da2 91       		.byte	0x91
 6551 0da3 987F     		.sleb128 -104
 6552 0da5 06       		.byte	0x6
 6553 0da6 22       		.byte	0x22
 6554 0da7 91       		.byte	0x91
 6555 0da8 44       		.sleb128 -60
 6556 0da9 06       		.byte	0x6
 6557 0daa 22       		.byte	0x22
 6558 0dab 9F       		.byte	0x9f
 6559 0dac A20A0000 		.4byte	.LVL435
 6560 0db0 F80A0000 		.4byte	.LVL449
 6561 0db4 0100     		.2byte	0x1
 6562 0db6 51       		.byte	0x51
 6563 0db7 F80A0000 		.4byte	.LVL449
 6564 0dbb FE0A0000 		.4byte	.LVL450
 6565 0dbf 0100     		.2byte	0x1
 6566 0dc1 52       		.byte	0x52
 6567 0dc2 FE0A0000 		.4byte	.LVL450
 6568 0dc6 24160000 		.4byte	.LFE0
 6569 0dca 0200     		.2byte	0x2
 6570 0dcc 91       		.byte	0x91
 6571 0dcd 54       		.sleb128 -44
 6572 0dce 00000000 		.4byte	0
 6573 0dd2 00000000 		.4byte	0
 6574              	.LLST5:
 6575 0dd6 10000000 		.4byte	.LVL1
 6576 0dda 50000000 		.4byte	.LVL6
 6577 0dde 0200     		.2byte	0x2
 6578 0de0 70       		.byte	0x70
ARM GAS  C:\Users\Ray\AppData\Local\Temp\ccdgjwii.s 			page 122


 6579 0de1 10       		.sleb128 16
 6580 0de2 50000000 		.4byte	.LVL6
 6581 0de6 54000000 		.4byte	.LVL7
 6582 0dea 0100     		.2byte	0x1
 6583 0dec 54       		.byte	0x54
 6584 0ded 54000000 		.4byte	.LVL7
 6585 0df1 5A000000 		.4byte	.LVL8
 6586 0df5 1100     		.2byte	0x11
 6587 0df7 70       		.byte	0x70
 6588 0df8 04       		.sleb128 4
 6589 0df9 06       		.byte	0x6
 6590 0dfa 72       		.byte	0x72
 6591 0dfb 00       		.sleb128 0
 6592 0dfc 27       		.byte	0x27
 6593 0dfd 71       		.byte	0x71
 6594 0dfe 00       		.sleb128 0
 6595 0dff 27       		.byte	0x27
 6596 0e00 70       		.byte	0x70
 6597 0e01 10       		.sleb128 16
 6598 0e02 06       		.byte	0x6
 6599 0e03 22       		.byte	0x22
 6600 0e04 75       		.byte	0x75
 6601 0e05 00       		.sleb128 0
 6602 0e06 22       		.byte	0x22
 6603 0e07 9F       		.byte	0x9f
 6604 0e08 5A000000 		.4byte	.LVL8
 6605 0e0c A4000000 		.4byte	.LVL20
 6606 0e10 0100     		.2byte	0x1
 6607 0e12 54       		.byte	0x54
 6608 0e13 A6000000 		.4byte	.LVL21
 6609 0e17 A8000000 		.4byte	.LVL22
 6610 0e1b 0100     		.2byte	0x1
 6611 0e1d 54       		.byte	0x54
 6612 0e1e A8000000 		.4byte	.LVL22
 6613 0e22 FE000000 		.4byte	.LVL32
 6614 0e26 0100     		.2byte	0x1
 6615 0e28 58       		.byte	0x58
 6616 0e29 FE000000 		.4byte	.LVL32
 6617 0e2d 02010000 		.4byte	.LVL33
 6618 0e31 0100     		.2byte	0x1
 6619 0e33 54       		.byte	0x54
 6620 0e34 02010000 		.4byte	.LVL33
 6621 0e38 04010000 		.4byte	.LVL34
 6622 0e3c 0600     		.2byte	0x6
 6623 0e3e 77       		.byte	0x77
 6624 0e3f 00       		.sleb128 0
 6625 0e40 78       		.byte	0x78
 6626 0e41 00       		.sleb128 0
 6627 0e42 22       		.byte	0x22
 6628 0e43 9F       		.byte	0x9f
 6629 0e44 04010000 		.4byte	.LVL34
 6630 0e48 9C010000 		.4byte	.LVL54
 6631 0e4c 0100     		.2byte	0x1
 6632 0e4e 54       		.byte	0x54
 6633 0e4f 9E010000 		.4byte	.LVL55
 6634 0e53 40020000 		.4byte	.LVL79
 6635 0e57 0100     		.2byte	0x1
ARM GAS  C:\Users\Ray\AppData\Local\Temp\ccdgjwii.s 			page 123


 6636 0e59 54       		.byte	0x54
 6637 0e5a 46020000 		.4byte	.LVL80
 6638 0e5e 4A020000 		.4byte	.LVL81
 6639 0e62 0100     		.2byte	0x1
 6640 0e64 54       		.byte	0x54
 6641 0e65 50020000 		.4byte	.LVL83
 6642 0e69 9C020000 		.4byte	.LVL93
 6643 0e6d 0100     		.2byte	0x1
 6644 0e6f 5B       		.byte	0x5b
 6645 0e70 9C020000 		.4byte	.LVL93
 6646 0e74 9E020000 		.4byte	.LVL94
 6647 0e78 0100     		.2byte	0x1
 6648 0e7a 54       		.byte	0x54
 6649 0e7b 9E020000 		.4byte	.LVL94
 6650 0e7f F8020000 		.4byte	.LVL109
 6651 0e83 0100     		.2byte	0x1
 6652 0e85 5B       		.byte	0x5b
 6653 0e86 00030000 		.4byte	.LVL110
 6654 0e8a 04030000 		.4byte	.LVL111
 6655 0e8e 0100     		.2byte	0x1
 6656 0e90 54       		.byte	0x54
 6657 0e91 04030000 		.4byte	.LVL111
 6658 0e95 08030000 		.4byte	.LVL113
 6659 0e99 0600     		.2byte	0x6
 6660 0e9b 7B       		.byte	0x7b
 6661 0e9c 00       		.sleb128 0
 6662 0e9d 7C       		.byte	0x7c
 6663 0e9e 00       		.sleb128 0
 6664 0e9f 22       		.byte	0x22
 6665 0ea0 9F       		.byte	0x9f
 6666 0ea1 08030000 		.4byte	.LVL113
 6667 0ea5 0A030000 		.4byte	.LVL114
 6668 0ea9 0700     		.2byte	0x7
 6669 0eab 7B       		.byte	0x7b
 6670 0eac 99F389D4 		.sleb128 1518500249
 6670      05
 6671 0eb1 9F       		.byte	0x9f
 6672 0eb2 0A030000 		.4byte	.LVL114
 6673 0eb6 B0030000 		.4byte	.LVL137
 6674 0eba 0100     		.2byte	0x1
 6675 0ebc 54       		.byte	0x54
 6676 0ebd B2030000 		.4byte	.LVL138
 6677 0ec1 B6030000 		.4byte	.LVL139
 6678 0ec5 0100     		.2byte	0x1
 6679 0ec7 54       		.byte	0x54
 6680 0ec8 BC030000 		.4byte	.LVL140
 6681 0ecc 60040000 		.4byte	.LVL165
 6682 0ed0 0100     		.2byte	0x1
 6683 0ed2 54       		.byte	0x54
 6684 0ed3 66040000 		.4byte	.LVL166
 6685 0ed7 6A040000 		.4byte	.LVL167
 6686 0edb 0100     		.2byte	0x1
 6687 0edd 54       		.byte	0x54
 6688 0ede 6C040000 		.4byte	.LVL168
 6689 0ee2 0E050000 		.4byte	.LVL196
 6690 0ee6 0100     		.2byte	0x1
 6691 0ee8 54       		.byte	0x54
ARM GAS  C:\Users\Ray\AppData\Local\Temp\ccdgjwii.s 			page 124


 6692 0ee9 10050000 		.4byte	.LVL197
 6693 0eed 14050000 		.4byte	.LVL198
 6694 0ef1 0100     		.2byte	0x1
 6695 0ef3 54       		.byte	0x54
 6696 0ef4 16050000 		.4byte	.LVL199
 6697 0ef8 BA050000 		.4byte	.LVL224
 6698 0efc 0100     		.2byte	0x1
 6699 0efe 54       		.byte	0x54
 6700 0eff C0050000 		.4byte	.LVL226
 6701 0f03 C4050000 		.4byte	.LVL227
 6702 0f07 0100     		.2byte	0x1
 6703 0f09 54       		.byte	0x54
 6704 0f0a CA050000 		.4byte	.LVL228
 6705 0f0e 0C060000 		.4byte	.LVL239
 6706 0f12 0100     		.2byte	0x1
 6707 0f14 54       		.byte	0x54
 6708 0f15 0E060000 		.4byte	.LVL240
 6709 0f19 16060000 		.4byte	.LVL241
 6710 0f1d 0100     		.2byte	0x1
 6711 0f1f 54       		.byte	0x54
 6712 0f20 16060000 		.4byte	.LVL241
 6713 0f24 5C060000 		.4byte	.LVL251
 6714 0f28 0100     		.2byte	0x1
 6715 0f2a 5B       		.byte	0x5b
 6716 0f2b 64060000 		.4byte	.LVL252
 6717 0f2f 68060000 		.4byte	.LVL254
 6718 0f33 0100     		.2byte	0x1
 6719 0f35 54       		.byte	0x54
 6720 0f36 68060000 		.4byte	.LVL254
 6721 0f3a 6C060000 		.4byte	.LVL255
 6722 0f3e 0600     		.2byte	0x6
 6723 0f40 7B       		.byte	0x7b
 6724 0f41 00       		.sleb128 0
 6725 0f42 7C       		.byte	0x7c
 6726 0f43 00       		.sleb128 0
 6727 0f44 22       		.byte	0x22
 6728 0f45 9F       		.byte	0x9f
 6729 0f46 6C060000 		.4byte	.LVL255
 6730 0f4a 6E060000 		.4byte	.LVL256
 6731 0f4e 0700     		.2byte	0x7
 6732 0f50 7B       		.byte	0x7b
 6733 0f51 A1D7E7F6 		.sleb128 1859775393
 6733      06
 6734 0f56 9F       		.byte	0x9f
 6735 0f57 6E060000 		.4byte	.LVL256
 6736 0f5b B8060000 		.4byte	.LVL270
 6737 0f5f 0100     		.2byte	0x1
 6738 0f61 54       		.byte	0x54
 6739 0f62 B8060000 		.4byte	.LVL270
 6740 0f66 02070000 		.4byte	.LVL284
 6741 0f6a 0100     		.2byte	0x1
 6742 0f6c 56       		.byte	0x56
 6743 0f6d 06070000 		.4byte	.LVL285
 6744 0f71 0A070000 		.4byte	.LVL286
 6745 0f75 0100     		.2byte	0x1
 6746 0f77 51       		.byte	0x51
 6747 0f78 10070000 		.4byte	.LVL287
ARM GAS  C:\Users\Ray\AppData\Local\Temp\ccdgjwii.s 			page 125


 6748 0f7c 52070000 		.4byte	.LVL298
 6749 0f80 0100     		.2byte	0x1
 6750 0f82 51       		.byte	0x51
 6751 0f83 54070000 		.4byte	.LVL299
 6752 0f87 56070000 		.4byte	.LVL300
 6753 0f8b 0100     		.2byte	0x1
 6754 0f8d 51       		.byte	0x51
 6755 0f8e 56070000 		.4byte	.LVL300
 6756 0f92 6A070000 		.4byte	.LVL302
 6757 0f96 0100     		.2byte	0x1
 6758 0f98 54       		.byte	0x54
 6759 0f99 6A070000 		.4byte	.LVL302
 6760 0f9d B6070000 		.4byte	.LVL314
 6761 0fa1 0200     		.2byte	0x2
 6762 0fa3 91       		.byte	0x91
 6763 0fa4 44       		.sleb128 -60
 6764 0fa5 B6070000 		.4byte	.LVL314
 6765 0fa9 BA070000 		.4byte	.LVL315
 6766 0fad 0100     		.2byte	0x1
 6767 0faf 51       		.byte	0x51
 6768 0fb0 BA070000 		.4byte	.LVL315
 6769 0fb4 BE070000 		.4byte	.LVL316
 6770 0fb8 1800     		.2byte	0x18
 6771 0fba 74       		.byte	0x74
 6772 0fbb 00       		.sleb128 0
 6773 0fbc 75       		.byte	0x75
 6774 0fbd 00       		.sleb128 0
 6775 0fbe 27       		.byte	0x27
 6776 0fbf 72       		.byte	0x72
 6777 0fc0 00       		.sleb128 0
 6778 0fc1 1A       		.byte	0x1a
 6779 0fc2 74       		.byte	0x74
 6780 0fc3 00       		.sleb128 0
 6781 0fc4 27       		.byte	0x27
 6782 0fc5 7C       		.byte	0x7c
 6783 0fc6 00       		.sleb128 0
 6784 0fc7 22       		.byte	0x22
 6785 0fc8 91       		.byte	0x91
 6786 0fc9 AC7F     		.sleb128 -84
 6787 0fcb 06       		.byte	0x6
 6788 0fcc 22       		.byte	0x22
 6789 0fcd 91       		.byte	0x91
 6790 0fce 44       		.sleb128 -60
 6791 0fcf 06       		.byte	0x6
 6792 0fd0 22       		.byte	0x22
 6793 0fd1 9F       		.byte	0x9f
 6794 0fd2 BE070000 		.4byte	.LVL316
 6795 0fd6 C4070000 		.4byte	.LVL317
 6796 0fda 0100     		.2byte	0x1
 6797 0fdc 51       		.byte	0x51
 6798 0fdd C4070000 		.4byte	.LVL317
 6799 0fe1 12080000 		.4byte	.LVL327
 6800 0fe5 0100     		.2byte	0x1
 6801 0fe7 5B       		.byte	0x5b
 6802 0fe8 12080000 		.4byte	.LVL327
 6803 0fec 14080000 		.4byte	.LVL328
 6804 0ff0 0100     		.2byte	0x1
ARM GAS  C:\Users\Ray\AppData\Local\Temp\ccdgjwii.s 			page 126


 6805 0ff2 56       		.byte	0x56
 6806 0ff3 14080000 		.4byte	.LVL328
 6807 0ff7 74080000 		.4byte	.LVL341
 6808 0ffb 0100     		.2byte	0x1
 6809 0ffd 5A       		.byte	0x5a
 6810 0ffe 74080000 		.4byte	.LVL341
 6811 1002 78080000 		.4byte	.LVL342
 6812 1006 0100     		.2byte	0x1
 6813 1008 52       		.byte	0x52
 6814 1009 78080000 		.4byte	.LVL342
 6815 100d 7A080000 		.4byte	.LVL343
 6816 1011 1700     		.2byte	0x17
 6817 1013 71       		.byte	0x71
 6818 1014 00       		.sleb128 0
 6819 1015 7B       		.byte	0x7b
 6820 1016 00       		.sleb128 0
 6821 1017 27       		.byte	0x27
 6822 1018 76       		.byte	0x76
 6823 1019 00       		.sleb128 0
 6824 101a 1A       		.byte	0x1a
 6825 101b 71       		.byte	0x71
 6826 101c 00       		.sleb128 0
 6827 101d 27       		.byte	0x27
 6828 101e 7C       		.byte	0x7c
 6829 101f 00       		.sleb128 0
 6830 1020 22       		.byte	0x22
 6831 1021 91       		.byte	0x91
 6832 1022 947F     		.sleb128 -108
 6833 1024 06       		.byte	0x6
 6834 1025 22       		.byte	0x22
 6835 1026 7A       		.byte	0x7a
 6836 1027 00       		.sleb128 0
 6837 1028 22       		.byte	0x22
 6838 1029 9F       		.byte	0x9f
 6839 102a 7A080000 		.4byte	.LVL343
 6840 102e DC080000 		.4byte	.LVL358
 6841 1032 0100     		.2byte	0x1
 6842 1034 52       		.byte	0x52
 6843 1035 DC080000 		.4byte	.LVL358
 6844 1039 2E090000 		.4byte	.LVL370
 6845 103d 0200     		.2byte	0x2
 6846 103f 91       		.byte	0x91
 6847 1040 48       		.sleb128 -56
 6848 1041 2E090000 		.4byte	.LVL370
 6849 1045 32090000 		.4byte	.LVL371
 6850 1049 0100     		.2byte	0x1
 6851 104b 52       		.byte	0x52
 6852 104c 32090000 		.4byte	.LVL371
 6853 1050 34090000 		.4byte	.LVL372
 6854 1054 0A00     		.2byte	0xa
 6855 1056 91       		.byte	0x91
 6856 1057 48       		.sleb128 -56
 6857 1058 06       		.byte	0x6
 6858 1059 7A       		.byte	0x7a
 6859 105a 00       		.sleb128 0
 6860 105b 22       		.byte	0x22
 6861 105c 7C       		.byte	0x7c
ARM GAS  C:\Users\Ray\AppData\Local\Temp\ccdgjwii.s 			page 127


 6862 105d 00       		.sleb128 0
 6863 105e 22       		.byte	0x22
 6864 105f 9F       		.byte	0x9f
 6865 1060 34090000 		.4byte	.LVL372
 6866 1064 64090000 		.4byte	.LVL381
 6867 1068 0100     		.2byte	0x1
 6868 106a 52       		.byte	0x52
 6869 106b 64090000 		.4byte	.LVL381
 6870 106f 78090000 		.4byte	.LVL386
 6871 1073 0100     		.2byte	0x1
 6872 1075 51       		.byte	0x51
 6873 1076 78090000 		.4byte	.LVL386
 6874 107a CC090000 		.4byte	.LVL399
 6875 107e 0100     		.2byte	0x1
 6876 1080 52       		.byte	0x52
 6877 1081 D2090000 		.4byte	.LVL400
 6878 1085 D6090000 		.4byte	.LVL401
 6879 1089 0100     		.2byte	0x1
 6880 108b 52       		.byte	0x52
 6881 108c D8090000 		.4byte	.LVL402
 6882 1090 1C0A0000 		.4byte	.LVL415
 6883 1094 0100     		.2byte	0x1
 6884 1096 52       		.byte	0x52
 6885 1097 1E0A0000 		.4byte	.LVL416
 6886 109b 200A0000 		.4byte	.LVL417
 6887 109f 0100     		.2byte	0x1
 6888 10a1 52       		.byte	0x52
 6889 10a2 200A0000 		.4byte	.LVL417
 6890 10a6 760A0000 		.4byte	.LVL428
 6891 10aa 0100     		.2byte	0x1
 6892 10ac 5A       		.byte	0x5a
 6893 10ad 760A0000 		.4byte	.LVL428
 6894 10b1 7A0A0000 		.4byte	.LVL429
 6895 10b5 0100     		.2byte	0x1
 6896 10b7 55       		.byte	0x55
 6897 10b8 7A0A0000 		.4byte	.LVL429
 6898 10bc 7C0A0000 		.4byte	.LVL430
 6899 10c0 1300     		.2byte	0x13
 6900 10c2 76       		.byte	0x76
 6901 10c3 00       		.sleb128 0
 6902 10c4 20       		.byte	0x20
 6903 10c5 72       		.byte	0x72
 6904 10c6 00       		.sleb128 0
 6905 10c7 21       		.byte	0x21
 6906 10c8 74       		.byte	0x74
 6907 10c9 00       		.sleb128 0
 6908 10ca 27       		.byte	0x27
 6909 10cb 77       		.byte	0x77
 6910 10cc 00       		.sleb128 0
 6911 10cd 22       		.byte	0x22
 6912 10ce 7A       		.byte	0x7a
 6913 10cf 00       		.sleb128 0
 6914 10d0 22       		.byte	0x22
 6915 10d1 7C       		.byte	0x7c
 6916 10d2 00       		.sleb128 0
 6917 10d3 22       		.byte	0x22
 6918 10d4 9F       		.byte	0x9f
ARM GAS  C:\Users\Ray\AppData\Local\Temp\ccdgjwii.s 			page 128


 6919 10d5 820A0000 		.4byte	.LVL431
 6920 10d9 CA0A0000 		.4byte	.LVL442
 6921 10dd 0100     		.2byte	0x1
 6922 10df 5A       		.byte	0x5a
 6923 10e0 CA0A0000 		.4byte	.LVL442
 6924 10e4 320B0000 		.4byte	.LVL455
 6925 10e8 0100     		.2byte	0x1
 6926 10ea 56       		.byte	0x56
 6927 10eb 320B0000 		.4byte	.LVL455
 6928 10ef 24160000 		.4byte	.LFE0
 6929 10f3 0200     		.2byte	0x2
 6930 10f5 91       		.byte	0x91
 6931 10f6 4C       		.sleb128 -52
 6932 10f7 00000000 		.4byte	0
 6933 10fb 00000000 		.4byte	0
 6934              	.LLST6:
 6935 10ff 10000000 		.4byte	.LVL1
 6936 1103 160B0000 		.4byte	.LVL451
 6937 1107 0200     		.2byte	0x2
 6938 1109 70       		.byte	0x70
 6939 110a 00       		.sleb128 0
 6940 110b 160B0000 		.4byte	.LVL451
 6941 110f 1A0B0000 		.4byte	.LVL452
 6942 1113 0100     		.2byte	0x1
 6943 1115 51       		.byte	0x51
 6944 1116 1A0B0000 		.4byte	.LVL452
 6945 111a 1E0B0000 		.4byte	.LVL453
 6946 111e 1900     		.2byte	0x19
 6947 1120 70       		.byte	0x70
 6948 1121 0C       		.sleb128 12
 6949 1122 06       		.byte	0x6
 6950 1123 20       		.byte	0x20
 6951 1124 70       		.byte	0x70
 6952 1125 08       		.sleb128 8
 6953 1126 06       		.byte	0x6
 6954 1127 21       		.byte	0x21
 6955 1128 70       		.byte	0x70
 6956 1129 04       		.sleb128 4
 6957 112a 06       		.byte	0x6
 6958 112b 27       		.byte	0x27
 6959 112c 7C       		.byte	0x7c
 6960 112d 00       		.sleb128 0
 6961 112e 22       		.byte	0x22
 6962 112f 91       		.byte	0x91
 6963 1130 947F     		.sleb128 -108
 6964 1132 06       		.byte	0x6
 6965 1133 22       		.byte	0x22
 6966 1134 70       		.byte	0x70
 6967 1135 00       		.sleb128 0
 6968 1136 06       		.byte	0x6
 6969 1137 22       		.byte	0x22
 6970 1138 9F       		.byte	0x9f
 6971 1139 1E0B0000 		.4byte	.LVL453
 6972 113d 200B0000 		.4byte	.LVL454
 6973 1141 1C00     		.2byte	0x1c
 6974 1143 70       		.byte	0x70
 6975 1144 0C       		.sleb128 12
ARM GAS  C:\Users\Ray\AppData\Local\Temp\ccdgjwii.s 			page 129


 6976 1145 06       		.byte	0x6
 6977 1146 20       		.byte	0x20
 6978 1147 70       		.byte	0x70
 6979 1148 08       		.sleb128 8
 6980 1149 06       		.byte	0x6
 6981 114a 21       		.byte	0x21
 6982 114b 70       		.byte	0x70
 6983 114c 04       		.sleb128 4
 6984 114d 06       		.byte	0x6
 6985 114e 27       		.byte	0x27
 6986 114f 91       		.byte	0x91
 6987 1150 947F     		.sleb128 -108
 6988 1152 06       		.byte	0x6
 6989 1153 22       		.byte	0x22
 6990 1154 70       		.byte	0x70
 6991 1155 00       		.sleb128 0
 6992 1156 06       		.byte	0x6
 6993 1157 22       		.byte	0x22
 6994 1158 23       		.byte	0x23
 6995 1159 E6978A85 		.uleb128 0x50a28be6
 6995      05
 6996 115e 9F       		.byte	0x9f
 6997 115f 200B0000 		.4byte	.LVL454
 6998 1163 6A0B0000 		.4byte	.LVL464
 6999 1167 0100     		.2byte	0x1
 7000 1169 51       		.byte	0x51
 7001 116a 6A0B0000 		.4byte	.LVL464
 7002 116e 6C0B0000 		.4byte	.LVL465
 7003 1172 2A00     		.2byte	0x2a
 7004 1174 70       		.byte	0x70
 7005 1175 0C       		.sleb128 12
 7006 1176 06       		.byte	0x6
 7007 1177 20       		.byte	0x20
 7008 1178 70       		.byte	0x70
 7009 1179 08       		.sleb128 8
 7010 117a 06       		.byte	0x6
 7011 117b 21       		.byte	0x21
 7012 117c 70       		.byte	0x70
 7013 117d 04       		.sleb128 4
 7014 117e 06       		.byte	0x6
 7015 117f 27       		.byte	0x27
 7016 1180 91       		.byte	0x91
 7017 1181 947F     		.sleb128 -108
 7018 1183 06       		.byte	0x6
 7019 1184 22       		.byte	0x22
 7020 1185 70       		.byte	0x70
 7021 1186 00       		.sleb128 0
 7022 1187 06       		.byte	0x6
 7023 1188 22       		.byte	0x22
 7024 1189 23       		.byte	0x23
 7025 118a E6978A85 		.uleb128 0x50a28be6
 7025      05
 7026 118f 48       		.byte	0x48
 7027 1190 14       		.byte	0x14
 7028 1191 14       		.byte	0x14
 7029 1192 1F       		.byte	0x1f
 7030 1193 23       		.byte	0x23
ARM GAS  C:\Users\Ray\AppData\Local\Temp\ccdgjwii.s 			page 130


 7031 1194 20       		.uleb128 0x20
 7032 1195 24       		.byte	0x24
 7033 1196 17       		.byte	0x17
 7034 1197 25       		.byte	0x25
 7035 1198 21       		.byte	0x21
 7036 1199 70       		.byte	0x70
 7037 119a 10       		.sleb128 16
 7038 119b 06       		.byte	0x6
 7039 119c 22       		.byte	0x22
 7040 119d 9F       		.byte	0x9f
 7041 119e 6C0B0000 		.4byte	.LVL465
 7042 11a2 8A0B0000 		.4byte	.LVL468
 7043 11a6 0100     		.2byte	0x1
 7044 11a8 51       		.byte	0x51
 7045 11a9 8A0B0000 		.4byte	.LVL468
 7046 11ad C80B0000 		.4byte	.LVL478
 7047 11b1 0100     		.2byte	0x1
 7048 11b3 5A       		.byte	0x5a
 7049 11b4 C80B0000 		.4byte	.LVL478
 7050 11b8 CC0B0000 		.4byte	.LVL479
 7051 11bc 0100     		.2byte	0x1
 7052 11be 51       		.byte	0x51
 7053 11bf CC0B0000 		.4byte	.LVL479
 7054 11c3 CE0B0000 		.4byte	.LVL480
 7055 11c7 0900     		.2byte	0x9
 7056 11c9 79       		.byte	0x79
 7057 11ca 00       		.sleb128 0
 7058 11cb 7A       		.byte	0x7a
 7059 11cc 00       		.sleb128 0
 7060 11cd 22       		.byte	0x22
 7061 11ce 7C       		.byte	0x7c
 7062 11cf 00       		.sleb128 0
 7063 11d0 22       		.byte	0x22
 7064 11d1 9F       		.byte	0x9f
 7065 11d2 CE0B0000 		.4byte	.LVL480
 7066 11d6 D00B0000 		.4byte	.LVL481
 7067 11da 3800     		.2byte	0x38
 7068 11dc 70       		.byte	0x70
 7069 11dd 0C       		.sleb128 12
 7070 11de 06       		.byte	0x6
 7071 11df 20       		.byte	0x20
 7072 11e0 70       		.byte	0x70
 7073 11e1 08       		.sleb128 8
 7074 11e2 06       		.byte	0x6
 7075 11e3 21       		.byte	0x21
 7076 11e4 70       		.byte	0x70
 7077 11e5 04       		.sleb128 4
 7078 11e6 06       		.byte	0x6
 7079 11e7 27       		.byte	0x27
 7080 11e8 7C       		.byte	0x7c
 7081 11e9 00       		.sleb128 0
 7082 11ea 22       		.byte	0x22
 7083 11eb 91       		.byte	0x91
 7084 11ec 947F     		.sleb128 -108
 7085 11ee 06       		.byte	0x6
 7086 11ef 22       		.byte	0x22
 7087 11f0 70       		.byte	0x70
ARM GAS  C:\Users\Ray\AppData\Local\Temp\ccdgjwii.s 			page 131


 7088 11f1 00       		.sleb128 0
 7089 11f2 06       		.byte	0x6
 7090 11f3 22       		.byte	0x22
 7091 11f4 48       		.byte	0x48
 7092 11f5 14       		.byte	0x14
 7093 11f6 14       		.byte	0x14
 7094 11f7 1F       		.byte	0x1f
 7095 11f8 23       		.byte	0x23
 7096 11f9 20       		.uleb128 0x20
 7097 11fa 24       		.byte	0x24
 7098 11fb 17       		.byte	0x17
 7099 11fc 25       		.byte	0x25
 7100 11fd 21       		.byte	0x21
 7101 11fe 70       		.byte	0x70
 7102 11ff 10       		.sleb128 16
 7103 1200 06       		.byte	0x6
 7104 1201 22       		.byte	0x22
 7105 1202 73       		.byte	0x73
 7106 1203 00       		.sleb128 0
 7107 1204 14       		.byte	0x14
 7108 1205 14       		.byte	0x14
 7109 1206 1F       		.byte	0x1f
 7110 1207 23       		.byte	0x23
 7111 1208 20       		.uleb128 0x20
 7112 1209 24       		.byte	0x24
 7113 120a 17       		.byte	0x17
 7114 120b 25       		.byte	0x25
 7115 120c 21       		.byte	0x21
 7116 120d 79       		.byte	0x79
 7117 120e 00       		.sleb128 0
 7118 120f 22       		.byte	0x22
 7119 1210 7C       		.byte	0x7c
 7120 1211 00       		.sleb128 0
 7121 1212 22       		.byte	0x22
 7122 1213 9F       		.byte	0x9f
 7123 1214 D00B0000 		.4byte	.LVL481
 7124 1218 0E0C0000 		.4byte	.LVL491
 7125 121c 0100     		.2byte	0x1
 7126 121e 5A       		.byte	0x5a
 7127 121f 0E0C0000 		.4byte	.LVL491
 7128 1223 100C0000 		.4byte	.LVL492
 7129 1227 0100     		.2byte	0x1
 7130 1229 51       		.byte	0x51
 7131 122a 100C0000 		.4byte	.LVL492
 7132 122e 640C0000 		.4byte	.LVL505
 7133 1232 0100     		.2byte	0x1
 7134 1234 5A       		.byte	0x5a
 7135 1235 640C0000 		.4byte	.LVL505
 7136 1239 680C0000 		.4byte	.LVL506
 7137 123d 0100     		.2byte	0x1
 7138 123f 51       		.byte	0x51
 7139 1240 680C0000 		.4byte	.LVL506
 7140 1244 6A0C0000 		.4byte	.LVL507
 7141 1248 1500     		.2byte	0x15
 7142 124a 7B       		.byte	0x7b
 7143 124b 00       		.sleb128 0
 7144 124c 20       		.byte	0x20
ARM GAS  C:\Users\Ray\AppData\Local\Temp\ccdgjwii.s 			page 132


 7145 124d 75       		.byte	0x75
 7146 124e 00       		.sleb128 0
 7147 124f 21       		.byte	0x21
 7148 1250 72       		.byte	0x72
 7149 1251 00       		.sleb128 0
 7150 1252 27       		.byte	0x27
 7151 1253 7C       		.byte	0x7c
 7152 1254 00       		.sleb128 0
 7153 1255 22       		.byte	0x22
 7154 1256 91       		.byte	0x91
 7155 1257 B47F     		.sleb128 -76
 7156 1259 06       		.byte	0x6
 7157 125a 22       		.byte	0x22
 7158 125b 7A       		.byte	0x7a
 7159 125c 00       		.sleb128 0
 7160 125d 22       		.byte	0x22
 7161 125e 9F       		.byte	0x9f
 7162 125f 6A0C0000 		.4byte	.LVL507
 7163 1263 AA0C0000 		.4byte	.LVL517
 7164 1267 0100     		.2byte	0x1
 7165 1269 51       		.byte	0x51
 7166 126a AC0C0000 		.4byte	.LVL518
 7167 126e AE0C0000 		.4byte	.LVL519
 7168 1272 0100     		.2byte	0x1
 7169 1274 51       		.byte	0x51
 7170 1275 AE0C0000 		.4byte	.LVL519
 7171 1279 040D0000 		.4byte	.LVL531
 7172 127d 0100     		.2byte	0x1
 7173 127f 5B       		.byte	0x5b
 7174 1280 040D0000 		.4byte	.LVL531
 7175 1284 0A0D0000 		.4byte	.LVL532
 7176 1288 0100     		.2byte	0x1
 7177 128a 51       		.byte	0x51
 7178 128b 100D0000 		.4byte	.LVL533
 7179 128f 5A0D0000 		.4byte	.LVL545
 7180 1293 0100     		.2byte	0x1
 7181 1295 51       		.byte	0x51
 7182 1296 5C0D0000 		.4byte	.LVL546
 7183 129a 5E0D0000 		.4byte	.LVL547
 7184 129e 0100     		.2byte	0x1
 7185 12a0 51       		.byte	0x51
 7186 12a1 5E0D0000 		.4byte	.LVL547
 7187 12a5 760D0000 		.4byte	.LVL548
 7188 12a9 0100     		.2byte	0x1
 7189 12ab 55       		.byte	0x55
 7190 12ac 760D0000 		.4byte	.LVL548
 7191 12b0 C40D0000 		.4byte	.LVL559
 7192 12b4 0200     		.2byte	0x2
 7193 12b6 91       		.byte	0x91
 7194 12b7 40       		.sleb128 -64
 7195 12b8 C40D0000 		.4byte	.LVL559
 7196 12bc C80D0000 		.4byte	.LVL560
 7197 12c0 0100     		.2byte	0x1
 7198 12c2 51       		.byte	0x51
 7199 12c3 C80D0000 		.4byte	.LVL560
 7200 12c7 CC0D0000 		.4byte	.LVL561
 7201 12cb 1700     		.2byte	0x17
ARM GAS  C:\Users\Ray\AppData\Local\Temp\ccdgjwii.s 			page 133


 7202 12cd 75       		.byte	0x75
 7203 12ce 00       		.sleb128 0
 7204 12cf 72       		.byte	0x72
 7205 12d0 00       		.sleb128 0
 7206 12d1 27       		.byte	0x27
 7207 12d2 76       		.byte	0x76
 7208 12d3 00       		.sleb128 0
 7209 12d4 1A       		.byte	0x1a
 7210 12d5 75       		.byte	0x75
 7211 12d6 00       		.sleb128 0
 7212 12d7 27       		.byte	0x27
 7213 12d8 7C       		.byte	0x7c
 7214 12d9 00       		.sleb128 0
 7215 12da 22       		.byte	0x22
 7216 12db 7D       		.byte	0x7d
 7217 12dc 00       		.sleb128 0
 7218 12dd 06       		.byte	0x6
 7219 12de 22       		.byte	0x22
 7220 12df 91       		.byte	0x91
 7221 12e0 40       		.sleb128 -64
 7222 12e1 06       		.byte	0x6
 7223 12e2 22       		.byte	0x22
 7224 12e3 9F       		.byte	0x9f
 7225 12e4 CC0D0000 		.4byte	.LVL561
 7226 12e8 CE0D0000 		.4byte	.LVL562
 7227 12ec 1A00     		.2byte	0x1a
 7228 12ee 75       		.byte	0x75
 7229 12ef 00       		.sleb128 0
 7230 12f0 72       		.byte	0x72
 7231 12f1 00       		.sleb128 0
 7232 12f2 27       		.byte	0x27
 7233 12f3 76       		.byte	0x76
 7234 12f4 00       		.sleb128 0
 7235 12f5 1A       		.byte	0x1a
 7236 12f6 75       		.byte	0x75
 7237 12f7 00       		.sleb128 0
 7238 12f8 27       		.byte	0x27
 7239 12f9 7D       		.byte	0x7d
 7240 12fa 00       		.sleb128 0
 7241 12fb 06       		.byte	0x6
 7242 12fc 22       		.byte	0x22
 7243 12fd 91       		.byte	0x91
 7244 12fe 40       		.sleb128 -64
 7245 12ff 06       		.byte	0x6
 7246 1300 22       		.byte	0x22
 7247 1301 23       		.byte	0x23
 7248 1302 A4A2B7E2 		.uleb128 0x5c4dd124
 7248      05
 7249 1307 9F       		.byte	0x9f
 7250 1308 CE0D0000 		.4byte	.LVL562
 7251 130c 7E0E0000 		.4byte	.LVL588
 7252 1310 0100     		.2byte	0x1
 7253 1312 51       		.byte	0x51
 7254 1313 840E0000 		.4byte	.LVL589
 7255 1317 880E0000 		.4byte	.LVL590
 7256 131b 0100     		.2byte	0x1
 7257 131d 51       		.byte	0x51
ARM GAS  C:\Users\Ray\AppData\Local\Temp\ccdgjwii.s 			page 134


 7258 131e 9C0E0000 		.4byte	.LVL591
 7259 1322 460F0000 		.4byte	.LVL616
 7260 1326 0100     		.2byte	0x1
 7261 1328 51       		.byte	0x51
 7262 1329 4C0F0000 		.4byte	.LVL617
 7263 132d 500F0000 		.4byte	.LVL618
 7264 1331 0100     		.2byte	0x1
 7265 1333 51       		.byte	0x51
 7266 1334 560F0000 		.4byte	.LVL620
 7267 1338 00100000 		.4byte	.LVL645
 7268 133c 0100     		.2byte	0x1
 7269 133e 51       		.byte	0x51
 7270 133f 06100000 		.4byte	.LVL646
 7271 1343 0A100000 		.4byte	.LVL647
 7272 1347 0100     		.2byte	0x1
 7273 1349 51       		.byte	0x51
 7274 134a 10100000 		.4byte	.LVL648
 7275 134e 42100000 		.4byte	.LVL656
 7276 1352 0100     		.2byte	0x1
 7277 1354 51       		.byte	0x51
 7278 1355 42100000 		.4byte	.LVL656
 7279 1359 84100000 		.4byte	.LVL665
 7280 135d 0100     		.2byte	0x1
 7281 135f 52       		.byte	0x52
 7282 1360 84100000 		.4byte	.LVL665
 7283 1364 BA100000 		.4byte	.LVL673
 7284 1368 0300     		.2byte	0x3
 7285 136a 91       		.byte	0x91
 7286 136b BC7F     		.sleb128 -68
 7287 136d BA100000 		.4byte	.LVL673
 7288 1371 BE100000 		.4byte	.LVL674
 7289 1375 0100     		.2byte	0x1
 7290 1377 51       		.byte	0x51
 7291 1378 BE100000 		.4byte	.LVL674
 7292 137c C0100000 		.4byte	.LVL675
 7293 1380 1700     		.2byte	0x17
 7294 1382 75       		.byte	0x75
 7295 1383 00       		.sleb128 0
 7296 1384 20       		.byte	0x20
 7297 1385 91       		.byte	0x91
 7298 1386 B87F     		.sleb128 -72
 7299 1388 06       		.byte	0x6
 7300 1389 21       		.byte	0x21
 7301 138a 76       		.byte	0x76
 7302 138b 00       		.sleb128 0
 7303 138c 27       		.byte	0x27
 7304 138d 77       		.byte	0x77
 7305 138e 00       		.sleb128 0
 7306 138f 22       		.byte	0x22
 7307 1390 7C       		.byte	0x7c
 7308 1391 00       		.sleb128 0
 7309 1392 22       		.byte	0x22
 7310 1393 91       		.byte	0x91
 7311 1394 BC7F     		.sleb128 -68
 7312 1396 06       		.byte	0x6
 7313 1397 22       		.byte	0x22
 7314 1398 9F       		.byte	0x9f
ARM GAS  C:\Users\Ray\AppData\Local\Temp\ccdgjwii.s 			page 135


 7315 1399 C0100000 		.4byte	.LVL675
 7316 139d 68110000 		.4byte	.LVL702
 7317 13a1 0100     		.2byte	0x1
 7318 13a3 51       		.byte	0x51
 7319 13a4 6E110000 		.4byte	.LVL703
 7320 13a8 72110000 		.4byte	.LVL704
 7321 13ac 0100     		.2byte	0x1
 7322 13ae 51       		.byte	0x51
 7323 13af 74110000 		.4byte	.LVL705
 7324 13b3 DA110000 		.4byte	.LVL722
 7325 13b7 0100     		.2byte	0x1
 7326 13b9 51       		.byte	0x51
 7327 13ba DA110000 		.4byte	.LVL722
 7328 13be 24120000 		.4byte	.LVL731
 7329 13c2 0300     		.2byte	0x3
 7330 13c4 91       		.byte	0x91
 7331 13c5 BC7F     		.sleb128 -68
 7332 13c7 24120000 		.4byte	.LVL731
 7333 13cb 28120000 		.4byte	.LVL732
 7334 13cf 0100     		.2byte	0x1
 7335 13d1 51       		.byte	0x51
 7336 13d2 28120000 		.4byte	.LVL732
 7337 13d6 2A120000 		.4byte	.LVL733
 7338 13da 1A00     		.2byte	0x1a
 7339 13dc 75       		.byte	0x75
 7340 13dd 00       		.sleb128 0
 7341 13de 76       		.byte	0x76
 7342 13df 00       		.sleb128 0
 7343 13e0 27       		.byte	0x27
 7344 13e1 91       		.byte	0x91
 7345 13e2 40       		.sleb128 -64
 7346 13e3 06       		.byte	0x6
 7347 13e4 1A       		.byte	0x1a
 7348 13e5 76       		.byte	0x76
 7349 13e6 00       		.sleb128 0
 7350 13e7 27       		.byte	0x27
 7351 13e8 7C       		.byte	0x7c
 7352 13e9 00       		.sleb128 0
 7353 13ea 22       		.byte	0x22
 7354 13eb 91       		.byte	0x91
 7355 13ec 907F     		.sleb128 -112
 7356 13ee 06       		.byte	0x6
 7357 13ef 22       		.byte	0x22
 7358 13f0 91       		.byte	0x91
 7359 13f1 BC7F     		.sleb128 -68
 7360 13f3 06       		.byte	0x6
 7361 13f4 22       		.byte	0x22
 7362 13f5 9F       		.byte	0x9f
 7363 13f6 2A120000 		.4byte	.LVL733
 7364 13fa 58120000 		.4byte	.LVL740
 7365 13fe 0100     		.2byte	0x1
 7366 1400 51       		.byte	0x51
 7367 1401 58120000 		.4byte	.LVL740
 7368 1405 78120000 		.4byte	.LVL744
 7369 1409 0300     		.2byte	0x3
 7370 140b 91       		.byte	0x91
 7371 140c BC7F     		.sleb128 -68
ARM GAS  C:\Users\Ray\AppData\Local\Temp\ccdgjwii.s 			page 136


 7372 140e 78120000 		.4byte	.LVL744
 7373 1412 80120000 		.4byte	.LVL745
 7374 1416 0100     		.2byte	0x1
 7375 1418 56       		.byte	0x56
 7376 1419 80120000 		.4byte	.LVL745
 7377 141d E6120000 		.4byte	.LVL757
 7378 1421 0300     		.2byte	0x3
 7379 1423 91       		.byte	0x91
 7380 1424 BC7F     		.sleb128 -68
 7381 1426 E6120000 		.4byte	.LVL757
 7382 142a EA120000 		.4byte	.LVL758
 7383 142e 0100     		.2byte	0x1
 7384 1430 51       		.byte	0x51
 7385 1431 EA120000 		.4byte	.LVL758
 7386 1435 EC120000 		.4byte	.LVL759
 7387 1439 1A00     		.2byte	0x1a
 7388 143b 76       		.byte	0x76
 7389 143c 00       		.sleb128 0
 7390 143d 91       		.byte	0x91
 7391 143e 40       		.sleb128 -64
 7392 143f 06       		.byte	0x6
 7393 1440 27       		.byte	0x27
 7394 1441 75       		.byte	0x75
 7395 1442 00       		.sleb128 0
 7396 1443 1A       		.byte	0x1a
 7397 1444 91       		.byte	0x91
 7398 1445 40       		.sleb128 -64
 7399 1446 06       		.byte	0x6
 7400 1447 27       		.byte	0x27
 7401 1448 7A       		.byte	0x7a
 7402 1449 00       		.sleb128 0
 7403 144a 22       		.byte	0x22
 7404 144b 7D       		.byte	0x7d
 7405 144c 00       		.sleb128 0
 7406 144d 06       		.byte	0x6
 7407 144e 22       		.byte	0x22
 7408 144f 91       		.byte	0x91
 7409 1450 BC7F     		.sleb128 -68
 7410 1452 06       		.byte	0x6
 7411 1453 22       		.byte	0x22
 7412 1454 9F       		.byte	0x9f
 7413 1455 EC120000 		.4byte	.LVL759
 7414 1459 3C130000 		.4byte	.LVL771
 7415 145d 0100     		.2byte	0x1
 7416 145f 51       		.byte	0x51
 7417 1460 3E130000 		.4byte	.LVL772
 7418 1464 40130000 		.4byte	.LVL773
 7419 1468 0100     		.2byte	0x1
 7420 146a 51       		.byte	0x51
 7421 146b 40130000 		.4byte	.LVL773
 7422 146f 9C130000 		.4byte	.LVL788
 7423 1473 0100     		.2byte	0x1
 7424 1475 5C       		.byte	0x5c
 7425 1476 9C130000 		.4byte	.LVL788
 7426 147a A0130000 		.4byte	.LVL789
 7427 147e 0100     		.2byte	0x1
 7428 1480 52       		.byte	0x52
ARM GAS  C:\Users\Ray\AppData\Local\Temp\ccdgjwii.s 			page 137


 7429 1481 A0130000 		.4byte	.LVL789
 7430 1485 A4130000 		.4byte	.LVL790
 7431 1489 1500     		.2byte	0x15
 7432 148b 74       		.byte	0x74
 7433 148c 00       		.sleb128 0
 7434 148d 76       		.byte	0x76
 7435 148e 00       		.sleb128 0
 7436 148f 27       		.byte	0x27
 7437 1490 75       		.byte	0x75
 7438 1491 00       		.sleb128 0
 7439 1492 1A       		.byte	0x1a
 7440 1493 76       		.byte	0x76
 7441 1494 00       		.sleb128 0
 7442 1495 27       		.byte	0x27
 7443 1496 78       		.byte	0x78
 7444 1497 00       		.sleb128 0
 7445 1498 22       		.byte	0x22
 7446 1499 7A       		.byte	0x7a
 7447 149a 00       		.sleb128 0
 7448 149b 22       		.byte	0x22
 7449 149c 7C       		.byte	0x7c
 7450 149d 00       		.sleb128 0
 7451 149e 22       		.byte	0x22
 7452 149f 9F       		.byte	0x9f
 7453 14a0 A6130000 		.4byte	.LVL791
 7454 14a4 48140000 		.4byte	.LVL815
 7455 14a8 0100     		.2byte	0x1
 7456 14aa 52       		.byte	0x52
 7457 14ab 48140000 		.4byte	.LVL815
 7458 14af 4C140000 		.4byte	.LVL816
 7459 14b3 0100     		.2byte	0x1
 7460 14b5 55       		.byte	0x55
 7461 14b6 4C140000 		.4byte	.LVL816
 7462 14ba 52140000 		.4byte	.LVL817
 7463 14be 1100     		.2byte	0x11
 7464 14c0 7C       		.byte	0x7c
 7465 14c1 00       		.sleb128 0
 7466 14c2 71       		.byte	0x71
 7467 14c3 00       		.sleb128 0
 7468 14c4 27       		.byte	0x27
 7469 14c5 76       		.byte	0x76
 7470 14c6 00       		.sleb128 0
 7471 14c7 27       		.byte	0x27
 7472 14c8 72       		.byte	0x72
 7473 14c9 00       		.sleb128 0
 7474 14ca 22       		.byte	0x22
 7475 14cb 91       		.byte	0x91
 7476 14cc B47F     		.sleb128 -76
 7477 14ce 06       		.byte	0x6
 7478 14cf 22       		.byte	0x22
 7479 14d0 9F       		.byte	0x9f
 7480 14d1 52140000 		.4byte	.LVL817
 7481 14d5 DC140000 		.4byte	.LVL840
 7482 14d9 0100     		.2byte	0x1
 7483 14db 55       		.byte	0x55
 7484 14dc DE140000 		.4byte	.LVL841
 7485 14e0 68150000 		.4byte	.LVL865
ARM GAS  C:\Users\Ray\AppData\Local\Temp\ccdgjwii.s 			page 138


 7486 14e4 0100     		.2byte	0x1
 7487 14e6 55       		.byte	0x55
 7488 14e7 6A150000 		.4byte	.LVL866
 7489 14eb F4150000 		.4byte	.LVL891
 7490 14ef 0100     		.2byte	0x1
 7491 14f1 55       		.byte	0x55
 7492 14f2 00000000 		.4byte	0
 7493 14f6 00000000 		.4byte	0
 7494              	.LLST7:
 7495 14fa 10000000 		.4byte	.LVL1
 7496 14fe 460B0000 		.4byte	.LVL459
 7497 1502 0200     		.2byte	0x2
 7498 1504 70       		.byte	0x70
 7499 1505 04       		.sleb128 4
 7500 1506 460B0000 		.4byte	.LVL459
 7501 150a A40B0000 		.4byte	.LVL472
 7502 150e 0300     		.2byte	0x3
 7503 1510 91       		.byte	0x91
 7504 1511 BC7F     		.sleb128 -68
 7505 1513 A40B0000 		.4byte	.LVL472
 7506 1517 A80B0000 		.4byte	.LVL473
 7507 151b 0100     		.2byte	0x1
 7508 151d 52       		.byte	0x52
 7509 151e A80B0000 		.4byte	.LVL473
 7510 1522 AA0B0000 		.4byte	.LVL474
 7511 1526 0B00     		.2byte	0xb
 7512 1528 79       		.byte	0x79
 7513 1529 00       		.sleb128 0
 7514 152a 7C       		.byte	0x7c
 7515 152b 00       		.sleb128 0
 7516 152c 22       		.byte	0x22
 7517 152d 91       		.byte	0x91
 7518 152e BC7F     		.sleb128 -68
 7519 1530 06       		.byte	0x6
 7520 1531 22       		.byte	0x22
 7521 1532 9F       		.byte	0x9f
 7522 1533 AA0B0000 		.4byte	.LVL474
 7523 1537 3C0C0000 		.4byte	.LVL498
 7524 153b 0100     		.2byte	0x1
 7525 153d 52       		.byte	0x52
 7526 153e 420C0000 		.4byte	.LVL499
 7527 1542 460C0000 		.4byte	.LVL500
 7528 1546 0100     		.2byte	0x1
 7529 1548 52       		.byte	0x52
 7530 1549 480C0000 		.4byte	.LVL501
 7531 154d DC0C0000 		.4byte	.LVL525
 7532 1551 0100     		.2byte	0x1
 7533 1553 52       		.byte	0x52
 7534 1554 E20C0000 		.4byte	.LVL526
 7535 1558 E80C0000 		.4byte	.LVL527
 7536 155c 0100     		.2byte	0x1
 7537 155e 52       		.byte	0x52
 7538 155f EA0C0000 		.4byte	.LVL528
 7539 1563 980D0000 		.4byte	.LVL553
 7540 1567 0100     		.2byte	0x1
 7541 1569 52       		.byte	0x52
 7542 156a 9E0D0000 		.4byte	.LVL554
ARM GAS  C:\Users\Ray\AppData\Local\Temp\ccdgjwii.s 			page 139


 7543 156e A20D0000 		.4byte	.LVL555
 7544 1572 0100     		.2byte	0x1
 7545 1574 52       		.byte	0x52
 7546 1575 A80D0000 		.4byte	.LVL557
 7547 1579 F80D0000 		.4byte	.LVL569
 7548 157d 0100     		.2byte	0x1
 7549 157f 52       		.byte	0x52
 7550 1580 FA0D0000 		.4byte	.LVL570
 7551 1584 FE0D0000 		.4byte	.LVL571
 7552 1588 0100     		.2byte	0x1
 7553 158a 52       		.byte	0x52
 7554 158b FE0D0000 		.4byte	.LVL571
 7555 158f 640E0000 		.4byte	.LVL584
 7556 1593 0300     		.2byte	0x3
 7557 1595 91       		.byte	0x91
 7558 1596 B87F     		.sleb128 -72
 7559 1598 640E0000 		.4byte	.LVL584
 7560 159c 680E0000 		.4byte	.LVL585
 7561 15a0 0100     		.2byte	0x1
 7562 15a2 52       		.byte	0x52
 7563 15a3 680E0000 		.4byte	.LVL585
 7564 15a7 6A0E0000 		.4byte	.LVL586
 7565 15ab 1B00     		.2byte	0x1b
 7566 15ad 76       		.byte	0x76
 7567 15ae 00       		.sleb128 0
 7568 15af 75       		.byte	0x75
 7569 15b0 00       		.sleb128 0
 7570 15b1 27       		.byte	0x27
 7571 15b2 91       		.byte	0x91
 7572 15b3 BC7F     		.sleb128 -68
 7573 15b5 06       		.byte	0x6
 7574 15b6 1A       		.byte	0x1a
 7575 15b7 76       		.byte	0x76
 7576 15b8 00       		.sleb128 0
 7577 15b9 27       		.byte	0x27
 7578 15ba 7C       		.byte	0x7c
 7579 15bb 00       		.sleb128 0
 7580 15bc 22       		.byte	0x22
 7581 15bd 91       		.byte	0x91
 7582 15be B07F     		.sleb128 -80
 7583 15c0 06       		.byte	0x6
 7584 15c1 22       		.byte	0x22
 7585 15c2 91       		.byte	0x91
 7586 15c3 B87F     		.sleb128 -72
 7587 15c5 06       		.byte	0x6
 7588 15c6 22       		.byte	0x22
 7589 15c7 9F       		.byte	0x9f
 7590 15c8 6A0E0000 		.4byte	.LVL586
 7591 15cc C20E0000 		.4byte	.LVL597
 7592 15d0 0100     		.2byte	0x1
 7593 15d2 52       		.byte	0x52
 7594 15d3 C40E0000 		.4byte	.LVL598
 7595 15d7 C80E0000 		.4byte	.LVL599
 7596 15db 0100     		.2byte	0x1
 7597 15dd 52       		.byte	0x52
 7598 15de C80E0000 		.4byte	.LVL599
 7599 15e2 2A0F0000 		.4byte	.LVL612
ARM GAS  C:\Users\Ray\AppData\Local\Temp\ccdgjwii.s 			page 140


 7600 15e6 0300     		.2byte	0x3
 7601 15e8 91       		.byte	0x91
 7602 15e9 B87F     		.sleb128 -72
 7603 15eb 2A0F0000 		.4byte	.LVL612
 7604 15ef 2E0F0000 		.4byte	.LVL613
 7605 15f3 0100     		.2byte	0x1
 7606 15f5 52       		.byte	0x52
 7607 15f6 2E0F0000 		.4byte	.LVL613
 7608 15fa 300F0000 		.4byte	.LVL614
 7609 15fe 1900     		.2byte	0x19
 7610 1600 76       		.byte	0x76
 7611 1601 00       		.sleb128 0
 7612 1602 75       		.byte	0x75
 7613 1603 00       		.sleb128 0
 7614 1604 27       		.byte	0x27
 7615 1605 91       		.byte	0x91
 7616 1606 BC7F     		.sleb128 -68
 7617 1608 06       		.byte	0x6
 7618 1609 1A       		.byte	0x1a
 7619 160a 76       		.byte	0x76
 7620 160b 00       		.sleb128 0
 7621 160c 27       		.byte	0x27
 7622 160d 78       		.byte	0x78
 7623 160e 00       		.sleb128 0
 7624 160f 22       		.byte	0x22
 7625 1610 7C       		.byte	0x7c
 7626 1611 00       		.sleb128 0
 7627 1612 22       		.byte	0x22
 7628 1613 91       		.byte	0x91
 7629 1614 B87F     		.sleb128 -72
 7630 1616 06       		.byte	0x6
 7631 1617 22       		.byte	0x22
 7632 1618 9F       		.byte	0x9f
 7633 1619 300F0000 		.4byte	.LVL614
 7634 161d 820F0000 		.4byte	.LVL626
 7635 1621 0100     		.2byte	0x1
 7636 1623 52       		.byte	0x52
 7637 1624 840F0000 		.4byte	.LVL627
 7638 1628 880F0000 		.4byte	.LVL628
 7639 162c 0100     		.2byte	0x1
 7640 162e 52       		.byte	0x52
 7641 162f 880F0000 		.4byte	.LVL628
 7642 1633 E40F0000 		.4byte	.LVL639
 7643 1637 0300     		.2byte	0x3
 7644 1639 91       		.byte	0x91
 7645 163a B87F     		.sleb128 -72
 7646 163c E40F0000 		.4byte	.LVL639
 7647 1640 E80F0000 		.4byte	.LVL640
 7648 1644 0100     		.2byte	0x1
 7649 1646 52       		.byte	0x52
 7650 1647 E80F0000 		.4byte	.LVL640
 7651 164b EA0F0000 		.4byte	.LVL641
 7652 164f 0B00     		.2byte	0xb
 7653 1651 91       		.byte	0x91
 7654 1652 B87F     		.sleb128 -72
 7655 1654 06       		.byte	0x6
 7656 1655 7A       		.byte	0x7a
ARM GAS  C:\Users\Ray\AppData\Local\Temp\ccdgjwii.s 			page 141


 7657 1656 00       		.sleb128 0
 7658 1657 22       		.byte	0x22
 7659 1658 7C       		.byte	0x7c
 7660 1659 00       		.sleb128 0
 7661 165a 22       		.byte	0x22
 7662 165b 9F       		.byte	0x9f
 7663 165c EA0F0000 		.4byte	.LVL641
 7664 1660 EC0F0000 		.4byte	.LVL642
 7665 1664 1900     		.2byte	0x19
 7666 1666 76       		.byte	0x76
 7667 1667 00       		.sleb128 0
 7668 1668 20       		.byte	0x20
 7669 1669 75       		.byte	0x75
 7670 166a 00       		.sleb128 0
 7671 166b 21       		.byte	0x21
 7672 166c 91       		.byte	0x91
 7673 166d BC7F     		.sleb128 -68
 7674 166f 06       		.byte	0x6
 7675 1670 27       		.byte	0x27
 7676 1671 7C       		.byte	0x7c
 7677 1672 00       		.sleb128 0
 7678 1673 22       		.byte	0x22
 7679 1674 91       		.byte	0x91
 7680 1675 847F     		.sleb128 -124
 7681 1677 06       		.byte	0x6
 7682 1678 22       		.byte	0x22
 7683 1679 91       		.byte	0x91
 7684 167a B87F     		.sleb128 -72
 7685 167c 06       		.byte	0x6
 7686 167d 22       		.byte	0x22
 7687 167e 9F       		.byte	0x9f
 7688 167f EC0F0000 		.4byte	.LVL642
 7689 1683 3C100000 		.4byte	.LVL654
 7690 1687 0100     		.2byte	0x1
 7691 1689 5A       		.byte	0x5a
 7692 168a 3C100000 		.4byte	.LVL654
 7693 168e 92100000 		.4byte	.LVL667
 7694 1692 0100     		.2byte	0x1
 7695 1694 54       		.byte	0x54
 7696 1695 98100000 		.4byte	.LVL668
 7697 1699 9C100000 		.4byte	.LVL669
 7698 169d 0100     		.2byte	0x1
 7699 169f 54       		.byte	0x54
 7700 16a0 A2100000 		.4byte	.LVL670
 7701 16a4 B6100000 		.4byte	.LVL672
 7702 16a8 0100     		.2byte	0x1
 7703 16aa 54       		.byte	0x54
 7704 16ab B6100000 		.4byte	.LVL672
 7705 16af EC100000 		.4byte	.LVL683
 7706 16b3 0300     		.2byte	0x3
 7707 16b5 91       		.byte	0x91
 7708 16b6 B87F     		.sleb128 -72
 7709 16b8 EC100000 		.4byte	.LVL683
 7710 16bc EE100000 		.4byte	.LVL684
 7711 16c0 0100     		.2byte	0x1
 7712 16c2 54       		.byte	0x54
 7713 16c3 EE100000 		.4byte	.LVL684
ARM GAS  C:\Users\Ray\AppData\Local\Temp\ccdgjwii.s 			page 142


 7714 16c7 1C110000 		.4byte	.LVL690
 7715 16cb 0100     		.2byte	0x1
 7716 16cd 55       		.byte	0x55
 7717 16ce 1C110000 		.4byte	.LVL690
 7718 16d2 50110000 		.4byte	.LVL697
 7719 16d6 0200     		.2byte	0x2
 7720 16d8 91       		.byte	0x91
 7721 16d9 40       		.sleb128 -64
 7722 16da 50110000 		.4byte	.LVL697
 7723 16de 54110000 		.4byte	.LVL698
 7724 16e2 0100     		.2byte	0x1
 7725 16e4 54       		.byte	0x54
 7726 16e5 54110000 		.4byte	.LVL698
 7727 16e9 56110000 		.4byte	.LVL699
 7728 16ed 1600     		.2byte	0x16
 7729 16ef 76       		.byte	0x76
 7730 16f0 00       		.sleb128 0
 7731 16f1 20       		.byte	0x20
 7732 16f2 75       		.byte	0x75
 7733 16f3 00       		.sleb128 0
 7734 16f4 21       		.byte	0x21
 7735 16f5 7C       		.byte	0x7c
 7736 16f6 00       		.sleb128 0
 7737 16f7 27       		.byte	0x27
 7738 16f8 7A       		.byte	0x7a
 7739 16f9 00       		.sleb128 0
 7740 16fa 22       		.byte	0x22
 7741 16fb 91       		.byte	0x91
 7742 16fc A47F     		.sleb128 -92
 7743 16fe 06       		.byte	0x6
 7744 16ff 22       		.byte	0x22
 7745 1700 91       		.byte	0x91
 7746 1701 40       		.sleb128 -64
 7747 1702 06       		.byte	0x6
 7748 1703 22       		.byte	0x22
 7749 1704 9F       		.byte	0x9f
 7750 1705 56110000 		.4byte	.LVL699
 7751 1709 96110000 		.4byte	.LVL711
 7752 170d 0100     		.2byte	0x1
 7753 170f 54       		.byte	0x54
 7754 1710 98110000 		.4byte	.LVL712
 7755 1714 9A110000 		.4byte	.LVL713
 7756 1718 0100     		.2byte	0x1
 7757 171a 54       		.byte	0x54
 7758 171b 9A110000 		.4byte	.LVL713
 7759 171f AA110000 		.4byte	.LVL714
 7760 1723 0100     		.2byte	0x1
 7761 1725 56       		.byte	0x56
 7762 1726 AA110000 		.4byte	.LVL714
 7763 172a FA110000 		.4byte	.LVL725
 7764 172e 0200     		.2byte	0x2
 7765 1730 91       		.byte	0x91
 7766 1731 40       		.sleb128 -64
 7767 1732 FA110000 		.4byte	.LVL725
 7768 1736 FE110000 		.4byte	.LVL726
 7769 173a 0100     		.2byte	0x1
 7770 173c 54       		.byte	0x54
ARM GAS  C:\Users\Ray\AppData\Local\Temp\ccdgjwii.s 			page 143


 7771 173d FE110000 		.4byte	.LVL726
 7772 1741 02120000 		.4byte	.LVL727
 7773 1745 1800     		.2byte	0x18
 7774 1747 76       		.byte	0x76
 7775 1748 00       		.sleb128 0
 7776 1749 72       		.byte	0x72
 7777 174a 00       		.sleb128 0
 7778 174b 27       		.byte	0x27
 7779 174c 75       		.byte	0x75
 7780 174d 00       		.sleb128 0
 7781 174e 1A       		.byte	0x1a
 7782 174f 72       		.byte	0x72
 7783 1750 00       		.sleb128 0
 7784 1751 27       		.byte	0x27
 7785 1752 7C       		.byte	0x7c
 7786 1753 00       		.sleb128 0
 7787 1754 22       		.byte	0x22
 7788 1755 91       		.byte	0x91
 7789 1756 987F     		.sleb128 -104
 7790 1758 06       		.byte	0x6
 7791 1759 22       		.byte	0x22
 7792 175a 91       		.byte	0x91
 7793 175b 40       		.sleb128 -64
 7794 175c 06       		.byte	0x6
 7795 175d 22       		.byte	0x22
 7796 175e 9F       		.byte	0x9f
 7797 175f 02120000 		.4byte	.LVL727
 7798 1763 06120000 		.4byte	.LVL728
 7799 1767 1B00     		.2byte	0x1b
 7800 1769 76       		.byte	0x76
 7801 176a 00       		.sleb128 0
 7802 176b 72       		.byte	0x72
 7803 176c 00       		.sleb128 0
 7804 176d 27       		.byte	0x27
 7805 176e 75       		.byte	0x75
 7806 176f 00       		.sleb128 0
 7807 1770 1A       		.byte	0x1a
 7808 1771 72       		.byte	0x72
 7809 1772 00       		.sleb128 0
 7810 1773 27       		.byte	0x27
 7811 1774 91       		.byte	0x91
 7812 1775 987F     		.sleb128 -104
 7813 1777 06       		.byte	0x6
 7814 1778 22       		.byte	0x22
 7815 1779 91       		.byte	0x91
 7816 177a 40       		.sleb128 -64
 7817 177b 06       		.byte	0x6
 7818 177c 22       		.byte	0x22
 7819 177d 23       		.byte	0x23
 7820 177e E9EDB5D3 		.uleb128 0x7a6d76e9
 7820      07
 7821 1783 9F       		.byte	0x9f
 7822 1784 06120000 		.4byte	.LVL728
 7823 1788 1C120000 		.4byte	.LVL730
 7824 178c 0100     		.2byte	0x1
 7825 178e 51       		.byte	0x51
 7826 178f 1C120000 		.4byte	.LVL730
ARM GAS  C:\Users\Ray\AppData\Local\Temp\ccdgjwii.s 			page 144


 7827 1793 50120000 		.4byte	.LVL739
 7828 1797 0200     		.2byte	0x2
 7829 1799 91       		.byte	0x91
 7830 179a 40       		.sleb128 -64
 7831 179b 50120000 		.4byte	.LVL739
 7832 179f BE120000 		.4byte	.LVL751
 7833 17a3 0100     		.2byte	0x1
 7834 17a5 54       		.byte	0x54
 7835 17a6 BE120000 		.4byte	.LVL751
 7836 17aa C2120000 		.4byte	.LVL752
 7837 17ae 0100     		.2byte	0x1
 7838 17b0 55       		.byte	0x55
 7839 17b1 C2120000 		.4byte	.LVL752
 7840 17b5 C6120000 		.4byte	.LVL753
 7841 17b9 1700     		.2byte	0x17
 7842 17bb 7C       		.byte	0x7c
 7843 17bc 00       		.sleb128 0
 7844 17bd 72       		.byte	0x72
 7845 17be 00       		.sleb128 0
 7846 17bf 27       		.byte	0x27
 7847 17c0 76       		.byte	0x76
 7848 17c1 00       		.sleb128 0
 7849 17c2 1A       		.byte	0x1a
 7850 17c3 7C       		.byte	0x7c
 7851 17c4 00       		.sleb128 0
 7852 17c5 27       		.byte	0x27
 7853 17c6 7A       		.byte	0x7a
 7854 17c7 00       		.sleb128 0
 7855 17c8 22       		.byte	0x22
 7856 17c9 91       		.byte	0x91
 7857 17ca B47F     		.sleb128 -76
 7858 17cc 06       		.byte	0x6
 7859 17cd 22       		.byte	0x22
 7860 17ce 74       		.byte	0x74
 7861 17cf 00       		.sleb128 0
 7862 17d0 22       		.byte	0x22
 7863 17d1 9F       		.byte	0x9f
 7864 17d2 C6120000 		.4byte	.LVL753
 7865 17d6 C8120000 		.4byte	.LVL754
 7866 17da 1A00     		.2byte	0x1a
 7867 17dc 7C       		.byte	0x7c
 7868 17dd 00       		.sleb128 0
 7869 17de 72       		.byte	0x72
 7870 17df 00       		.sleb128 0
 7871 17e0 27       		.byte	0x27
 7872 17e1 76       		.byte	0x76
 7873 17e2 00       		.sleb128 0
 7874 17e3 1A       		.byte	0x1a
 7875 17e4 7C       		.byte	0x7c
 7876 17e5 00       		.sleb128 0
 7877 17e6 27       		.byte	0x27
 7878 17e7 91       		.byte	0x91
 7879 17e8 B47F     		.sleb128 -76
 7880 17ea 06       		.byte	0x6
 7881 17eb 22       		.byte	0x22
 7882 17ec 74       		.byte	0x74
 7883 17ed 00       		.sleb128 0
ARM GAS  C:\Users\Ray\AppData\Local\Temp\ccdgjwii.s 			page 145


 7884 17ee 22       		.byte	0x22
 7885 17ef 23       		.byte	0x23
 7886 17f0 E9EDB5D3 		.uleb128 0x7a6d76e9
 7886      07
 7887 17f5 9F       		.byte	0x9f
 7888 17f6 C8120000 		.4byte	.LVL754
 7889 17fa 7A130000 		.4byte	.LVL782
 7890 17fe 0100     		.2byte	0x1
 7891 1800 55       		.byte	0x55
 7892 1801 80130000 		.4byte	.LVL783
 7893 1805 84130000 		.4byte	.LVL784
 7894 1809 0100     		.2byte	0x1
 7895 180b 55       		.byte	0x55
 7896 180c 86130000 		.4byte	.LVL785
 7897 1810 E4130000 		.4byte	.LVL799
 7898 1814 0100     		.2byte	0x1
 7899 1816 55       		.byte	0x55
 7900 1817 E4130000 		.4byte	.LVL799
 7901 181b 2C140000 		.4byte	.LVL809
 7902 181f 0300     		.2byte	0x3
 7903 1821 91       		.byte	0x91
 7904 1822 BC7F     		.sleb128 -68
 7905 1824 2C140000 		.4byte	.LVL809
 7906 1828 30140000 		.4byte	.LVL811
 7907 182c 0100     		.2byte	0x1
 7908 182e 55       		.byte	0x55
 7909 182f 30140000 		.4byte	.LVL811
 7910 1833 32140000 		.4byte	.LVL812
 7911 1837 0800     		.2byte	0x8
 7912 1839 91       		.byte	0x91
 7913 183a BC7F     		.sleb128 -68
 7914 183c 06       		.byte	0x6
 7915 183d 7C       		.byte	0x7c
 7916 183e 00       		.sleb128 0
 7917 183f 22       		.byte	0x22
 7918 1840 9F       		.byte	0x9f
 7919 1841 32140000 		.4byte	.LVL812
 7920 1845 34140000 		.4byte	.LVL813
 7921 1849 1400     		.2byte	0x14
 7922 184b 76       		.byte	0x76
 7923 184c 00       		.sleb128 0
 7924 184d 71       		.byte	0x71
 7925 184e 00       		.sleb128 0
 7926 184f 27       		.byte	0x27
 7927 1850 91       		.byte	0x91
 7928 1851 40       		.sleb128 -64
 7929 1852 06       		.byte	0x6
 7930 1853 27       		.byte	0x27
 7931 1854 91       		.byte	0x91
 7932 1855 BC7F     		.sleb128 -68
 7933 1857 06       		.byte	0x6
 7934 1858 22       		.byte	0x22
 7935 1859 91       		.byte	0x91
 7936 185a A87F     		.sleb128 -88
 7937 185c 06       		.byte	0x6
 7938 185d 22       		.byte	0x22
 7939 185e 9F       		.byte	0x9f
ARM GAS  C:\Users\Ray\AppData\Local\Temp\ccdgjwii.s 			page 146


 7940 185f 34140000 		.4byte	.LVL813
 7941 1863 70140000 		.4byte	.LVL823
 7942 1867 0100     		.2byte	0x1
 7943 1869 5C       		.byte	0x5c
 7944 186a 70140000 		.4byte	.LVL823
 7945 186e 72140000 		.4byte	.LVL824
 7946 1872 0100     		.2byte	0x1
 7947 1874 51       		.byte	0x51
 7948 1875 72140000 		.4byte	.LVL824
 7949 1879 BC140000 		.4byte	.LVL834
 7950 187d 0100     		.2byte	0x1
 7951 187f 5C       		.byte	0x5c
 7952 1880 BC140000 		.4byte	.LVL834
 7953 1884 C0140000 		.4byte	.LVL835
 7954 1888 0100     		.2byte	0x1
 7955 188a 52       		.byte	0x52
 7956 188b C0140000 		.4byte	.LVL835
 7957 188f C2140000 		.4byte	.LVL836
 7958 1893 1100     		.2byte	0x11
 7959 1895 76       		.byte	0x76
 7960 1896 00       		.sleb128 0
 7961 1897 79       		.byte	0x79
 7962 1898 00       		.sleb128 0
 7963 1899 27       		.byte	0x27
 7964 189a 74       		.byte	0x74
 7965 189b 00       		.sleb128 0
 7966 189c 27       		.byte	0x27
 7967 189d 7C       		.byte	0x7c
 7968 189e 00       		.sleb128 0
 7969 189f 22       		.byte	0x22
 7970 18a0 91       		.byte	0x91
 7971 18a1 947F     		.sleb128 -108
 7972 18a3 06       		.byte	0x6
 7973 18a4 22       		.byte	0x22
 7974 18a5 9F       		.byte	0x9f
 7975 18a6 C4140000 		.4byte	.LVL837
 7976 18aa 02150000 		.4byte	.LVL847
 7977 18ae 0100     		.2byte	0x1
 7978 18b0 5C       		.byte	0x5c
 7979 18b1 02150000 		.4byte	.LVL847
 7980 18b5 04150000 		.4byte	.LVL848
 7981 18b9 0100     		.2byte	0x1
 7982 18bb 51       		.byte	0x51
 7983 18bc 04150000 		.4byte	.LVL848
 7984 18c0 4A150000 		.4byte	.LVL859
 7985 18c4 0100     		.2byte	0x1
 7986 18c6 5C       		.byte	0x5c
 7987 18c7 4A150000 		.4byte	.LVL859
 7988 18cb 4E150000 		.4byte	.LVL860
 7989 18cf 0100     		.2byte	0x1
 7990 18d1 52       		.byte	0x52
 7991 18d2 4E150000 		.4byte	.LVL860
 7992 18d6 50150000 		.4byte	.LVL861
 7993 18da 1100     		.2byte	0x11
 7994 18dc 76       		.byte	0x76
 7995 18dd 00       		.sleb128 0
 7996 18de 71       		.byte	0x71
ARM GAS  C:\Users\Ray\AppData\Local\Temp\ccdgjwii.s 			page 147


 7997 18df 00       		.sleb128 0
 7998 18e0 27       		.byte	0x27
 7999 18e1 79       		.byte	0x79
 8000 18e2 00       		.sleb128 0
 8001 18e3 27       		.byte	0x27
 8002 18e4 7C       		.byte	0x7c
 8003 18e5 00       		.sleb128 0
 8004 18e6 22       		.byte	0x22
 8005 18e7 91       		.byte	0x91
 8006 18e8 AC7F     		.sleb128 -84
 8007 18ea 06       		.byte	0x6
 8008 18eb 22       		.byte	0x22
 8009 18ec 9F       		.byte	0x9f
 8010 18ed 52150000 		.4byte	.LVL862
 8011 18f1 8C150000 		.4byte	.LVL873
 8012 18f5 0100     		.2byte	0x1
 8013 18f7 5C       		.byte	0x5c
 8014 18f8 8C150000 		.4byte	.LVL873
 8015 18fc 8E150000 		.4byte	.LVL874
 8016 1900 0100     		.2byte	0x1
 8017 1902 52       		.byte	0x52
 8018 1903 8E150000 		.4byte	.LVL874
 8019 1907 C4150000 		.4byte	.LVL884
 8020 190b 0100     		.2byte	0x1
 8021 190d 5C       		.byte	0x5c
 8022 190e C4150000 		.4byte	.LVL884
 8023 1912 C8150000 		.4byte	.LVL885
 8024 1916 0100     		.2byte	0x1
 8025 1918 52       		.byte	0x52
 8026 1919 C8150000 		.4byte	.LVL885
 8027 191d CA150000 		.4byte	.LVL886
 8028 1921 1300     		.2byte	0x13
 8029 1923 76       		.byte	0x76
 8030 1924 00       		.sleb128 0
 8031 1925 71       		.byte	0x71
 8032 1926 00       		.sleb128 0
 8033 1927 27       		.byte	0x27
 8034 1928 74       		.byte	0x74
 8035 1929 00       		.sleb128 0
 8036 192a 27       		.byte	0x27
 8037 192b 7C       		.byte	0x7c
 8038 192c 00       		.sleb128 0
 8039 192d 22       		.byte	0x22
 8040 192e F3       		.byte	0xf3
 8041 192f 01       		.uleb128 0x1
 8042 1930 51       		.byte	0x51
 8043 1931 23       		.byte	0x23
 8044 1932 2C       		.uleb128 0x2c
 8045 1933 06       		.byte	0x6
 8046 1934 22       		.byte	0x22
 8047 1935 9F       		.byte	0x9f
 8048 1936 CA150000 		.4byte	.LVL886
 8049 193a 02160000 		.4byte	.LVL892
 8050 193e 0100     		.2byte	0x1
 8051 1940 52       		.byte	0x52
 8052 1941 00000000 		.4byte	0
 8053 1945 00000000 		.4byte	0
ARM GAS  C:\Users\Ray\AppData\Local\Temp\ccdgjwii.s 			page 148


 8054              	.LLST8:
 8055 1949 10000000 		.4byte	.LVL1
 8056 194d 200B0000 		.4byte	.LVL454
 8057 1951 0200     		.2byte	0x2
 8058 1953 70       		.byte	0x70
 8059 1954 08       		.sleb128 8
 8060 1955 200B0000 		.4byte	.LVL454
 8061 1959 840B0000 		.4byte	.LVL466
 8062 195d 0200     		.2byte	0x2
 8063 195f 91       		.byte	0x91
 8064 1960 40       		.sleb128 -64
 8065 1961 840B0000 		.4byte	.LVL466
 8066 1965 880B0000 		.4byte	.LVL467
 8067 1969 0100     		.2byte	0x1
 8068 196b 55       		.byte	0x55
 8069 196c 880B0000 		.4byte	.LVL467
 8070 1970 8A0B0000 		.4byte	.LVL468
 8071 1974 1500     		.2byte	0x15
 8072 1976 71       		.byte	0x71
 8073 1977 00       		.sleb128 0
 8074 1978 20       		.byte	0x20
 8075 1979 74       		.byte	0x74
 8076 197a 00       		.sleb128 0
 8077 197b 21       		.byte	0x21
 8078 197c 76       		.byte	0x76
 8079 197d 00       		.sleb128 0
 8080 197e 27       		.byte	0x27
 8081 197f 7C       		.byte	0x7c
 8082 1980 00       		.sleb128 0
 8083 1981 22       		.byte	0x22
 8084 1982 7D       		.byte	0x7d
 8085 1983 00       		.sleb128 0
 8086 1984 06       		.byte	0x6
 8087 1985 22       		.byte	0x22
 8088 1986 91       		.byte	0x91
 8089 1987 40       		.sleb128 -64
 8090 1988 06       		.byte	0x6
 8091 1989 22       		.byte	0x22
 8092 198a 9F       		.byte	0x9f
 8093 198b 8A0B0000 		.4byte	.LVL468
 8094 198f 8C0B0000 		.4byte	.LVL469
 8095 1993 1500     		.2byte	0x15
 8096 1995 7A       		.byte	0x7a
 8097 1996 00       		.sleb128 0
 8098 1997 20       		.byte	0x20
 8099 1998 74       		.byte	0x74
 8100 1999 00       		.sleb128 0
 8101 199a 21       		.byte	0x21
 8102 199b 76       		.byte	0x76
 8103 199c 00       		.sleb128 0
 8104 199d 27       		.byte	0x27
 8105 199e 7C       		.byte	0x7c
 8106 199f 00       		.sleb128 0
 8107 19a0 22       		.byte	0x22
 8108 19a1 7D       		.byte	0x7d
 8109 19a2 00       		.sleb128 0
 8110 19a3 06       		.byte	0x6
ARM GAS  C:\Users\Ray\AppData\Local\Temp\ccdgjwii.s 			page 149


 8111 19a4 22       		.byte	0x22
 8112 19a5 91       		.byte	0x91
 8113 19a6 40       		.sleb128 -64
 8114 19a7 06       		.byte	0x6
 8115 19a8 22       		.byte	0x22
 8116 19a9 9F       		.byte	0x9f
 8117 19aa 8C0B0000 		.4byte	.LVL469
 8118 19ae 8E0B0000 		.4byte	.LVL470
 8119 19b2 1800     		.2byte	0x18
 8120 19b4 7A       		.byte	0x7a
 8121 19b5 00       		.sleb128 0
 8122 19b6 20       		.byte	0x20
 8123 19b7 74       		.byte	0x74
 8124 19b8 00       		.sleb128 0
 8125 19b9 21       		.byte	0x21
 8126 19ba 76       		.byte	0x76
 8127 19bb 00       		.sleb128 0
 8128 19bc 27       		.byte	0x27
 8129 19bd 7D       		.byte	0x7d
 8130 19be 00       		.sleb128 0
 8131 19bf 06       		.byte	0x6
 8132 19c0 22       		.byte	0x22
 8133 19c1 91       		.byte	0x91
 8134 19c2 40       		.sleb128 -64
 8135 19c3 06       		.byte	0x6
 8136 19c4 22       		.byte	0x22
 8137 19c5 23       		.byte	0x23
 8138 19c6 E6978A85 		.uleb128 0x50a28be6
 8138      05
 8139 19cb 9F       		.byte	0x9f
 8140 19cc 8E0B0000 		.4byte	.LVL470
 8141 19d0 1E0C0000 		.4byte	.LVL493
 8142 19d4 0100     		.2byte	0x1
 8143 19d6 55       		.byte	0x55
 8144 19d7 240C0000 		.4byte	.LVL494
 8145 19db 280C0000 		.4byte	.LVL495
 8146 19df 0100     		.2byte	0x1
 8147 19e1 55       		.byte	0x55
 8148 19e2 2A0C0000 		.4byte	.LVL496
 8149 19e6 BC0C0000 		.4byte	.LVL520
 8150 19ea 0100     		.2byte	0x1
 8151 19ec 55       		.byte	0x55
 8152 19ed C20C0000 		.4byte	.LVL521
 8153 19f1 C60C0000 		.4byte	.LVL522
 8154 19f5 0100     		.2byte	0x1
 8155 19f7 55       		.byte	0x55
 8156 19f8 C80C0000 		.4byte	.LVL523
 8157 19fc 120D0000 		.4byte	.LVL534
 8158 1a00 0100     		.2byte	0x1
 8159 1a02 55       		.byte	0x55
 8160 1a03 140D0000 		.4byte	.LVL535
 8161 1a07 2C0D0000 		.4byte	.LVL536
 8162 1a0b 0100     		.2byte	0x1
 8163 1a0d 54       		.byte	0x54
 8164 1a0e 2C0D0000 		.4byte	.LVL536
 8165 1a12 7C0D0000 		.4byte	.LVL549
 8166 1a16 0300     		.2byte	0x3
ARM GAS  C:\Users\Ray\AppData\Local\Temp\ccdgjwii.s 			page 150


 8167 1a18 91       		.byte	0x91
 8168 1a19 BC7F     		.sleb128 -68
 8169 1a1b 7C0D0000 		.4byte	.LVL549
 8170 1a1f 800D0000 		.4byte	.LVL550
 8171 1a23 0100     		.2byte	0x1
 8172 1a25 55       		.byte	0x55
 8173 1a26 800D0000 		.4byte	.LVL550
 8174 1a2a 820D0000 		.4byte	.LVL551
 8175 1a2e 0600     		.2byte	0x6
 8176 1a30 7A       		.byte	0x7a
 8177 1a31 00       		.sleb128 0
 8178 1a32 7C       		.byte	0x7c
 8179 1a33 00       		.sleb128 0
 8180 1a34 22       		.byte	0x22
 8181 1a35 9F       		.byte	0x9f
 8182 1a36 820D0000 		.4byte	.LVL551
 8183 1a3a D00D0000 		.4byte	.LVL563
 8184 1a3e 0100     		.2byte	0x1
 8185 1a40 55       		.byte	0x55
 8186 1a41 D20D0000 		.4byte	.LVL564
 8187 1a45 EA0D0000 		.4byte	.LVL565
 8188 1a49 0100     		.2byte	0x1
 8189 1a4b 54       		.byte	0x54
 8190 1a4c EA0D0000 		.4byte	.LVL565
 8191 1a50 3C0E0000 		.4byte	.LVL578
 8192 1a54 0300     		.2byte	0x3
 8193 1a56 91       		.byte	0x91
 8194 1a57 BC7F     		.sleb128 -68
 8195 1a59 3C0E0000 		.4byte	.LVL578
 8196 1a5d 400E0000 		.4byte	.LVL579
 8197 1a61 0100     		.2byte	0x1
 8198 1a63 55       		.byte	0x55
 8199 1a64 400E0000 		.4byte	.LVL579
 8200 1a68 440E0000 		.4byte	.LVL580
 8201 1a6c 1700     		.2byte	0x17
 8202 1a6e 72       		.byte	0x72
 8203 1a6f 00       		.sleb128 0
 8204 1a70 76       		.byte	0x76
 8205 1a71 00       		.sleb128 0
 8206 1a72 27       		.byte	0x27
 8207 1a73 71       		.byte	0x71
 8208 1a74 00       		.sleb128 0
 8209 1a75 1A       		.byte	0x1a
 8210 1a76 72       		.byte	0x72
 8211 1a77 00       		.sleb128 0
 8212 1a78 27       		.byte	0x27
 8213 1a79 7A       		.byte	0x7a
 8214 1a7a 00       		.sleb128 0
 8215 1a7b 22       		.byte	0x22
 8216 1a7c 7C       		.byte	0x7c
 8217 1a7d 00       		.sleb128 0
 8218 1a7e 22       		.byte	0x22
 8219 1a7f 91       		.byte	0x91
 8220 1a80 BC7F     		.sleb128 -68
 8221 1a82 06       		.byte	0x6
 8222 1a83 22       		.byte	0x22
 8223 1a84 9F       		.byte	0x9f
ARM GAS  C:\Users\Ray\AppData\Local\Temp\ccdgjwii.s 			page 151


 8224 1a85 440E0000 		.4byte	.LVL580
 8225 1a89 460E0000 		.4byte	.LVL581
 8226 1a8d 1A00     		.2byte	0x1a
 8227 1a8f 72       		.byte	0x72
 8228 1a90 00       		.sleb128 0
 8229 1a91 76       		.byte	0x76
 8230 1a92 00       		.sleb128 0
 8231 1a93 27       		.byte	0x27
 8232 1a94 71       		.byte	0x71
 8233 1a95 00       		.sleb128 0
 8234 1a96 1A       		.byte	0x1a
 8235 1a97 72       		.byte	0x72
 8236 1a98 00       		.sleb128 0
 8237 1a99 27       		.byte	0x27
 8238 1a9a 7A       		.byte	0x7a
 8239 1a9b 00       		.sleb128 0
 8240 1a9c 22       		.byte	0x22
 8241 1a9d 91       		.byte	0x91
 8242 1a9e BC7F     		.sleb128 -68
 8243 1aa0 06       		.byte	0x6
 8244 1aa1 22       		.byte	0x22
 8245 1aa2 23       		.byte	0x23
 8246 1aa3 A4A2B7E2 		.uleb128 0x5c4dd124
 8246      05
 8247 1aa8 9F       		.byte	0x9f
 8248 1aa9 460E0000 		.4byte	.LVL581
 8249 1aad AC0E0000 		.4byte	.LVL593
 8250 1ab1 0100     		.2byte	0x1
 8251 1ab3 55       		.byte	0x55
 8252 1ab4 AC0E0000 		.4byte	.LVL593
 8253 1ab8 060F0000 		.4byte	.LVL606
 8254 1abc 0200     		.2byte	0x2
 8255 1abe 91       		.byte	0x91
 8256 1abf 40       		.sleb128 -64
 8257 1ac0 060F0000 		.4byte	.LVL606
 8258 1ac4 0A0F0000 		.4byte	.LVL607
 8259 1ac8 0100     		.2byte	0x1
 8260 1aca 55       		.byte	0x55
 8261 1acb 0A0F0000 		.4byte	.LVL607
 8262 1acf 0E0F0000 		.4byte	.LVL608
 8263 1ad3 1800     		.2byte	0x18
 8264 1ad5 72       		.byte	0x72
 8265 1ad6 00       		.sleb128 0
 8266 1ad7 76       		.byte	0x76
 8267 1ad8 00       		.sleb128 0
 8268 1ad9 27       		.byte	0x27
 8269 1ada 71       		.byte	0x71
 8270 1adb 00       		.sleb128 0
 8271 1adc 1A       		.byte	0x1a
 8272 1add 72       		.byte	0x72
 8273 1ade 00       		.sleb128 0
 8274 1adf 27       		.byte	0x27
 8275 1ae0 7C       		.byte	0x7c
 8276 1ae1 00       		.sleb128 0
 8277 1ae2 22       		.byte	0x22
 8278 1ae3 91       		.byte	0x91
 8279 1ae4 907F     		.sleb128 -112
ARM GAS  C:\Users\Ray\AppData\Local\Temp\ccdgjwii.s 			page 152


 8280 1ae6 06       		.byte	0x6
 8281 1ae7 22       		.byte	0x22
 8282 1ae8 91       		.byte	0x91
 8283 1ae9 40       		.sleb128 -64
 8284 1aea 06       		.byte	0x6
 8285 1aeb 22       		.byte	0x22
 8286 1aec 9F       		.byte	0x9f
 8287 1aed 0E0F0000 		.4byte	.LVL608
 8288 1af1 100F0000 		.4byte	.LVL609
 8289 1af5 1B00     		.2byte	0x1b
 8290 1af7 72       		.byte	0x72
 8291 1af8 00       		.sleb128 0
 8292 1af9 76       		.byte	0x76
 8293 1afa 00       		.sleb128 0
 8294 1afb 27       		.byte	0x27
 8295 1afc 71       		.byte	0x71
 8296 1afd 00       		.sleb128 0
 8297 1afe 1A       		.byte	0x1a
 8298 1aff 72       		.byte	0x72
 8299 1b00 00       		.sleb128 0
 8300 1b01 27       		.byte	0x27
 8301 1b02 91       		.byte	0x91
 8302 1b03 907F     		.sleb128 -112
 8303 1b05 06       		.byte	0x6
 8304 1b06 22       		.byte	0x22
 8305 1b07 91       		.byte	0x91
 8306 1b08 40       		.sleb128 -64
 8307 1b09 06       		.byte	0x6
 8308 1b0a 22       		.byte	0x22
 8309 1b0b 23       		.byte	0x23
 8310 1b0c A4A2B7E2 		.uleb128 0x5c4dd124
 8310      05
 8311 1b11 9F       		.byte	0x9f
 8312 1b12 100F0000 		.4byte	.LVL609
 8313 1b16 B80F0000 		.4byte	.LVL633
 8314 1b1a 0100     		.2byte	0x1
 8315 1b1c 55       		.byte	0x55
 8316 1b1d BE0F0000 		.4byte	.LVL634
 8317 1b21 C20F0000 		.4byte	.LVL635
 8318 1b25 0100     		.2byte	0x1
 8319 1b27 55       		.byte	0x55
 8320 1b28 C80F0000 		.4byte	.LVL636
 8321 1b2c 76100000 		.4byte	.LVL661
 8322 1b30 0100     		.2byte	0x1
 8323 1b32 55       		.byte	0x55
 8324 1b33 7C100000 		.4byte	.LVL662
 8325 1b37 80100000 		.4byte	.LVL663
 8326 1b3b 0100     		.2byte	0x1
 8327 1b3d 55       		.byte	0x55
 8328 1b3e 82100000 		.4byte	.LVL664
 8329 1b42 C2100000 		.4byte	.LVL676
 8330 1b46 0100     		.2byte	0x1
 8331 1b48 55       		.byte	0x55
 8332 1b49 C4100000 		.4byte	.LVL677
 8333 1b4d CA100000 		.4byte	.LVL678
 8334 1b51 0100     		.2byte	0x1
 8335 1b53 55       		.byte	0x55
ARM GAS  C:\Users\Ray\AppData\Local\Temp\ccdgjwii.s 			page 153


 8336 1b54 CA100000 		.4byte	.LVL678
 8337 1b58 2A110000 		.4byte	.LVL691
 8338 1b5c 0300     		.2byte	0x3
 8339 1b5e 91       		.byte	0x91
 8340 1b5f BC7F     		.sleb128 -68
 8341 1b61 2A110000 		.4byte	.LVL691
 8342 1b65 2E110000 		.4byte	.LVL692
 8343 1b69 0100     		.2byte	0x1
 8344 1b6b 55       		.byte	0x55
 8345 1b6c 2E110000 		.4byte	.LVL692
 8346 1b70 32110000 		.4byte	.LVL693
 8347 1b74 1500     		.2byte	0x15
 8348 1b76 72       		.byte	0x72
 8349 1b77 00       		.sleb128 0
 8350 1b78 20       		.byte	0x20
 8351 1b79 76       		.byte	0x76
 8352 1b7a 00       		.sleb128 0
 8353 1b7b 21       		.byte	0x21
 8354 1b7c 71       		.byte	0x71
 8355 1b7d 00       		.sleb128 0
 8356 1b7e 27       		.byte	0x27
 8357 1b7f 7A       		.byte	0x7a
 8358 1b80 00       		.sleb128 0
 8359 1b81 22       		.byte	0x22
 8360 1b82 7C       		.byte	0x7c
 8361 1b83 00       		.sleb128 0
 8362 1b84 22       		.byte	0x22
 8363 1b85 91       		.byte	0x91
 8364 1b86 BC7F     		.sleb128 -68
 8365 1b88 06       		.byte	0x6
 8366 1b89 22       		.byte	0x22
 8367 1b8a 9F       		.byte	0x9f
 8368 1b8b 32110000 		.4byte	.LVL693
 8369 1b8f 34110000 		.4byte	.LVL694
 8370 1b93 1800     		.2byte	0x18
 8371 1b95 72       		.byte	0x72
 8372 1b96 00       		.sleb128 0
 8373 1b97 20       		.byte	0x20
 8374 1b98 76       		.byte	0x76
 8375 1b99 00       		.sleb128 0
 8376 1b9a 21       		.byte	0x21
 8377 1b9b 71       		.byte	0x71
 8378 1b9c 00       		.sleb128 0
 8379 1b9d 27       		.byte	0x27
 8380 1b9e 7A       		.byte	0x7a
 8381 1b9f 00       		.sleb128 0
 8382 1ba0 22       		.byte	0x22
 8383 1ba1 91       		.byte	0x91
 8384 1ba2 BC7F     		.sleb128 -68
 8385 1ba4 06       		.byte	0x6
 8386 1ba5 22       		.byte	0x22
 8387 1ba6 23       		.byte	0x23
 8388 1ba7 F3FDC0EB 		.uleb128 0x6d703ef3
 8388      06
 8389 1bac 9F       		.byte	0x9f
 8390 1bad 34110000 		.4byte	.LVL694
 8391 1bb1 CE110000 		.4byte	.LVL719
ARM GAS  C:\Users\Ray\AppData\Local\Temp\ccdgjwii.s 			page 154


 8392 1bb5 0100     		.2byte	0x1
 8393 1bb7 55       		.byte	0x55
 8394 1bb8 D4110000 		.4byte	.LVL720
 8395 1bbc D8110000 		.4byte	.LVL721
 8396 1bc0 0100     		.2byte	0x1
 8397 1bc2 55       		.byte	0x55
 8398 1bc3 DE110000 		.4byte	.LVL723
 8399 1bc7 8C120000 		.4byte	.LVL746
 8400 1bcb 0100     		.2byte	0x1
 8401 1bcd 55       		.byte	0x55
 8402 1bce 8C120000 		.4byte	.LVL746
 8403 1bd2 90120000 		.4byte	.LVL747
 8404 1bd6 0100     		.2byte	0x1
 8405 1bd8 56       		.byte	0x56
 8406 1bd9 90120000 		.4byte	.LVL747
 8407 1bdd 92120000 		.4byte	.LVL748
 8408 1be1 1900     		.2byte	0x19
 8409 1be3 7C       		.byte	0x7c
 8410 1be4 00       		.sleb128 0
 8411 1be5 91       		.byte	0x91
 8412 1be6 BC7F     		.sleb128 -68
 8413 1be8 06       		.byte	0x6
 8414 1be9 27       		.byte	0x27
 8415 1bea 72       		.byte	0x72
 8416 1beb 00       		.sleb128 0
 8417 1bec 1A       		.byte	0x1a
 8418 1bed 91       		.byte	0x91
 8419 1bee BC7F     		.sleb128 -68
 8420 1bf0 06       		.byte	0x6
 8421 1bf1 27       		.byte	0x27
 8422 1bf2 75       		.byte	0x75
 8423 1bf3 00       		.sleb128 0
 8424 1bf4 22       		.byte	0x22
 8425 1bf5 77       		.byte	0x77
 8426 1bf6 00       		.sleb128 0
 8427 1bf7 22       		.byte	0x22
 8428 1bf8 7A       		.byte	0x7a
 8429 1bf9 00       		.sleb128 0
 8430 1bfa 22       		.byte	0x22
 8431 1bfb 9F       		.byte	0x9f
 8432 1bfc 92120000 		.4byte	.LVL748
 8433 1c00 EE120000 		.4byte	.LVL760
 8434 1c04 0100     		.2byte	0x1
 8435 1c06 56       		.byte	0x56
 8436 1c07 F0120000 		.4byte	.LVL761
 8437 1c0b 10130000 		.4byte	.LVL765
 8438 1c0f 0100     		.2byte	0x1
 8439 1c11 52       		.byte	0x52
 8440 1c12 10130000 		.4byte	.LVL765
 8441 1c16 58130000 		.4byte	.LVL774
 8442 1c1a 0300     		.2byte	0x3
 8443 1c1c 91       		.byte	0x91
 8444 1c1d BC7F     		.sleb128 -68
 8445 1c1f 58130000 		.4byte	.LVL774
 8446 1c23 5C130000 		.4byte	.LVL775
 8447 1c27 0100     		.2byte	0x1
 8448 1c29 51       		.byte	0x51
ARM GAS  C:\Users\Ray\AppData\Local\Temp\ccdgjwii.s 			page 155


 8449 1c2a 5C130000 		.4byte	.LVL775
 8450 1c2e 60130000 		.4byte	.LVL776
 8451 1c32 1900     		.2byte	0x19
 8452 1c34 7C       		.byte	0x7c
 8453 1c35 00       		.sleb128 0
 8454 1c36 74       		.byte	0x74
 8455 1c37 00       		.sleb128 0
 8456 1c38 27       		.byte	0x27
 8457 1c39 72       		.byte	0x72
 8458 1c3a 00       		.sleb128 0
 8459 1c3b 1A       		.byte	0x1a
 8460 1c3c 7C       		.byte	0x7c
 8461 1c3d 00       		.sleb128 0
 8462 1c3e 27       		.byte	0x27
 8463 1c3f 7A       		.byte	0x7a
 8464 1c40 00       		.sleb128 0
 8465 1c41 22       		.byte	0x22
 8466 1c42 91       		.byte	0x91
 8467 1c43 887F     		.sleb128 -120
 8468 1c45 06       		.byte	0x6
 8469 1c46 22       		.byte	0x22
 8470 1c47 91       		.byte	0x91
 8471 1c48 BC7F     		.sleb128 -68
 8472 1c4a 06       		.byte	0x6
 8473 1c4b 22       		.byte	0x22
 8474 1c4c 9F       		.byte	0x9f
 8475 1c4d 60130000 		.4byte	.LVL776
 8476 1c51 66130000 		.4byte	.LVL779
 8477 1c55 0100     		.2byte	0x1
 8478 1c57 51       		.byte	0x51
 8479 1c58 66130000 		.4byte	.LVL779
 8480 1c5c 76130000 		.4byte	.LVL781
 8481 1c60 0100     		.2byte	0x1
 8482 1c62 5A       		.byte	0x5a
 8483 1c63 76130000 		.4byte	.LVL781
 8484 1c67 C0130000 		.4byte	.LVL793
 8485 1c6b 0100     		.2byte	0x1
 8486 1c6d 54       		.byte	0x54
 8487 1c6e C0130000 		.4byte	.LVL793
 8488 1c72 0C140000 		.4byte	.LVL804
 8489 1c76 0200     		.2byte	0x2
 8490 1c78 91       		.byte	0x91
 8491 1c79 40       		.sleb128 -64
 8492 1c7a 0C140000 		.4byte	.LVL804
 8493 1c7e 10140000 		.4byte	.LVL805
 8494 1c82 0100     		.2byte	0x1
 8495 1c84 51       		.byte	0x51
 8496 1c85 10140000 		.4byte	.LVL805
 8497 1c89 14140000 		.4byte	.LVL806
 8498 1c8d 1800     		.2byte	0x18
 8499 1c8f 74       		.byte	0x74
 8500 1c90 00       		.sleb128 0
 8501 1c91 72       		.byte	0x72
 8502 1c92 00       		.sleb128 0
 8503 1c93 27       		.byte	0x27
 8504 1c94 76       		.byte	0x76
 8505 1c95 00       		.sleb128 0
ARM GAS  C:\Users\Ray\AppData\Local\Temp\ccdgjwii.s 			page 156


 8506 1c96 1A       		.byte	0x1a
 8507 1c97 72       		.byte	0x72
 8508 1c98 00       		.sleb128 0
 8509 1c99 27       		.byte	0x27
 8510 1c9a 7C       		.byte	0x7c
 8511 1c9b 00       		.sleb128 0
 8512 1c9c 22       		.byte	0x22
 8513 1c9d 91       		.byte	0x91
 8514 1c9e B07F     		.sleb128 -80
 8515 1ca0 06       		.byte	0x6
 8516 1ca1 22       		.byte	0x22
 8517 1ca2 91       		.byte	0x91
 8518 1ca3 40       		.sleb128 -64
 8519 1ca4 06       		.byte	0x6
 8520 1ca5 22       		.byte	0x22
 8521 1ca6 9F       		.byte	0x9f
 8522 1ca7 14140000 		.4byte	.LVL806
 8523 1cab 16140000 		.4byte	.LVL807
 8524 1caf 1B00     		.2byte	0x1b
 8525 1cb1 74       		.byte	0x74
 8526 1cb2 00       		.sleb128 0
 8527 1cb3 72       		.byte	0x72
 8528 1cb4 00       		.sleb128 0
 8529 1cb5 27       		.byte	0x27
 8530 1cb6 76       		.byte	0x76
 8531 1cb7 00       		.sleb128 0
 8532 1cb8 1A       		.byte	0x1a
 8533 1cb9 72       		.byte	0x72
 8534 1cba 00       		.sleb128 0
 8535 1cbb 27       		.byte	0x27
 8536 1cbc 91       		.byte	0x91
 8537 1cbd B07F     		.sleb128 -80
 8538 1cbf 06       		.byte	0x6
 8539 1cc0 22       		.byte	0x22
 8540 1cc1 91       		.byte	0x91
 8541 1cc2 40       		.sleb128 -64
 8542 1cc3 06       		.byte	0x6
 8543 1cc4 22       		.byte	0x22
 8544 1cc5 23       		.byte	0x23
 8545 1cc6 E9EDB5D3 		.uleb128 0x7a6d76e9
 8545      07
 8546 1ccb 9F       		.byte	0x9f
 8547 1ccc 16140000 		.4byte	.LVL807
 8548 1cd0 5E140000 		.4byte	.LVL819
 8549 1cd4 0100     		.2byte	0x1
 8550 1cd6 51       		.byte	0x51
 8551 1cd7 5E140000 		.4byte	.LVL819
 8552 1cdb A0140000 		.4byte	.LVL829
 8553 1cdf 0300     		.2byte	0x3
 8554 1ce1 91       		.byte	0x91
 8555 1ce2 A87F     		.sleb128 -88
 8556 1ce4 A0140000 		.4byte	.LVL829
 8557 1ce8 A4140000 		.4byte	.LVL830
 8558 1cec 0100     		.2byte	0x1
 8559 1cee 51       		.byte	0x51
 8560 1cef A4140000 		.4byte	.LVL830
 8561 1cf3 A8140000 		.4byte	.LVL831
ARM GAS  C:\Users\Ray\AppData\Local\Temp\ccdgjwii.s 			page 157


 8562 1cf7 1300     		.2byte	0x13
 8563 1cf9 74       		.byte	0x74
 8564 1cfa 00       		.sleb128 0
 8565 1cfb 76       		.byte	0x76
 8566 1cfc 00       		.sleb128 0
 8567 1cfd 27       		.byte	0x27
 8568 1cfe 75       		.byte	0x75
 8569 1cff 00       		.sleb128 0
 8570 1d00 27       		.byte	0x27
 8571 1d01 91       		.byte	0x91
 8572 1d02 A87F     		.sleb128 -88
 8573 1d04 06       		.byte	0x6
 8574 1d05 22       		.byte	0x22
 8575 1d06 91       		.byte	0x91
 8576 1d07 847F     		.sleb128 -124
 8577 1d09 06       		.byte	0x6
 8578 1d0a 22       		.byte	0x22
 8579 1d0b 9F       		.byte	0x9f
 8580 1d0c A8140000 		.4byte	.LVL831
 8581 1d10 AC140000 		.4byte	.LVL833
 8582 1d14 0100     		.2byte	0x1
 8583 1d16 51       		.byte	0x51
 8584 1d17 AC140000 		.4byte	.LVL833
 8585 1d1b E4140000 		.4byte	.LVL842
 8586 1d1f 0100     		.2byte	0x1
 8587 1d21 59       		.byte	0x59
 8588 1d22 E4140000 		.4byte	.LVL842
 8589 1d26 EA140000 		.4byte	.LVL843
 8590 1d2a 0100     		.2byte	0x1
 8591 1d2c 52       		.byte	0x52
 8592 1d2d EA140000 		.4byte	.LVL843
 8593 1d31 2E150000 		.4byte	.LVL853
 8594 1d35 0100     		.2byte	0x1
 8595 1d37 59       		.byte	0x59
 8596 1d38 2E150000 		.4byte	.LVL853
 8597 1d3c 32150000 		.4byte	.LVL854
 8598 1d40 0100     		.2byte	0x1
 8599 1d42 51       		.byte	0x51
 8600 1d43 32150000 		.4byte	.LVL854
 8601 1d47 34150000 		.4byte	.LVL855
 8602 1d4b 1100     		.2byte	0x11
 8603 1d4d 74       		.byte	0x74
 8604 1d4e 00       		.sleb128 0
 8605 1d4f 76       		.byte	0x76
 8606 1d50 00       		.sleb128 0
 8607 1d51 27       		.byte	0x27
 8608 1d52 75       		.byte	0x75
 8609 1d53 00       		.sleb128 0
 8610 1d54 27       		.byte	0x27
 8611 1d55 79       		.byte	0x79
 8612 1d56 00       		.sleb128 0
 8613 1d57 22       		.byte	0x22
 8614 1d58 91       		.byte	0x91
 8615 1d59 887F     		.sleb128 -120
 8616 1d5b 06       		.byte	0x6
 8617 1d5c 22       		.byte	0x22
 8618 1d5d 9F       		.byte	0x9f
ARM GAS  C:\Users\Ray\AppData\Local\Temp\ccdgjwii.s 			page 158


 8619 1d5e 34150000 		.4byte	.LVL855
 8620 1d62 6C150000 		.4byte	.LVL867
 8621 1d66 0100     		.2byte	0x1
 8622 1d68 51       		.byte	0x51
 8623 1d69 6E150000 		.4byte	.LVL868
 8624 1d6d 92150000 		.4byte	.LVL875
 8625 1d71 0100     		.2byte	0x1
 8626 1d73 51       		.byte	0x51
 8627 1d74 92150000 		.4byte	.LVL875
 8628 1d78 B2150000 		.4byte	.LVL880
 8629 1d7c 0100     		.2byte	0x1
 8630 1d7e 5B       		.byte	0x5b
 8631 1d7f B2150000 		.4byte	.LVL880
 8632 1d83 B6150000 		.4byte	.LVL881
 8633 1d87 0100     		.2byte	0x1
 8634 1d89 51       		.byte	0x51
 8635 1d8a B6150000 		.4byte	.LVL881
 8636 1d8e B8150000 		.4byte	.LVL882
 8637 1d92 0F00     		.2byte	0xf
 8638 1d94 74       		.byte	0x74
 8639 1d95 00       		.sleb128 0
 8640 1d96 76       		.byte	0x76
 8641 1d97 00       		.sleb128 0
 8642 1d98 27       		.byte	0x27
 8643 1d99 75       		.byte	0x75
 8644 1d9a 00       		.sleb128 0
 8645 1d9b 27       		.byte	0x27
 8646 1d9c 78       		.byte	0x78
 8647 1d9d 00       		.sleb128 0
 8648 1d9e 22       		.byte	0x22
 8649 1d9f 7B       		.byte	0x7b
 8650 1da0 00       		.sleb128 0
 8651 1da1 22       		.byte	0x22
 8652 1da2 9F       		.byte	0x9f
 8653 1da3 B8150000 		.4byte	.LVL882
 8654 1da7 0E160000 		.4byte	.LVL893
 8655 1dab 0100     		.2byte	0x1
 8656 1dad 51       		.byte	0x51
 8657 1dae 00000000 		.4byte	0
 8658 1db2 00000000 		.4byte	0
 8659              	.LLST9:
 8660 1db6 10000000 		.4byte	.LVL1
 8661 1dba 600B0000 		.4byte	.LVL460
 8662 1dbe 0200     		.2byte	0x2
 8663 1dc0 70       		.byte	0x70
 8664 1dc1 0C       		.sleb128 12
 8665 1dc2 600B0000 		.4byte	.LVL460
 8666 1dc6 640B0000 		.4byte	.LVL461
 8667 1dca 0100     		.2byte	0x1
 8668 1dcc 56       		.byte	0x56
 8669 1dcd 640B0000 		.4byte	.LVL461
 8670 1dd1 660B0000 		.4byte	.LVL462
 8671 1dd5 1800     		.2byte	0x18
 8672 1dd7 91       		.byte	0x91
 8673 1dd8 BC7F     		.sleb128 -68
 8674 1dda 06       		.byte	0x6
 8675 1ddb 20       		.byte	0x20
ARM GAS  C:\Users\Ray\AppData\Local\Temp\ccdgjwii.s 			page 159


 8676 1ddc 71       		.byte	0x71
 8677 1ddd 00       		.sleb128 0
 8678 1dde 21       		.byte	0x21
 8679 1ddf 74       		.byte	0x74
 8680 1de0 00       		.sleb128 0
 8681 1de1 27       		.byte	0x27
 8682 1de2 7C       		.byte	0x7c
 8683 1de3 00       		.sleb128 0
 8684 1de4 22       		.byte	0x22
 8685 1de5 91       		.byte	0x91
 8686 1de6 9C7F     		.sleb128 -100
 8687 1de8 06       		.byte	0x6
 8688 1de9 22       		.byte	0x22
 8689 1dea 70       		.byte	0x70
 8690 1deb 0C       		.sleb128 12
 8691 1dec 06       		.byte	0x6
 8692 1ded 22       		.byte	0x22
 8693 1dee 9F       		.byte	0x9f
 8694 1def 660B0000 		.4byte	.LVL462
 8695 1df3 680B0000 		.4byte	.LVL463
 8696 1df7 1B00     		.2byte	0x1b
 8697 1df9 91       		.byte	0x91
 8698 1dfa BC7F     		.sleb128 -68
 8699 1dfc 06       		.byte	0x6
 8700 1dfd 20       		.byte	0x20
 8701 1dfe 71       		.byte	0x71
 8702 1dff 00       		.sleb128 0
 8703 1e00 21       		.byte	0x21
 8704 1e01 74       		.byte	0x74
 8705 1e02 00       		.sleb128 0
 8706 1e03 27       		.byte	0x27
 8707 1e04 91       		.byte	0x91
 8708 1e05 9C7F     		.sleb128 -100
 8709 1e07 06       		.byte	0x6
 8710 1e08 22       		.byte	0x22
 8711 1e09 70       		.byte	0x70
 8712 1e0a 0C       		.sleb128 12
 8713 1e0b 06       		.byte	0x6
 8714 1e0c 22       		.byte	0x22
 8715 1e0d 23       		.byte	0x23
 8716 1e0e E6978A85 		.uleb128 0x50a28be6
 8716      05
 8717 1e13 9F       		.byte	0x9f
 8718 1e14 680B0000 		.4byte	.LVL463
 8719 1e18 AC0B0000 		.4byte	.LVL475
 8720 1e1c 0100     		.2byte	0x1
 8721 1e1e 56       		.byte	0x56
 8722 1e1f AE0B0000 		.4byte	.LVL476
 8723 1e23 B20B0000 		.4byte	.LVL477
 8724 1e27 0100     		.2byte	0x1
 8725 1e29 56       		.byte	0x56
 8726 1e2a B20B0000 		.4byte	.LVL477
 8727 1e2e 020C0000 		.4byte	.LVL488
 8728 1e32 0100     		.2byte	0x1
 8729 1e34 5B       		.byte	0x5b
 8730 1e35 020C0000 		.4byte	.LVL488
 8731 1e39 060C0000 		.4byte	.LVL489
ARM GAS  C:\Users\Ray\AppData\Local\Temp\ccdgjwii.s 			page 160


 8732 1e3d 0100     		.2byte	0x1
 8733 1e3f 56       		.byte	0x56
 8734 1e40 060C0000 		.4byte	.LVL489
 8735 1e44 080C0000 		.4byte	.LVL490
 8736 1e48 0900     		.2byte	0x9
 8737 1e4a 79       		.byte	0x79
 8738 1e4b 00       		.sleb128 0
 8739 1e4c 7B       		.byte	0x7b
 8740 1e4d 00       		.sleb128 0
 8741 1e4e 22       		.byte	0x22
 8742 1e4f 7C       		.byte	0x7c
 8743 1e50 00       		.sleb128 0
 8744 1e51 22       		.byte	0x22
 8745 1e52 9F       		.byte	0x9f
 8746 1e53 080C0000 		.4byte	.LVL490
 8747 1e57 4A0C0000 		.4byte	.LVL502
 8748 1e5b 0100     		.2byte	0x1
 8749 1e5d 56       		.byte	0x56
 8750 1e5e 4C0C0000 		.4byte	.LVL503
 8751 1e62 560C0000 		.4byte	.LVL504
 8752 1e66 0100     		.2byte	0x1
 8753 1e68 56       		.byte	0x56
 8754 1e69 560C0000 		.4byte	.LVL504
 8755 1e6d A00C0000 		.4byte	.LVL514
 8756 1e71 0100     		.2byte	0x1
 8757 1e73 5B       		.byte	0x5b
 8758 1e74 A00C0000 		.4byte	.LVL514
 8759 1e78 A40C0000 		.4byte	.LVL515
 8760 1e7c 0100     		.2byte	0x1
 8761 1e7e 56       		.byte	0x56
 8762 1e7f A40C0000 		.4byte	.LVL515
 8763 1e83 A60C0000 		.4byte	.LVL516
 8764 1e87 1500     		.2byte	0x15
 8765 1e89 72       		.byte	0x72
 8766 1e8a 00       		.sleb128 0
 8767 1e8b 20       		.byte	0x20
 8768 1e8c 71       		.byte	0x71
 8769 1e8d 00       		.sleb128 0
 8770 1e8e 21       		.byte	0x21
 8771 1e8f 74       		.byte	0x74
 8772 1e90 00       		.sleb128 0
 8773 1e91 27       		.byte	0x27
 8774 1e92 7C       		.byte	0x7c
 8775 1e93 00       		.sleb128 0
 8776 1e94 22       		.byte	0x22
 8777 1e95 91       		.byte	0x91
 8778 1e96 847F     		.sleb128 -124
 8779 1e98 06       		.byte	0x6
 8780 1e99 22       		.byte	0x22
 8781 1e9a 7B       		.byte	0x7b
 8782 1e9b 00       		.sleb128 0
 8783 1e9c 22       		.byte	0x22
 8784 1e9d 9F       		.byte	0x9f
 8785 1e9e A60C0000 		.4byte	.LVL516
 8786 1ea2 480D0000 		.4byte	.LVL541
 8787 1ea6 0100     		.2byte	0x1
 8788 1ea8 56       		.byte	0x56
ARM GAS  C:\Users\Ray\AppData\Local\Temp\ccdgjwii.s 			page 161


 8789 1ea9 4E0D0000 		.4byte	.LVL542
 8790 1ead 520D0000 		.4byte	.LVL543
 8791 1eb1 0100     		.2byte	0x1
 8792 1eb3 56       		.byte	0x56
 8793 1eb4 580D0000 		.4byte	.LVL544
 8794 1eb8 100E0000 		.4byte	.LVL573
 8795 1ebc 0100     		.2byte	0x1
 8796 1ebe 56       		.byte	0x56
 8797 1ebf 160E0000 		.4byte	.LVL574
 8798 1ec3 1A0E0000 		.4byte	.LVL575
 8799 1ec7 0100     		.2byte	0x1
 8800 1ec9 56       		.byte	0x56
 8801 1eca 200E0000 		.4byte	.LVL576
 8802 1ece DA0E0000 		.4byte	.LVL601
 8803 1ed2 0100     		.2byte	0x1
 8804 1ed4 56       		.byte	0x56
 8805 1ed5 E00E0000 		.4byte	.LVL602
 8806 1ed9 E40E0000 		.4byte	.LVL603
 8807 1edd 0100     		.2byte	0x1
 8808 1edf 56       		.byte	0x56
 8809 1ee0 EA0E0000 		.4byte	.LVL604
 8810 1ee4 520F0000 		.4byte	.LVL619
 8811 1ee8 0100     		.2byte	0x1
 8812 1eea 56       		.byte	0x56
 8813 1eeb 520F0000 		.4byte	.LVL619
 8814 1eef A00F0000 		.4byte	.LVL629
 8815 1ef3 0200     		.2byte	0x2
 8816 1ef5 91       		.byte	0x91
 8817 1ef6 40       		.sleb128 -64
 8818 1ef7 A00F0000 		.4byte	.LVL629
 8819 1efb A40F0000 		.4byte	.LVL630
 8820 1eff 0100     		.2byte	0x1
 8821 1f01 56       		.byte	0x56
 8822 1f02 A40F0000 		.4byte	.LVL630
 8823 1f06 A60F0000 		.4byte	.LVL631
 8824 1f0a 1800     		.2byte	0x18
 8825 1f0c 71       		.byte	0x71
 8826 1f0d 00       		.sleb128 0
 8827 1f0e 20       		.byte	0x20
 8828 1f0f 74       		.byte	0x74
 8829 1f10 00       		.sleb128 0
 8830 1f11 21       		.byte	0x21
 8831 1f12 91       		.byte	0x91
 8832 1f13 B87F     		.sleb128 -72
 8833 1f15 06       		.byte	0x6
 8834 1f16 27       		.byte	0x27
 8835 1f17 7C       		.byte	0x7c
 8836 1f18 00       		.sleb128 0
 8837 1f19 22       		.byte	0x22
 8838 1f1a 91       		.byte	0x91
 8839 1f1b B47F     		.sleb128 -76
 8840 1f1d 06       		.byte	0x6
 8841 1f1e 22       		.byte	0x22
 8842 1f1f 91       		.byte	0x91
 8843 1f20 40       		.sleb128 -64
 8844 1f21 06       		.byte	0x6
 8845 1f22 22       		.byte	0x22
ARM GAS  C:\Users\Ray\AppData\Local\Temp\ccdgjwii.s 			page 162


 8846 1f23 9F       		.byte	0x9f
 8847 1f24 A60F0000 		.4byte	.LVL631
 8848 1f28 FA0F0000 		.4byte	.LVL644
 8849 1f2c 0100     		.2byte	0x1
 8850 1f2e 56       		.byte	0x56
 8851 1f2f FA0F0000 		.4byte	.LVL644
 8852 1f33 5A100000 		.4byte	.LVL657
 8853 1f37 0200     		.2byte	0x2
 8854 1f39 91       		.byte	0x91
 8855 1f3a 40       		.sleb128 -64
 8856 1f3b 5A100000 		.4byte	.LVL657
 8857 1f3f 5E100000 		.4byte	.LVL658
 8858 1f43 0100     		.2byte	0x1
 8859 1f45 56       		.byte	0x56
 8860 1f46 5E100000 		.4byte	.LVL658
 8861 1f4a 60100000 		.4byte	.LVL659
 8862 1f4e 1800     		.2byte	0x18
 8863 1f50 72       		.byte	0x72
 8864 1f51 00       		.sleb128 0
 8865 1f52 20       		.byte	0x20
 8866 1f53 91       		.byte	0x91
 8867 1f54 B87F     		.sleb128 -72
 8868 1f56 06       		.byte	0x6
 8869 1f57 21       		.byte	0x21
 8870 1f58 74       		.byte	0x74
 8871 1f59 00       		.sleb128 0
 8872 1f5a 27       		.byte	0x27
 8873 1f5b 7C       		.byte	0x7c
 8874 1f5c 00       		.sleb128 0
 8875 1f5d 22       		.byte	0x22
 8876 1f5e 91       		.byte	0x91
 8877 1f5f B07F     		.sleb128 -80
 8878 1f61 06       		.byte	0x6
 8879 1f62 22       		.byte	0x22
 8880 1f63 91       		.byte	0x91
 8881 1f64 40       		.sleb128 -64
 8882 1f65 06       		.byte	0x6
 8883 1f66 22       		.byte	0x22
 8884 1f67 9F       		.byte	0x9f
 8885 1f68 60100000 		.4byte	.LVL659
 8886 1f6c FE100000 		.4byte	.LVL685
 8887 1f70 0100     		.2byte	0x1
 8888 1f72 56       		.byte	0x56
 8889 1f73 04110000 		.4byte	.LVL686
 8890 1f77 0A110000 		.4byte	.LVL687
 8891 1f7b 0100     		.2byte	0x1
 8892 1f7d 56       		.byte	0x56
 8893 1f7e 10110000 		.4byte	.LVL688
 8894 1f82 62110000 		.4byte	.LVL701
 8895 1f86 0100     		.2byte	0x1
 8896 1f88 56       		.byte	0x56
 8897 1f89 62110000 		.4byte	.LVL701
 8898 1f8d B2110000 		.4byte	.LVL715
 8899 1f91 0300     		.2byte	0x3
 8900 1f93 91       		.byte	0x91
 8901 1f94 BC7F     		.sleb128 -68
 8902 1f96 B2110000 		.4byte	.LVL715
ARM GAS  C:\Users\Ray\AppData\Local\Temp\ccdgjwii.s 			page 163


 8903 1f9a B6110000 		.4byte	.LVL716
 8904 1f9e 0100     		.2byte	0x1
 8905 1fa0 56       		.byte	0x56
 8906 1fa1 B6110000 		.4byte	.LVL716
 8907 1fa5 B8110000 		.4byte	.LVL717
 8908 1fa9 1800     		.2byte	0x18
 8909 1fab 71       		.byte	0x71
 8910 1fac 00       		.sleb128 0
 8911 1fad 20       		.byte	0x20
 8912 1fae 72       		.byte	0x72
 8913 1faf 00       		.sleb128 0
 8914 1fb0 21       		.byte	0x21
 8915 1fb1 91       		.byte	0x91
 8916 1fb2 40       		.sleb128 -64
 8917 1fb3 06       		.byte	0x6
 8918 1fb4 27       		.byte	0x27
 8919 1fb5 7C       		.byte	0x7c
 8920 1fb6 00       		.sleb128 0
 8921 1fb7 22       		.byte	0x22
 8922 1fb8 91       		.byte	0x91
 8923 1fb9 AC7F     		.sleb128 -84
 8924 1fbb 06       		.byte	0x6
 8925 1fbc 22       		.byte	0x22
 8926 1fbd 91       		.byte	0x91
 8927 1fbe BC7F     		.sleb128 -68
 8928 1fc0 06       		.byte	0x6
 8929 1fc1 22       		.byte	0x22
 8930 1fc2 9F       		.byte	0x9f
 8931 1fc3 B8110000 		.4byte	.LVL717
 8932 1fc7 6E120000 		.4byte	.LVL741
 8933 1fcb 0100     		.2byte	0x1
 8934 1fcd 56       		.byte	0x56
 8935 1fce 6E120000 		.4byte	.LVL741
 8936 1fd2 72120000 		.4byte	.LVL742
 8937 1fd6 0100     		.2byte	0x1
 8938 1fd8 52       		.byte	0x52
 8939 1fd9 72120000 		.4byte	.LVL742
 8940 1fdd 74120000 		.4byte	.LVL743
 8941 1fe1 1900     		.2byte	0x19
 8942 1fe3 91       		.byte	0x91
 8943 1fe4 BC7F     		.sleb128 -68
 8944 1fe6 06       		.byte	0x6
 8945 1fe7 74       		.byte	0x74
 8946 1fe8 00       		.sleb128 0
 8947 1fe9 27       		.byte	0x27
 8948 1fea 7C       		.byte	0x7c
 8949 1feb 00       		.sleb128 0
 8950 1fec 1A       		.byte	0x1a
 8951 1fed 74       		.byte	0x74
 8952 1fee 00       		.sleb128 0
 8953 1fef 27       		.byte	0x27
 8954 1ff0 7A       		.byte	0x7a
 8955 1ff1 00       		.sleb128 0
 8956 1ff2 22       		.byte	0x22
 8957 1ff3 91       		.byte	0x91
 8958 1ff4 8C7F     		.sleb128 -116
 8959 1ff6 06       		.byte	0x6
ARM GAS  C:\Users\Ray\AppData\Local\Temp\ccdgjwii.s 			page 164


 8960 1ff7 22       		.byte	0x22
 8961 1ff8 76       		.byte	0x76
 8962 1ff9 00       		.sleb128 0
 8963 1ffa 22       		.byte	0x22
 8964 1ffb 9F       		.byte	0x9f
 8965 1ffc 74120000 		.4byte	.LVL743
 8966 2000 D8120000 		.4byte	.LVL756
 8967 2004 0100     		.2byte	0x1
 8968 2006 52       		.byte	0x52
 8969 2007 D8120000 		.4byte	.LVL756
 8970 200b 30130000 		.4byte	.LVL768
 8971 200f 0200     		.2byte	0x2
 8972 2011 91       		.byte	0x91
 8973 2012 40       		.sleb128 -64
 8974 2013 30130000 		.4byte	.LVL768
 8975 2017 34130000 		.4byte	.LVL769
 8976 201b 0100     		.2byte	0x1
 8977 201d 52       		.byte	0x52
 8978 201e 34130000 		.4byte	.LVL769
 8979 2022 3A130000 		.4byte	.LVL770
 8980 2026 1800     		.2byte	0x18
 8981 2028 71       		.byte	0x71
 8982 2029 00       		.sleb128 0
 8983 202a 75       		.byte	0x75
 8984 202b 00       		.sleb128 0
 8985 202c 27       		.byte	0x27
 8986 202d 74       		.byte	0x74
 8987 202e 00       		.sleb128 0
 8988 202f 1A       		.byte	0x1a
 8989 2030 75       		.byte	0x75
 8990 2031 00       		.sleb128 0
 8991 2032 27       		.byte	0x27
 8992 2033 7C       		.byte	0x7c
 8993 2034 00       		.sleb128 0
 8994 2035 22       		.byte	0x22
 8995 2036 91       		.byte	0x91
 8996 2037 A87F     		.sleb128 -88
 8997 2039 06       		.byte	0x6
 8998 203a 22       		.byte	0x22
 8999 203b 91       		.byte	0x91
 9000 203c 40       		.sleb128 -64
 9001 203d 06       		.byte	0x6
 9002 203e 22       		.byte	0x22
 9003 203f 9F       		.byte	0x9f
 9004 2040 3A130000 		.4byte	.LVL770
 9005 2044 8C130000 		.4byte	.LVL786
 9006 2048 0100     		.2byte	0x1
 9007 204a 52       		.byte	0x52
 9008 204b 8C130000 		.4byte	.LVL786
 9009 204f 8E130000 		.4byte	.LVL787
 9010 2053 0100     		.2byte	0x1
 9011 2055 51       		.byte	0x51
 9012 2056 8E130000 		.4byte	.LVL787
 9013 205a E2130000 		.4byte	.LVL798
 9014 205e 0100     		.2byte	0x1
 9015 2060 56       		.byte	0x56
 9016 2061 E8130000 		.4byte	.LVL800
ARM GAS  C:\Users\Ray\AppData\Local\Temp\ccdgjwii.s 			page 165


 9017 2065 EC130000 		.4byte	.LVL801
 9018 2069 0100     		.2byte	0x1
 9019 206b 56       		.byte	0x56
 9020 206c F2130000 		.4byte	.LVL802
 9021 2070 86140000 		.4byte	.LVL826
 9022 2074 0100     		.2byte	0x1
 9023 2076 56       		.byte	0x56
 9024 2077 8C140000 		.4byte	.LVL827
 9025 207b 18150000 		.4byte	.LVL850
 9026 207f 0100     		.2byte	0x1
 9027 2081 56       		.byte	0x56
 9028 2082 1A150000 		.4byte	.LVL851
 9029 2086 A2150000 		.4byte	.LVL877
 9030 208a 0100     		.2byte	0x1
 9031 208c 56       		.byte	0x56
 9032 208d A4150000 		.4byte	.LVL878
 9033 2091 CC150000 		.4byte	.LVL887
 9034 2095 0100     		.2byte	0x1
 9035 2097 56       		.byte	0x56
 9036 2098 CE150000 		.4byte	.LVL888
 9037 209c DC150000 		.4byte	.LVL889
 9038 20a0 0100     		.2byte	0x1
 9039 20a2 53       		.byte	0x53
 9040 20a3 DC150000 		.4byte	.LVL889
 9041 20a7 14160000 		.4byte	.LVL894
 9042 20ab 0100     		.2byte	0x1
 9043 20ad 56       		.byte	0x56
 9044 20ae 14160000 		.4byte	.LVL894
 9045 20b2 24160000 		.4byte	.LFE0
 9046 20b6 0200     		.2byte	0x2
 9047 20b8 70       		.byte	0x70
 9048 20b9 00       		.sleb128 0
 9049 20ba 00000000 		.4byte	0
 9050 20be 00000000 		.4byte	0
 9051              	.LLST10:
 9052 20c2 10000000 		.4byte	.LVL1
 9053 20c6 3C0B0000 		.4byte	.LVL456
 9054 20ca 0200     		.2byte	0x2
 9055 20cc 70       		.byte	0x70
 9056 20cd 10       		.sleb128 16
 9057 20ce 3C0B0000 		.4byte	.LVL456
 9058 20d2 400B0000 		.4byte	.LVL457
 9059 20d6 0100     		.2byte	0x1
 9060 20d8 54       		.byte	0x54
 9061 20d9 400B0000 		.4byte	.LVL457
 9062 20dd 440B0000 		.4byte	.LVL458
 9063 20e1 1800     		.2byte	0x18
 9064 20e3 91       		.byte	0x91
 9065 20e4 40       		.sleb128 -64
 9066 20e5 06       		.byte	0x6
 9067 20e6 20       		.byte	0x20
 9068 20e7 70       		.byte	0x70
 9069 20e8 04       		.sleb128 4
 9070 20e9 06       		.byte	0x6
 9071 20ea 21       		.byte	0x21
 9072 20eb 71       		.byte	0x71
 9073 20ec 00       		.sleb128 0
ARM GAS  C:\Users\Ray\AppData\Local\Temp\ccdgjwii.s 			page 166


 9074 20ed 27       		.byte	0x27
 9075 20ee 7C       		.byte	0x7c
 9076 20ef 00       		.sleb128 0
 9077 20f0 22       		.byte	0x22
 9078 20f1 91       		.byte	0x91
 9079 20f2 B07F     		.sleb128 -80
 9080 20f4 06       		.byte	0x6
 9081 20f5 22       		.byte	0x22
 9082 20f6 70       		.byte	0x70
 9083 20f7 10       		.sleb128 16
 9084 20f8 06       		.byte	0x6
 9085 20f9 22       		.byte	0x22
 9086 20fa 9F       		.byte	0x9f
 9087 20fb 440B0000 		.4byte	.LVL458
 9088 20ff 460B0000 		.4byte	.LVL459
 9089 2103 1B00     		.2byte	0x1b
 9090 2105 91       		.byte	0x91
 9091 2106 40       		.sleb128 -64
 9092 2107 06       		.byte	0x6
 9093 2108 20       		.byte	0x20
 9094 2109 70       		.byte	0x70
 9095 210a 04       		.sleb128 4
 9096 210b 06       		.byte	0x6
 9097 210c 21       		.byte	0x21
 9098 210d 71       		.byte	0x71
 9099 210e 00       		.sleb128 0
 9100 210f 27       		.byte	0x27
 9101 2110 91       		.byte	0x91
 9102 2111 B07F     		.sleb128 -80
 9103 2113 06       		.byte	0x6
 9104 2114 22       		.byte	0x22
 9105 2115 70       		.byte	0x70
 9106 2116 10       		.sleb128 16
 9107 2117 06       		.byte	0x6
 9108 2118 22       		.byte	0x22
 9109 2119 23       		.byte	0x23
 9110 211a E6978A85 		.uleb128 0x50a28be6
 9110      05
 9111 211f 9F       		.byte	0x9f
 9112 2120 460B0000 		.4byte	.LVL459
 9113 2124 E00B0000 		.4byte	.LVL483
 9114 2128 0100     		.2byte	0x1
 9115 212a 54       		.byte	0x54
 9116 212b E20B0000 		.4byte	.LVL484
 9117 212f E60B0000 		.4byte	.LVL485
 9118 2133 0100     		.2byte	0x1
 9119 2135 54       		.byte	0x54
 9120 2136 E80B0000 		.4byte	.LVL486
 9121 213a 7C0C0000 		.4byte	.LVL509
 9122 213e 0100     		.2byte	0x1
 9123 2140 54       		.byte	0x54
 9124 2141 820C0000 		.4byte	.LVL510
 9125 2145 860C0000 		.4byte	.LVL511
 9126 2149 0100     		.2byte	0x1
 9127 214b 54       		.byte	0x54
 9128 214c 880C0000 		.4byte	.LVL512
 9129 2150 000D0000 		.4byte	.LVL530
ARM GAS  C:\Users\Ray\AppData\Local\Temp\ccdgjwii.s 			page 167


 9130 2154 0100     		.2byte	0x1
 9131 2156 54       		.byte	0x54
 9132 2157 000D0000 		.4byte	.LVL530
 9133 215b 320D0000 		.4byte	.LVL537
 9134 215f 0300     		.2byte	0x3
 9135 2161 91       		.byte	0x91
 9136 2162 B87F     		.sleb128 -72
 9137 2164 320D0000 		.4byte	.LVL537
 9138 2168 360D0000 		.4byte	.LVL538
 9139 216c 0100     		.2byte	0x1
 9140 216e 54       		.byte	0x54
 9141 216f 360D0000 		.4byte	.LVL538
 9142 2173 380D0000 		.4byte	.LVL539
 9143 2177 1B00     		.2byte	0x1b
 9144 2179 72       		.byte	0x72
 9145 217a 00       		.sleb128 0
 9146 217b 71       		.byte	0x71
 9147 217c 00       		.sleb128 0
 9148 217d 27       		.byte	0x27
 9149 217e 91       		.byte	0x91
 9150 217f BC7F     		.sleb128 -68
 9151 2181 06       		.byte	0x6
 9152 2182 1A       		.byte	0x1a
 9153 2183 72       		.byte	0x72
 9154 2184 00       		.sleb128 0
 9155 2185 27       		.byte	0x27
 9156 2186 7C       		.byte	0x7c
 9157 2187 00       		.sleb128 0
 9158 2188 22       		.byte	0x22
 9159 2189 91       		.byte	0x91
 9160 218a 987F     		.sleb128 -104
 9161 218c 06       		.byte	0x6
 9162 218d 22       		.byte	0x22
 9163 218e 91       		.byte	0x91
 9164 218f B87F     		.sleb128 -72
 9165 2191 06       		.byte	0x6
 9166 2192 22       		.byte	0x22
 9167 2193 9F       		.byte	0x9f
 9168 2194 380D0000 		.4byte	.LVL539
 9169 2198 A40D0000 		.4byte	.LVL556
 9170 219c 0100     		.2byte	0x1
 9171 219e 54       		.byte	0x54
 9172 219f A40D0000 		.4byte	.LVL556
 9173 21a3 F00D0000 		.4byte	.LVL566
 9174 21a7 0300     		.2byte	0x3
 9175 21a9 91       		.byte	0x91
 9176 21aa B87F     		.sleb128 -72
 9177 21ac F00D0000 		.4byte	.LVL566
 9178 21b0 F40D0000 		.4byte	.LVL567
 9179 21b4 0100     		.2byte	0x1
 9180 21b6 54       		.byte	0x54
 9181 21b7 F40D0000 		.4byte	.LVL567
 9182 21bb F60D0000 		.4byte	.LVL568
 9183 21bf 1B00     		.2byte	0x1b
 9184 21c1 72       		.byte	0x72
 9185 21c2 00       		.sleb128 0
 9186 21c3 71       		.byte	0x71
ARM GAS  C:\Users\Ray\AppData\Local\Temp\ccdgjwii.s 			page 168


 9187 21c4 00       		.sleb128 0
 9188 21c5 27       		.byte	0x27
 9189 21c6 91       		.byte	0x91
 9190 21c7 BC7F     		.sleb128 -68
 9191 21c9 06       		.byte	0x6
 9192 21ca 1A       		.byte	0x1a
 9193 21cb 72       		.byte	0x72
 9194 21cc 00       		.sleb128 0
 9195 21cd 27       		.byte	0x27
 9196 21ce 7C       		.byte	0x7c
 9197 21cf 00       		.sleb128 0
 9198 21d0 22       		.byte	0x22
 9199 21d1 91       		.byte	0x91
 9200 21d2 AC7F     		.sleb128 -84
 9201 21d4 06       		.byte	0x6
 9202 21d5 22       		.byte	0x22
 9203 21d6 91       		.byte	0x91
 9204 21d7 B87F     		.sleb128 -72
 9205 21d9 06       		.byte	0x6
 9206 21da 22       		.byte	0x22
 9207 21db 9F       		.byte	0x9f
 9208 21dc F60D0000 		.4byte	.LVL568
 9209 21e0 020E0000 		.4byte	.LVL572
 9210 21e4 0100     		.2byte	0x1
 9211 21e6 54       		.byte	0x54
 9212 21e7 020E0000 		.4byte	.LVL572
 9213 21eb 5C0E0000 		.4byte	.LVL583
 9214 21ef 0100     		.2byte	0x1
 9215 21f1 52       		.byte	0x52
 9216 21f2 5C0E0000 		.4byte	.LVL583
 9217 21f6 BA0E0000 		.4byte	.LVL594
 9218 21fa 0300     		.2byte	0x3
 9219 21fc 91       		.byte	0x91
 9220 21fd BC7F     		.sleb128 -68
 9221 21ff BA0E0000 		.4byte	.LVL594
 9222 2203 BE0E0000 		.4byte	.LVL595
 9223 2207 0100     		.2byte	0x1
 9224 2209 54       		.byte	0x54
 9225 220a BE0E0000 		.4byte	.LVL595
 9226 220e C00E0000 		.4byte	.LVL596
 9227 2212 1A00     		.2byte	0x1a
 9228 2214 72       		.byte	0x72
 9229 2215 00       		.sleb128 0
 9230 2216 71       		.byte	0x71
 9231 2217 00       		.sleb128 0
 9232 2218 27       		.byte	0x27
 9233 2219 91       		.byte	0x91
 9234 221a 40       		.sleb128 -64
 9235 221b 06       		.byte	0x6
 9236 221c 1A       		.byte	0x1a
 9237 221d 72       		.byte	0x72
 9238 221e 00       		.sleb128 0
 9239 221f 27       		.byte	0x27
 9240 2220 7C       		.byte	0x7c
 9241 2221 00       		.sleb128 0
 9242 2222 22       		.byte	0x22
 9243 2223 91       		.byte	0x91
ARM GAS  C:\Users\Ray\AppData\Local\Temp\ccdgjwii.s 			page 169


 9244 2224 A07F     		.sleb128 -96
 9245 2226 06       		.byte	0x6
 9246 2227 22       		.byte	0x22
 9247 2228 91       		.byte	0x91
 9248 2229 BC7F     		.sleb128 -68
 9249 222b 06       		.byte	0x6
 9250 222c 22       		.byte	0x22
 9251 222d 9F       		.byte	0x9f
 9252 222e C00E0000 		.4byte	.LVL596
 9253 2232 CC0E0000 		.4byte	.LVL600
 9254 2236 0100     		.2byte	0x1
 9255 2238 54       		.byte	0x54
 9256 2239 CC0E0000 		.4byte	.LVL600
 9257 223d 220F0000 		.4byte	.LVL611
 9258 2241 0100     		.2byte	0x1
 9259 2243 52       		.byte	0x52
 9260 2244 220F0000 		.4byte	.LVL611
 9261 2248 760F0000 		.4byte	.LVL622
 9262 224c 0300     		.2byte	0x3
 9263 224e 91       		.byte	0x91
 9264 224f BC7F     		.sleb128 -68
 9265 2251 760F0000 		.4byte	.LVL622
 9266 2255 7A0F0000 		.4byte	.LVL623
 9267 2259 0100     		.2byte	0x1
 9268 225b 54       		.byte	0x54
 9269 225c 7A0F0000 		.4byte	.LVL623
 9270 2260 7E0F0000 		.4byte	.LVL624
 9271 2264 1700     		.2byte	0x17
 9272 2266 72       		.byte	0x72
 9273 2267 00       		.sleb128 0
 9274 2268 71       		.byte	0x71
 9275 2269 00       		.sleb128 0
 9276 226a 27       		.byte	0x27
 9277 226b 75       		.byte	0x75
 9278 226c 00       		.sleb128 0
 9279 226d 1A       		.byte	0x1a
 9280 226e 72       		.byte	0x72
 9281 226f 00       		.sleb128 0
 9282 2270 27       		.byte	0x27
 9283 2271 7A       		.byte	0x7a
 9284 2272 00       		.sleb128 0
 9285 2273 22       		.byte	0x22
 9286 2274 7C       		.byte	0x7c
 9287 2275 00       		.sleb128 0
 9288 2276 22       		.byte	0x22
 9289 2277 91       		.byte	0x91
 9290 2278 BC7F     		.sleb128 -68
 9291 227a 06       		.byte	0x6
 9292 227b 22       		.byte	0x22
 9293 227c 9F       		.byte	0x9f
 9294 227d 7E0F0000 		.4byte	.LVL624
 9295 2281 800F0000 		.4byte	.LVL625
 9296 2285 1A00     		.2byte	0x1a
 9297 2287 72       		.byte	0x72
 9298 2288 00       		.sleb128 0
 9299 2289 71       		.byte	0x71
 9300 228a 00       		.sleb128 0
ARM GAS  C:\Users\Ray\AppData\Local\Temp\ccdgjwii.s 			page 170


 9301 228b 27       		.byte	0x27
 9302 228c 75       		.byte	0x75
 9303 228d 00       		.sleb128 0
 9304 228e 1A       		.byte	0x1a
 9305 228f 72       		.byte	0x72
 9306 2290 00       		.sleb128 0
 9307 2291 27       		.byte	0x27
 9308 2292 7A       		.byte	0x7a
 9309 2293 00       		.sleb128 0
 9310 2294 22       		.byte	0x22
 9311 2295 91       		.byte	0x91
 9312 2296 BC7F     		.sleb128 -68
 9313 2298 06       		.byte	0x6
 9314 2299 22       		.byte	0x22
 9315 229a 23       		.byte	0x23
 9316 229b A4A2B7E2 		.uleb128 0x5c4dd124
 9316      05
 9317 22a0 9F       		.byte	0x9f
 9318 22a1 800F0000 		.4byte	.LVL625
 9319 22a5 E00F0000 		.4byte	.LVL638
 9320 22a9 0100     		.2byte	0x1
 9321 22ab 54       		.byte	0x54
 9322 22ac E00F0000 		.4byte	.LVL638
 9323 22b0 2C100000 		.4byte	.LVL650
 9324 22b4 0300     		.2byte	0x3
 9325 22b6 91       		.byte	0x91
 9326 22b7 BC7F     		.sleb128 -68
 9327 22b9 2C100000 		.4byte	.LVL650
 9328 22bd 30100000 		.4byte	.LVL651
 9329 22c1 0100     		.2byte	0x1
 9330 22c3 52       		.byte	0x52
 9331 22c4 30100000 		.4byte	.LVL651
 9332 22c8 34100000 		.4byte	.LVL652
 9333 22cc 1700     		.2byte	0x17
 9334 22ce 7A       		.byte	0x7a
 9335 22cf 00       		.sleb128 0
 9336 22d0 20       		.byte	0x20
 9337 22d1 71       		.byte	0x71
 9338 22d2 00       		.sleb128 0
 9339 22d3 21       		.byte	0x21
 9340 22d4 75       		.byte	0x75
 9341 22d5 00       		.sleb128 0
 9342 22d6 27       		.byte	0x27
 9343 22d7 7C       		.byte	0x7c
 9344 22d8 00       		.sleb128 0
 9345 22d9 22       		.byte	0x22
 9346 22da 91       		.byte	0x91
 9347 22db 9C7F     		.sleb128 -100
 9348 22dd 06       		.byte	0x6
 9349 22de 22       		.byte	0x22
 9350 22df 91       		.byte	0x91
 9351 22e0 BC7F     		.sleb128 -68
 9352 22e2 06       		.byte	0x6
 9353 22e3 22       		.byte	0x22
 9354 22e4 9F       		.byte	0x9f
 9355 22e5 34100000 		.4byte	.LVL652
 9356 22e9 38100000 		.4byte	.LVL653
ARM GAS  C:\Users\Ray\AppData\Local\Temp\ccdgjwii.s 			page 171


 9357 22ed 1A00     		.2byte	0x1a
 9358 22ef 7A       		.byte	0x7a
 9359 22f0 00       		.sleb128 0
 9360 22f1 20       		.byte	0x20
 9361 22f2 71       		.byte	0x71
 9362 22f3 00       		.sleb128 0
 9363 22f4 21       		.byte	0x21
 9364 22f5 75       		.byte	0x75
 9365 22f6 00       		.sleb128 0
 9366 22f7 27       		.byte	0x27
 9367 22f8 91       		.byte	0x91
 9368 22f9 9C7F     		.sleb128 -100
 9369 22fb 06       		.byte	0x6
 9370 22fc 22       		.byte	0x22
 9371 22fd 91       		.byte	0x91
 9372 22fe BC7F     		.sleb128 -68
 9373 2300 06       		.byte	0x6
 9374 2301 22       		.byte	0x22
 9375 2302 23       		.byte	0x23
 9376 2303 F3FDC0EB 		.uleb128 0x6d703ef3
 9376      06
 9377 2308 9F       		.byte	0x9f
 9378 2309 38100000 		.4byte	.LVL653
 9379 230d 3E100000 		.4byte	.LVL655
 9380 2311 0100     		.2byte	0x1
 9381 2313 52       		.byte	0x52
 9382 2314 3E100000 		.4byte	.LVL655
 9383 2318 86100000 		.4byte	.LVL666
 9384 231c 0300     		.2byte	0x3
 9385 231e 91       		.byte	0x91
 9386 231f B87F     		.sleb128 -72
 9387 2321 86100000 		.4byte	.LVL666
 9388 2325 DA100000 		.4byte	.LVL679
 9389 2329 0100     		.2byte	0x1
 9390 232b 52       		.byte	0x52
 9391 232c E0100000 		.4byte	.LVL680
 9392 2330 E4100000 		.4byte	.LVL681
 9393 2334 0100     		.2byte	0x1
 9394 2336 52       		.byte	0x52
 9395 2337 E6100000 		.4byte	.LVL682
 9396 233b 3A110000 		.4byte	.LVL695
 9397 233f 0100     		.2byte	0x1
 9398 2341 52       		.byte	0x52
 9399 2342 3A110000 		.4byte	.LVL695
 9400 2346 42110000 		.4byte	.LVL696
 9401 234a 0100     		.2byte	0x1
 9402 234c 54       		.byte	0x54
 9403 234d 42110000 		.4byte	.LVL696
 9404 2351 88110000 		.4byte	.LVL707
 9405 2355 0100     		.2byte	0x1
 9406 2357 5C       		.byte	0x5c
 9407 2358 8A110000 		.4byte	.LVL708
 9408 235c 8E110000 		.4byte	.LVL709
 9409 2360 0100     		.2byte	0x1
 9410 2362 52       		.byte	0x52
 9411 2363 94110000 		.4byte	.LVL710
 9412 2367 3E120000 		.4byte	.LVL735
ARM GAS  C:\Users\Ray\AppData\Local\Temp\ccdgjwii.s 			page 172


 9413 236b 0100     		.2byte	0x1
 9414 236d 52       		.byte	0x52
 9415 236e 44120000 		.4byte	.LVL736
 9416 2372 48120000 		.4byte	.LVL737
 9417 2376 0100     		.2byte	0x1
 9418 2378 52       		.byte	0x52
 9419 2379 4C120000 		.4byte	.LVL738
 9420 237d 98120000 		.4byte	.LVL749
 9421 2381 0100     		.2byte	0x1
 9422 2383 5C       		.byte	0x5c
 9423 2384 98120000 		.4byte	.LVL749
 9424 2388 9A120000 		.4byte	.LVL750
 9425 238c 0100     		.2byte	0x1
 9426 238e 51       		.byte	0x51
 9427 238f 9A120000 		.4byte	.LVL750
 9428 2393 08130000 		.4byte	.LVL762
 9429 2397 0100     		.2byte	0x1
 9430 2399 5C       		.byte	0x5c
 9431 239a 0A130000 		.4byte	.LVL763
 9432 239e 0E130000 		.4byte	.LVL764
 9433 23a2 0100     		.2byte	0x1
 9434 23a4 54       		.byte	0x54
 9435 23a5 14130000 		.4byte	.LVL766
 9436 23a9 62130000 		.4byte	.LVL777
 9437 23ad 0100     		.2byte	0x1
 9438 23af 54       		.byte	0x54
 9439 23b0 64130000 		.4byte	.LVL778
 9440 23b4 6C130000 		.4byte	.LVL780
 9441 23b8 0100     		.2byte	0x1
 9442 23ba 54       		.byte	0x54
 9443 23bb 6C130000 		.4byte	.LVL780
 9444 23bf C6130000 		.4byte	.LVL794
 9445 23c3 0300     		.2byte	0x3
 9446 23c5 91       		.byte	0x91
 9447 23c6 BC7F     		.sleb128 -68
 9448 23c8 C6130000 		.4byte	.LVL794
 9449 23cc CA130000 		.4byte	.LVL795
 9450 23d0 0100     		.2byte	0x1
 9451 23d2 54       		.byte	0x54
 9452 23d3 CA130000 		.4byte	.LVL795
 9453 23d7 CC130000 		.4byte	.LVL796
 9454 23db 1B00     		.2byte	0x1b
 9455 23dd 75       		.byte	0x75
 9456 23de 00       		.sleb128 0
 9457 23df 91       		.byte	0x91
 9458 23e0 40       		.sleb128 -64
 9459 23e1 06       		.byte	0x6
 9460 23e2 27       		.byte	0x27
 9461 23e3 72       		.byte	0x72
 9462 23e4 00       		.sleb128 0
 9463 23e5 1A       		.byte	0x1a
 9464 23e6 91       		.byte	0x91
 9465 23e7 40       		.sleb128 -64
 9466 23e8 06       		.byte	0x6
 9467 23e9 27       		.byte	0x27
 9468 23ea 7C       		.byte	0x7c
 9469 23eb 00       		.sleb128 0
ARM GAS  C:\Users\Ray\AppData\Local\Temp\ccdgjwii.s 			page 173


 9470 23ec 22       		.byte	0x22
 9471 23ed 91       		.byte	0x91
 9472 23ee 9C7F     		.sleb128 -100
 9473 23f0 06       		.byte	0x6
 9474 23f1 22       		.byte	0x22
 9475 23f2 91       		.byte	0x91
 9476 23f3 BC7F     		.sleb128 -68
 9477 23f5 06       		.byte	0x6
 9478 23f6 22       		.byte	0x22
 9479 23f7 9F       		.byte	0x9f
 9480 23f8 CC130000 		.4byte	.LVL796
 9481 23fc 2E140000 		.4byte	.LVL810
 9482 2400 0100     		.2byte	0x1
 9483 2402 54       		.byte	0x54
 9484 2403 2E140000 		.4byte	.LVL810
 9485 2407 64140000 		.4byte	.LVL820
 9486 240b 0200     		.2byte	0x2
 9487 240d 91       		.byte	0x91
 9488 240e 40       		.sleb128 -64
 9489 240f 64140000 		.4byte	.LVL820
 9490 2413 68140000 		.4byte	.LVL821
 9491 2417 0100     		.2byte	0x1
 9492 2419 54       		.byte	0x54
 9493 241a 68140000 		.4byte	.LVL821
 9494 241e 6A140000 		.4byte	.LVL822
 9495 2422 0700     		.2byte	0x7
 9496 2424 91       		.byte	0x91
 9497 2425 40       		.sleb128 -64
 9498 2426 06       		.byte	0x6
 9499 2427 72       		.byte	0x72
 9500 2428 00       		.sleb128 0
 9501 2429 22       		.byte	0x22
 9502 242a 9F       		.byte	0x9f
 9503 242b 6A140000 		.4byte	.LVL822
 9504 242f FA140000 		.4byte	.LVL845
 9505 2433 0100     		.2byte	0x1
 9506 2435 54       		.byte	0x54
 9507 2436 FC140000 		.4byte	.LVL846
 9508 243a 36150000 		.4byte	.LVL856
 9509 243e 0100     		.2byte	0x1
 9510 2440 54       		.byte	0x54
 9511 2441 38150000 		.4byte	.LVL857
 9512 2445 3A150000 		.4byte	.LVL858
 9513 2449 0100     		.2byte	0x1
 9514 244b 54       		.byte	0x54
 9515 244c 3A150000 		.4byte	.LVL858
 9516 2450 80150000 		.4byte	.LVL869
 9517 2454 0100     		.2byte	0x1
 9518 2456 59       		.byte	0x59
 9519 2457 80150000 		.4byte	.LVL869
 9520 245b 82150000 		.4byte	.LVL870
 9521 245f 0100     		.2byte	0x1
 9522 2461 52       		.byte	0x52
 9523 2462 82150000 		.4byte	.LVL870
 9524 2466 84150000 		.4byte	.LVL871
 9525 246a 0100     		.2byte	0x1
 9526 246c 54       		.byte	0x54
ARM GAS  C:\Users\Ray\AppData\Local\Temp\ccdgjwii.s 			page 174


 9527 246d 84150000 		.4byte	.LVL871
 9528 2471 86150000 		.4byte	.LVL872
 9529 2475 1000     		.2byte	0x10
 9530 2477 7C       		.byte	0x7c
 9531 2478 00       		.sleb128 0
 9532 2479 75       		.byte	0x75
 9533 247a 00       		.sleb128 0
 9534 247b 27       		.byte	0x27
 9535 247c 71       		.byte	0x71
 9536 247d 00       		.sleb128 0
 9537 247e 27       		.byte	0x27
 9538 247f 79       		.byte	0x79
 9539 2480 00       		.sleb128 0
 9540 2481 22       		.byte	0x22
 9541 2482 7D       		.byte	0x7d
 9542 2483 00       		.sleb128 0
 9543 2484 06       		.byte	0x6
 9544 2485 22       		.byte	0x22
 9545 2486 9F       		.byte	0x9f
 9546 2487 86150000 		.4byte	.LVL872
 9547 248b E8150000 		.4byte	.LVL890
 9548 248f 0100     		.2byte	0x1
 9549 2491 54       		.byte	0x54
 9550 2492 00000000 		.4byte	0
 9551 2496 00000000 		.4byte	0
 9552              	.LLST11:
 9553 249a 00000000 		.4byte	.LVL895
 9554 249e 12000000 		.4byte	.LVL897
 9555 24a2 0100     		.2byte	0x1
 9556 24a4 50       		.byte	0x50
 9557 24a5 12000000 		.4byte	.LVL897
 9558 24a9 DE000000 		.4byte	.LVL922
 9559 24ad 0100     		.2byte	0x1
 9560 24af 56       		.byte	0x56
 9561 24b0 DE000000 		.4byte	.LVL922
 9562 24b4 E6000000 		.4byte	.LVL923
 9563 24b8 0300     		.2byte	0x3
 9564 24ba 76       		.byte	0x76
 9565 24bb 01       		.sleb128 1
 9566 24bc 9F       		.byte	0x9f
 9567 24bd E6000000 		.4byte	.LVL923
 9568 24c1 EC000000 		.4byte	.LVL924
 9569 24c5 0300     		.2byte	0x3
 9570 24c7 76       		.byte	0x76
 9571 24c8 02       		.sleb128 2
 9572 24c9 9F       		.byte	0x9f
 9573 24ca EC000000 		.4byte	.LVL924
 9574 24ce F2000000 		.4byte	.LVL925
 9575 24d2 0300     		.2byte	0x3
 9576 24d4 76       		.byte	0x76
 9577 24d5 03       		.sleb128 3
 9578 24d6 9F       		.byte	0x9f
 9579 24d7 F2000000 		.4byte	.LVL925
 9580 24db FC000000 		.4byte	.LVL927
 9581 24df 0300     		.2byte	0x3
 9582 24e1 76       		.byte	0x76
 9583 24e2 04       		.sleb128 4
ARM GAS  C:\Users\Ray\AppData\Local\Temp\ccdgjwii.s 			page 175


 9584 24e3 9F       		.byte	0x9f
 9585 24e4 FC000000 		.4byte	.LVL927
 9586 24e8 02010000 		.4byte	.LVL928
 9587 24ec 0100     		.2byte	0x1
 9588 24ee 56       		.byte	0x56
 9589 24ef 00000000 		.4byte	0
 9590 24f3 00000000 		.4byte	0
 9591              	.LLST12:
 9592 24f7 00000000 		.4byte	.LVL895
 9593 24fb 10000000 		.4byte	.LVL896
 9594 24ff 0100     		.2byte	0x1
 9595 2501 51       		.byte	0x51
 9596 2502 10000000 		.4byte	.LVL896
 9597 2506 22000000 		.4byte	.LVL900
 9598 250a 0100     		.2byte	0x1
 9599 250c 54       		.byte	0x54
 9600 250d 22000000 		.4byte	.LVL900
 9601 2511 2A000000 		.4byte	.LVL901
 9602 2515 0300     		.2byte	0x3
 9603 2517 74       		.byte	0x74
 9604 2518 01       		.sleb128 1
 9605 2519 9F       		.byte	0x9f
 9606 251a 2A000000 		.4byte	.LVL901
 9607 251e 32000000 		.4byte	.LVL902
 9608 2522 0300     		.2byte	0x3
 9609 2524 74       		.byte	0x74
 9610 2525 02       		.sleb128 2
 9611 2526 9F       		.byte	0x9f
 9612 2527 32000000 		.4byte	.LVL902
 9613 252b 3A000000 		.4byte	.LVL903
 9614 252f 0300     		.2byte	0x3
 9615 2531 74       		.byte	0x74
 9616 2532 03       		.sleb128 3
 9617 2533 9F       		.byte	0x9f
 9618 2534 3A000000 		.4byte	.LVL903
 9619 2538 46000000 		.4byte	.LVL905
 9620 253c 0300     		.2byte	0x3
 9621 253e 74       		.byte	0x74
 9622 253f 04       		.sleb128 4
 9623 2540 9F       		.byte	0x9f
 9624 2541 46000000 		.4byte	.LVL905
 9625 2545 6E000000 		.4byte	.LVL911
 9626 2549 0100     		.2byte	0x1
 9627 254b 54       		.byte	0x54
 9628 254c 6E000000 		.4byte	.LVL911
 9629 2550 88000000 		.4byte	.LVL914
 9630 2554 0300     		.2byte	0x3
 9631 2556 74       		.byte	0x74
 9632 2557 01       		.sleb128 1
 9633 2558 9F       		.byte	0x9f
 9634 2559 88000000 		.4byte	.LVL914
 9635 255d A8000000 		.4byte	.LVL918
 9636 2561 0100     		.2byte	0x1
 9637 2563 54       		.byte	0x54
 9638 2564 00000000 		.4byte	0
 9639 2568 00000000 		.4byte	0
 9640              	.LLST13:
ARM GAS  C:\Users\Ray\AppData\Local\Temp\ccdgjwii.s 			page 176


 9641 256c 00000000 		.4byte	.LVL895
 9642 2570 16000000 		.4byte	.LVL898
 9643 2574 0100     		.2byte	0x1
 9644 2576 52       		.byte	0x52
 9645 2577 16000000 		.4byte	.LVL898
 9646 257b 6E000000 		.4byte	.LVL911
 9647 257f 0100     		.2byte	0x1
 9648 2581 58       		.byte	0x58
 9649 2582 6E000000 		.4byte	.LVL911
 9650 2586 72000000 		.4byte	.LVL912
 9651 258a 0100     		.2byte	0x1
 9652 258c 51       		.byte	0x51
 9653 258d 72000000 		.4byte	.LVL912
 9654 2591 92000000 		.4byte	.LVL915
 9655 2595 0100     		.2byte	0x1
 9656 2597 58       		.byte	0x58
 9657 2598 92000000 		.4byte	.LVL915
 9658 259c 96000000 		.4byte	.LVL917
 9659 25a0 0100     		.2byte	0x1
 9660 25a2 51       		.byte	0x51
 9661 25a3 96000000 		.4byte	.LVL917
 9662 25a7 02010000 		.4byte	.LVL929
 9663 25ab 0100     		.2byte	0x1
 9664 25ad 58       		.byte	0x58
 9665 25ae 02010000 		.4byte	.LVL929
 9666 25b2 0C010000 		.4byte	.LFE1
 9667 25b6 0400     		.2byte	0x4
 9668 25b8 F3       		.byte	0xf3
 9669 25b9 01       		.uleb128 0x1
 9670 25ba 52       		.byte	0x52
 9671 25bb 9F       		.byte	0x9f
 9672 25bc 00000000 		.4byte	0
 9673 25c0 00000000 		.4byte	0
 9674              	.LLST14:
 9675 25c4 1E000000 		.4byte	.LVL899
 9676 25c8 22000000 		.4byte	.LVL900
 9677 25cc 0200     		.2byte	0x2
 9678 25ce 30       		.byte	0x30
 9679 25cf 9F       		.byte	0x9f
 9680 25d0 22000000 		.4byte	.LVL900
 9681 25d4 6E000000 		.4byte	.LVL911
 9682 25d8 0100     		.2byte	0x1
 9683 25da 55       		.byte	0x55
 9684 25db 00000000 		.4byte	0
 9685 25df 00000000 		.4byte	0
 9686              	.LLST15:
 9687 25e3 22000000 		.4byte	.LVL900
 9688 25e7 48000000 		.4byte	.LVL906
 9689 25eb 0100     		.2byte	0x1
 9690 25ed 57       		.byte	0x57
 9691 25ee 4A000000 		.4byte	.LVL907
 9692 25f2 58000000 		.4byte	.LVL909
 9693 25f6 0100     		.2byte	0x1
 9694 25f8 57       		.byte	0x57
 9695 25f9 00000000 		.4byte	0
 9696 25fd 00000000 		.4byte	0
 9697              	.LLST16:
ARM GAS  C:\Users\Ray\AppData\Local\Temp\ccdgjwii.s 			page 177


 9698 2601 6A000000 		.4byte	.LVL910
 9699 2605 6E000000 		.4byte	.LVL911
 9700 2609 0200     		.2byte	0x2
 9701 260b 30       		.byte	0x30
 9702 260c 9F       		.byte	0x9f
 9703 260d 6E000000 		.4byte	.LVL911
 9704 2611 94000000 		.4byte	.LVL916
 9705 2615 0100     		.2byte	0x1
 9706 2617 52       		.byte	0x52
 9707 2618 00000000 		.4byte	0
 9708 261c 00000000 		.4byte	0
 9709              	.LLST17:
 9710 2620 DA000000 		.4byte	.LVL921
 9711 2624 DE000000 		.4byte	.LVL922
 9712 2628 0200     		.2byte	0x2
 9713 262a 30       		.byte	0x30
 9714 262b 9F       		.byte	0x9f
 9715 262c DE000000 		.4byte	.LVL922
 9716 2630 0C010000 		.4byte	.LFE1
 9717 2634 0100     		.2byte	0x1
 9718 2636 51       		.byte	0x51
 9719 2637 00000000 		.4byte	0
 9720 263b 00000000 		.4byte	0
 9721              		.section	.debug_aranges,"",%progbits
 9722 0000 24000000 		.4byte	0x24
 9723 0004 0200     		.2byte	0x2
 9724 0006 00000000 		.4byte	.Ldebug_info0
 9725 000a 04       		.byte	0x4
 9726 000b 00       		.byte	0
 9727 000c 0000     		.2byte	0
 9728 000e 0000     		.2byte	0
 9729 0010 00000000 		.4byte	.LFB0
 9730 0014 24160000 		.4byte	.LFE0-.LFB0
 9731 0018 00000000 		.4byte	.LFB1
 9732 001c 0C010000 		.4byte	.LFE1-.LFB1
 9733 0020 00000000 		.4byte	0
 9734 0024 00000000 		.4byte	0
 9735              		.section	.debug_ranges,"",%progbits
 9736              	.Ldebug_ranges0:
 9737 0000 22000000 		.4byte	.LBB3
 9738 0004 48000000 		.4byte	.LBE3
 9739 0008 4A000000 		.4byte	.LBB6
 9740 000c 56000000 		.4byte	.LBE6
 9741 0010 00000000 		.4byte	0
 9742 0014 00000000 		.4byte	0
 9743 0018 22000000 		.4byte	.LBB4
 9744 001c 48000000 		.4byte	.LBE4
 9745 0020 4A000000 		.4byte	.LBB5
 9746 0024 4E000000 		.4byte	.LBE5
 9747 0028 00000000 		.4byte	0
 9748 002c 00000000 		.4byte	0
 9749 0030 00000000 		.4byte	.LFB0
 9750 0034 24160000 		.4byte	.LFE0
 9751 0038 00000000 		.4byte	.LFB1
 9752 003c 0C010000 		.4byte	.LFE1
 9753 0040 00000000 		.4byte	0
 9754 0044 00000000 		.4byte	0
ARM GAS  C:\Users\Ray\AppData\Local\Temp\ccdgjwii.s 			page 178


 9755              		.section	.debug_line,"",%progbits
 9756              	.Ldebug_line0:
 9757 0000 E9020000 		.section	.debug_str,"MS",%progbits,1
 9757      02003801 
 9757      00000201 
 9757      FB0E0D00 
 9757      01010101 
 9758              	.LASF5:
 9759 0000 5F5F7569 		.ascii	"__uint8_t\000"
 9759      6E74385F 
 9759      7400
 9760              	.LASF24:
 9761 000a 52495045 		.ascii	"RIPEMD160\000"
 9761      4D443136 
 9761      3000
 9762              	.LASF23:
 9763 0014 636F6D70 		.ascii	"compress\000"
 9763      72657373 
 9763      00
 9764              	.LASF21:
 9765 001d 7374726F 		.ascii	"strong-arm\\src\\ripemd160\\ripemd160.c\000"
 9765      6E672D61 
 9765      726D5C73 
 9765      72635C72 
 9765      6970656D 
 9766              	.LASF1:
 9767 0042 756E7369 		.ascii	"unsigned char\000"
 9767      676E6564 
 9767      20636861 
 9767      7200
 9768              	.LASF7:
 9769 0050 6C6F6E67 		.ascii	"long unsigned int\000"
 9769      20756E73 
 9769      69676E65 
 9769      6420696E 
 9769      7400
 9770              	.LASF3:
 9771 0062 73686F72 		.ascii	"short unsigned int\000"
 9771      7420756E 
 9771      7369676E 
 9771      65642069 
 9771      6E7400
 9772              	.LASF12:
 9773 0075 75696E74 		.ascii	"uint32_t\000"
 9773      33325F74 
 9773      00
 9774              	.LASF25:
 9775 007e 6D656D73 		.ascii	"memset\000"
 9775      657400
 9776              	.LASF6:
 9777 0085 5F5F7569 		.ascii	"__uint32_t\000"
 9777      6E743332 
 9777      5F7400
 9778              	.LASF19:
 9779 0090 6368756E 		.ascii	"chunk\000"
 9779      6B00
 9780              	.LASF10:
ARM GAS  C:\Users\Ray\AppData\Local\Temp\ccdgjwii.s 			page 179


 9781 0096 756E7369 		.ascii	"unsigned int\000"
 9781      676E6564 
 9781      20696E74 
 9781      00
 9782              	.LASF9:
 9783 00a3 6C6F6E67 		.ascii	"long long unsigned int\000"
 9783      206C6F6E 
 9783      6720756E 
 9783      7369676E 
 9783      65642069 
 9784              	.LASF11:
 9785 00ba 75696E74 		.ascii	"uint8_t\000"
 9785      385F7400 
 9786              	.LASF17:
 9787 00c2 68617368 		.ascii	"hash\000"
 9787      00
 9788              	.LASF20:
 9789 00c7 474E5520 		.ascii	"GNU C11 5.4.1 20160609 (release) [ARM/embedded-5-br"
 9789      43313120 
 9789      352E342E 
 9789      31203230 
 9789      31363036 
 9790 00fa 616E6368 		.ascii	"anch revision 237715] -mcpu=cortex-m0 -mthumb -g -O"
 9790      20726576 
 9790      6973696F 
 9790      6E203233 
 9790      37373135 
 9791 012d 67202D66 		.ascii	"g -ffunction-sections -ffat-lto-objects\000"
 9791      66756E63 
 9791      74696F6E 
 9791      2D736563 
 9791      74696F6E 
 9792              	.LASF13:
 9793 0155 6C6F6E67 		.ascii	"long double\000"
 9793      20646F75 
 9793      626C6500 
 9794              	.LASF14:
 9795 0161 73697A65 		.ascii	"sizetype\000"
 9795      74797065 
 9795      00
 9796              	.LASF8:
 9797 016a 6C6F6E67 		.ascii	"long long int\000"
 9797      206C6F6E 
 9797      6720696E 
 9797      7400
 9798              	.LASF15:
 9799 0178 63686172 		.ascii	"char\000"
 9799      00
 9800              	.LASF2:
 9801 017d 73686F72 		.ascii	"short int\000"
 9801      7420696E 
 9801      7400
 9802              	.LASF16:
 9803 0187 4D446275 		.ascii	"MDbuf\000"
 9803      6600
 9804              	.LASF22:
 9805 018d 5C5C5642 		.ascii	"\\\\VBOXSVR\\raywang\\Dropbox (MIT)\\CTFs\\eCTF\\20"
ARM GAS  C:\Users\Ray\AppData\Local\Temp\ccdgjwii.s 			page 180


 9805      4F585356 
 9805      525C7261 
 9805      7977616E 
 9805      675C4472 
 9806 01b9 31382D65 		.ascii	"18-ectf-milestones-demo\\Milestones Demo Workspace\\"
 9806      6374662D 
 9806      6D696C65 
 9806      73746F6E 
 9806      65732D64 
 9807 01eb 7374726F 		.ascii	"strong-arm.cylib\000"
 9807      6E672D61 
 9807      726D2E63 
 9807      796C6962 
 9807      00
 9808              	.LASF18:
 9809 01fc 64696765 		.ascii	"digest\000"
 9809      737400
 9810              	.LASF4:
 9811 0203 6C6F6E67 		.ascii	"long int\000"
 9811      20696E74 
 9811      00
 9812              	.LASF0:
 9813 020c 7369676E 		.ascii	"signed char\000"
 9813      65642063 
 9813      68617200 
 9814              		.ident	"GCC: (GNU Tools for ARM Embedded Processors) 5.4.1 20160609 (release) [ARM/embedded-5-bran
