ARM GAS  C:\Users\Ray\AppData\Local\Temp\ccM64sFg.s 			page 1


   1              		.syntax unified
   2              		.cpu cortex-m0
   3              		.fpu softvfp
   4              		.eabi_attribute 20, 1
   5              		.eabi_attribute 21, 1
   6              		.eabi_attribute 23, 3
   7              		.eabi_attribute 24, 1
   8              		.eabi_attribute 25, 1
   9              		.eabi_attribute 26, 1
  10              		.eabi_attribute 30, 1
  11              		.eabi_attribute 34, 0
  12              		.eabi_attribute 18, 4
  13              		.thumb
  14              		.syntax unified
  15              		.file	"sha256.c"
  16              		.text
  17              	.Ltext0:
  18              		.cfi_sections	.debug_frame
  19              		.section	.text.compress,"ax",%progbits
  20              		.align	2
  21              		.code	16
  22              		.thumb_func
  23              		.type	compress, %function
  24              	compress:
  25              	.LFB4:
  26              		.file 1 "strong-arm\\src\\sha256\\sha256.c"
   1:strong-arm\src\sha256/sha256.c **** #include <strong-arm/sha256.h>
   2:strong-arm\src\sha256/sha256.c **** #include <string.h>
   3:strong-arm\src\sha256/sha256.c **** 
   4:strong-arm\src\sha256/sha256.c **** static const uint32_t kk[64] = {0x428a2f98, 0x71374491, 0xb5c0fbcf, 0xe9b5dba5, 0x3956c25b, 0x59f11
   5:strong-arm\src\sha256/sha256.c **** 				0xd807aa98, 0x12835b01, 0x243185be, 0x550c7dc3, 0x72be5d74, 0x80deb1fe, 0x9bdc06a7, 0xc19bf174,
   6:strong-arm\src\sha256/sha256.c **** 				0xe49b69c1, 0xefbe4786, 0x0fc19dc6, 0x240ca1cc, 0x2de92c6f, 0x4a7484aa, 0x5cb0a9dc, 0x76f988da,
   7:strong-arm\src\sha256/sha256.c **** 				0x983e5152, 0xa831c66d, 0xb00327c8, 0xbf597fc7, 0xc6e00bf3, 0xd5a79147, 0x06ca6351, 0x14292967,
   8:strong-arm\src\sha256/sha256.c **** 				0x27b70a85, 0x2e1b2138, 0x4d2c6dfc, 0x53380d13, 0x650a7354, 0x766a0abb, 0x81c2c92e, 0x92722c85,
   9:strong-arm\src\sha256/sha256.c **** 				0xa2bfe8a1, 0xa81a664b, 0xc24b8b70, 0xc76c51a3, 0xd192e819, 0xd6990624, 0xf40e3585, 0x106aa070,
  10:strong-arm\src\sha256/sha256.c **** 				0x19a4c116, 0x1e376c08, 0x2748774c, 0x34b0bcb5, 0x391c0cb3, 0x4ed8aa4a, 0x5b9cca4f, 0x682e6ff3,
  11:strong-arm\src\sha256/sha256.c **** 				0x748f82ee, 0x78a5636f, 0x84c87814, 0x8cc70208, 0x90befffa, 0xa4506ceb, 0xbef9a3f7, 0xc67178f2}
  12:strong-arm\src\sha256/sha256.c **** 
  13:strong-arm\src\sha256/sha256.c **** static inline uint32_t s0 (uint32_t a);
  14:strong-arm\src\sha256/sha256.c **** static inline uint32_t s1 (uint32_t a);
  15:strong-arm\src\sha256/sha256.c **** static inline uint32_t e0 (uint32_t a);
  16:strong-arm\src\sha256/sha256.c **** static inline uint32_t e1 (uint32_t a);
  17:strong-arm\src\sha256/sha256.c **** static void compress (uint32_t *digest, uint32_t *chunk);
  18:strong-arm\src\sha256/sha256.c **** 
  19:strong-arm\src\sha256/sha256.c **** /* gcc should optimize this to ROR instructions on at least X86 and ARM. */
  20:strong-arm\src\sha256/sha256.c **** #define ROR_C(x, n) (((x) >> (n)) | ((x) << (32 - (n))))
  21:strong-arm\src\sha256/sha256.c **** 
  22:strong-arm\src\sha256/sha256.c **** 
  23:strong-arm\src\sha256/sha256.c **** static inline uint32_t s0 (uint32_t a)
  24:strong-arm\src\sha256/sha256.c **** {
  25:strong-arm\src\sha256/sha256.c **** 	uint32_t tmp1, tmp2;
  26:strong-arm\src\sha256/sha256.c **** 	
  27:strong-arm\src\sha256/sha256.c **** 	tmp1 = ROR_C (a, 7);
  28:strong-arm\src\sha256/sha256.c **** 	tmp2 = ROR_C (a, 18);
  29:strong-arm\src\sha256/sha256.c **** 	return tmp1 ^ tmp2 ^ (a >> 3);
  30:strong-arm\src\sha256/sha256.c **** }
  31:strong-arm\src\sha256/sha256.c **** 
ARM GAS  C:\Users\Ray\AppData\Local\Temp\ccM64sFg.s 			page 2


  32:strong-arm\src\sha256/sha256.c **** static inline uint32_t s1 (uint32_t a)
  33:strong-arm\src\sha256/sha256.c **** {
  34:strong-arm\src\sha256/sha256.c **** 	uint32_t tmp1, tmp2;
  35:strong-arm\src\sha256/sha256.c **** 	
  36:strong-arm\src\sha256/sha256.c **** 	tmp1 = ROR_C (a, 17);
  37:strong-arm\src\sha256/sha256.c **** 	tmp2 = ROR_C (a, 19);
  38:strong-arm\src\sha256/sha256.c **** 	return tmp1 ^ tmp2 ^ (a >> 10);
  39:strong-arm\src\sha256/sha256.c **** }
  40:strong-arm\src\sha256/sha256.c **** 
  41:strong-arm\src\sha256/sha256.c **** static inline uint32_t e0 (uint32_t a)
  42:strong-arm\src\sha256/sha256.c **** {
  43:strong-arm\src\sha256/sha256.c **** 	uint32_t tmp1, tmp2;
  44:strong-arm\src\sha256/sha256.c **** 	
  45:strong-arm\src\sha256/sha256.c **** 	tmp1 = ROR_C (a, 2);
  46:strong-arm\src\sha256/sha256.c **** 	tmp2 = ROR_C (a, 13);
  47:strong-arm\src\sha256/sha256.c **** 	a = ROR_C (a, 22);
  48:strong-arm\src\sha256/sha256.c **** 	return tmp1 ^ tmp2 ^ a;
  49:strong-arm\src\sha256/sha256.c **** }
  50:strong-arm\src\sha256/sha256.c **** 
  51:strong-arm\src\sha256/sha256.c **** static inline uint32_t e1 (uint32_t a)
  52:strong-arm\src\sha256/sha256.c **** {
  53:strong-arm\src\sha256/sha256.c **** 	uint32_t tmp1, tmp2;
  54:strong-arm\src\sha256/sha256.c **** 	
  55:strong-arm\src\sha256/sha256.c **** 	tmp1 = ROR_C (a, 6);
  56:strong-arm\src\sha256/sha256.c **** 	tmp2 = ROR_C (a, 11);
  57:strong-arm\src\sha256/sha256.c **** 	a = ROR_C (a, 25);
  58:strong-arm\src\sha256/sha256.c **** 	return tmp1 ^ tmp2 ^ a;
  59:strong-arm\src\sha256/sha256.c **** }
  60:strong-arm\src\sha256/sha256.c **** 
  61:strong-arm\src\sha256/sha256.c **** static void compress (uint32_t *digest, uint32_t *chunk)
  62:strong-arm\src\sha256/sha256.c **** {
  27              		.loc 1 62 0
  28              		.cfi_startproc
  29              		@ args = 0, pretend = 0, frame = 24
  30              		@ frame_needed = 0, uses_anonymous_args = 0
  31              	.LVL0:
  32 0000 F0B5     		push	{r4, r5, r6, r7, lr}
  33              		.cfi_def_cfa_offset 20
  34              		.cfi_offset 4, -20
  35              		.cfi_offset 5, -16
  36              		.cfi_offset 6, -12
  37              		.cfi_offset 7, -8
  38              		.cfi_offset 14, -4
  39 0002 5F46     		mov	r7, fp
  40 0004 5646     		mov	r6, r10
  41 0006 4D46     		mov	r5, r9
  42 0008 4446     		mov	r4, r8
  43 000a F0B4     		push	{r4, r5, r6, r7}
  44              		.cfi_def_cfa_offset 36
  45              		.cfi_offset 8, -36
  46              		.cfi_offset 9, -32
  47              		.cfi_offset 10, -28
  48              		.cfi_offset 11, -24
  49 000c 87B0     		sub	sp, sp, #28
  50              		.cfi_def_cfa_offset 64
  51 000e 8A46     		mov	r10, r1
  63:strong-arm\src\sha256/sha256.c **** 	uint32_t a = digest[0], b = digest[1], c = digest[2], d = digest[3];
ARM GAS  C:\Users\Ray\AppData\Local\Temp\ccM64sFg.s 			page 3


  52              		.loc 1 63 0
  53 0010 0768     		ldr	r7, [r0]
  54              	.LVL1:
  55 0012 4368     		ldr	r3, [r0, #4]
  56 0014 9946     		mov	r9, r3
  57              	.LVL2:
  58 0016 8368     		ldr	r3, [r0, #8]
  59              	.LVL3:
  60 0018 9C46     		mov	ip, r3
  61              	.LVL4:
  62 001a C368     		ldr	r3, [r0, #12]
  63              	.LVL5:
  64 001c 0393     		str	r3, [sp, #12]
  65              	.LVL6:
  64:strong-arm\src\sha256/sha256.c **** 	uint32_t e = digest[4], f = digest[5], g = digest[6], h = digest[7];
  66              		.loc 1 64 0
  67 001e 0169     		ldr	r1, [r0, #16]
  68              	.LVL7:
  69 0020 4369     		ldr	r3, [r0, #20]
  70              	.LVL8:
  71 0022 0293     		str	r3, [sp, #8]
  72              	.LVL9:
  73 0024 8369     		ldr	r3, [r0, #24]
  74              	.LVL10:
  75 0026 0493     		str	r3, [sp, #16]
  76              	.LVL11:
  77 0028 C369     		ldr	r3, [r0, #28]
  78              	.LVL12:
  79 002a 0593     		str	r3, [sp, #20]
  80              	.LVL13:
  81              	.LBB12:
  65:strong-arm\src\sha256/sha256.c **** 	
  66:strong-arm\src\sha256/sha256.c **** 	for (uint32_t i = 0; i < 64; ++i)
  82              		.loc 1 66 0
  83 002c 0026     		movs	r6, #0
  84 002e 4B46     		mov	r3, r9
  85              	.LVL14:
  86 0030 0193     		str	r3, [sp, #4]
  87 0032 8146     		mov	r9, r0
  88              	.LVL15:
  89 0034 74E0     		b	.L2
  90              	.LVL16:
  91              	.L4:
  92              	.LBB13:
  67:strong-arm\src\sha256/sha256.c **** 	{
  68:strong-arm\src\sha256/sha256.c **** 		uint32_t w = chunk[i&15];
  93              		.loc 1 68 0
  94 0036 0F23     		movs	r3, #15
  95 0038 3340     		ands	r3, r6
  96 003a 9B00     		lsls	r3, r3, #2
  97 003c 5344     		add	r3, r3, r10
  98 003e 1A68     		ldr	r2, [r3]
  99 0040 9046     		mov	r8, r2
 100              	.LVL17:
  69:strong-arm\src\sha256/sha256.c **** 		
  70:strong-arm\src\sha256/sha256.c **** 		if (i < 48)
 101              		.loc 1 70 0
ARM GAS  C:\Users\Ray\AppData\Local\Temp\ccM64sFg.s 			page 4


 102 0042 2F2E     		cmp	r6, #47
 103 0044 2CD8     		bhi	.L3
  71:strong-arm\src\sha256/sha256.c **** 			chunk[i&15] = chunk[i&15] + s0 (chunk[(i+1)&15]) + chunk[(i+9)&15] + s1 (chunk[(i+14)&15]);
 104              		.loc 1 71 0
 105 0046 721C     		adds	r2, r6, #1
 106              	.LVL18:
 107 0048 0F20     		movs	r0, #15
 108 004a 0240     		ands	r2, r0
 109 004c 9200     		lsls	r2, r2, #2
 110 004e 5446     		mov	r4, r10
 111 0050 A258     		ldr	r2, [r4, r2]
 112              	.LVL19:
 113              	.LBB14:
 114              	.LBB15:
  27:strong-arm\src\sha256/sha256.c **** 	tmp2 = ROR_C (a, 18);
 115              		.loc 1 27 0
 116 0052 0724     		movs	r4, #7
 117 0054 1500     		movs	r5, r2
 118 0056 E541     		rors	r5, r5, r4
 119 0058 AB46     		mov	fp, r5
 120              	.LVL20:
  28:strong-arm\src\sha256/sha256.c **** 	return tmp1 ^ tmp2 ^ (a >> 3);
 121              		.loc 1 28 0
 122 005a 0B34     		adds	r4, r4, #11
 123 005c 1500     		movs	r5, r2
 124              	.LVL21:
 125 005e E541     		rors	r5, r5, r4
 126 0060 2C00     		movs	r4, r5
 127              	.LVL22:
  29:strong-arm\src\sha256/sha256.c **** }
 128              		.loc 1 29 0
 129 0062 5D46     		mov	r5, fp
 130 0064 6C40     		eors	r4, r5
 131              	.LVL23:
 132 0066 D208     		lsrs	r2, r2, #3
 133              	.LVL24:
 134 0068 6240     		eors	r2, r4
 135              	.LVL25:
 136              	.LBE15:
 137              	.LBE14:
 138              		.loc 1 71 0
 139 006a 4244     		add	r2, r2, r8
 140 006c 3400     		movs	r4, r6
 141 006e 0934     		adds	r4, r4, #9
 142 0070 0440     		ands	r4, r0
 143 0072 A400     		lsls	r4, r4, #2
 144 0074 5546     		mov	r5, r10
 145 0076 6459     		ldr	r4, [r4, r5]
 146 0078 1219     		adds	r2, r2, r4
 147 007a 3400     		movs	r4, r6
 148 007c 0E34     		adds	r4, r4, #14
 149 007e 2040     		ands	r0, r4
 150 0080 8000     		lsls	r0, r0, #2
 151 0082 2C58     		ldr	r4, [r5, r0]
 152              	.LVL26:
 153              	.LBB16:
 154              	.LBB17:
ARM GAS  C:\Users\Ray\AppData\Local\Temp\ccM64sFg.s 			page 5


  36:strong-arm\src\sha256/sha256.c **** 	tmp2 = ROR_C (a, 19);
 155              		.loc 1 36 0
 156 0084 1120     		movs	r0, #17
 157 0086 2500     		movs	r5, r4
 158 0088 C541     		rors	r5, r5, r0
 159 008a AB46     		mov	fp, r5
 160              	.LVL27:
  37:strong-arm\src\sha256/sha256.c **** 	return tmp1 ^ tmp2 ^ (a >> 10);
 161              		.loc 1 37 0
 162 008c 0230     		adds	r0, r0, #2
 163 008e 2500     		movs	r5, r4
 164              	.LVL28:
 165 0090 C541     		rors	r5, r5, r0
 166 0092 2800     		movs	r0, r5
 167              	.LVL29:
  38:strong-arm\src\sha256/sha256.c **** }
 168              		.loc 1 38 0
 169 0094 5D46     		mov	r5, fp
 170 0096 6840     		eors	r0, r5
 171              	.LVL30:
 172 0098 A40A     		lsrs	r4, r4, #10
 173              	.LVL31:
 174 009a 6040     		eors	r0, r4
 175              	.LVL32:
 176              	.LBE17:
 177              	.LBE16:
 178              		.loc 1 71 0
 179 009c 1018     		adds	r0, r2, r0
 180 009e 1860     		str	r0, [r3]
 181              	.L3:
 182              	.LVL33:
 183              	.LBB18:
 184              	.LBB19:
  45:strong-arm\src\sha256/sha256.c **** 	tmp2 = ROR_C (a, 13);
 185              		.loc 1 45 0 discriminator 2
 186 00a0 0223     		movs	r3, #2
 187 00a2 3A00     		movs	r2, r7
 188 00a4 DA41     		rors	r2, r2, r3
 189 00a6 1300     		movs	r3, r2
 190              	.LVL34:
  46:strong-arm\src\sha256/sha256.c **** 	a = ROR_C (a, 22);
 191              		.loc 1 46 0 discriminator 2
 192 00a8 0D22     		movs	r2, #13
 193              	.LVL35:
 194 00aa 3800     		movs	r0, r7
 195 00ac D041     		rors	r0, r0, r2
 196              	.LVL36:
  47:strong-arm\src\sha256/sha256.c **** 	return tmp1 ^ tmp2 ^ a;
 197              		.loc 1 47 0 discriminator 2
 198 00ae 0932     		adds	r2, r2, #9
 199 00b0 3C00     		movs	r4, r7
 200 00b2 D441     		rors	r4, r4, r2
 201              	.LVL37:
  48:strong-arm\src\sha256/sha256.c **** }
 202              		.loc 1 48 0 discriminator 2
 203 00b4 4340     		eors	r3, r0
 204              	.LVL38:
ARM GAS  C:\Users\Ray\AppData\Local\Temp\ccM64sFg.s 			page 6


 205 00b6 2200     		movs	r2, r4
 206 00b8 5A40     		eors	r2, r3
 207              	.LVL39:
 208              	.LBE19:
 209              	.LBE18:
  72:strong-arm\src\sha256/sha256.c **** 		
  73:strong-arm\src\sha256/sha256.c **** 		uint32_t t2 = e0 (a) + ((a&b)^(a&c)^(b&c));
 210              		.loc 1 73 0 discriminator 2
 211 00ba 019C     		ldr	r4, [sp, #4]
 212 00bc 2000     		movs	r0, r4
 213 00be 3840     		ands	r0, r7
 214 00c0 6346     		mov	r3, ip
 215 00c2 3B40     		ands	r3, r7
 216 00c4 4340     		eors	r3, r0
 217 00c6 6046     		mov	r0, ip
 218 00c8 2040     		ands	r0, r4
 219 00ca 4340     		eors	r3, r0
 220 00cc 9B18     		adds	r3, r3, r2
 221              	.LVL40:
 222              	.LBB20:
 223              	.LBB21:
  55:strong-arm\src\sha256/sha256.c **** 	tmp2 = ROR_C (a, 11);
 224              		.loc 1 55 0 discriminator 2
 225 00ce 0622     		movs	r2, #6
 226 00d0 0C00     		movs	r4, r1
 227 00d2 D441     		rors	r4, r4, r2
 228              	.LVL41:
  56:strong-arm\src\sha256/sha256.c **** 	a = ROR_C (a, 25);
 229              		.loc 1 56 0 discriminator 2
 230 00d4 0532     		adds	r2, r2, #5
 231 00d6 0800     		movs	r0, r1
 232 00d8 D041     		rors	r0, r0, r2
 233 00da 0200     		movs	r2, r0
 234              	.LVL42:
  57:strong-arm\src\sha256/sha256.c **** 	return tmp1 ^ tmp2 ^ a;
 235              		.loc 1 57 0 discriminator 2
 236 00dc 1920     		movs	r0, #25
 237              	.LVL43:
 238 00de 0D00     		movs	r5, r1
 239 00e0 C541     		rors	r5, r5, r0
 240 00e2 2800     		movs	r0, r5
 241              	.LVL44:
  58:strong-arm\src\sha256/sha256.c **** }
 242              		.loc 1 58 0 discriminator 2
 243 00e4 6240     		eors	r2, r4
 244              	.LVL45:
 245 00e6 5040     		eors	r0, r2
 246              	.LVL46:
 247              	.LBE21:
 248              	.LBE20:
  74:strong-arm\src\sha256/sha256.c **** 		uint32_t t1 = h + e1 (e) + ((e&f)^((~e)&g)) + kk[i] + w;
 249              		.loc 1 74 0 discriminator 2
 250 00e8 059A     		ldr	r2, [sp, #20]
 251 00ea 9346     		mov	fp, r2
 252 00ec 5844     		add	r0, r0, fp
 253 00ee 029C     		ldr	r4, [sp, #8]
 254 00f0 0C40     		ands	r4, r1
ARM GAS  C:\Users\Ray\AppData\Local\Temp\ccM64sFg.s 			page 7


 255 00f2 049D     		ldr	r5, [sp, #16]
 256 00f4 2A00     		movs	r2, r5
 257 00f6 8A43     		bics	r2, r1
 258 00f8 6240     		eors	r2, r4
 259 00fa 8018     		adds	r0, r0, r2
 260 00fc B400     		lsls	r4, r6, #2
 261 00fe 234A     		ldr	r2, .L5
 262 0100 A458     		ldr	r4, [r4, r2]
 263 0102 0019     		adds	r0, r0, r4
 264 0104 4044     		add	r0, r0, r8
 265              	.LVL47:
 266              	.LBE13:
  66:strong-arm\src\sha256/sha256.c **** 	{
 267              		.loc 1 66 0 discriminator 2
 268 0106 0136     		adds	r6, r6, #1
 269              	.LVL48:
 270              	.LBB22:
  75:strong-arm\src\sha256/sha256.c **** 		
  76:strong-arm\src\sha256/sha256.c **** 		h = g;
 271              		.loc 1 76 0 discriminator 2
 272 0108 0595     		str	r5, [sp, #20]
  77:strong-arm\src\sha256/sha256.c **** 		g = f;
 273              		.loc 1 77 0 discriminator 2
 274 010a 029C     		ldr	r4, [sp, #8]
 275 010c 0494     		str	r4, [sp, #16]
  78:strong-arm\src\sha256/sha256.c **** 		f = e;
 276              		.loc 1 78 0 discriminator 2
 277 010e 0291     		str	r1, [sp, #8]
 278              	.LVL49:
  79:strong-arm\src\sha256/sha256.c **** 		e = d + t1;
 279              		.loc 1 79 0 discriminator 2
 280 0110 039A     		ldr	r2, [sp, #12]
 281 0112 1118     		adds	r1, r2, r0
 282              	.LVL50:
  80:strong-arm\src\sha256/sha256.c **** 		d = c;
 283              		.loc 1 80 0 discriminator 2
 284 0114 6246     		mov	r2, ip
 285 0116 0392     		str	r2, [sp, #12]
  81:strong-arm\src\sha256/sha256.c **** 		c = b;
 286              		.loc 1 81 0 discriminator 2
 287 0118 019C     		ldr	r4, [sp, #4]
 288              	.LVL51:
 289 011a A446     		mov	ip, r4
 290              	.LVL52:
  82:strong-arm\src\sha256/sha256.c **** 		b = a;
 291              		.loc 1 82 0 discriminator 2
 292 011c 0197     		str	r7, [sp, #4]
 293              	.LVL53:
  83:strong-arm\src\sha256/sha256.c **** 		a = t1 + t2;
 294              		.loc 1 83 0 discriminator 2
 295 011e 1F18     		adds	r7, r3, r0
 296              	.LVL54:
 297              	.L2:
 298              	.LBE22:
  66:strong-arm\src\sha256/sha256.c **** 	{
 299              		.loc 1 66 0 discriminator 1
 300 0120 3F2E     		cmp	r6, #63
ARM GAS  C:\Users\Ray\AppData\Local\Temp\ccM64sFg.s 			page 8


 301 0122 88D9     		bls	.L4
 302 0124 C846     		mov	r8, r9
 303 0126 019B     		ldr	r3, [sp, #4]
 304 0128 9946     		mov	r9, r3
 305              	.LVL55:
 306              	.LBE12:
  84:strong-arm\src\sha256/sha256.c **** 	}
  85:strong-arm\src\sha256/sha256.c **** 	
  86:strong-arm\src\sha256/sha256.c **** 	digest[0] += a;
 307              		.loc 1 86 0
 308 012a 4346     		mov	r3, r8
 309 012c 1B68     		ldr	r3, [r3]
 310 012e DB19     		adds	r3, r3, r7
 311 0130 4246     		mov	r2, r8
 312 0132 1360     		str	r3, [r2]
  87:strong-arm\src\sha256/sha256.c **** 	digest[1] += b;
 313              		.loc 1 87 0
 314 0134 5368     		ldr	r3, [r2, #4]
 315 0136 4B44     		add	r3, r3, r9
 316 0138 5360     		str	r3, [r2, #4]
  88:strong-arm\src\sha256/sha256.c **** 	digest[2] += c;
 317              		.loc 1 88 0
 318 013a 9368     		ldr	r3, [r2, #8]
 319 013c 6344     		add	r3, r3, ip
 320 013e 9360     		str	r3, [r2, #8]
  89:strong-arm\src\sha256/sha256.c **** 	digest[3] += d;
 321              		.loc 1 89 0
 322 0140 039B     		ldr	r3, [sp, #12]
 323 0142 D268     		ldr	r2, [r2, #12]
 324 0144 9446     		mov	ip, r2
 325              	.LVL56:
 326 0146 6344     		add	r3, r3, ip
 327 0148 4246     		mov	r2, r8
 328 014a D360     		str	r3, [r2, #12]
  90:strong-arm\src\sha256/sha256.c **** 	digest[4] += e;
 329              		.loc 1 90 0
 330 014c 1369     		ldr	r3, [r2, #16]
 331 014e 9C46     		mov	ip, r3
 332 0150 6144     		add	r1, r1, ip
 333              	.LVL57:
 334 0152 4346     		mov	r3, r8
 335 0154 1161     		str	r1, [r2, #16]
  91:strong-arm\src\sha256/sha256.c **** 	digest[5] += f;
 336              		.loc 1 91 0
 337 0156 029A     		ldr	r2, [sp, #8]
 338 0158 5B69     		ldr	r3, [r3, #20]
 339 015a 9C46     		mov	ip, r3
 340 015c 6244     		add	r2, r2, ip
 341 015e 4346     		mov	r3, r8
 342 0160 5A61     		str	r2, [r3, #20]
  92:strong-arm\src\sha256/sha256.c **** 	digest[6] += g;
 343              		.loc 1 92 0
 344 0162 4246     		mov	r2, r8
 345 0164 049B     		ldr	r3, [sp, #16]
 346 0166 9269     		ldr	r2, [r2, #24]
 347 0168 9446     		mov	ip, r2
 348 016a 6344     		add	r3, r3, ip
ARM GAS  C:\Users\Ray\AppData\Local\Temp\ccM64sFg.s 			page 9


 349 016c 4246     		mov	r2, r8
 350 016e 9361     		str	r3, [r2, #24]
  93:strong-arm\src\sha256/sha256.c **** 	digest[7] += h;
 351              		.loc 1 93 0
 352 0170 059B     		ldr	r3, [sp, #20]
 353 0172 D269     		ldr	r2, [r2, #28]
 354 0174 9446     		mov	ip, r2
 355 0176 6344     		add	r3, r3, ip
 356 0178 4246     		mov	r2, r8
 357 017a D361     		str	r3, [r2, #28]
  94:strong-arm\src\sha256/sha256.c **** }
 358              		.loc 1 94 0
 359 017c 07B0     		add	sp, sp, #28
 360              		@ sp needed
 361              	.LVL58:
 362              	.LVL59:
 363              	.LVL60:
 364              	.LVL61:
 365 017e 3CBC     		pop	{r2, r3, r4, r5}
 366 0180 9046     		mov	r8, r2
 367 0182 9946     		mov	r9, r3
 368 0184 A246     		mov	r10, r4
 369 0186 AB46     		mov	fp, r5
 370 0188 F0BD     		pop	{r4, r5, r6, r7, pc}
 371              	.L6:
 372 018a C046     		.align	2
 373              	.L5:
 374 018c 00000000 		.word	.LANCHOR0
 375              		.cfi_endproc
 376              	.LFE4:
 377              		.size	compress, .-compress
 378              		.section	.text.SHA256,"ax",%progbits
 379              		.align	2
 380              		.global	SHA256
 381              		.code	16
 382              		.thumb_func
 383              		.type	SHA256, %function
 384              	SHA256:
 385              	.LFB5:
  95:strong-arm\src\sha256/sha256.c **** 
  96:strong-arm\src\sha256/sha256.c **** /* TODO: Need to correctly handle the case where len == 2^32-1 */
  97:strong-arm\src\sha256/sha256.c **** void SHA256 (uint8_t *hash, uint8_t const * msg, uint32_t len)
  98:strong-arm\src\sha256/sha256.c **** {
 386              		.loc 1 98 0
 387              		.cfi_startproc
 388              		@ args = 0, pretend = 0, frame = 104
 389              		@ frame_needed = 0, uses_anonymous_args = 0
 390              	.LVL62:
 391 0000 F0B5     		push	{r4, r5, r6, r7, lr}
 392              		.cfi_def_cfa_offset 20
 393              		.cfi_offset 4, -20
 394              		.cfi_offset 5, -16
 395              		.cfi_offset 6, -12
 396              		.cfi_offset 7, -8
 397              		.cfi_offset 14, -4
 398 0002 9BB0     		sub	sp, sp, #108
 399              		.cfi_def_cfa_offset 128
ARM GAS  C:\Users\Ray\AppData\Local\Temp\ccM64sFg.s 			page 10


 400 0004 0500     		movs	r5, r0
 401 0006 0C00     		movs	r4, r1
 402 0008 1700     		movs	r7, r2
  99:strong-arm\src\sha256/sha256.c **** 	uint32_t digest[8] = {0x6a09e667, 0xbb67ae85, 0x3c6ef372, 0xa54ff53a, 0x510e527f, 0x9b05688c, 0x1f
 403              		.loc 1 99 0
 404 000a 12A9     		add	r1, sp, #72
 405              	.LVL63:
 406 000c 3C48     		ldr	r0, .L17
 407              	.LVL64:
 408 000e 0B00     		movs	r3, r1
 409 0010 0200     		movs	r2, r0
 410              	.LVL65:
 411 0012 43CA     		ldmia	r2!, {r0, r1, r6}
 412 0014 43C3     		stmia	r3!, {r0, r1, r6}
 413 0016 43CA     		ldmia	r2!, {r0, r1, r6}
 414 0018 43C3     		stmia	r3!, {r0, r1, r6}
 415 001a 03CA     		ldmia	r2!, {r0, r1}
 416 001c 03C3     		stmia	r3!, {r0, r1}
 417              	.LVL66:
 418              	.LBB23:
 100:strong-arm\src\sha256/sha256.c **** 	
 101:strong-arm\src\sha256/sha256.c **** 	for (uint32_t i = 0; i < (len >> 6); ++i)
 419              		.loc 1 101 0
 420 001e 0026     		movs	r6, #0
 421 0020 17E0     		b	.L8
 422              	.LVL67:
 423              	.L9:
 424              	.LBB24:
 425              	.LBB25:
 102:strong-arm\src\sha256/sha256.c **** 	{
 103:strong-arm\src\sha256/sha256.c **** 		uint32_t chunk[16];
 104:strong-arm\src\sha256/sha256.c **** 		
 105:strong-arm\src\sha256/sha256.c **** 		for (int j = 0; j < 16; ++j)
 106:strong-arm\src\sha256/sha256.c **** 		{
 107:strong-arm\src\sha256/sha256.c **** 			chunk[j] = ((uint32_t)*(msg++)) << 24;
 426              		.loc 1 107 0 discriminator 3
 427 0022 2378     		ldrb	r3, [r4]
 428 0024 1A06     		lsls	r2, r3, #24
 429 0026 8100     		lsls	r1, r0, #2
 430              	.LVL68:
 108:strong-arm\src\sha256/sha256.c **** 			chunk[j] |= ((uint32_t)*(msg++)) << 16;
 431              		.loc 1 108 0 discriminator 3
 432 0028 6378     		ldrb	r3, [r4, #1]
 433 002a 1B04     		lsls	r3, r3, #16
 434 002c 1343     		orrs	r3, r2
 435              	.LVL69:
 109:strong-arm\src\sha256/sha256.c **** 			chunk[j] |= ((uint32_t)*(msg++)) << 8;
 436              		.loc 1 109 0 discriminator 3
 437 002e A278     		ldrb	r2, [r4, #2]
 438 0030 1202     		lsls	r2, r2, #8
 439 0032 1343     		orrs	r3, r2
 440              	.LVL70:
 110:strong-arm\src\sha256/sha256.c **** 			chunk[j] |= ((uint32_t)*(msg++));
 441              		.loc 1 110 0 discriminator 3
 442 0034 E278     		ldrb	r2, [r4, #3]
 443 0036 1343     		orrs	r3, r2
 444 0038 02AA     		add	r2, sp, #8
ARM GAS  C:\Users\Ray\AppData\Local\Temp\ccM64sFg.s 			page 11


 445 003a 8B50     		str	r3, [r1, r2]
 105:strong-arm\src\sha256/sha256.c **** 		{
 446              		.loc 1 105 0 discriminator 3
 447 003c 0130     		adds	r0, r0, #1
 448              	.LVL71:
 449              		.loc 1 110 0 discriminator 3
 450 003e 0434     		adds	r4, r4, #4
 451              	.LVL72:
 452 0040 00E0     		b	.L10
 453              	.LVL73:
 454              	.L16:
 455              	.LBE25:
 456              	.LBE24:
 457 0042 0020     		movs	r0, #0
 458              	.L10:
 459              	.LVL74:
 460              	.LBB27:
 461              	.LBB26:
 105:strong-arm\src\sha256/sha256.c **** 		{
 462              		.loc 1 105 0 discriminator 1
 463 0044 0F28     		cmp	r0, #15
 464 0046 ECDD     		ble	.L9
 465              	.LBE26:
 111:strong-arm\src\sha256/sha256.c **** 		}
 112:strong-arm\src\sha256/sha256.c **** 		
 113:strong-arm\src\sha256/sha256.c **** 		compress (digest, chunk);
 466              		.loc 1 113 0 discriminator 2
 467 0048 02A9     		add	r1, sp, #8
 468 004a 12A8     		add	r0, sp, #72
 469              	.LVL75:
 470 004c FFF7FEFF 		bl	compress
 471              	.LVL76:
 472              	.LBE27:
 101:strong-arm\src\sha256/sha256.c **** 	{
 473              		.loc 1 101 0 discriminator 2
 474 0050 0136     		adds	r6, r6, #1
 475              	.LVL77:
 476              	.L8:
 101:strong-arm\src\sha256/sha256.c **** 	{
 477              		.loc 1 101 0 is_stmt 0 discriminator 1
 478 0052 BB09     		lsrs	r3, r7, #6
 479 0054 9E42     		cmp	r6, r3
 480 0056 F4D3     		bcc	.L16
 481              	.LBE23:
 482              	.LBB28:
 114:strong-arm\src\sha256/sha256.c **** 	}
 115:strong-arm\src\sha256/sha256.c **** 	
 116:strong-arm\src\sha256/sha256.c **** 	// Last chunk
 117:strong-arm\src\sha256/sha256.c **** 	{
 118:strong-arm\src\sha256/sha256.c **** 		uint32_t chunk[16] = {0};
 483              		.loc 1 118 0 is_stmt 1
 484 0058 4022     		movs	r2, #64
 485 005a 0021     		movs	r1, #0
 486 005c 02A8     		add	r0, sp, #8
 487 005e FFF7FEFF 		bl	memset
 488              	.LVL78:
 489              	.LBB29:
ARM GAS  C:\Users\Ray\AppData\Local\Temp\ccM64sFg.s 			page 12


 119:strong-arm\src\sha256/sha256.c **** 		
 120:strong-arm\src\sha256/sha256.c **** 		for (uint32_t i = 0; i < (len & 63); ++i)
 490              		.loc 1 120 0
 491 0062 0021     		movs	r1, #0
 492 0064 0FE0     		b	.L11
 493              	.LVL79:
 494              	.L12:
 121:strong-arm\src\sha256/sha256.c **** 			chunk[i>>2] |= ((uint32_t)*(msg++)) << ((3-(i&3)) << 3);
 495              		.loc 1 121 0 discriminator 3
 496 0066 2378     		ldrb	r3, [r4]
 497 0068 CA43     		mvns	r2, r1
 498 006a D200     		lsls	r2, r2, #3
 499 006c 1820     		movs	r0, #24
 500 006e 0240     		ands	r2, r0
 501 0070 9340     		lsls	r3, r3, r2
 502 0072 8A08     		lsrs	r2, r1, #2
 503 0074 9200     		lsls	r2, r2, #2
 504 0076 02A8     		add	r0, sp, #8
 505 0078 1058     		ldr	r0, [r2, r0]
 506 007a 0190     		str	r0, [sp, #4]
 507 007c 0343     		orrs	r3, r0
 508 007e 02A8     		add	r0, sp, #8
 509 0080 1350     		str	r3, [r2, r0]
 120:strong-arm\src\sha256/sha256.c **** 			chunk[i>>2] |= ((uint32_t)*(msg++)) << ((3-(i&3)) << 3);
 510              		.loc 1 120 0 discriminator 3
 511 0082 0131     		adds	r1, r1, #1
 512              	.LVL80:
 513              		.loc 1 121 0 discriminator 3
 514 0084 0134     		adds	r4, r4, #1
 515              	.LVL81:
 516              	.L11:
 120:strong-arm\src\sha256/sha256.c **** 			chunk[i>>2] |= ((uint32_t)*(msg++)) << ((3-(i&3)) << 3);
 517              		.loc 1 120 0 discriminator 1
 518 0086 3F23     		movs	r3, #63
 519 0088 3B40     		ands	r3, r7
 520 008a 9942     		cmp	r1, r3
 521 008c EBD3     		bcc	.L12
 522              	.LBE29:
 122:strong-arm\src\sha256/sha256.c **** 		
 123:strong-arm\src\sha256/sha256.c **** 		chunk[(len >> 2)&15] ^= (uint32_t)1 << (8*(3-(len&3)) + 7);
 523              		.loc 1 123 0
 524 008e BA08     		lsrs	r2, r7, #2
 525 0090 0F21     		movs	r1, #15
 526              	.LVL82:
 527 0092 1140     		ands	r1, r2
 528 0094 0322     		movs	r2, #3
 529 0096 BA43     		bics	r2, r7
 530 0098 D200     		lsls	r2, r2, #3
 531 009a 0732     		adds	r2, r2, #7
 532 009c 0120     		movs	r0, #1
 533 009e 9040     		lsls	r0, r0, r2
 534 00a0 8A00     		lsls	r2, r1, #2
 535 00a2 02A9     		add	r1, sp, #8
 536 00a4 5158     		ldr	r1, [r2, r1]
 537 00a6 0191     		str	r1, [sp, #4]
 538 00a8 4140     		eors	r1, r0
 539 00aa 02A8     		add	r0, sp, #8
ARM GAS  C:\Users\Ray\AppData\Local\Temp\ccM64sFg.s 			page 13


 540 00ac 1150     		str	r1, [r2, r0]
 124:strong-arm\src\sha256/sha256.c **** 		
 125:strong-arm\src\sha256/sha256.c **** 		if ((len & 63) > 55)
 541              		.loc 1 125 0
 542 00ae 372B     		cmp	r3, #55
 543 00b0 08D9     		bls	.L13
 126:strong-arm\src\sha256/sha256.c **** 		{
 127:strong-arm\src\sha256/sha256.c **** 			compress (digest, chunk);
 544              		.loc 1 127 0
 545 00b2 0100     		movs	r1, r0
 546 00b4 12A8     		add	r0, sp, #72
 547 00b6 FFF7FEFF 		bl	compress
 548              	.LVL83:
 128:strong-arm\src\sha256/sha256.c **** 			memset (chunk, 0, 64);
 549              		.loc 1 128 0
 550 00ba 4022     		movs	r2, #64
 551 00bc 0021     		movs	r1, #0
 552 00be 02A8     		add	r0, sp, #8
 553 00c0 FFF7FEFF 		bl	memset
 554              	.LVL84:
 555              	.L13:
 129:strong-arm\src\sha256/sha256.c **** 		}
 130:strong-arm\src\sha256/sha256.c **** 		
 131:strong-arm\src\sha256/sha256.c **** 		chunk[14] = (len >> 29);
 556              		.loc 1 131 0
 557 00c4 7B0F     		lsrs	r3, r7, #29
 558 00c6 1093     		str	r3, [sp, #64]
 132:strong-arm\src\sha256/sha256.c **** 		chunk[15] = len << 3;
 559              		.loc 1 132 0
 560 00c8 FF00     		lsls	r7, r7, #3
 561              	.LVL85:
 562 00ca 1197     		str	r7, [sp, #68]
 133:strong-arm\src\sha256/sha256.c **** 		compress (digest, chunk);
 563              		.loc 1 133 0
 564 00cc 02A9     		add	r1, sp, #8
 565 00ce 12A8     		add	r0, sp, #72
 566 00d0 FFF7FEFF 		bl	compress
 567              	.LVL86:
 568              	.LBE28:
 569              	.LBB30:
 134:strong-arm\src\sha256/sha256.c **** 	}
 135:strong-arm\src\sha256/sha256.c **** 	
 136:strong-arm\src\sha256/sha256.c **** 	for (int i = 0; i < 8; ++i)
 570              		.loc 1 136 0
 571 00d4 0021     		movs	r1, #0
 572 00d6 0EE0     		b	.L14
 573              	.LVL87:
 574              	.L15:
 137:strong-arm\src\sha256/sha256.c **** 	{
 138:strong-arm\src\sha256/sha256.c **** 		*(hash++) = digest[i] >> 24;
 575              		.loc 1 138 0 discriminator 3
 576 00d8 12AB     		add	r3, sp, #72
 577 00da 8A00     		lsls	r2, r1, #2
 578 00dc D058     		ldr	r0, [r2, r3]
 579 00de 000E     		lsrs	r0, r0, #24
 580 00e0 2870     		strb	r0, [r5]
 581              	.LVL88:
ARM GAS  C:\Users\Ray\AppData\Local\Temp\ccM64sFg.s 			page 14


 139:strong-arm\src\sha256/sha256.c **** 		*(hash++) = digest[i] >> 16;
 582              		.loc 1 139 0 discriminator 3
 583 00e2 D058     		ldr	r0, [r2, r3]
 584 00e4 000C     		lsrs	r0, r0, #16
 585 00e6 6870     		strb	r0, [r5, #1]
 586              	.LVL89:
 140:strong-arm\src\sha256/sha256.c **** 		*(hash++) = digest[i] >> 8;
 587              		.loc 1 140 0 discriminator 3
 588 00e8 D058     		ldr	r0, [r2, r3]
 589 00ea 000A     		lsrs	r0, r0, #8
 590 00ec A870     		strb	r0, [r5, #2]
 591              	.LVL90:
 141:strong-arm\src\sha256/sha256.c **** 		*(hash++) = digest[i];
 592              		.loc 1 141 0 discriminator 3
 593 00ee D358     		ldr	r3, [r2, r3]
 594 00f0 EB70     		strb	r3, [r5, #3]
 136:strong-arm\src\sha256/sha256.c **** 	{
 595              		.loc 1 136 0 discriminator 3
 596 00f2 0131     		adds	r1, r1, #1
 597              	.LVL91:
 598              		.loc 1 141 0 discriminator 3
 599 00f4 0435     		adds	r5, r5, #4
 600              	.LVL92:
 601              	.L14:
 136:strong-arm\src\sha256/sha256.c **** 	{
 602              		.loc 1 136 0 discriminator 1
 603 00f6 0729     		cmp	r1, #7
 604 00f8 EEDD     		ble	.L15
 605              	.LBE30:
 142:strong-arm\src\sha256/sha256.c **** 	}
 143:strong-arm\src\sha256/sha256.c **** }
 606              		.loc 1 143 0
 607 00fa 1BB0     		add	sp, sp, #108
 608              		@ sp needed
 609              	.LVL93:
 610              	.LVL94:
 611              	.LVL95:
 612 00fc F0BD     		pop	{r4, r5, r6, r7, pc}
 613              	.L18:
 614 00fe C046     		.align	2
 615              	.L17:
 616 0100 00010000 		.word	.LANCHOR1
 617              		.cfi_endproc
 618              	.LFE5:
 619              		.size	SHA256, .-SHA256
 620              		.section	.text.SHA256_partial,"ax",%progbits
 621              		.align	2
 622              		.global	SHA256_partial
 623              		.code	16
 624              		.thumb_func
 625              		.type	SHA256_partial, %function
 626              	SHA256_partial:
 627              	.LFB6:
 144:strong-arm\src\sha256/sha256.c **** 
 145:strong-arm\src\sha256/sha256.c **** 
 146:strong-arm\src\sha256/sha256.c **** static const uint32_t initial_state[8] = {0x6a09e667, 0xbb67ae85, 0x3c6ef372, 0xa54ff53a, 0x510e527
 147:strong-arm\src\sha256/sha256.c **** void SHA256_partial (uint8_t *hash, SHA256_STATE *const state, uint8_t const *src, uint32_t len, bo
ARM GAS  C:\Users\Ray\AppData\Local\Temp\ccM64sFg.s 			page 15


 148:strong-arm\src\sha256/sha256.c **** {
 628              		.loc 1 148 0
 629              		.cfi_startproc
 630              		@ args = 8, pretend = 0, frame = 8
 631              		@ frame_needed = 0, uses_anonymous_args = 0
 632              	.LVL96:
 633 0000 F0B5     		push	{r4, r5, r6, r7, lr}
 634              		.cfi_def_cfa_offset 20
 635              		.cfi_offset 4, -20
 636              		.cfi_offset 5, -16
 637              		.cfi_offset 6, -12
 638              		.cfi_offset 7, -8
 639              		.cfi_offset 14, -4
 640 0002 4F46     		mov	r7, r9
 641 0004 80B4     		push	{r7}
 642              		.cfi_def_cfa_offset 24
 643              		.cfi_offset 9, -24
 644 0006 82B0     		sub	sp, sp, #8
 645              		.cfi_def_cfa_offset 32
 646 0008 0700     		movs	r7, r0
 647 000a 0C00     		movs	r4, r1
 648 000c 1600     		movs	r6, r2
 649 000e 1D00     		movs	r5, r3
 650 0010 08AB     		add	r3, sp, #32
 651              	.LVL97:
 652 0012 1B78     		ldrb	r3, [r3]
 653              	.LVL98:
 654 0014 09AA     		add	r2, sp, #36
 655              	.LVL99:
 656 0016 1278     		ldrb	r2, [r2]
 657              	.LVL100:
 658 0018 9146     		mov	r9, r2
 149:strong-arm\src\sha256/sha256.c **** 	// First data
 150:strong-arm\src\sha256/sha256.c **** 	if (first) {
 659              		.loc 1 150 0
 660 001a 002B     		cmp	r3, #0
 661 001c 38D0     		beq	.L21
 151:strong-arm\src\sha256/sha256.c **** 		state->chunk_len = 0;
 662              		.loc 1 151 0
 663 001e 0023     		movs	r3, #0
 664 0020 0B66     		str	r3, [r1, #96]
 152:strong-arm\src\sha256/sha256.c **** 		state->totallen = 0;
 665              		.loc 1 152 0
 666 0022 4B66     		str	r3, [r1, #100]
 153:strong-arm\src\sha256/sha256.c **** 		memmove (state->state, initial_state, 32);
 667              		.loc 1 153 0
 668 0024 2022     		movs	r2, #32
 669 0026 3C49     		ldr	r1, .L30
 670              	.LVL101:
 671 0028 2031     		adds	r1, r1, #32
 672 002a 2000     		movs	r0, r4
 673              	.LVL102:
 674 002c FFF7FEFF 		bl	memcpy
 675              	.LVL103:
 154:strong-arm\src\sha256/sha256.c **** 		memset (state->chunk, 0, 64);
 676              		.loc 1 154 0
 677 0030 2000     		movs	r0, r4
ARM GAS  C:\Users\Ray\AppData\Local\Temp\ccM64sFg.s 			page 16


 678 0032 2030     		adds	r0, r0, #32
 679 0034 4022     		movs	r2, #64
 680 0036 0021     		movs	r1, #0
 681 0038 FFF7FEFF 		bl	memset
 682              	.LVL104:
 683 003c 28E0     		b	.L21
 684              	.L23:
 685              	.LVL105:
 155:strong-arm\src\sha256/sha256.c **** 	}
 156:strong-arm\src\sha256/sha256.c **** 	
 157:strong-arm\src\sha256/sha256.c **** 	while (len > 0)
 158:strong-arm\src\sha256/sha256.c **** 	{
 159:strong-arm\src\sha256/sha256.c **** 		while ((state->chunk_len < 64) && (len > 0))
 160:strong-arm\src\sha256/sha256.c **** 		{
 161:strong-arm\src\sha256/sha256.c **** 			state->chunk[state->chunk_len>>2] |= ((uint32_t)*(src++)) << (8*(3-(state->chunk_len&3)));
 686              		.loc 1 161 0
 687 003e 3178     		ldrb	r1, [r6]
 688 0040 0322     		movs	r2, #3
 689 0042 9A43     		bics	r2, r3
 690 0044 D200     		lsls	r2, r2, #3
 691 0046 9140     		lsls	r1, r1, r2
 692 0048 9A08     		lsrs	r2, r3, #2
 693 004a 0832     		adds	r2, r2, #8
 694 004c 9200     		lsls	r2, r2, #2
 695 004e 1059     		ldr	r0, [r2, r4]
 696 0050 0143     		orrs	r1, r0
 697 0052 1151     		str	r1, [r2, r4]
 162:strong-arm\src\sha256/sha256.c **** 			state->chunk_len += 1;
 698              		.loc 1 162 0
 699 0054 0133     		adds	r3, r3, #1
 700 0056 2366     		str	r3, [r4, #96]
 163:strong-arm\src\sha256/sha256.c **** 			--len;
 701              		.loc 1 163 0
 702 0058 013D     		subs	r5, r5, #1
 703              	.LVL106:
 164:strong-arm\src\sha256/sha256.c **** 			state->totallen += 1;
 704              		.loc 1 164 0
 705 005a 636E     		ldr	r3, [r4, #100]
 706 005c 0133     		adds	r3, r3, #1
 707 005e 6366     		str	r3, [r4, #100]
 161:strong-arm\src\sha256/sha256.c **** 			state->chunk_len += 1;
 708              		.loc 1 161 0
 709 0060 0136     		adds	r6, r6, #1
 710              	.LVL107:
 711              	.L25:
 159:strong-arm\src\sha256/sha256.c **** 		{
 712              		.loc 1 159 0
 713 0062 236E     		ldr	r3, [r4, #96]
 714 0064 3F2B     		cmp	r3, #63
 715 0066 01D8     		bhi	.L22
 159:strong-arm\src\sha256/sha256.c **** 		{
 716              		.loc 1 159 0 is_stmt 0 discriminator 1
 717 0068 002D     		cmp	r5, #0
 718 006a E8D1     		bne	.L23
 719              	.L22:
 165:strong-arm\src\sha256/sha256.c **** 		}
 166:strong-arm\src\sha256/sha256.c **** 		
ARM GAS  C:\Users\Ray\AppData\Local\Temp\ccM64sFg.s 			page 17


 167:strong-arm\src\sha256/sha256.c **** 		if (state->chunk_len == 64)
 720              		.loc 1 167 0 is_stmt 1
 721 006c 402B     		cmp	r3, #64
 722 006e 0FD1     		bne	.L21
 168:strong-arm\src\sha256/sha256.c **** 		{
 169:strong-arm\src\sha256/sha256.c **** 			compress (state->state, state->chunk);
 723              		.loc 1 169 0
 724 0070 203B     		subs	r3, r3, #32
 725 0072 9C46     		mov	ip, r3
 726 0074 A444     		add	ip, ip, r4
 727 0076 6346     		mov	r3, ip
 728 0078 0193     		str	r3, [sp, #4]
 729 007a 6146     		mov	r1, ip
 730 007c 2000     		movs	r0, r4
 731 007e FFF7FEFF 		bl	compress
 732              	.LVL108:
 170:strong-arm\src\sha256/sha256.c **** 			state->chunk_len = 0;
 733              		.loc 1 170 0
 734 0082 0023     		movs	r3, #0
 735 0084 2366     		str	r3, [r4, #96]
 171:strong-arm\src\sha256/sha256.c **** 			memset (state->chunk, 0, 64);
 736              		.loc 1 171 0
 737 0086 4022     		movs	r2, #64
 738 0088 0021     		movs	r1, #0
 739 008a 0198     		ldr	r0, [sp, #4]
 740 008c FFF7FEFF 		bl	memset
 741              	.LVL109:
 742              	.L21:
 157:strong-arm\src\sha256/sha256.c **** 	{
 743              		.loc 1 157 0
 744 0090 002D     		cmp	r5, #0
 745 0092 E6D1     		bne	.L25
 172:strong-arm\src\sha256/sha256.c **** 		}
 173:strong-arm\src\sha256/sha256.c **** 	}
 174:strong-arm\src\sha256/sha256.c **** 	
 175:strong-arm\src\sha256/sha256.c **** 	// Last data
 176:strong-arm\src\sha256/sha256.c **** 	if (last)
 746              		.loc 1 176 0
 747 0094 4B46     		mov	r3, r9
 748 0096 002B     		cmp	r3, #0
 749 0098 39D0     		beq	.L19
 177:strong-arm\src\sha256/sha256.c **** 	{
 178:strong-arm\src\sha256/sha256.c **** 		state->chunk[state->chunk_len>>2] |= (uint32_t)1 << (8*(3-(state->chunk_len&3)) + 7);
 750              		.loc 1 178 0
 751 009a 216E     		ldr	r1, [r4, #96]
 752 009c 8A08     		lsrs	r2, r1, #2
 753 009e 0323     		movs	r3, #3
 754 00a0 8B43     		bics	r3, r1
 755 00a2 DB00     		lsls	r3, r3, #3
 756 00a4 0733     		adds	r3, r3, #7
 757 00a6 0121     		movs	r1, #1
 758 00a8 9940     		lsls	r1, r1, r3
 759 00aa 1300     		movs	r3, r2
 760 00ac 0833     		adds	r3, r3, #8
 761 00ae 9B00     		lsls	r3, r3, #2
 762 00b0 1A59     		ldr	r2, [r3, r4]
 763 00b2 0A43     		orrs	r2, r1
ARM GAS  C:\Users\Ray\AppData\Local\Temp\ccM64sFg.s 			page 18


 764 00b4 1A51     		str	r2, [r3, r4]
 179:strong-arm\src\sha256/sha256.c **** 		
 180:strong-arm\src\sha256/sha256.c **** 		if ((state->totallen & 63) > 55)
 765              		.loc 1 180 0
 766 00b6 3F23     		movs	r3, #63
 767 00b8 626E     		ldr	r2, [r4, #100]
 768 00ba 1340     		ands	r3, r2
 769 00bc 372B     		cmp	r3, #55
 770 00be 0AD9     		bls	.L27
 181:strong-arm\src\sha256/sha256.c **** 		{
 182:strong-arm\src\sha256/sha256.c **** 			compress (state->state, state->chunk);
 771              		.loc 1 182 0
 772 00c0 2500     		movs	r5, r4
 773              	.LVL110:
 774 00c2 2035     		adds	r5, r5, #32
 775 00c4 2900     		movs	r1, r5
 776 00c6 2000     		movs	r0, r4
 777 00c8 FFF7FEFF 		bl	compress
 778              	.LVL111:
 183:strong-arm\src\sha256/sha256.c **** 			memset (state->chunk, 0, 64);
 779              		.loc 1 183 0
 780 00cc 4022     		movs	r2, #64
 781 00ce 0021     		movs	r1, #0
 782 00d0 2800     		movs	r0, r5
 783 00d2 FFF7FEFF 		bl	memset
 784              	.LVL112:
 785              	.L27:
 184:strong-arm\src\sha256/sha256.c **** 		}
 185:strong-arm\src\sha256/sha256.c **** 		
 186:strong-arm\src\sha256/sha256.c **** 		state->chunk[14] = (state->totallen >> 29);
 786              		.loc 1 186 0
 787 00d6 636E     		ldr	r3, [r4, #100]
 788 00d8 5A0F     		lsrs	r2, r3, #29
 789 00da A265     		str	r2, [r4, #88]
 187:strong-arm\src\sha256/sha256.c **** 		state->chunk[15] = state->totallen << 3;
 790              		.loc 1 187 0
 791 00dc DB00     		lsls	r3, r3, #3
 792 00de E365     		str	r3, [r4, #92]
 188:strong-arm\src\sha256/sha256.c **** 		compress (state->state, state->chunk);
 793              		.loc 1 188 0
 794 00e0 2100     		movs	r1, r4
 795 00e2 2031     		adds	r1, r1, #32
 796 00e4 2000     		movs	r0, r4
 797 00e6 FFF7FEFF 		bl	compress
 798              	.LVL113:
 799              	.LBB31:
 189:strong-arm\src\sha256/sha256.c **** 		
 190:strong-arm\src\sha256/sha256.c **** 		for (int i = 0; i < 8; ++i)
 800              		.loc 1 190 0
 801 00ea 0022     		movs	r2, #0
 802 00ec 0DE0     		b	.L28
 803              	.LVL114:
 804              	.L29:
 191:strong-arm\src\sha256/sha256.c **** 		{
 192:strong-arm\src\sha256/sha256.c **** 			*(hash++) = state->state[i] >> 24;
 805              		.loc 1 192 0 discriminator 3
 806 00ee 9300     		lsls	r3, r2, #2
ARM GAS  C:\Users\Ray\AppData\Local\Temp\ccM64sFg.s 			page 19


 807 00f0 1959     		ldr	r1, [r3, r4]
 808 00f2 090E     		lsrs	r1, r1, #24
 809 00f4 3970     		strb	r1, [r7]
 810              	.LVL115:
 193:strong-arm\src\sha256/sha256.c **** 			*(hash++) = state->state[i] >> 16;
 811              		.loc 1 193 0 discriminator 3
 812 00f6 1959     		ldr	r1, [r3, r4]
 813 00f8 090C     		lsrs	r1, r1, #16
 814 00fa 7970     		strb	r1, [r7, #1]
 815              	.LVL116:
 194:strong-arm\src\sha256/sha256.c **** 			*(hash++) = state->state[i] >> 8;
 816              		.loc 1 194 0 discriminator 3
 817 00fc 1959     		ldr	r1, [r3, r4]
 818 00fe 090A     		lsrs	r1, r1, #8
 819 0100 B970     		strb	r1, [r7, #2]
 820              	.LVL117:
 195:strong-arm\src\sha256/sha256.c **** 			*(hash++) = state->state[i];
 821              		.loc 1 195 0 discriminator 3
 822 0102 1B59     		ldr	r3, [r3, r4]
 823 0104 FB70     		strb	r3, [r7, #3]
 190:strong-arm\src\sha256/sha256.c **** 		{
 824              		.loc 1 190 0 discriminator 3
 825 0106 0132     		adds	r2, r2, #1
 826              	.LVL118:
 827              		.loc 1 195 0 discriminator 3
 828 0108 0437     		adds	r7, r7, #4
 829              	.LVL119:
 830              	.L28:
 190:strong-arm\src\sha256/sha256.c **** 		{
 831              		.loc 1 190 0 discriminator 1
 832 010a 072A     		cmp	r2, #7
 833 010c EFDD     		ble	.L29
 834              	.LVL120:
 835              	.L19:
 836              	.LBE31:
 196:strong-arm\src\sha256/sha256.c **** 		}
 197:strong-arm\src\sha256/sha256.c **** 	}
 198:strong-arm\src\sha256/sha256.c **** }
 837              		.loc 1 198 0
 838 010e 02B0     		add	sp, sp, #8
 839              		@ sp needed
 840              	.LVL121:
 841              	.LVL122:
 842              	.LVL123:
 843 0110 04BC     		pop	{r2}
 844 0112 9146     		mov	r9, r2
 845 0114 F0BD     		pop	{r4, r5, r6, r7, pc}
 846              	.L31:
 847 0116 C046     		.align	2
 848              	.L30:
 849 0118 00010000 		.word	.LANCHOR1
 850              		.cfi_endproc
 851              	.LFE6:
 852              		.size	SHA256_partial, .-SHA256_partial
 853              		.section	.rodata
 854              		.align	2
 855              		.set	.LANCHOR0,. + 0
ARM GAS  C:\Users\Ray\AppData\Local\Temp\ccM64sFg.s 			page 20


 856              		.set	.LANCHOR1,. + 256
 857              		.type	kk, %object
 858              		.size	kk, 256
 859              	kk:
 860 0000 982F8A42 		.word	1116352408
 861 0004 91443771 		.word	1899447441
 862 0008 CFFBC0B5 		.word	-1245643825
 863 000c A5DBB5E9 		.word	-373957723
 864 0010 5BC25639 		.word	961987163
 865 0014 F111F159 		.word	1508970993
 866 0018 A4823F92 		.word	-1841331548
 867 001c D55E1CAB 		.word	-1424204075
 868 0020 98AA07D8 		.word	-670586216
 869 0024 015B8312 		.word	310598401
 870 0028 BE853124 		.word	607225278
 871 002c C37D0C55 		.word	1426881987
 872 0030 745DBE72 		.word	1925078388
 873 0034 FEB1DE80 		.word	-2132889090
 874 0038 A706DC9B 		.word	-1680079193
 875 003c 74F19BC1 		.word	-1046744716
 876 0040 C1699BE4 		.word	-459576895
 877 0044 8647BEEF 		.word	-272742522
 878 0048 C69DC10F 		.word	264347078
 879 004c CCA10C24 		.word	604807628
 880 0050 6F2CE92D 		.word	770255983
 881 0054 AA84744A 		.word	1249150122
 882 0058 DCA9B05C 		.word	1555081692
 883 005c DA88F976 		.word	1996064986
 884 0060 52513E98 		.word	-1740746414
 885 0064 6DC631A8 		.word	-1473132947
 886 0068 C82703B0 		.word	-1341970488
 887 006c C77F59BF 		.word	-1084653625
 888 0070 F30BE0C6 		.word	-958395405
 889 0074 4791A7D5 		.word	-710438585
 890 0078 5163CA06 		.word	113926993
 891 007c 67292914 		.word	338241895
 892 0080 850AB727 		.word	666307205
 893 0084 38211B2E 		.word	773529912
 894 0088 FC6D2C4D 		.word	1294757372
 895 008c 130D3853 		.word	1396182291
 896 0090 54730A65 		.word	1695183700
 897 0094 BB0A6A76 		.word	1986661051
 898 0098 2EC9C281 		.word	-2117940946
 899 009c 852C7292 		.word	-1838011259
 900 00a0 A1E8BFA2 		.word	-1564481375
 901 00a4 4B661AA8 		.word	-1474664885
 902 00a8 708B4BC2 		.word	-1035236496
 903 00ac A3516CC7 		.word	-949202525
 904 00b0 19E892D1 		.word	-778901479
 905 00b4 240699D6 		.word	-694614492
 906 00b8 85350EF4 		.word	-200395387
 907 00bc 70A06A10 		.word	275423344
 908 00c0 16C1A419 		.word	430227734
 909 00c4 086C371E 		.word	506948616
 910 00c8 4C774827 		.word	659060556
 911 00cc B5BCB034 		.word	883997877
 912 00d0 B30C1C39 		.word	958139571
ARM GAS  C:\Users\Ray\AppData\Local\Temp\ccM64sFg.s 			page 21


 913 00d4 4AAAD84E 		.word	1322822218
 914 00d8 4FCA9C5B 		.word	1537002063
 915 00dc F36F2E68 		.word	1747873779
 916 00e0 EE828F74 		.word	1955562222
 917 00e4 6F63A578 		.word	2024104815
 918 00e8 1478C884 		.word	-2067236844
 919 00ec 0802C78C 		.word	-1933114872
 920 00f0 FAFFBE90 		.word	-1866530822
 921 00f4 EB6C50A4 		.word	-1538233109
 922 00f8 F7A3F9BE 		.word	-1090935817
 923 00fc F27871C6 		.word	-965641998
 924              	.LC0:
 925 0100 67E6096A 		.word	1779033703
 926 0104 85AE67BB 		.word	-1150833019
 927 0108 72F36E3C 		.word	1013904242
 928 010c 3AF54FA5 		.word	-1521486534
 929 0110 7F520E51 		.word	1359893119
 930 0114 8C68059B 		.word	-1694144372
 931 0118 ABD9831F 		.word	528734635
 932 011c 19CDE05B 		.word	1541459225
 933              		.type	initial_state, %object
 934              		.size	initial_state, 32
 935              	initial_state:
 936 0120 67E6096A 		.word	1779033703
 937 0124 85AE67BB 		.word	-1150833019
 938 0128 72F36E3C 		.word	1013904242
 939 012c 3AF54FA5 		.word	-1521486534
 940 0130 7F520E51 		.word	1359893119
 941 0134 8C68059B 		.word	-1694144372
 942 0138 ABD9831F 		.word	528734635
 943 013c 19CDE05B 		.word	1541459225
 944              		.text
 945              	.Letext0:
 946              		.file 2 "c:\\program files (x86)\\cypress\\psoc creator\\4.1\\psoc creator\\import\\gnu\\arm\\5.4.
 947              		.file 3 "c:\\program files (x86)\\cypress\\psoc creator\\4.1\\psoc creator\\import\\gnu\\arm\\5.4.
 948              		.file 4 ".\\strong-arm\\include/strong-arm/sha256.h"