ARM GAS  C:\Users\Ray\AppData\Local\Temp\ccnKUjQ7.s 			page 1


   1              		.syntax unified
   2              		.cpu cortex-m0
   3              		.fpu softvfp
   4              		.eabi_attribute 20, 1
   5              		.eabi_attribute 21, 1
   6              		.eabi_attribute 23, 3
   7              		.eabi_attribute 24, 1
   8              		.eabi_attribute 25, 1
   9              		.eabi_attribute 26, 1
  10              		.eabi_attribute 30, 1
  11              		.eabi_attribute 34, 0
  12              		.eabi_attribute 18, 4
  13              		.thumb
  14              		.syntax unified
  15              		.file	"threefish.c"
  16              		.text
  17              	.Ltext0:
  18              		.cfi_sections	.debug_frame
  19              		.section	.text.unpack_uint64_little,"ax",%progbits
  20              		.align	2
  21              		.code	16
  22              		.thumb_func
  23              		.type	unpack_uint64_little, %function
  24              	unpack_uint64_little:
  25              	.LFB0:
  26              		.file 1 "strong-arm\\src\\threefish\\threefish.c"
   1:strong-arm\src\threefish/threefish.c **** /* Currently, only 512-bit mode is implemented. */
   2:strong-arm\src\threefish/threefish.c **** #include <strong-arm/threefish.h>
   3:strong-arm\src\threefish/threefish.c **** 
   4:strong-arm\src\threefish/threefish.c **** 
   5:strong-arm\src\threefish/threefish.c **** /* Rotation Constants */
   6:strong-arm\src\threefish/threefish.c **** const uint8_t R8[8][4] = {
   7:strong-arm\src\threefish/threefish.c **** 	{46, 36, 19, 37},
   8:strong-arm\src\threefish/threefish.c **** 	{33, 27, 14, 42},
   9:strong-arm\src\threefish/threefish.c **** 	{17, 49, 36, 39},
  10:strong-arm\src\threefish/threefish.c **** 	{44, 9, 54, 56},
  11:strong-arm\src\threefish/threefish.c **** 	{39, 30, 34, 24},
  12:strong-arm\src\threefish/threefish.c **** 	{13, 50, 10, 17},
  13:strong-arm\src\threefish/threefish.c **** 	{25, 29, 39, 43},
  14:strong-arm\src\threefish/threefish.c **** 	{8, 35, 56, 22}
  15:strong-arm\src\threefish/threefish.c **** };
  16:strong-arm\src\threefish/threefish.c **** 
  17:strong-arm\src\threefish/threefish.c **** /* C240 */
  18:strong-arm\src\threefish/threefish.c **** const uint64_t C240 = 0x1BD11BDAA9FC1A22ull;
  19:strong-arm\src\threefish/threefish.c **** 
  20:strong-arm\src\threefish/threefish.c **** 
  21:strong-arm\src\threefish/threefish.c **** /* Rotate Left */
  22:strong-arm\src\threefish/threefish.c **** #define ROL(x, n) (((x) << (n)) | ((x) >> (64 - (n))))
  23:strong-arm\src\threefish/threefish.c **** 
  24:strong-arm\src\threefish/threefish.c **** /* Rotate Right */
  25:strong-arm\src\threefish/threefish.c **** #define ROR(x, n) (((x) >> (n)) | ((x) << (64 - (n))))
  26:strong-arm\src\threefish/threefish.c **** 
  27:strong-arm\src\threefish/threefish.c **** 
  28:strong-arm\src\threefish/threefish.c **** static uint64_t unpack_uint64_little (uint8_t const src[static 8])
  29:strong-arm\src\threefish/threefish.c **** {
  27              		.loc 1 29 0
  28              		.cfi_startproc
ARM GAS  C:\Users\Ray\AppData\Local\Temp\ccnKUjQ7.s 			page 2


  29              		@ args = 0, pretend = 0, frame = 0
  30              		@ frame_needed = 0, uses_anonymous_args = 0
  31              		@ link register save eliminated.
  32              	.LVL0:
  33 0000 0300     		movs	r3, r0
  30:strong-arm\src\threefish/threefish.c **** 	return   ((uint64_t)(src[0]) <<  0)
  34              		.loc 1 30 0
  35 0002 0278     		ldrb	r2, [r0]
  31:strong-arm\src\threefish/threefish.c **** 	       | ((uint64_t)(src[1]) <<  8)
  36              		.loc 1 31 0
  37 0004 4078     		ldrb	r0, [r0, #1]
  38              	.LVL1:
  39 0006 0002     		lsls	r0, r0, #8
  40 0008 1043     		orrs	r0, r2
  32:strong-arm\src\threefish/threefish.c **** 	       | ((uint64_t)(src[2]) << 16)
  41              		.loc 1 32 0
  42 000a 9A78     		ldrb	r2, [r3, #2]
  43 000c 1204     		lsls	r2, r2, #16
  44 000e 1043     		orrs	r0, r2
  33:strong-arm\src\threefish/threefish.c **** 	       | ((uint64_t)(src[3]) << 24)
  45              		.loc 1 33 0
  46 0010 DA78     		ldrb	r2, [r3, #3]
  47 0012 1206     		lsls	r2, r2, #24
  48 0014 1043     		orrs	r0, r2
  34:strong-arm\src\threefish/threefish.c **** 	       | ((uint64_t)(src[4]) << 32)
  49              		.loc 1 34 0
  50 0016 1A79     		ldrb	r2, [r3, #4]
  35:strong-arm\src\threefish/threefish.c **** 	       | ((uint64_t)(src[5]) << 40)
  51              		.loc 1 35 0
  52 0018 5979     		ldrb	r1, [r3, #5]
  53 001a 0902     		lsls	r1, r1, #8
  54 001c 1143     		orrs	r1, r2
  36:strong-arm\src\threefish/threefish.c **** 	       | ((uint64_t)(src[6]) << 48)
  55              		.loc 1 36 0
  56 001e 9A79     		ldrb	r2, [r3, #6]
  57 0020 1204     		lsls	r2, r2, #16
  58 0022 1143     		orrs	r1, r2
  37:strong-arm\src\threefish/threefish.c **** 	       | ((uint64_t)(src[7]) << 56);
  59              		.loc 1 37 0
  60 0024 DB79     		ldrb	r3, [r3, #7]
  61              	.LVL2:
  62 0026 1B06     		lsls	r3, r3, #24
  30:strong-arm\src\threefish/threefish.c **** 	       | ((uint64_t)(src[1]) <<  8)
  63              		.loc 1 30 0
  64 0028 1943     		orrs	r1, r3
  38:strong-arm\src\threefish/threefish.c **** }
  65              		.loc 1 38 0
  66              		@ sp needed
  67 002a 7047     		bx	lr
  68              		.cfi_endproc
  69              	.LFE0:
  70              		.size	unpack_uint64_little, .-unpack_uint64_little
  71              		.section	.text.pack_uint64_little,"ax",%progbits
  72              		.align	2
  73              		.code	16
  74              		.thumb_func
  75              		.type	pack_uint64_little, %function
ARM GAS  C:\Users\Ray\AppData\Local\Temp\ccnKUjQ7.s 			page 3


  76              	pack_uint64_little:
  77              	.LFB1:
  39:strong-arm\src\threefish/threefish.c **** 
  40:strong-arm\src\threefish/threefish.c **** 
  41:strong-arm\src\threefish/threefish.c **** static void pack_uint64_little (uint8_t dst[static 8], uint64_t src)
  42:strong-arm\src\threefish/threefish.c **** {
  78              		.loc 1 42 0
  79              		.cfi_startproc
  80              		@ args = 0, pretend = 0, frame = 0
  81              		@ frame_needed = 0, uses_anonymous_args = 0
  82              		@ link register save eliminated.
  83              	.LVL3:
  43:strong-arm\src\threefish/threefish.c **** 	dst[0] = (uint8_t)(src >>  0);
  84              		.loc 1 43 0
  85 0000 0270     		strb	r2, [r0]
  44:strong-arm\src\threefish/threefish.c **** 	dst[1] = (uint8_t)(src >>  8);
  86              		.loc 1 44 0
  87 0002 110A     		lsrs	r1, r2, #8
  88 0004 4170     		strb	r1, [r0, #1]
  45:strong-arm\src\threefish/threefish.c **** 	dst[2] = (uint8_t)(src >> 16);
  89              		.loc 1 45 0
  90 0006 110C     		lsrs	r1, r2, #16
  91 0008 8170     		strb	r1, [r0, #2]
  46:strong-arm\src\threefish/threefish.c **** 	dst[3] = (uint8_t)(src >> 24);
  92              		.loc 1 46 0
  93 000a 120E     		lsrs	r2, r2, #24
  94              	.LVL4:
  95 000c C270     		strb	r2, [r0, #3]
  47:strong-arm\src\threefish/threefish.c **** 	dst[4] = (uint8_t)(src >> 32);
  96              		.loc 1 47 0
  97 000e 0371     		strb	r3, [r0, #4]
  48:strong-arm\src\threefish/threefish.c **** 	dst[5] = (uint8_t)(src >> 40);
  98              		.loc 1 48 0
  99 0010 1A0A     		lsrs	r2, r3, #8
 100 0012 4271     		strb	r2, [r0, #5]
  49:strong-arm\src\threefish/threefish.c **** 	dst[6] = (uint8_t)(src >> 48);
 101              		.loc 1 49 0
 102 0014 1A0C     		lsrs	r2, r3, #16
 103 0016 8271     		strb	r2, [r0, #6]
  50:strong-arm\src\threefish/threefish.c **** 	dst[7] = (uint8_t)(src >> 56);
 104              		.loc 1 50 0
 105 0018 1B0E     		lsrs	r3, r3, #24
 106 001a C371     		strb	r3, [r0, #7]
  51:strong-arm\src\threefish/threefish.c **** }
 107              		.loc 1 51 0
 108              		@ sp needed
 109 001c 7047     		bx	lr
 110              		.cfi_endproc
 111              	.LFE1:
 112              		.size	pack_uint64_little, .-pack_uint64_little
 113 001e C046     		.section	.text.bytes_to_words,"ax",%progbits
 114              		.align	2
 115              		.code	16
 116              		.thumb_func
 117              		.type	bytes_to_words, %function
 118              	bytes_to_words:
 119              	.LFB2:
ARM GAS  C:\Users\Ray\AppData\Local\Temp\ccnKUjQ7.s 			page 4


  52:strong-arm\src\threefish/threefish.c **** 
  53:strong-arm\src\threefish/threefish.c **** 
  54:strong-arm\src\threefish/threefish.c **** static void bytes_to_words (uint64_t *dst, uint8_t const *src, uint32_t count)
  55:strong-arm\src\threefish/threefish.c **** {
 120              		.loc 1 55 0
 121              		.cfi_startproc
 122              		@ args = 0, pretend = 0, frame = 0
 123              		@ frame_needed = 0, uses_anonymous_args = 0
 124              	.LVL5:
 125 0000 F8B5     		push	{r3, r4, r5, r6, r7, lr}
 126              		.cfi_def_cfa_offset 24
 127              		.cfi_offset 3, -24
 128              		.cfi_offset 4, -20
 129              		.cfi_offset 5, -16
 130              		.cfi_offset 6, -12
 131              		.cfi_offset 7, -8
 132              		.cfi_offset 14, -4
 133 0002 0600     		movs	r6, r0
 134 0004 0D00     		movs	r5, r1
 135 0006 1400     		movs	r4, r2
  56:strong-arm\src\threefish/threefish.c **** 	for (; count; --count)
 136              		.loc 1 56 0
 137 0008 09E0     		b	.L4
 138              	.LVL6:
 139              	.L5:
  57:strong-arm\src\threefish/threefish.c **** 	{
  58:strong-arm\src\threefish/threefish.c **** 		*(dst++) = unpack_uint64_little (src);
 140              		.loc 1 58 0 discriminator 2
 141 000a 3700     		movs	r7, r6
 142 000c 0837     		adds	r7, r7, #8
 143              	.LVL7:
 144 000e 2800     		movs	r0, r5
 145 0010 FFF7FEFF 		bl	unpack_uint64_little
 146              	.LVL8:
 147 0014 3060     		str	r0, [r6]
 148 0016 7160     		str	r1, [r6, #4]
  59:strong-arm\src\threefish/threefish.c **** 		src += 8;
 149              		.loc 1 59 0 discriminator 2
 150 0018 0835     		adds	r5, r5, #8
 151              	.LVL9:
  56:strong-arm\src\threefish/threefish.c **** 	for (; count; --count)
 152              		.loc 1 56 0 discriminator 2
 153 001a 013C     		subs	r4, r4, #1
 154              	.LVL10:
  58:strong-arm\src\threefish/threefish.c **** 		src += 8;
 155              		.loc 1 58 0 discriminator 2
 156 001c 3E00     		movs	r6, r7
 157              	.LVL11:
 158              	.L4:
  56:strong-arm\src\threefish/threefish.c **** 	{
 159              		.loc 1 56 0 discriminator 1
 160 001e 002C     		cmp	r4, #0
 161 0020 F3D1     		bne	.L5
  60:strong-arm\src\threefish/threefish.c **** 	}
  61:strong-arm\src\threefish/threefish.c **** }
 162              		.loc 1 61 0
 163              		@ sp needed
ARM GAS  C:\Users\Ray\AppData\Local\Temp\ccnKUjQ7.s 			page 5


 164              	.LVL12:
 165              	.LVL13:
 166              	.LVL14:
 167 0022 F8BD     		pop	{r3, r4, r5, r6, r7, pc}
 168              		.cfi_endproc
 169              	.LFE2:
 170              		.size	bytes_to_words, .-bytes_to_words
 171              		.section	.text.words_to_bytes,"ax",%progbits
 172              		.align	2
 173              		.code	16
 174              		.thumb_func
 175              		.type	words_to_bytes, %function
 176              	words_to_bytes:
 177              	.LFB3:
  62:strong-arm\src\threefish/threefish.c **** 
  63:strong-arm\src\threefish/threefish.c **** 
  64:strong-arm\src\threefish/threefish.c **** static void words_to_bytes (uint8_t *dst, uint64_t const *src, uint32_t count)
  65:strong-arm\src\threefish/threefish.c **** {
 178              		.loc 1 65 0
 179              		.cfi_startproc
 180              		@ args = 0, pretend = 0, frame = 0
 181              		@ frame_needed = 0, uses_anonymous_args = 0
 182              	.LVL15:
 183 0000 70B5     		push	{r4, r5, r6, lr}
 184              		.cfi_def_cfa_offset 16
 185              		.cfi_offset 4, -16
 186              		.cfi_offset 5, -12
 187              		.cfi_offset 6, -8
 188              		.cfi_offset 14, -4
 189 0002 0500     		movs	r5, r0
 190 0004 0E00     		movs	r6, r1
 191 0006 1400     		movs	r4, r2
  66:strong-arm\src\threefish/threefish.c **** 	for (; count; --count)
 192              		.loc 1 66 0
 193 0008 05E0     		b	.L7
 194              	.LVL16:
 195              	.L8:
  67:strong-arm\src\threefish/threefish.c **** 	{
  68:strong-arm\src\threefish/threefish.c **** 		pack_uint64_little (dst, *src);
 196              		.loc 1 68 0 discriminator 2
 197 000a 0CCE     		ldmia	r6!, {r2, r3}
 198              	.LVL17:
 199 000c 2800     		movs	r0, r5
 200 000e FFF7FEFF 		bl	pack_uint64_little
 201              	.LVL18:
  69:strong-arm\src\threefish/threefish.c **** 		src += 1;
  70:strong-arm\src\threefish/threefish.c **** 		dst += 8;
 202              		.loc 1 70 0 discriminator 2
 203 0012 0835     		adds	r5, r5, #8
 204              	.LVL19:
  66:strong-arm\src\threefish/threefish.c **** 	{
 205              		.loc 1 66 0 discriminator 2
 206 0014 013C     		subs	r4, r4, #1
 207              	.LVL20:
 208              	.L7:
  66:strong-arm\src\threefish/threefish.c **** 	{
 209              		.loc 1 66 0 is_stmt 0 discriminator 1
ARM GAS  C:\Users\Ray\AppData\Local\Temp\ccnKUjQ7.s 			page 6


 210 0016 002C     		cmp	r4, #0
 211 0018 F7D1     		bne	.L8
  71:strong-arm\src\threefish/threefish.c **** 	}
  72:strong-arm\src\threefish/threefish.c **** }
 212              		.loc 1 72 0 is_stmt 1
 213              		@ sp needed
 214              	.LVL21:
 215              	.LVL22:
 216              	.LVL23:
 217 001a 70BD     		pop	{r4, r5, r6, pc}
 218              		.cfi_endproc
 219              	.LFE3:
 220              		.size	words_to_bytes, .-words_to_bytes
 221              		.section	.text.mix8,"ax",%progbits
 222              		.align	2
 223              		.code	16
 224              		.thumb_func
 225              		.type	mix8, %function
 226              	mix8:
 227              	.LFB4:
  73:strong-arm\src\threefish/threefish.c **** 
  74:strong-arm\src\threefish/threefish.c **** 
  75:strong-arm\src\threefish/threefish.c **** /* Mix function for N_w = 8 */
  76:strong-arm\src\threefish/threefish.c **** static void mix8 (uint64_t *y0, uint64_t *y1, uint8_t roundnum, uint8_t j, uint64_t x0, uint64_t x1
  77:strong-arm\src\threefish/threefish.c **** {
 228              		.loc 1 77 0
 229              		.cfi_startproc
 230              		@ args = 16, pretend = 0, frame = 8
 231              		@ frame_needed = 0, uses_anonymous_args = 0
 232              	.LVL24:
 233 0000 F0B5     		push	{r4, r5, r6, r7, lr}
 234              		.cfi_def_cfa_offset 20
 235              		.cfi_offset 4, -20
 236              		.cfi_offset 5, -16
 237              		.cfi_offset 6, -12
 238              		.cfi_offset 7, -8
 239              		.cfi_offset 14, -4
 240 0002 4746     		mov	r7, r8
 241 0004 80B4     		push	{r7}
 242              		.cfi_def_cfa_offset 24
 243              		.cfi_offset 8, -24
 244 0006 82B0     		sub	sp, sp, #8
 245              		.cfi_def_cfa_offset 32
 246 0008 0A9E     		ldr	r6, [sp, #40]
 247 000a 0B9F     		ldr	r7, [sp, #44]
  78:strong-arm\src\threefish/threefish.c **** 	*y0 = x0 + x1;
 248              		.loc 1 78 0
 249 000c 089C     		ldr	r4, [sp, #32]
 250 000e 099D     		ldr	r5, [sp, #36]
 251 0010 A419     		adds	r4, r4, r6
 252 0012 7D41     		adcs	r5, r5, r7
 253 0014 0094     		str	r4, [sp]
 254 0016 0195     		str	r5, [sp, #4]
 255 0018 0460     		str	r4, [r0]
 256 001a 4560     		str	r5, [r0, #4]
  79:strong-arm\src\threefish/threefish.c **** 	*y1 = ROL (x1, R8[roundnum&7][j]) ^ *y0;
 257              		.loc 1 79 0
ARM GAS  C:\Users\Ray\AppData\Local\Temp\ccnKUjQ7.s 			page 7


 258 001c 0720     		movs	r0, #7
 259              	.LVL25:
 260 001e 0240     		ands	r2, r0
 261              	.LVL26:
 262 0020 9200     		lsls	r2, r2, #2
 263 0022 2748     		ldr	r0, .L14
 264 0024 8218     		adds	r2, r0, r2
 265 0026 D35C     		ldrb	r3, [r2, r3]
 266              	.LVL27:
 267 0028 2022     		movs	r2, #32
 268 002a 5242     		rsbs	r2, r2, #0
 269 002c 9A18     		adds	r2, r3, r2
 270 002e 03D4     		bmi	.L10
 271 0030 3000     		movs	r0, r6
 272 0032 9040     		lsls	r0, r0, r2
 273 0034 0200     		movs	r2, r0
 274 0036 06E0     		b	.L11
 275              	.L10:
 276 0038 2022     		movs	r2, #32
 277 003a D21A     		subs	r2, r2, r3
 278 003c 3000     		movs	r0, r6
 279 003e D040     		lsrs	r0, r0, r2
 280 0040 3A00     		movs	r2, r7
 281 0042 9A40     		lsls	r2, r2, r3
 282 0044 0243     		orrs	r2, r0
 283              	.L11:
 284 0046 3000     		movs	r0, r6
 285 0048 9840     		lsls	r0, r0, r3
 286 004a 5C42     		rsbs	r4, r3, #0
 287 004c A446     		mov	ip, r4
 288 004e 3F24     		movs	r4, #63
 289 0050 A046     		mov	r8, r4
 290 0052 6446     		mov	r4, ip
 291 0054 4546     		mov	r5, r8
 292 0056 2C40     		ands	r4, r5
 293 0058 203C     		subs	r4, r4, #32
 294 005a A446     		mov	ip, r4
 295 005c 04D4     		bmi	.L12
 296 005e 3C00     		movs	r4, r7
 297 0060 6546     		mov	r5, ip
 298 0062 EC40     		lsrs	r4, r4, r5
 299 0064 A446     		mov	ip, r4
 300 0066 17E0     		b	.L13
 301              	.L12:
 302 0068 5C42     		rsbs	r4, r3, #0
 303 006a A446     		mov	ip, r4
 304 006c 3F24     		movs	r4, #63
 305 006e A046     		mov	r8, r4
 306 0070 6446     		mov	r4, ip
 307 0072 4546     		mov	r5, r8
 308 0074 2C40     		ands	r4, r5
 309 0076 A446     		mov	ip, r4
 310 0078 2024     		movs	r4, #32
 311 007a 6546     		mov	r5, ip
 312 007c 641B     		subs	r4, r4, r5
 313 007e A046     		mov	r8, r4
 314 0080 3C00     		movs	r4, r7
ARM GAS  C:\Users\Ray\AppData\Local\Temp\ccnKUjQ7.s 			page 8


 315 0082 4546     		mov	r5, r8
 316 0084 AC40     		lsls	r4, r4, r5
 317 0086 A046     		mov	r8, r4
 318 0088 3400     		movs	r4, r6
 319 008a 6546     		mov	r5, ip
 320 008c EC40     		lsrs	r4, r4, r5
 321 008e A446     		mov	ip, r4
 322 0090 4446     		mov	r4, r8
 323 0092 6546     		mov	r5, ip
 324 0094 2C43     		orrs	r4, r5
 325 0096 A446     		mov	ip, r4
 326              	.L13:
 327 0098 5B42     		rsbs	r3, r3, #0
 328 009a 3F26     		movs	r6, #63
 329 009c 3340     		ands	r3, r6
 330 009e 3E00     		movs	r6, r7
 331 00a0 DE40     		lsrs	r6, r6, r3
 332 00a2 6346     		mov	r3, ip
 333 00a4 0343     		orrs	r3, r0
 334 00a6 1800     		movs	r0, r3
 335 00a8 3300     		movs	r3, r6
 336 00aa 1343     		orrs	r3, r2
 337 00ac 009C     		ldr	r4, [sp]
 338 00ae 019D     		ldr	r5, [sp, #4]
 339 00b0 6040     		eors	r0, r4
 340 00b2 6B40     		eors	r3, r5
 341 00b4 0860     		str	r0, [r1]
 342 00b6 4B60     		str	r3, [r1, #4]
  80:strong-arm\src\threefish/threefish.c **** }
 343              		.loc 1 80 0
 344 00b8 02B0     		add	sp, sp, #8
 345              		@ sp needed
 346 00ba 04BC     		pop	{r2}
 347 00bc 9046     		mov	r8, r2
 348 00be F0BD     		pop	{r4, r5, r6, r7, pc}
 349              	.L15:
 350              		.align	2
 351              	.L14:
 352 00c0 00000000 		.word	.LANCHOR0
 353              		.cfi_endproc
 354              	.LFE4:
 355              		.size	mix8, .-mix8
 356              		.section	.text.unmix8,"ax",%progbits
 357              		.align	2
 358              		.code	16
 359              		.thumb_func
 360              		.type	unmix8, %function
 361              	unmix8:
 362              	.LFB5:
  81:strong-arm\src\threefish/threefish.c **** 
  82:strong-arm\src\threefish/threefish.c **** 
  83:strong-arm\src\threefish/threefish.c **** /* Inverse Mix function for N_w = 8 */
  84:strong-arm\src\threefish/threefish.c **** static void unmix8 (uint64_t *x0, uint64_t *x1, uint8_t roundnum, uint8_t j, uint64_t y0, uint64_t 
  85:strong-arm\src\threefish/threefish.c **** {
 363              		.loc 1 85 0
 364              		.cfi_startproc
 365              		@ args = 16, pretend = 0, frame = 0
ARM GAS  C:\Users\Ray\AppData\Local\Temp\ccnKUjQ7.s 			page 9


 366              		@ frame_needed = 0, uses_anonymous_args = 0
 367              	.LVL28:
 368 0000 F0B5     		push	{r4, r5, r6, r7, lr}
 369              		.cfi_def_cfa_offset 20
 370              		.cfi_offset 4, -20
 371              		.cfi_offset 5, -16
 372              		.cfi_offset 6, -12
 373              		.cfi_offset 7, -8
 374              		.cfi_offset 14, -4
 375 0002 5F46     		mov	r7, fp
 376 0004 5646     		mov	r6, r10
 377 0006 4D46     		mov	r5, r9
 378 0008 4446     		mov	r4, r8
 379 000a F0B4     		push	{r4, r5, r6, r7}
 380              		.cfi_def_cfa_offset 36
 381              		.cfi_offset 8, -36
 382              		.cfi_offset 9, -32
 383              		.cfi_offset 10, -28
 384              		.cfi_offset 11, -24
 385 000c 8446     		mov	ip, r0
 386 000e 8946     		mov	r9, r1
  86:strong-arm\src\threefish/threefish.c **** 	*x1 = ROR (y1 ^ y0, R8[roundnum&7][j]);
 387              		.loc 1 86 0
 388 0010 0B9D     		ldr	r5, [sp, #44]
 389 0012 0999     		ldr	r1, [sp, #36]
 390              	.LVL29:
 391 0014 4D40     		eors	r5, r1
 392 0016 0C9C     		ldr	r4, [sp, #48]
 393 0018 0A99     		ldr	r1, [sp, #40]
 394 001a 4C40     		eors	r4, r1
 395 001c A046     		mov	r8, r4
 396 001e 0726     		movs	r6, #7
 397 0020 3240     		ands	r2, r6
 398              	.LVL30:
 399 0022 9200     		lsls	r2, r2, #2
 400 0024 224E     		ldr	r6, .L21
 401 0026 B218     		adds	r2, r6, r2
 402 0028 D35C     		ldrb	r3, [r2, r3]
 403              	.LVL31:
 404 002a 2022     		movs	r2, #32
 405 002c 5242     		rsbs	r2, r2, #0
 406 002e 9A18     		adds	r2, r3, r2
 407 0030 02D4     		bmi	.L17
 408 0032 D440     		lsrs	r4, r4, r2
 409 0034 2200     		movs	r2, r4
 410 0036 06E0     		b	.L18
 411              	.L17:
 412 0038 2022     		movs	r2, #32
 413 003a D21A     		subs	r2, r2, r3
 414 003c 2600     		movs	r6, r4
 415 003e 9640     		lsls	r6, r6, r2
 416 0040 2A00     		movs	r2, r5
 417 0042 DA40     		lsrs	r2, r2, r3
 418 0044 3243     		orrs	r2, r6
 419              	.L18:
 420 0046 4446     		mov	r4, r8
 421 0048 DC40     		lsrs	r4, r4, r3
ARM GAS  C:\Users\Ray\AppData\Local\Temp\ccnKUjQ7.s 			page 10


 422 004a 5E42     		rsbs	r6, r3, #0
 423 004c 3F27     		movs	r7, #63
 424 004e 3E40     		ands	r6, r7
 425 0050 203E     		subs	r6, r6, #32
 426 0052 B246     		mov	r10, r6
 427 0054 04D4     		bmi	.L19
 428 0056 2900     		movs	r1, r5
 429 0058 5046     		mov	r0, r10
 430              	.LVL32:
 431 005a 8140     		lsls	r1, r1, r0
 432 005c 0F00     		movs	r7, r1
 433 005e 0EE0     		b	.L20
 434              	.LVL33:
 435              	.L19:
 436 0060 5E42     		rsbs	r6, r3, #0
 437 0062 3F27     		movs	r7, #63
 438 0064 3740     		ands	r7, r6
 439 0066 BA46     		mov	r10, r7
 440 0068 2026     		movs	r6, #32
 441 006a F61B     		subs	r6, r6, r7
 442 006c 2900     		movs	r1, r5
 443 006e F140     		lsrs	r1, r1, r6
 444 0070 8B46     		mov	fp, r1
 445 0072 4146     		mov	r1, r8
 446 0074 5046     		mov	r0, r10
 447              	.LVL34:
 448 0076 8140     		lsls	r1, r1, r0
 449 0078 0F00     		movs	r7, r1
 450 007a 5946     		mov	r1, fp
 451 007c 0F43     		orrs	r7, r1
 452              	.L20:
 453 007e 5B42     		rsbs	r3, r3, #0
 454 0080 3F21     		movs	r1, #63
 455 0082 0B40     		ands	r3, r1
 456 0084 9D40     		lsls	r5, r5, r3
 457 0086 2A43     		orrs	r2, r5
 458 0088 3B00     		movs	r3, r7
 459 008a 2343     		orrs	r3, r4
 460 008c 1600     		movs	r6, r2
 461 008e 1F00     		movs	r7, r3
 462 0090 4B46     		mov	r3, r9
 463 0092 1E60     		str	r6, [r3]
 464 0094 5F60     		str	r7, [r3, #4]
  87:strong-arm\src\threefish/threefish.c **** 	*x0 = y0 - *x1;
 465              		.loc 1 87 0
 466 0096 099C     		ldr	r4, [sp, #36]
 467 0098 0A9D     		ldr	r5, [sp, #40]
 468 009a A41B     		subs	r4, r4, r6
 469 009c BD41     		sbcs	r5, r5, r7
 470 009e 6346     		mov	r3, ip
 471 00a0 1C60     		str	r4, [r3]
 472 00a2 5D60     		str	r5, [r3, #4]
  88:strong-arm\src\threefish/threefish.c **** }
 473              		.loc 1 88 0
 474              		@ sp needed
 475              	.LVL35:
 476 00a4 3CBC     		pop	{r2, r3, r4, r5}
ARM GAS  C:\Users\Ray\AppData\Local\Temp\ccnKUjQ7.s 			page 11


 477 00a6 9046     		mov	r8, r2
 478 00a8 9946     		mov	r9, r3
 479 00aa A246     		mov	r10, r4
 480 00ac AB46     		mov	fp, r5
 481 00ae F0BD     		pop	{r4, r5, r6, r7, pc}
 482              	.L22:
 483              		.align	2
 484              	.L21:
 485 00b0 00000000 		.word	.LANCHOR0
 486              		.cfi_endproc
 487              	.LFE5:
 488              		.size	unmix8, .-unmix8
 489              		.section	.text.threefish512_encrypt_block,"ax",%progbits
 490              		.align	2
 491              		.global	threefish512_encrypt_block
 492              		.code	16
 493              		.thumb_func
 494              		.type	threefish512_encrypt_block, %function
 495              	threefish512_encrypt_block:
 496              	.LFB6:
  89:strong-arm\src\threefish/threefish.c **** 
  90:strong-arm\src\threefish/threefish.c **** 
  91:strong-arm\src\threefish/threefish.c **** void threefish512_encrypt_block (uint8_t ciphertext[static 64], uint8_t const key[static 64], uint8
  92:strong-arm\src\threefish/threefish.c **** {
 497              		.loc 1 92 0
 498              		.cfi_startproc
 499              		@ args = 0, pretend = 0, frame = 200
 500              		@ frame_needed = 0, uses_anonymous_args = 0
 501              	.LVL36:
 502 0000 F0B5     		push	{r4, r5, r6, r7, lr}
 503              		.cfi_def_cfa_offset 20
 504              		.cfi_offset 4, -20
 505              		.cfi_offset 5, -16
 506              		.cfi_offset 6, -12
 507              		.cfi_offset 7, -8
 508              		.cfi_offset 14, -4
 509 0002 B7B0     		sub	sp, sp, #220
 510              		.cfi_def_cfa_offset 240
 511 0004 0D90     		str	r0, [sp, #52]
 512 0006 1500     		movs	r5, r2
 513 0008 1C00     		movs	r4, r3
  93:strong-arm\src\threefish/threefish.c **** 	uint64_t k[9];
  94:strong-arm\src\threefish/threefish.c **** 	uint64_t t[3];
  95:strong-arm\src\threefish/threefish.c **** 	uint64_t v[8];
  96:strong-arm\src\threefish/threefish.c **** 
  97:strong-arm\src\threefish/threefish.c **** 	bytes_to_words (k, key, 8);
 514              		.loc 1 97 0
 515 000a 0822     		movs	r2, #8
 516              	.LVL37:
 517 000c 24A8     		add	r0, sp, #144
 518              	.LVL38:
 519 000e FFF7FEFF 		bl	bytes_to_words
 520              	.LVL39:
  98:strong-arm\src\threefish/threefish.c **** 	bytes_to_words (t, tweak, 2);
 521              		.loc 1 98 0
 522 0012 0222     		movs	r2, #2
 523 0014 2900     		movs	r1, r5
ARM GAS  C:\Users\Ray\AppData\Local\Temp\ccnKUjQ7.s 			page 12


 524 0016 1EA8     		add	r0, sp, #120
 525 0018 FFF7FEFF 		bl	bytes_to_words
 526              	.LVL40:
  99:strong-arm\src\threefish/threefish.c **** 	bytes_to_words (v, plaintext, 8);
 527              		.loc 1 99 0
 528 001c 0822     		movs	r2, #8
 529 001e 2100     		movs	r1, r4
 530 0020 0EA8     		add	r0, sp, #56
 531 0022 FFF7FEFF 		bl	bytes_to_words
 532              	.LVL41:
 100:strong-arm\src\threefish/threefish.c **** 
 101:strong-arm\src\threefish/threefish.c **** 	/* Begin Key Schedule */
 102:strong-arm\src\threefish/threefish.c **** 	k[8] = C240 ^ k[0] ^ k[1] ^ k[2] ^ k[3] ^ k[4] ^ k[5] ^ k[6] ^ k[7];
 533              		.loc 1 102 0
 534 0026 259B     		ldr	r3, [sp, #148]
 535 0028 0693     		str	r3, [sp, #24]
 536 002a 269B     		ldr	r3, [sp, #152]
 537 002c 0893     		str	r3, [sp, #32]
 538 002e 279B     		ldr	r3, [sp, #156]
 539 0030 0A93     		str	r3, [sp, #40]
 540 0032 089A     		ldr	r2, [sp, #32]
 541 0034 249B     		ldr	r3, [sp, #144]
 542 0036 5A40     		eors	r2, r3
 543 0038 069B     		ldr	r3, [sp, #24]
 544 003a 0A99     		ldr	r1, [sp, #40]
 545 003c 4B40     		eors	r3, r1
 546 003e 2899     		ldr	r1, [sp, #160]
 547 0040 0691     		str	r1, [sp, #24]
 548 0042 2999     		ldr	r1, [sp, #164]
 549 0044 0891     		str	r1, [sp, #32]
 550 0046 0699     		ldr	r1, [sp, #24]
 551 0048 4A40     		eors	r2, r1
 552 004a 0899     		ldr	r1, [sp, #32]
 553 004c 4B40     		eors	r3, r1
 554 004e 2A99     		ldr	r1, [sp, #168]
 555 0050 0691     		str	r1, [sp, #24]
 556 0052 2B99     		ldr	r1, [sp, #172]
 557 0054 0891     		str	r1, [sp, #32]
 558 0056 0699     		ldr	r1, [sp, #24]
 559 0058 4A40     		eors	r2, r1
 560 005a 0899     		ldr	r1, [sp, #32]
 561 005c 4B40     		eors	r3, r1
 562 005e 2C99     		ldr	r1, [sp, #176]
 563 0060 0691     		str	r1, [sp, #24]
 564 0062 2D99     		ldr	r1, [sp, #180]
 565 0064 0891     		str	r1, [sp, #32]
 566 0066 0699     		ldr	r1, [sp, #24]
 567 0068 4A40     		eors	r2, r1
 568 006a 0899     		ldr	r1, [sp, #32]
 569 006c 4B40     		eors	r3, r1
 570 006e 2E9C     		ldr	r4, [sp, #184]
 571 0070 2F9D     		ldr	r5, [sp, #188]
 572              	.LVL42:
 573 0072 6240     		eors	r2, r4
 574 0074 6B40     		eors	r3, r5
 575 0076 309E     		ldr	r6, [sp, #192]
 576 0078 319F     		ldr	r7, [sp, #196]
ARM GAS  C:\Users\Ray\AppData\Local\Temp\ccnKUjQ7.s 			page 13


 577 007a 7240     		eors	r2, r6
 578 007c 7B40     		eors	r3, r7
 579 007e 3299     		ldr	r1, [sp, #200]
 580 0080 0691     		str	r1, [sp, #24]
 581 0082 3399     		ldr	r1, [sp, #204]
 582 0084 0891     		str	r1, [sp, #32]
 583 0086 0699     		ldr	r1, [sp, #24]
 584 0088 4A40     		eors	r2, r1
 585 008a 0899     		ldr	r1, [sp, #32]
 586 008c 4B40     		eors	r3, r1
 587 008e 7149     		ldr	r1, .L34
 588 0090 4A40     		eors	r2, r1
 589 0092 7149     		ldr	r1, .L34+4
 590 0094 4B40     		eors	r3, r1
 591 0096 3492     		str	r2, [sp, #208]
 592 0098 3593     		str	r3, [sp, #212]
 103:strong-arm\src\threefish/threefish.c **** 	t[2] = t[0] ^ t[1];
 593              		.loc 1 103 0
 594 009a 2098     		ldr	r0, [sp, #128]
 595 009c 2199     		ldr	r1, [sp, #132]
 596 009e 1E9A     		ldr	r2, [sp, #120]
 597 00a0 4240     		eors	r2, r0
 598 00a2 1F9B     		ldr	r3, [sp, #124]
 599 00a4 4B40     		eors	r3, r1
 600 00a6 2292     		str	r2, [sp, #136]
 601 00a8 2393     		str	r3, [sp, #140]
 104:strong-arm\src\threefish/threefish.c **** 
 105:strong-arm\src\threefish/threefish.c **** 	k[5] += t[0];
 602              		.loc 1 105 0
 603 00aa 1E9A     		ldr	r2, [sp, #120]
 604 00ac 1F9B     		ldr	r3, [sp, #124]
 605 00ae 1219     		adds	r2, r2, r4
 606 00b0 6B41     		adcs	r3, r3, r5
 607 00b2 2E92     		str	r2, [sp, #184]
 608 00b4 2F93     		str	r3, [sp, #188]
 106:strong-arm\src\threefish/threefish.c **** 	k[6] += t[1];
 609              		.loc 1 106 0
 610 00b6 8019     		adds	r0, r0, r6
 611 00b8 7941     		adcs	r1, r1, r7
 612 00ba 3090     		str	r0, [sp, #192]
 613 00bc 3191     		str	r1, [sp, #196]
 614              	.LVL43:
 615              	.LBB2:
 107:strong-arm\src\threefish/threefish.c **** 
 108:strong-arm\src\threefish/threefish.c **** 	for (uint8_t roundnum = 0; roundnum < 72; ++roundnum)
 616              		.loc 1 108 0
 617 00be 0026     		movs	r6, #0
 618 00c0 AAE0     		b	.L24
 619              	.LVL44:
 620              	.L30:
 621              	.LBB3:
 109:strong-arm\src\threefish/threefish.c **** 	{
 110:strong-arm\src\threefish/threefish.c **** 		uint64_t extra;
 111:strong-arm\src\threefish/threefish.c **** 
 112:strong-arm\src\threefish/threefish.c **** 		/* Add subkey */
 113:strong-arm\src\threefish/threefish.c **** 		if ((roundnum & 3) == 0)
 622              		.loc 1 113 0
ARM GAS  C:\Users\Ray\AppData\Local\Temp\ccnKUjQ7.s 			page 14


 623 00c2 B307     		lsls	r3, r6, #30
 624 00c4 10D0     		beq	.L33
 625 00c6 6EE0     		b	.L26
 626              	.LVL45:
 627              	.L27:
 628              	.LBB4:
 629              	.LBB5:
 114:strong-arm\src\threefish/threefish.c **** 		{
 115:strong-arm\src\threefish/threefish.c **** 			for (int i = 0; i < 8; ++i)
 116:strong-arm\src\threefish/threefish.c **** 				v[i] += k[i];
 630              		.loc 1 116 0 discriminator 3
 631 00c8 C300     		lsls	r3, r0, #3
 632 00ca 24AA     		add	r2, sp, #144
 633 00cc D218     		adds	r2, r2, r3
 634 00ce 1468     		ldr	r4, [r2]
 635 00d0 5568     		ldr	r5, [r2, #4]
 636 00d2 0EAA     		add	r2, sp, #56
 637 00d4 9446     		mov	ip, r2
 638 00d6 6344     		add	r3, r3, ip
 639 00d8 1968     		ldr	r1, [r3]
 640 00da 5A68     		ldr	r2, [r3, #4]
 641 00dc 6418     		adds	r4, r4, r1
 642 00de 5541     		adcs	r5, r5, r2
 643 00e0 1C60     		str	r4, [r3]
 644 00e2 5D60     		str	r5, [r3, #4]
 115:strong-arm\src\threefish/threefish.c **** 				v[i] += k[i];
 645              		.loc 1 115 0 discriminator 3
 646 00e4 0130     		adds	r0, r0, #1
 647              	.LVL46:
 648 00e6 00E0     		b	.L25
 649              	.LVL47:
 650              	.L33:
 651              	.LBE5:
 652              	.LBE4:
 653 00e8 0020     		movs	r0, #0
 654              	.L25:
 655              	.LVL48:
 656              	.LBB7:
 657              	.LBB6:
 115:strong-arm\src\threefish/threefish.c **** 				v[i] += k[i];
 658              		.loc 1 115 0 is_stmt 0 discriminator 1
 659 00ea 0728     		cmp	r0, #7
 660 00ec ECDD     		ble	.L27
 661              	.LVL49:
 662              	.LBE6:
 117:strong-arm\src\threefish/threefish.c **** 
 118:strong-arm\src\threefish/threefish.c **** 			/* Update subkey */
 119:strong-arm\src\threefish/threefish.c **** 			uint8_t s = roundnum >> 2;
 120:strong-arm\src\threefish/threefish.c **** 			extra = k[0];
 663              		.loc 1 120 0 is_stmt 1
 664 00ee 249B     		ldr	r3, [sp, #144]
 665 00f0 259C     		ldr	r4, [sp, #148]
 666 00f2 0693     		str	r3, [sp, #24]
 667 00f4 0794     		str	r4, [sp, #28]
 668              	.LVL50:
 121:strong-arm\src\threefish/threefish.c **** 			k[0] = k[1];
 669              		.loc 1 121 0
ARM GAS  C:\Users\Ray\AppData\Local\Temp\ccnKUjQ7.s 			page 15


 670 00f6 2699     		ldr	r1, [sp, #152]
 671 00f8 279A     		ldr	r2, [sp, #156]
 672 00fa 2491     		str	r1, [sp, #144]
 673 00fc 2592     		str	r2, [sp, #148]
 122:strong-arm\src\threefish/threefish.c **** 			k[1] = k[2];
 674              		.loc 1 122 0
 675 00fe 2899     		ldr	r1, [sp, #160]
 676 0100 299A     		ldr	r2, [sp, #164]
 677 0102 2691     		str	r1, [sp, #152]
 678 0104 2792     		str	r2, [sp, #156]
 123:strong-arm\src\threefish/threefish.c **** 			k[2] = k[3];
 679              		.loc 1 123 0
 680 0106 2A99     		ldr	r1, [sp, #168]
 681 0108 2B9A     		ldr	r2, [sp, #172]
 682 010a 2891     		str	r1, [sp, #160]
 683 010c 2992     		str	r2, [sp, #164]
 124:strong-arm\src\threefish/threefish.c **** 			k[3] = k[4];
 684              		.loc 1 124 0
 685 010e 2C99     		ldr	r1, [sp, #176]
 686 0110 2D9A     		ldr	r2, [sp, #180]
 687 0112 2A91     		str	r1, [sp, #168]
 688 0114 2B92     		str	r2, [sp, #172]
 125:strong-arm\src\threefish/threefish.c **** 			k[4] = k[5] - t[0];
 689              		.loc 1 125 0
 690 0116 2E99     		ldr	r1, [sp, #184]
 691 0118 2F9A     		ldr	r2, [sp, #188]
 692 011a 0891     		str	r1, [sp, #32]
 693 011c 0992     		str	r2, [sp, #36]
 694 011e 1E9B     		ldr	r3, [sp, #120]
 695 0120 1F9C     		ldr	r4, [sp, #124]
 696              	.LVL51:
 697 0122 1800     		movs	r0, r3
 698              	.LVL52:
 699 0124 2100     		movs	r1, r4
 700 0126 089A     		ldr	r2, [sp, #32]
 701 0128 099B     		ldr	r3, [sp, #36]
 702 012a 0890     		str	r0, [sp, #32]
 703 012c 0991     		str	r1, [sp, #36]
 704 012e 121A     		subs	r2, r2, r0
 705 0130 8B41     		sbcs	r3, r3, r1
 706 0132 2C92     		str	r2, [sp, #176]
 707 0134 2D93     		str	r3, [sp, #180]
 126:strong-arm\src\threefish/threefish.c **** 			k[5] = k[6];
 708              		.loc 1 126 0
 709 0136 3099     		ldr	r1, [sp, #192]
 710 0138 319A     		ldr	r2, [sp, #196]
 711 013a 2E91     		str	r1, [sp, #184]
 712 013c 2F92     		str	r2, [sp, #188]
 127:strong-arm\src\threefish/threefish.c **** 			k[6] = k[7] - s + t[2];
 713              		.loc 1 127 0
 714 013e 3299     		ldr	r1, [sp, #200]
 715 0140 339A     		ldr	r2, [sp, #204]
 716 0142 0A91     		str	r1, [sp, #40]
 717 0144 0B92     		str	r2, [sp, #44]
 718 0146 B108     		lsrs	r1, r6, #2
 719 0148 0491     		str	r1, [sp, #16]
 720 014a 0021     		movs	r1, #0
ARM GAS  C:\Users\Ray\AppData\Local\Temp\ccnKUjQ7.s 			page 16


 721 014c 0591     		str	r1, [sp, #20]
 722 014e 0A9A     		ldr	r2, [sp, #40]
 723 0150 0B9B     		ldr	r3, [sp, #44]
 724 0152 0498     		ldr	r0, [sp, #16]
 725 0154 0599     		ldr	r1, [sp, #20]
 726 0156 121A     		subs	r2, r2, r0
 727 0158 8B41     		sbcs	r3, r3, r1
 728 015a 229C     		ldr	r4, [sp, #136]
 729 015c 239D     		ldr	r5, [sp, #140]
 730 015e 1219     		adds	r2, r2, r4
 731 0160 6B41     		adcs	r3, r3, r5
 732 0162 3092     		str	r2, [sp, #192]
 733 0164 3193     		str	r3, [sp, #196]
 128:strong-arm\src\threefish/threefish.c **** 			k[7] = k[8] + s + 1;
 734              		.loc 1 128 0
 735 0166 3499     		ldr	r1, [sp, #208]
 736 0168 359A     		ldr	r2, [sp, #212]
 737 016a 0A91     		str	r1, [sp, #40]
 738 016c 0B92     		str	r2, [sp, #44]
 739 016e 0800     		movs	r0, r1
 740 0170 1100     		movs	r1, r2
 741 0172 049A     		ldr	r2, [sp, #16]
 742 0174 059B     		ldr	r3, [sp, #20]
 743 0176 8018     		adds	r0, r0, r2
 744 0178 5941     		adcs	r1, r1, r3
 745 017a 0122     		movs	r2, #1
 746 017c 0023     		movs	r3, #0
 747 017e 1218     		adds	r2, r2, r0
 748 0180 4B41     		adcs	r3, r3, r1
 749 0182 3292     		str	r2, [sp, #200]
 750 0184 3393     		str	r3, [sp, #204]
 129:strong-arm\src\threefish/threefish.c **** 			k[8] = extra;
 751              		.loc 1 129 0
 752 0186 069A     		ldr	r2, [sp, #24]
 753 0188 079B     		ldr	r3, [sp, #28]
 754 018a 3492     		str	r2, [sp, #208]
 755 018c 3593     		str	r3, [sp, #212]
 756              	.LVL53:
 130:strong-arm\src\threefish/threefish.c **** 
 131:strong-arm\src\threefish/threefish.c **** 			extra = t[0];
 132:strong-arm\src\threefish/threefish.c **** 			t[0] = t[1];
 757              		.loc 1 132 0
 758 018e 209A     		ldr	r2, [sp, #128]
 759 0190 219B     		ldr	r3, [sp, #132]
 760 0192 0692     		str	r2, [sp, #24]
 761 0194 0793     		str	r3, [sp, #28]
 762 0196 1E92     		str	r2, [sp, #120]
 763 0198 1F93     		str	r3, [sp, #124]
 133:strong-arm\src\threefish/threefish.c **** 			t[1] = t[2];
 764              		.loc 1 133 0
 765 019a 2094     		str	r4, [sp, #128]
 766 019c 2195     		str	r5, [sp, #132]
 134:strong-arm\src\threefish/threefish.c **** 			t[2] = extra;
 767              		.loc 1 134 0
 768 019e 089B     		ldr	r3, [sp, #32]
 769 01a0 099C     		ldr	r4, [sp, #36]
 770 01a2 2293     		str	r3, [sp, #136]
ARM GAS  C:\Users\Ray\AppData\Local\Temp\ccnKUjQ7.s 			page 17


 771 01a4 2394     		str	r4, [sp, #140]
 772              	.LVL54:
 773              	.L26:
 774              	.LBE7:
 775 01a6 0024     		movs	r4, #0
 776 01a8 3700     		movs	r7, r6
 777 01aa 17E0     		b	.L28
 778              	.LVL55:
 779              	.L29:
 780              	.LBB8:
 135:strong-arm\src\threefish/threefish.c **** 		}
 136:strong-arm\src\threefish/threefish.c **** 
 137:strong-arm\src\threefish/threefish.c **** 		/* Mix */
 138:strong-arm\src\threefish/threefish.c **** 		for (int j = 0; j < 4; ++j)
 139:strong-arm\src\threefish/threefish.c **** 			mix8 (v+(2*j), v+(2*j)+1, roundnum, j, v[2*j], v[(2*j)+1]);
 781              		.loc 1 139 0 discriminator 3
 782 01ac 2001     		lsls	r0, r4, #4
 783 01ae 6200     		lsls	r2, r4, #1
 784 01b0 0132     		adds	r2, r2, #1
 785 01b2 E3B2     		uxtb	r3, r4
 786 01b4 0100     		movs	r1, r0
 787 01b6 0831     		adds	r1, r1, #8
 788 01b8 0EAD     		add	r5, sp, #56
 789 01ba AC46     		mov	ip, r5
 790 01bc 6144     		add	r1, r1, ip
 791 01be 6044     		add	r0, r0, ip
 792 01c0 D200     		lsls	r2, r2, #3
 793 01c2 6244     		add	r2, r2, ip
 794 01c4 1568     		ldr	r5, [r2]
 795 01c6 5668     		ldr	r6, [r2, #4]
 796 01c8 0295     		str	r5, [sp, #8]
 797 01ca 0396     		str	r6, [sp, #12]
 798 01cc 0568     		ldr	r5, [r0]
 799 01ce 4668     		ldr	r6, [r0, #4]
 800 01d0 0095     		str	r5, [sp]
 801 01d2 0196     		str	r6, [sp, #4]
 802 01d4 3A00     		movs	r2, r7
 803 01d6 FFF7FEFF 		bl	mix8
 804              	.LVL56:
 138:strong-arm\src\threefish/threefish.c **** 			mix8 (v+(2*j), v+(2*j)+1, roundnum, j, v[2*j], v[(2*j)+1]);
 805              		.loc 1 138 0 discriminator 3
 806 01da 0134     		adds	r4, r4, #1
 807              	.LVL57:
 808              	.L28:
 138:strong-arm\src\threefish/threefish.c **** 			mix8 (v+(2*j), v+(2*j)+1, roundnum, j, v[2*j], v[(2*j)+1]);
 809              		.loc 1 138 0 is_stmt 0 discriminator 1
 810 01dc 032C     		cmp	r4, #3
 811 01de E5DD     		ble	.L29
 812              	.LBE8:
 140:strong-arm\src\threefish/threefish.c **** 
 141:strong-arm\src\threefish/threefish.c **** 		/* Permute */
 142:strong-arm\src\threefish/threefish.c **** 		extra = v[0];
 813              		.loc 1 142 0 is_stmt 1 discriminator 2
 814 01e0 0E9A     		ldr	r2, [sp, #56]
 815 01e2 0F9B     		ldr	r3, [sp, #60]
 816              	.LVL58:
 143:strong-arm\src\threefish/threefish.c **** 		v[0] = v[2];
ARM GAS  C:\Users\Ray\AppData\Local\Temp\ccnKUjQ7.s 			page 18


 817              		.loc 1 143 0 discriminator 2
 818 01e4 1298     		ldr	r0, [sp, #72]
 819 01e6 1399     		ldr	r1, [sp, #76]
 820 01e8 0E90     		str	r0, [sp, #56]
 821 01ea 0F91     		str	r1, [sp, #60]
 144:strong-arm\src\threefish/threefish.c **** 		v[2] = v[4];
 822              		.loc 1 144 0 discriminator 2
 823 01ec 1698     		ldr	r0, [sp, #88]
 824 01ee 1799     		ldr	r1, [sp, #92]
 825 01f0 1290     		str	r0, [sp, #72]
 826 01f2 1391     		str	r1, [sp, #76]
 145:strong-arm\src\threefish/threefish.c **** 		v[4] = v[6];
 827              		.loc 1 145 0 discriminator 2
 828 01f4 1A98     		ldr	r0, [sp, #104]
 829 01f6 1B99     		ldr	r1, [sp, #108]
 830 01f8 1690     		str	r0, [sp, #88]
 831 01fa 1791     		str	r1, [sp, #92]
 146:strong-arm\src\threefish/threefish.c **** 		v[6] = extra;
 832              		.loc 1 146 0 discriminator 2
 833 01fc 1A92     		str	r2, [sp, #104]
 834 01fe 1B93     		str	r3, [sp, #108]
 147:strong-arm\src\threefish/threefish.c **** 		extra = v[3];
 835              		.loc 1 147 0 discriminator 2
 836 0200 149A     		ldr	r2, [sp, #80]
 837 0202 159B     		ldr	r3, [sp, #84]
 838              	.LVL59:
 148:strong-arm\src\threefish/threefish.c **** 		v[3] = v[7];
 839              		.loc 1 148 0 discriminator 2
 840 0204 1C98     		ldr	r0, [sp, #112]
 841 0206 1D99     		ldr	r1, [sp, #116]
 842 0208 0690     		str	r0, [sp, #24]
 843 020a 0791     		str	r1, [sp, #28]
 844 020c 1490     		str	r0, [sp, #80]
 845 020e 1591     		str	r1, [sp, #84]
 149:strong-arm\src\threefish/threefish.c **** 		v[7] = extra;
 846              		.loc 1 149 0 discriminator 2
 847 0210 1C92     		str	r2, [sp, #112]
 848 0212 1D93     		str	r3, [sp, #116]
 849              	.LBE3:
 108:strong-arm\src\threefish/threefish.c **** 	{
 850              		.loc 1 108 0 discriminator 2
 851 0214 7B1C     		adds	r3, r7, #1
 852 0216 DEB2     		uxtb	r6, r3
 853              	.LVL60:
 854              	.L24:
 108:strong-arm\src\threefish/threefish.c **** 	{
 855              		.loc 1 108 0 is_stmt 0 discriminator 1
 856 0218 472E     		cmp	r6, #71
 857 021a 00D8     		bhi	.LCB792
 858 021c 51E7     		b	.L30	@long jump
 859              	.LCB792:
 860 021e 0022     		movs	r2, #0
 861 0220 0EE0     		b	.L31
 862              	.LVL61:
 863              	.L32:
 864              	.LBE2:
 865              	.LBB9:
ARM GAS  C:\Users\Ray\AppData\Local\Temp\ccnKUjQ7.s 			page 19


 150:strong-arm\src\threefish/threefish.c **** 	}
 151:strong-arm\src\threefish/threefish.c **** 
 152:strong-arm\src\threefish/threefish.c **** 	/* Add last subkey */
 153:strong-arm\src\threefish/threefish.c **** 	for (int i = 0; i < 8; ++i)
 154:strong-arm\src\threefish/threefish.c **** 		v[i] += k[i];
 866              		.loc 1 154 0 is_stmt 1 discriminator 3
 867 0222 D300     		lsls	r3, r2, #3
 868 0224 24A9     		add	r1, sp, #144
 869 0226 C918     		adds	r1, r1, r3
 870 0228 0868     		ldr	r0, [r1]
 871 022a 4968     		ldr	r1, [r1, #4]
 872 022c 0EAC     		add	r4, sp, #56
 873 022e A446     		mov	ip, r4
 874 0230 6344     		add	r3, r3, ip
 875 0232 1C68     		ldr	r4, [r3]
 876 0234 5D68     		ldr	r5, [r3, #4]
 877 0236 0019     		adds	r0, r0, r4
 878 0238 6941     		adcs	r1, r1, r5
 879 023a 1860     		str	r0, [r3]
 880 023c 5960     		str	r1, [r3, #4]
 153:strong-arm\src\threefish/threefish.c **** 		v[i] += k[i];
 881              		.loc 1 153 0 discriminator 3
 882 023e 0132     		adds	r2, r2, #1
 883              	.LVL62:
 884              	.L31:
 153:strong-arm\src\threefish/threefish.c **** 		v[i] += k[i];
 885              		.loc 1 153 0 is_stmt 0 discriminator 1
 886 0240 072A     		cmp	r2, #7
 887 0242 EEDD     		ble	.L32
 888              	.LBE9:
 155:strong-arm\src\threefish/threefish.c **** 
 156:strong-arm\src\threefish/threefish.c **** 	words_to_bytes (ciphertext, v, 8);
 889              		.loc 1 156 0 is_stmt 1
 890 0244 0822     		movs	r2, #8
 891              	.LVL63:
 892 0246 0EA9     		add	r1, sp, #56
 893 0248 0D98     		ldr	r0, [sp, #52]
 894 024a FFF7FEFF 		bl	words_to_bytes
 895              	.LVL64:
 157:strong-arm\src\threefish/threefish.c **** }
 896              		.loc 1 157 0
 897 024e 37B0     		add	sp, sp, #220
 898              		@ sp needed
 899              	.LVL65:
 900 0250 F0BD     		pop	{r4, r5, r6, r7, pc}
 901              	.L35:
 902 0252 C046     		.align	2
 903              	.L34:
 904 0254 221AFCA9 		.word	-1443096030
 905 0258 DA1BD11B 		.word	466688986
 906              		.cfi_endproc
 907              	.LFE6:
 908              		.size	threefish512_encrypt_block, .-threefish512_encrypt_block
 909              		.section	.text.threefish512_decrypt_block,"ax",%progbits
 910              		.align	2
 911              		.global	threefish512_decrypt_block
 912              		.code	16
ARM GAS  C:\Users\Ray\AppData\Local\Temp\ccnKUjQ7.s 			page 20


 913              		.thumb_func
 914              		.type	threefish512_decrypt_block, %function
 915              	threefish512_decrypt_block:
 916              	.LFB7:
 158:strong-arm\src\threefish/threefish.c **** 
 159:strong-arm\src\threefish/threefish.c **** 
 160:strong-arm\src\threefish/threefish.c **** /* 
 161:strong-arm\src\threefish/threefish.c ****  * Decryption is the obvious inverse of encryption.  In other words, do everything backwards.
 162:strong-arm\src\threefish/threefish.c ****  * The only non-obvious thing here is reversing the Key Scheduling since we use a rolling key sched
 163:strong-arm\src\threefish/threefish.c ****  * implementation.
 164:strong-arm\src\threefish/threefish.c ****  */
 165:strong-arm\src\threefish/threefish.c **** void threefish512_decrypt_block (uint8_t plaintext[static 64], uint8_t const key[static 64], uint8_
 166:strong-arm\src\threefish/threefish.c **** {
 917              		.loc 1 166 0
 918              		.cfi_startproc
 919              		@ args = 0, pretend = 0, frame = 208
 920              		@ frame_needed = 0, uses_anonymous_args = 0
 921              	.LVL66:
 922 0000 F0B5     		push	{r4, r5, r6, r7, lr}
 923              		.cfi_def_cfa_offset 20
 924              		.cfi_offset 4, -20
 925              		.cfi_offset 5, -16
 926              		.cfi_offset 6, -12
 927              		.cfi_offset 7, -8
 928              		.cfi_offset 14, -4
 929 0002 B9B0     		sub	sp, sp, #228
 930              		.cfi_def_cfa_offset 248
 931 0004 0F90     		str	r0, [sp, #60]
 932 0006 1400     		movs	r4, r2
 933 0008 1D00     		movs	r5, r3
 167:strong-arm\src\threefish/threefish.c **** 	uint64_t k[9];
 168:strong-arm\src\threefish/threefish.c **** 	uint64_t t[3];
 169:strong-arm\src\threefish/threefish.c **** 	uint64_t v[8];
 170:strong-arm\src\threefish/threefish.c **** 
 171:strong-arm\src\threefish/threefish.c **** 	bytes_to_words (k, key, 8);
 934              		.loc 1 171 0
 935 000a 0822     		movs	r2, #8
 936              	.LVL67:
 937 000c 26A8     		add	r0, sp, #152
 938              	.LVL68:
 939 000e FFF7FEFF 		bl	bytes_to_words
 940              	.LVL69:
 172:strong-arm\src\threefish/threefish.c **** 	bytes_to_words (t, tweak, 2);
 941              		.loc 1 172 0
 942 0012 0222     		movs	r2, #2
 943 0014 2100     		movs	r1, r4
 944 0016 20A8     		add	r0, sp, #128
 945 0018 FFF7FEFF 		bl	bytes_to_words
 946              	.LVL70:
 173:strong-arm\src\threefish/threefish.c **** 	bytes_to_words (v, ciphertext, 8);
 947              		.loc 1 173 0
 948 001c 0822     		movs	r2, #8
 949 001e 2900     		movs	r1, r5
 950 0020 10A8     		add	r0, sp, #64
 951 0022 FFF7FEFF 		bl	bytes_to_words
 952              	.LVL71:
 174:strong-arm\src\threefish/threefish.c **** 
ARM GAS  C:\Users\Ray\AppData\Local\Temp\ccnKUjQ7.s 			page 21


 175:strong-arm\src\threefish/threefish.c **** 	/* Begin Key Schedule */
 176:strong-arm\src\threefish/threefish.c **** 	k[8] = C240 ^ k[0] ^ k[1] ^ k[2] ^ k[3] ^ k[4] ^ k[5] ^ k[6] ^ k[7];
 953              		.loc 1 176 0
 954 0026 279B     		ldr	r3, [sp, #156]
 955 0028 0493     		str	r3, [sp, #16]
 956 002a 289B     		ldr	r3, [sp, #160]
 957 002c 0A93     		str	r3, [sp, #40]
 958 002e 299B     		ldr	r3, [sp, #164]
 959 0030 0C93     		str	r3, [sp, #48]
 960 0032 0A9A     		ldr	r2, [sp, #40]
 961 0034 269B     		ldr	r3, [sp, #152]
 962 0036 5A40     		eors	r2, r3
 963 0038 049B     		ldr	r3, [sp, #16]
 964 003a 0C99     		ldr	r1, [sp, #48]
 965 003c 4B40     		eors	r3, r1
 966 003e 2A99     		ldr	r1, [sp, #168]
 967 0040 0491     		str	r1, [sp, #16]
 968 0042 2B99     		ldr	r1, [sp, #172]
 969 0044 0A91     		str	r1, [sp, #40]
 970 0046 0499     		ldr	r1, [sp, #16]
 971 0048 4A40     		eors	r2, r1
 972 004a 0A99     		ldr	r1, [sp, #40]
 973 004c 4B40     		eors	r3, r1
 974 004e 2C99     		ldr	r1, [sp, #176]
 975 0050 0491     		str	r1, [sp, #16]
 976 0052 2D99     		ldr	r1, [sp, #180]
 977 0054 0A91     		str	r1, [sp, #40]
 978 0056 0499     		ldr	r1, [sp, #16]
 979 0058 4A40     		eors	r2, r1
 980 005a 0A99     		ldr	r1, [sp, #40]
 981 005c 4B40     		eors	r3, r1
 982 005e 2E99     		ldr	r1, [sp, #184]
 983 0060 0491     		str	r1, [sp, #16]
 984 0062 2F99     		ldr	r1, [sp, #188]
 985 0064 0A91     		str	r1, [sp, #40]
 986 0066 0499     		ldr	r1, [sp, #16]
 987 0068 4A40     		eors	r2, r1
 988 006a 0A99     		ldr	r1, [sp, #40]
 989 006c 4B40     		eors	r3, r1
 990 006e 309C     		ldr	r4, [sp, #192]
 991 0070 319D     		ldr	r5, [sp, #196]
 992              	.LVL72:
 993 0072 6240     		eors	r2, r4
 994 0074 6B40     		eors	r3, r5
 995 0076 3298     		ldr	r0, [sp, #200]
 996 0078 3399     		ldr	r1, [sp, #204]
 997 007a 4240     		eors	r2, r0
 998 007c 0490     		str	r0, [sp, #16]
 999 007e 0591     		str	r1, [sp, #20]
 1000 0080 4B40     		eors	r3, r1
 1001 0082 349E     		ldr	r6, [sp, #208]
 1002 0084 359F     		ldr	r7, [sp, #212]
 1003 0086 7240     		eors	r2, r6
 1004 0088 0A96     		str	r6, [sp, #40]
 1005 008a 0B97     		str	r7, [sp, #44]
 1006 008c 7B40     		eors	r3, r7
 1007 008e 7849     		ldr	r1, .L46
ARM GAS  C:\Users\Ray\AppData\Local\Temp\ccnKUjQ7.s 			page 22


 1008 0090 4A40     		eors	r2, r1
 1009 0092 7849     		ldr	r1, .L46+4
 1010 0094 4B40     		eors	r3, r1
 1011 0096 3692     		str	r2, [sp, #216]
 1012 0098 3793     		str	r3, [sp, #220]
 177:strong-arm\src\threefish/threefish.c **** 	t[2] = t[0] ^ t[1];
 1013              		.loc 1 177 0
 1014 009a 209E     		ldr	r6, [sp, #128]
 1015 009c 219F     		ldr	r7, [sp, #132]
 1016 009e 2298     		ldr	r0, [sp, #136]
 1017 00a0 2399     		ldr	r1, [sp, #140]
 1018 00a2 3200     		movs	r2, r6
 1019 00a4 4240     		eors	r2, r0
 1020 00a6 3B00     		movs	r3, r7
 1021 00a8 4B40     		eors	r3, r1
 1022 00aa 2492     		str	r2, [sp, #144]
 1023 00ac 2593     		str	r3, [sp, #148]
 178:strong-arm\src\threefish/threefish.c **** 
 179:strong-arm\src\threefish/threefish.c **** 	k[5] += t[0];
 1024              		.loc 1 179 0
 1025 00ae 2200     		movs	r2, r4
 1026 00b0 2B00     		movs	r3, r5
 1027 00b2 9219     		adds	r2, r2, r6
 1028 00b4 7B41     		adcs	r3, r3, r7
 1029 00b6 3092     		str	r2, [sp, #192]
 1030 00b8 3193     		str	r3, [sp, #196]
 180:strong-arm\src\threefish/threefish.c **** 	k[6] += t[1];
 1031              		.loc 1 180 0
 1032 00ba 049B     		ldr	r3, [sp, #16]
 1033 00bc 059C     		ldr	r4, [sp, #20]
 1034 00be C018     		adds	r0, r0, r3
 1035 00c0 6141     		adcs	r1, r1, r4
 1036 00c2 3290     		str	r0, [sp, #200]
 1037 00c4 3391     		str	r1, [sp, #204]
 181:strong-arm\src\threefish/threefish.c **** 	k[7] += 18;
 1038              		.loc 1 181 0
 1039 00c6 1222     		movs	r2, #18
 1040 00c8 0023     		movs	r3, #0
 1041 00ca 0A9E     		ldr	r6, [sp, #40]
 1042 00cc 0B9F     		ldr	r7, [sp, #44]
 1043 00ce 9219     		adds	r2, r2, r6
 1044 00d0 7B41     		adcs	r3, r3, r7
 1045 00d2 3492     		str	r2, [sp, #208]
 1046 00d4 3593     		str	r3, [sp, #212]
 1047              	.LVL73:
 1048              	.LBB10:
 182:strong-arm\src\threefish/threefish.c **** 
 183:strong-arm\src\threefish/threefish.c **** 	/* Subtract last subkey */
 184:strong-arm\src\threefish/threefish.c **** 	for (int i = 0; i < 8; ++i)
 1049              		.loc 1 184 0
 1050 00d6 0022     		movs	r2, #0
 1051 00d8 10E0     		b	.L37
 1052              	.LVL74:
 1053              	.L38:
 185:strong-arm\src\threefish/threefish.c **** 		v[i] -= k[i];
 1054              		.loc 1 185 0 discriminator 3
 1055 00da D300     		lsls	r3, r2, #3
ARM GAS  C:\Users\Ray\AppData\Local\Temp\ccnKUjQ7.s 			page 23


 1056 00dc 26A9     		add	r1, sp, #152
 1057 00de C918     		adds	r1, r1, r3
 1058 00e0 0868     		ldr	r0, [r1]
 1059 00e2 4968     		ldr	r1, [r1, #4]
 1060 00e4 10AC     		add	r4, sp, #64
 1061 00e6 A446     		mov	ip, r4
 1062 00e8 6344     		add	r3, r3, ip
 1063 00ea 1C68     		ldr	r4, [r3]
 1064 00ec 5D68     		ldr	r5, [r3, #4]
 1065 00ee 241A     		subs	r4, r4, r0
 1066 00f0 8D41     		sbcs	r5, r5, r1
 1067 00f2 2000     		movs	r0, r4
 1068 00f4 2900     		movs	r1, r5
 1069 00f6 1860     		str	r0, [r3]
 1070 00f8 5960     		str	r1, [r3, #4]
 184:strong-arm\src\threefish/threefish.c **** 		v[i] -= k[i];
 1071              		.loc 1 184 0 discriminator 3
 1072 00fa 0132     		adds	r2, r2, #1
 1073              	.LVL75:
 1074              	.L37:
 184:strong-arm\src\threefish/threefish.c **** 		v[i] -= k[i];
 1075              		.loc 1 184 0 is_stmt 0 discriminator 1
 1076 00fc 072A     		cmp	r2, #7
 1077 00fe ECDD     		ble	.L38
 1078 0100 4726     		movs	r6, #71
 1079 0102 ABE0     		b	.L39
 1080              	.LVL76:
 1081              	.L45:
 1082              	.LBE10:
 1083              	.LBB11:
 1084              	.LBB12:
 186:strong-arm\src\threefish/threefish.c **** 
 187:strong-arm\src\threefish/threefish.c **** 	for (uint8_t roundnum = 71; roundnum != 255; --roundnum)
 188:strong-arm\src\threefish/threefish.c **** 	{
 189:strong-arm\src\threefish/threefish.c **** 		uint64_t extra;
 190:strong-arm\src\threefish/threefish.c **** 
 191:strong-arm\src\threefish/threefish.c **** 		/* Invert permutation */
 192:strong-arm\src\threefish/threefish.c **** 		extra = v[2];
 1085              		.loc 1 192 0 is_stmt 1
 1086 0104 149A     		ldr	r2, [sp, #80]
 1087 0106 159B     		ldr	r3, [sp, #84]
 1088              	.LVL77:
 193:strong-arm\src\threefish/threefish.c **** 		v[2] = v[0];
 1089              		.loc 1 193 0
 1090 0108 1098     		ldr	r0, [sp, #64]
 1091 010a 1199     		ldr	r1, [sp, #68]
 1092 010c 1490     		str	r0, [sp, #80]
 1093 010e 1591     		str	r1, [sp, #84]
 194:strong-arm\src\threefish/threefish.c **** 		v[0] = v[6];
 1094              		.loc 1 194 0
 1095 0110 1C98     		ldr	r0, [sp, #112]
 1096 0112 1D99     		ldr	r1, [sp, #116]
 1097 0114 1090     		str	r0, [sp, #64]
 1098 0116 1191     		str	r1, [sp, #68]
 195:strong-arm\src\threefish/threefish.c **** 		v[6] = v[4];
 1099              		.loc 1 195 0
 1100 0118 1898     		ldr	r0, [sp, #96]
ARM GAS  C:\Users\Ray\AppData\Local\Temp\ccnKUjQ7.s 			page 24


 1101 011a 1999     		ldr	r1, [sp, #100]
 1102 011c 1C90     		str	r0, [sp, #112]
 1103 011e 1D91     		str	r1, [sp, #116]
 196:strong-arm\src\threefish/threefish.c **** 		v[4] = extra;
 1104              		.loc 1 196 0
 1105 0120 1892     		str	r2, [sp, #96]
 1106 0122 1993     		str	r3, [sp, #100]
 197:strong-arm\src\threefish/threefish.c **** 		extra = v[3];
 1107              		.loc 1 197 0
 1108 0124 169A     		ldr	r2, [sp, #88]
 1109 0126 179B     		ldr	r3, [sp, #92]
 1110              	.LVL78:
 198:strong-arm\src\threefish/threefish.c **** 		v[3] = v[7];
 1111              		.loc 1 198 0
 1112 0128 1E98     		ldr	r0, [sp, #120]
 1113 012a 1F99     		ldr	r1, [sp, #124]
 1114 012c 0490     		str	r0, [sp, #16]
 1115 012e 0591     		str	r1, [sp, #20]
 1116 0130 1690     		str	r0, [sp, #88]
 1117 0132 1791     		str	r1, [sp, #92]
 199:strong-arm\src\threefish/threefish.c **** 		v[7] = extra;
 1118              		.loc 1 199 0
 1119 0134 1E92     		str	r2, [sp, #120]
 1120 0136 1F93     		str	r3, [sp, #124]
 1121              	.LVL79:
 1122              	.LBB13:
 200:strong-arm\src\threefish/threefish.c **** 
 201:strong-arm\src\threefish/threefish.c **** 		/* UnMIX */
 202:strong-arm\src\threefish/threefish.c **** 		for (int j = 0; j < 4; ++j)
 1123              		.loc 1 202 0
 1124 0138 0024     		movs	r4, #0
 1125 013a 3700     		movs	r7, r6
 1126 013c 17E0     		b	.L40
 1127              	.LVL80:
 1128              	.L41:
 203:strong-arm\src\threefish/threefish.c **** 			unmix8 (v+(2*j), v+(2*j)+1, roundnum, j, v[2*j], v[(2*j)+1]);
 1129              		.loc 1 203 0 discriminator 3
 1130 013e 2001     		lsls	r0, r4, #4
 1131 0140 6200     		lsls	r2, r4, #1
 1132 0142 0132     		adds	r2, r2, #1
 1133 0144 E3B2     		uxtb	r3, r4
 1134 0146 0100     		movs	r1, r0
 1135 0148 0831     		adds	r1, r1, #8
 1136 014a 10AD     		add	r5, sp, #64
 1137 014c AC46     		mov	ip, r5
 1138 014e 6144     		add	r1, r1, ip
 1139 0150 6044     		add	r0, r0, ip
 1140 0152 D200     		lsls	r2, r2, #3
 1141 0154 6244     		add	r2, r2, ip
 1142 0156 1568     		ldr	r5, [r2]
 1143 0158 5668     		ldr	r6, [r2, #4]
 1144 015a 0295     		str	r5, [sp, #8]
 1145 015c 0396     		str	r6, [sp, #12]
 1146 015e 0568     		ldr	r5, [r0]
 1147 0160 4668     		ldr	r6, [r0, #4]
 1148 0162 0095     		str	r5, [sp]
 1149 0164 0196     		str	r6, [sp, #4]
ARM GAS  C:\Users\Ray\AppData\Local\Temp\ccnKUjQ7.s 			page 25


 1150 0166 3A00     		movs	r2, r7
 1151 0168 FFF7FEFF 		bl	unmix8
 1152              	.LVL81:
 202:strong-arm\src\threefish/threefish.c **** 			unmix8 (v+(2*j), v+(2*j)+1, roundnum, j, v[2*j], v[(2*j)+1]);
 1153              		.loc 1 202 0 discriminator 3
 1154 016c 0134     		adds	r4, r4, #1
 1155              	.LVL82:
 1156              	.L40:
 202:strong-arm\src\threefish/threefish.c **** 			unmix8 (v+(2*j), v+(2*j)+1, roundnum, j, v[2*j], v[(2*j)+1]);
 1157              		.loc 1 202 0 is_stmt 0 discriminator 1
 1158 016e 032C     		cmp	r4, #3
 1159 0170 E5DD     		ble	.L41
 1160 0172 3E00     		movs	r6, r7
 1161              	.LVL83:
 1162              	.LBE13:
 204:strong-arm\src\threefish/threefish.c **** 
 205:strong-arm\src\threefish/threefish.c **** 		/* Subtract subkey */
 206:strong-arm\src\threefish/threefish.c **** 		if ((roundnum & 3) == 0)
 1163              		.loc 1 206 0 is_stmt 1
 1164 0174 BB07     		lsls	r3, r7, #30
 1165 0176 00D0     		beq	.LCB1078
 1166 0178 6EE0     		b	.L42	@long jump
 1167              	.LCB1078:
 1168              	.LBB14:
 207:strong-arm\src\threefish/threefish.c **** 		{
 208:strong-arm\src\threefish/threefish.c **** 			/* Update subkey */
 209:strong-arm\src\threefish/threefish.c **** 			uint8_t s = roundnum >> 2;
 1169              		.loc 1 209 0
 1170 017a B908     		lsrs	r1, r7, #2
 210:strong-arm\src\threefish/threefish.c **** 			extra = k[8];
 1171              		.loc 1 210 0
 1172 017c 369B     		ldr	r3, [sp, #216]
 1173 017e 379C     		ldr	r4, [sp, #220]
 1174 0180 0493     		str	r3, [sp, #16]
 1175 0182 0594     		str	r4, [sp, #20]
 1176              	.LVL84:
 211:strong-arm\src\threefish/threefish.c **** 			k[8] = k[7] - (s+1);
 1177              		.loc 1 211 0
 1178 0184 349B     		ldr	r3, [sp, #208]
 1179 0186 359C     		ldr	r4, [sp, #212]
 1180              	.LVL85:
 1181 0188 0A93     		str	r3, [sp, #40]
 1182 018a 0B94     		str	r4, [sp, #44]
 1183 018c 4B1C     		adds	r3, r1, #1
 1184 018e 0693     		str	r3, [sp, #24]
 1185 0190 DB17     		asrs	r3, r3, #31
 1186 0192 0793     		str	r3, [sp, #28]
 1187 0194 0A9A     		ldr	r2, [sp, #40]
 1188 0196 0B9B     		ldr	r3, [sp, #44]
 1189 0198 069C     		ldr	r4, [sp, #24]
 1190 019a 079D     		ldr	r5, [sp, #28]
 1191              	.LVL86:
 1192 019c 121B     		subs	r2, r2, r4
 1193 019e AB41     		sbcs	r3, r3, r5
 1194 01a0 3692     		str	r2, [sp, #216]
 1195 01a2 3793     		str	r3, [sp, #220]
 212:strong-arm\src\threefish/threefish.c **** 			k[7] = k[6] - t[1] + s;
ARM GAS  C:\Users\Ray\AppData\Local\Temp\ccnKUjQ7.s 			page 26


 1196              		.loc 1 212 0
 1197 01a4 329B     		ldr	r3, [sp, #200]
 1198 01a6 339C     		ldr	r4, [sp, #204]
 1199 01a8 0A93     		str	r3, [sp, #40]
 1200 01aa 0B94     		str	r4, [sp, #44]
 1201 01ac 229A     		ldr	r2, [sp, #136]
 1202 01ae 239B     		ldr	r3, [sp, #140]
 1203 01b0 0A9C     		ldr	r4, [sp, #40]
 1204 01b2 0B9D     		ldr	r5, [sp, #44]
 1205 01b4 0A92     		str	r2, [sp, #40]
 1206 01b6 0B93     		str	r3, [sp, #44]
 1207 01b8 A41A     		subs	r4, r4, r2
 1208 01ba 9D41     		sbcs	r5, r5, r3
 1209 01bc 2200     		movs	r2, r4
 1210 01be 2B00     		movs	r3, r5
 1211 01c0 0891     		str	r1, [sp, #32]
 1212 01c2 0021     		movs	r1, #0
 1213 01c4 0991     		str	r1, [sp, #36]
 1214 01c6 0898     		ldr	r0, [sp, #32]
 1215 01c8 0999     		ldr	r1, [sp, #36]
 1216 01ca 1218     		adds	r2, r2, r0
 1217 01cc 4B41     		adcs	r3, r3, r1
 1218 01ce 3492     		str	r2, [sp, #208]
 1219 01d0 3593     		str	r3, [sp, #212]
 213:strong-arm\src\threefish/threefish.c **** 			k[6] = k[5];
 1220              		.loc 1 213 0
 1221 01d2 309B     		ldr	r3, [sp, #192]
 1222 01d4 319C     		ldr	r4, [sp, #196]
 1223 01d6 3293     		str	r3, [sp, #200]
 1224 01d8 3394     		str	r4, [sp, #204]
 214:strong-arm\src\threefish/threefish.c **** 			k[5] = k[4] + t[2];
 1225              		.loc 1 214 0
 1226 01da 2E9B     		ldr	r3, [sp, #184]
 1227 01dc 2F9C     		ldr	r4, [sp, #188]
 1228 01de 2498     		ldr	r0, [sp, #144]
 1229 01e0 2599     		ldr	r1, [sp, #148]
 1230 01e2 1B18     		adds	r3, r3, r0
 1231 01e4 4C41     		adcs	r4, r4, r1
 1232 01e6 1A00     		movs	r2, r3
 1233 01e8 2300     		movs	r3, r4
 1234 01ea 3092     		str	r2, [sp, #192]
 1235 01ec 3193     		str	r3, [sp, #196]
 215:strong-arm\src\threefish/threefish.c **** 			k[4] = k[3];
 1236              		.loc 1 215 0
 1237 01ee 2C9B     		ldr	r3, [sp, #176]
 1238 01f0 2D9C     		ldr	r4, [sp, #180]
 1239 01f2 2E93     		str	r3, [sp, #184]
 1240 01f4 2F94     		str	r4, [sp, #188]
 216:strong-arm\src\threefish/threefish.c **** 			k[3] = k[2];
 1241              		.loc 1 216 0
 1242 01f6 2A9B     		ldr	r3, [sp, #168]
 1243 01f8 2B9C     		ldr	r4, [sp, #172]
 1244 01fa 2C93     		str	r3, [sp, #176]
 1245 01fc 2D94     		str	r4, [sp, #180]
 217:strong-arm\src\threefish/threefish.c **** 			k[2] = k[1];
 1246              		.loc 1 217 0
 1247 01fe 289B     		ldr	r3, [sp, #160]
ARM GAS  C:\Users\Ray\AppData\Local\Temp\ccnKUjQ7.s 			page 27


 1248 0200 299C     		ldr	r4, [sp, #164]
 1249 0202 0C93     		str	r3, [sp, #48]
 1250 0204 0D94     		str	r4, [sp, #52]
 1251 0206 2A93     		str	r3, [sp, #168]
 1252 0208 2B94     		str	r4, [sp, #172]
 218:strong-arm\src\threefish/threefish.c **** 			k[1] = k[0];
 1253              		.loc 1 218 0
 1254 020a 269B     		ldr	r3, [sp, #152]
 1255 020c 279C     		ldr	r4, [sp, #156]
 1256 020e 2893     		str	r3, [sp, #160]
 1257 0210 2994     		str	r4, [sp, #164]
 219:strong-arm\src\threefish/threefish.c **** 			k[0] = extra;
 1258              		.loc 1 219 0
 1259 0212 049B     		ldr	r3, [sp, #16]
 1260 0214 059C     		ldr	r4, [sp, #20]
 1261 0216 2693     		str	r3, [sp, #152]
 1262 0218 2794     		str	r4, [sp, #156]
 1263              	.LVL87:
 220:strong-arm\src\threefish/threefish.c **** 
 221:strong-arm\src\threefish/threefish.c **** 			extra = t[2];
 222:strong-arm\src\threefish/threefish.c **** 			t[2] = t[1];
 1264              		.loc 1 222 0
 1265 021a 0A9A     		ldr	r2, [sp, #40]
 1266 021c 0B9B     		ldr	r3, [sp, #44]
 1267 021e 2492     		str	r2, [sp, #144]
 1268 0220 2593     		str	r3, [sp, #148]
 223:strong-arm\src\threefish/threefish.c **** 			t[1] = t[0];
 1269              		.loc 1 223 0
 1270 0222 209B     		ldr	r3, [sp, #128]
 1271 0224 219C     		ldr	r4, [sp, #132]
 1272 0226 2293     		str	r3, [sp, #136]
 1273 0228 2394     		str	r4, [sp, #140]
 224:strong-arm\src\threefish/threefish.c **** 			t[0] = extra;
 1274              		.loc 1 224 0
 1275 022a 2090     		str	r0, [sp, #128]
 1276 022c 2191     		str	r1, [sp, #132]
 1277              	.LVL88:
 1278              	.LBB15:
 225:strong-arm\src\threefish/threefish.c **** 
 226:strong-arm\src\threefish/threefish.c **** 			/* Subtract */
 227:strong-arm\src\threefish/threefish.c **** 			for (int i = 0; i < 8; ++i)
 1279              		.loc 1 227 0
 1280 022e 0020     		movs	r0, #0
 1281              	.LVL89:
 1282 0230 10E0     		b	.L43
 1283              	.LVL90:
 1284              	.L44:
 228:strong-arm\src\threefish/threefish.c **** 				v[i] -= k[i];
 1285              		.loc 1 228 0 discriminator 3
 1286 0232 C300     		lsls	r3, r0, #3
 1287 0234 26AA     		add	r2, sp, #152
 1288 0236 D218     		adds	r2, r2, r3
 1289 0238 1468     		ldr	r4, [r2]
 1290 023a 5568     		ldr	r5, [r2, #4]
 1291 023c 10AA     		add	r2, sp, #64
 1292 023e 9446     		mov	ip, r2
 1293 0240 6344     		add	r3, r3, ip
ARM GAS  C:\Users\Ray\AppData\Local\Temp\ccnKUjQ7.s 			page 28


 1294 0242 1968     		ldr	r1, [r3]
 1295 0244 5A68     		ldr	r2, [r3, #4]
 1296 0246 091B     		subs	r1, r1, r4
 1297 0248 AA41     		sbcs	r2, r2, r5
 1298 024a 0C00     		movs	r4, r1
 1299 024c 1500     		movs	r5, r2
 1300 024e 1C60     		str	r4, [r3]
 1301 0250 5D60     		str	r5, [r3, #4]
 227:strong-arm\src\threefish/threefish.c **** 				v[i] -= k[i];
 1302              		.loc 1 227 0 discriminator 3
 1303 0252 0130     		adds	r0, r0, #1
 1304              	.LVL91:
 1305              	.L43:
 227:strong-arm\src\threefish/threefish.c **** 				v[i] -= k[i];
 1306              		.loc 1 227 0 is_stmt 0 discriminator 1
 1307 0254 0728     		cmp	r0, #7
 1308 0256 ECDD     		ble	.L44
 1309              	.LVL92:
 1310              	.L42:
 1311              	.LBE15:
 1312              	.LBE14:
 1313              	.LBE12:
 187:strong-arm\src\threefish/threefish.c **** 	{
 1314              		.loc 1 187 0 is_stmt 1 discriminator 2
 1315 0258 731E     		subs	r3, r6, #1
 1316 025a DEB2     		uxtb	r6, r3
 1317              	.LVL93:
 1318              	.L39:
 187:strong-arm\src\threefish/threefish.c **** 	{
 1319              		.loc 1 187 0 is_stmt 0 discriminator 1
 1320 025c FF2E     		cmp	r6, #255
 1321 025e 00D0     		beq	.LCB1192
 1322 0260 50E7     		b	.L45	@long jump
 1323              	.LCB1192:
 1324              	.LBE11:
 229:strong-arm\src\threefish/threefish.c **** 		}
 230:strong-arm\src\threefish/threefish.c **** 	}
 231:strong-arm\src\threefish/threefish.c **** 
 232:strong-arm\src\threefish/threefish.c **** 	words_to_bytes (plaintext, v, 8);
 1325              		.loc 1 232 0 is_stmt 1
 1326 0262 0822     		movs	r2, #8
 1327 0264 10A9     		add	r1, sp, #64
 1328 0266 0F98     		ldr	r0, [sp, #60]
 1329 0268 FFF7FEFF 		bl	words_to_bytes
 1330              	.LVL94:
 233:strong-arm\src\threefish/threefish.c **** }
 1331              		.loc 1 233 0
 1332 026c 39B0     		add	sp, sp, #228
 1333              		@ sp needed
 1334              	.LVL95:
 1335 026e F0BD     		pop	{r4, r5, r6, r7, pc}
 1336              	.L47:
 1337              		.align	2
 1338              	.L46:
 1339 0270 221AFCA9 		.word	-1443096030
 1340 0274 DA1BD11B 		.word	466688986
 1341              		.cfi_endproc
ARM GAS  C:\Users\Ray\AppData\Local\Temp\ccnKUjQ7.s 			page 29


 1342              	.LFE7:
 1343              		.size	threefish512_decrypt_block, .-threefish512_decrypt_block
 1344              		.global	C240
 1345              		.global	R8
 1346              		.section	.rodata
 1347              		.align	3
 1348              		.set	.LANCHOR0,. + 0
 1349              		.type	R8, %object
 1350              		.size	R8, 32
 1351              	R8:
 1352 0000 2E       		.byte	46
 1353 0001 24       		.byte	36
 1354 0002 13       		.byte	19
 1355 0003 25       		.byte	37
 1356 0004 21       		.byte	33
 1357 0005 1B       		.byte	27
 1358 0006 0E       		.byte	14
 1359 0007 2A       		.byte	42
 1360 0008 11       		.byte	17
 1361 0009 31       		.byte	49
 1362 000a 24       		.byte	36
 1363 000b 27       		.byte	39
 1364 000c 2C       		.byte	44
 1365 000d 09       		.byte	9
 1366 000e 36       		.byte	54
 1367 000f 38       		.byte	56
 1368 0010 27       		.byte	39
 1369 0011 1E       		.byte	30
 1370 0012 22       		.byte	34
 1371 0013 18       		.byte	24
 1372 0014 0D       		.byte	13
 1373 0015 32       		.byte	50
 1374 0016 0A       		.byte	10
 1375 0017 11       		.byte	17
 1376 0018 19       		.byte	25
 1377 0019 1D       		.byte	29
 1378 001a 27       		.byte	39
 1379 001b 2B       		.byte	43
 1380 001c 08       		.byte	8
 1381 001d 23       		.byte	35
 1382 001e 38       		.byte	56
 1383 001f 16       		.byte	22
 1384              		.type	C240, %object
 1385              		.size	C240, 8
 1386              	C240:
 1387 0020 221AFCA9 		.word	-1443096030
 1388 0024 DA1BD11B 		.word	466688986
 1389              		.text
 1390              	.Letext0:
 1391              		.file 2 "c:\\program files (x86)\\cypress\\psoc creator\\4.1\\psoc creator\\import\\gnu\\arm\\5.4.
 1392              		.file 3 "c:\\program files (x86)\\cypress\\psoc creator\\4.1\\psoc creator\\import\\gnu\\arm\\5.4.