ARM GAS  C:\Users\Ray\AppData\Local\Temp\ccnKUjQ7.s 			page 1


   1              		.syntax unified
   2              		.cpu cortex-m0
   3              		.fpu softvfp
   4              		.eabi_attribute 20, 1
   5              		.eabi_attribute 21, 1
   6              		.eabi_attribute 23, 3
   7              		.eabi_attribute 24, 1
   8              		.eabi_attribute 25, 1
   9              		.eabi_attribute 26, 1
  10              		.eabi_attribute 30, 1
  11              		.eabi_attribute 34, 0
  12              		.eabi_attribute 18, 4
  13              		.thumb
  14              		.syntax unified
  15              		.file	"threefish.c"
  16              		.text
  17              	.Ltext0:
  18              		.cfi_sections	.debug_frame
  19              		.section	.text.unpack_uint64_little,"ax",%progbits
  20              		.align	2
  21              		.code	16
  22              		.thumb_func
  23              		.type	unpack_uint64_little, %function
  24              	unpack_uint64_little:
  25              	.LFB0:
  26              		.file 1 "strong-arm\\src\\threefish\\threefish.c"
   1:strong-arm\src\threefish/threefish.c **** /* Currently, only 512-bit mode is implemented. */
   2:strong-arm\src\threefish/threefish.c **** #include <strong-arm/threefish.h>
   3:strong-arm\src\threefish/threefish.c **** 
   4:strong-arm\src\threefish/threefish.c **** 
   5:strong-arm\src\threefish/threefish.c **** /* Rotation Constants */
   6:strong-arm\src\threefish/threefish.c **** const uint8_t R8[8][4] = {
   7:strong-arm\src\threefish/threefish.c **** 	{46, 36, 19, 37},
   8:strong-arm\src\threefish/threefish.c **** 	{33, 27, 14, 42},
   9:strong-arm\src\threefish/threefish.c **** 	{17, 49, 36, 39},
  10:strong-arm\src\threefish/threefish.c **** 	{44, 9, 54, 56},
  11:strong-arm\src\threefish/threefish.c **** 	{39, 30, 34, 24},
  12:strong-arm\src\threefish/threefish.c **** 	{13, 50, 10, 17},
  13:strong-arm\src\threefish/threefish.c **** 	{25, 29, 39, 43},
  14:strong-arm\src\threefish/threefish.c **** 	{8, 35, 56, 22}
  15:strong-arm\src\threefish/threefish.c **** };
  16:strong-arm\src\threefish/threefish.c **** 
  17:strong-arm\src\threefish/threefish.c **** /* C240 */
  18:strong-arm\src\threefish/threefish.c **** const uint64_t C240 = 0x1BD11BDAA9FC1A22ull;
  19:strong-arm\src\threefish/threefish.c **** 
  20:strong-arm\src\threefish/threefish.c **** 
  21:strong-arm\src\threefish/threefish.c **** /* Rotate Left */
  22:strong-arm\src\threefish/threefish.c **** #define ROL(x, n) (((x) << (n)) | ((x) >> (64 - (n))))
  23:strong-arm\src\threefish/threefish.c **** 
  24:strong-arm\src\threefish/threefish.c **** /* Rotate Right */
  25:strong-arm\src\threefish/threefish.c **** #define ROR(x, n) (((x) >> (n)) | ((x) << (64 - (n))))
  26:strong-arm\src\threefish/threefish.c **** 
  27:strong-arm\src\threefish/threefish.c **** 
  28:strong-arm\src\threefish/threefish.c **** static uint64_t unpack_uint64_little (uint8_t const src[static 8])
  29:strong-arm\src\threefish/threefish.c **** {
  27              		.loc 1 29 0
  28              		.cfi_startproc
ARM GAS  C:\Users\Ray\AppData\Local\Temp\ccnKUjQ7.s 			page 2


  29              		@ args = 0, pretend = 0, frame = 0
  30              		@ frame_needed = 0, uses_anonymous_args = 0
  31              		@ link register save eliminated.
  32              	.LVL0:
  33 0000 0300     		movs	r3, r0
  30:strong-arm\src\threefish/threefish.c **** 	return   ((uint64_t)(src[0]) <<  0)
  34              		.loc 1 30 0
  35 0002 0278     		ldrb	r2, [r0]
  31:strong-arm\src\threefish/threefish.c **** 	       | ((uint64_t)(src[1]) <<  8)
  36              		.loc 1 31 0
  37 0004 4078     		ldrb	r0, [r0, #1]
  38              	.LVL1:
  39 0006 0002     		lsls	r0, r0, #8
  40 0008 1043     		orrs	r0, r2
  32:strong-arm\src\threefish/threefish.c **** 	       | ((uint64_t)(src[2]) << 16)
  41              		.loc 1 32 0
  42 000a 9A78     		ldrb	r2, [r3, #2]
  43 000c 1204     		lsls	r2, r2, #16
  44 000e 1043     		orrs	r0, r2
  33:strong-arm\src\threefish/threefish.c **** 	       | ((uint64_t)(src[3]) << 24)
  45              		.loc 1 33 0
  46 0010 DA78     		ldrb	r2, [r3, #3]
  47 0012 1206     		lsls	r2, r2, #24
  48 0014 1043     		orrs	r0, r2
  34:strong-arm\src\threefish/threefish.c **** 	       | ((uint64_t)(src[4]) << 32)
  49              		.loc 1 34 0
  50 0016 1A79     		ldrb	r2, [r3, #4]
  35:strong-arm\src\threefish/threefish.c **** 	       | ((uint64_t)(src[5]) << 40)
  51              		.loc 1 35 0
  52 0018 5979     		ldrb	r1, [r3, #5]
  53 001a 0902     		lsls	r1, r1, #8
  54 001c 1143     		orrs	r1, r2
  36:strong-arm\src\threefish/threefish.c **** 	       | ((uint64_t)(src[6]) << 48)
  55              		.loc 1 36 0
  56 001e 9A79     		ldrb	r2, [r3, #6]
  57 0020 1204     		lsls	r2, r2, #16
  58 0022 1143     		orrs	r1, r2
  37:strong-arm\src\threefish/threefish.c **** 	       | ((uint64_t)(src[7]) << 56);
  59              		.loc 1 37 0
  60 0024 DB79     		ldrb	r3, [r3, #7]
  61              	.LVL2:
  62 0026 1B06     		lsls	r3, r3, #24
  30:strong-arm\src\threefish/threefish.c **** 	       | ((uint64_t)(src[1]) <<  8)
  63              		.loc 1 30 0
  64 0028 1943     		orrs	r1, r3
  38:strong-arm\src\threefish/threefish.c **** }
  65              		.loc 1 38 0
  66              		@ sp needed
  67 002a 7047     		bx	lr
  68              		.cfi_endproc
  69              	.LFE0:
  70              		.size	unpack_uint64_little, .-unpack_uint64_little
  71              		.section	.text.pack_uint64_little,"ax",%progbits
  72              		.align	2
  73              		.code	16
  74              		.thumb_func
  75              		.type	pack_uint64_little, %function
ARM GAS  C:\Users\Ray\AppData\Local\Temp\ccnKUjQ7.s 			page 3


  76              	pack_uint64_little:
  77              	.LFB1:
  39:strong-arm\src\threefish/threefish.c **** 
  40:strong-arm\src\threefish/threefish.c **** 
  41:strong-arm\src\threefish/threefish.c **** static void pack_uint64_little (uint8_t dst[static 8], uint64_t src)
  42:strong-arm\src\threefish/threefish.c **** {
  78              		.loc 1 42 0
  79              		.cfi_startproc
  80              		@ args = 0, pretend = 0, frame = 0
  81              		@ frame_needed = 0, uses_anonymous_args = 0
  82              		@ link register save eliminated.
  83              	.LVL3:
  43:strong-arm\src\threefish/threefish.c **** 	dst[0] = (uint8_t)(src >>  0);
  84              		.loc 1 43 0
  85 0000 0270     		strb	r2, [r0]
  44:strong-arm\src\threefish/threefish.c **** 	dst[1] = (uint8_t)(src >>  8);
  86              		.loc 1 44 0
  87 0002 110A     		lsrs	r1, r2, #8
  88 0004 4170     		strb	r1, [r0, #1]
  45:strong-arm\src\threefish/threefish.c **** 	dst[2] = (uint8_t)(src >> 16);
  89              		.loc 1 45 0
  90 0006 110C     		lsrs	r1, r2, #16
  91 0008 8170     		strb	r1, [r0, #2]
  46:strong-arm\src\threefish/threefish.c **** 	dst[3] = (uint8_t)(src >> 24);
  92              		.loc 1 46 0
  93 000a 120E     		lsrs	r2, r2, #24
  94              	.LVL4:
  95 000c C270     		strb	r2, [r0, #3]
  47:strong-arm\src\threefish/threefish.c **** 	dst[4] = (uint8_t)(src >> 32);
  96              		.loc 1 47 0
  97 000e 0371     		strb	r3, [r0, #4]
  48:strong-arm\src\threefish/threefish.c **** 	dst[5] = (uint8_t)(src >> 40);
  98              		.loc 1 48 0
  99 0010 1A0A     		lsrs	r2, r3, #8
 100 0012 4271     		strb	r2, [r0, #5]
  49:strong-arm\src\threefish/threefish.c **** 	dst[6] = (uint8_t)(src >> 48);
 101              		.loc 1 49 0
 102 0014 1A0C     		lsrs	r2, r3, #16
 103 0016 8271     		strb	r2, [r0, #6]
  50:strong-arm\src\threefish/threefish.c **** 	dst[7] = (uint8_t)(src >> 56);
 104              		.loc 1 50 0
 105 0018 1B0E     		lsrs	r3, r3, #24
 106 001a C371     		strb	r3, [r0, #7]
  51:strong-arm\src\threefish/threefish.c **** }
 107              		.loc 1 51 0
 108              		@ sp needed
 109 001c 7047     		bx	lr
 110              		.cfi_endproc
 111              	.LFE1:
 112              		.size	pack_uint64_little, .-pack_uint64_little
 113 001e C046     		.section	.text.bytes_to_words,"ax",%progbits
 114              		.align	2
 115              		.code	16
 116              		.thumb_func
 117              		.type	bytes_to_words, %function
 118              	bytes_to_words:
 119              	.LFB2:
ARM GAS  C:\Users\Ray\AppData\Local\Temp\ccnKUjQ7.s 			page 4


  52:strong-arm\src\threefish/threefish.c **** 
  53:strong-arm\src\threefish/threefish.c **** 
  54:strong-arm\src\threefish/threefish.c **** static void bytes_to_words (uint64_t *dst, uint8_t const *src, uint32_t count)
  55:strong-arm\src\threefish/threefish.c **** {
 120              		.loc 1 55 0
 121              		.cfi_startproc
 122              		@ args = 0, pretend = 0, frame = 0
 123              		@ frame_needed = 0, uses_anonymous_args = 0
 124              	.LVL5:
 125 0000 F8B5     		push	{r3, r4, r5, r6, r7, lr}
 126              		.cfi_def_cfa_offset 24
 127              		.cfi_offset 3, -24
 128              		.cfi_offset 4, -20
 129              		.cfi_offset 5, -16
 130              		.cfi_offset 6, -12
 131              		.cfi_offset 7, -8
 132              		.cfi_offset 14, -4
 133 0002 0600     		movs	r6, r0
 134 0004 0D00     		movs	r5, r1
 135 0006 1400     		movs	r4, r2
  56:strong-arm\src\threefish/threefish.c **** 	for (; count; --count)
 136              		.loc 1 56 0
 137 0008 09E0     		b	.L4
 138              	.LVL6:
 139              	.L5:
  57:strong-arm\src\threefish/threefish.c **** 	{
  58:strong-arm\src\threefish/threefish.c **** 		*(dst++) = unpack_uint64_little (src);
 140              		.loc 1 58 0 discriminator 2
 141 000a 3700     		movs	r7, r6
 142 000c 0837     		adds	r7, r7, #8
 143              	.LVL7:
 144 000e 2800     		movs	r0, r5
 145 0010 FFF7FEFF 		bl	unpack_uint64_little
 146              	.LVL8:
 147 0014 3060     		str	r0, [r6]
 148 0016 7160     		str	r1, [r6, #4]
  59:strong-arm\src\threefish/threefish.c **** 		src += 8;
 149              		.loc 1 59 0 discriminator 2
 150 0018 0835     		adds	r5, r5, #8
 151              	.LVL9:
  56:strong-arm\src\threefish/threefish.c **** 	for (; count; --count)
 152              		.loc 1 56 0 discriminator 2
 153 001a 013C     		subs	r4, r4, #1
 154              	.LVL10:
  58:strong-arm\src\threefish/threefish.c **** 		src += 8;
 155              		.loc 1 58 0 discriminator 2
 156 001c 3E00     		movs	r6, r7
 157              	.LVL11:
 158              	.L4:
  56:strong-arm\src\threefish/threefish.c **** 	{
 159              		.loc 1 56 0 discriminator 1
 160 001e 002C     		cmp	r4, #0
 161 0020 F3D1     		bne	.L5
  60:strong-arm\src\threefish/threefish.c **** 	}
  61:strong-arm\src\threefish/threefish.c **** }
 162              		.loc 1 61 0
 163              		@ sp needed
ARM GAS  C:\Users\Ray\AppData\Local\Temp\ccnKUjQ7.s 			page 5


 164              	.LVL12:
 165              	.LVL13:
 166              	.LVL14:
 167 0022 F8BD     		pop	{r3, r4, r5, r6, r7, pc}
 168              		.cfi_endproc
 169              	.LFE2:
 170              		.size	bytes_to_words, .-bytes_to_words
 171              		.section	.text.words_to_bytes,"ax",%progbits
 172              		.align	2
 173              		.code	16
 174              		.thumb_func
 175              		.type	words_to_bytes, %function
 176              	words_to_bytes:
 177              	.LFB3:
  62:strong-arm\src\threefish/threefish.c **** 
  63:strong-arm\src\threefish/threefish.c **** 
  64:strong-arm\src\threefish/threefish.c **** static void words_to_bytes (uint8_t *dst, uint64_t const *src, uint32_t count)
  65:strong-arm\src\threefish/threefish.c **** {
 178              		.loc 1 65 0
 179              		.cfi_startproc
 180              		@ args = 0, pretend = 0, frame = 0
 181              		@ frame_needed = 0, uses_anonymous_args = 0
 182              	.LVL15:
 183 0000 70B5     		push	{r4, r5, r6, lr}
 184              		.cfi_def_cfa_offset 16
 185              		.cfi_offset 4, -16
 186              		.cfi_offset 5, -12
 187              		.cfi_offset 6, -8
 188              		.cfi_offset 14, -4
 189 0002 0500     		movs	r5, r0
 190 0004 0E00     		movs	r6, r1
 191 0006 1400     		movs	r4, r2
  66:strong-arm\src\threefish/threefish.c **** 	for (; count; --count)
 192              		.loc 1 66 0
 193 0008 05E0     		b	.L7
 194              	.LVL16:
 195              	.L8:
  67:strong-arm\src\threefish/threefish.c **** 	{
  68:strong-arm\src\threefish/threefish.c **** 		pack_uint64_little (dst, *src);
 196              		.loc 1 68 0 discriminator 2
 197 000a 0CCE     		ldmia	r6!, {r2, r3}
 198              	.LVL17:
 199 000c 2800     		movs	r0, r5
 200 000e FFF7FEFF 		bl	pack_uint64_little
 201              	.LVL18:
  69:strong-arm\src\threefish/threefish.c **** 		src += 1;
  70:strong-arm\src\threefish/threefish.c **** 		dst += 8;
 202              		.loc 1 70 0 discriminator 2
 203 0012 0835     		adds	r5, r5, #8
 204              	.LVL19:
  66:strong-arm\src\threefish/threefish.c **** 	{
 205              		.loc 1 66 0 discriminator 2
 206 0014 013C     		subs	r4, r4, #1
 207              	.LVL20:
 208              	.L7:
  66:strong-arm\src\threefish/threefish.c **** 	{
 209              		.loc 1 66 0 is_stmt 0 discriminator 1
ARM GAS  C:\Users\Ray\AppData\Local\Temp\ccnKUjQ7.s 			page 6


 210 0016 002C     		cmp	r4, #0
 211 0018 F7D1     		bne	.L8
  71:strong-arm\src\threefish/threefish.c **** 	}
  72:strong-arm\src\threefish/threefish.c **** }
 212              		.loc 1 72 0 is_stmt 1
 213              		@ sp needed
 214              	.LVL21:
 215              	.LVL22:
 216              	.LVL23:
 217 001a 70BD     		pop	{r4, r5, r6, pc}
 218              		.cfi_endproc
 219              	.LFE3:
 220              		.size	words_to_bytes, .-words_to_bytes
 221              		.section	.text.mix8,"ax",%progbits
 222              		.align	2
 223              		.code	16
 224              		.thumb_func
 225              		.type	mix8, %function
 226              	mix8:
 227              	.LFB4:
  73:strong-arm\src\threefish/threefish.c **** 
  74:strong-arm\src\threefish/threefish.c **** 
  75:strong-arm\src\threefish/threefish.c **** /* Mix function for N_w = 8 */
  76:strong-arm\src\threefish/threefish.c **** static void mix8 (uint64_t *y0, uint64_t *y1, uint8_t roundnum, uint8_t j, uint64_t x0, uint64_t x1
  77:strong-arm\src\threefish/threefish.c **** {
 228              		.loc 1 77 0
 229              		.cfi_startproc
 230              		@ args = 16, pretend = 0, frame = 8
 231              		@ frame_needed = 0, uses_anonymous_args = 0
 232              	.LVL24:
 233 0000 F0B5     		push	{r4, r5, r6, r7, lr}
 234              		.cfi_def_cfa_offset 20
 235              		.cfi_offset 4, -20
 236              		.cfi_offset 5, -16
 237              		.cfi_offset 6, -12
 238              		.cfi_offset 7, -8
 239              		.cfi_offset 14, -4
 240 0002 4746     		mov	r7, r8
 241 0004 80B4     		push	{r7}
 242              		.cfi_def_cfa_offset 24
 243              		.cfi_offset 8, -24
 244 0006 82B0     		sub	sp, sp, #8
 245              		.cfi_def_cfa_offset 32
 246 0008 0A9E     		ldr	r6, [sp, #40]
 247 000a 0B9F     		ldr	r7, [sp, #44]
  78:strong-arm\src\threefish/threefish.c **** 	*y0 = x0 + x1;
 248              		.loc 1 78 0
 249 000c 089C     		ldr	r4, [sp, #32]
 250 000e 099D     		ldr	r5, [sp, #36]
 251 0010 A419     		adds	r4, r4, r6
 252 0012 7D41     		adcs	r5, r5, r7
 253 0014 0094     		str	r4, [sp]
 254 0016 0195     		str	r5, [sp, #4]
 255 0018 0460     		str	r4, [r0]
 256 001a 4560     		str	r5, [r0, #4]
  79:strong-arm\src\threefish/threefish.c **** 	*y1 = ROL (x1, R8[roundnum&7][j]) ^ *y0;
 257              		.loc 1 79 0
ARM GAS  C:\Users\Ray\AppData\Local\Temp\ccnKUjQ7.s 			page 7


 258 001c 0720     		movs	r0, #7
 259              	.LVL25:
 260 001e 0240     		ands	r2, r0
 261              	.LVL26:
 262 0020 9200     		lsls	r2, r2, #2
 263 0022 2748     		ldr	r0, .L14
 264 0024 8218     		adds	r2, r0, r2
 265 0026 D35C     		ldrb	r3, [r2, r3]
 266              	.LVL27:
 267 0028 2022     		movs	r2, #32
 268 002a 5242     		rsbs	r2, r2, #0
 269 002c 9A18     		adds	r2, r3, r2
 270 002e 03D4     		bmi	.L10
 271 0030 3000     		movs	r0, r6
 272 0032 9040     		lsls	r0, r0, r2
 273 0034 0200     		movs	r2, r0
 274 0036 06E0     		b	.L11
 275              	.L10:
 276 0038 2022     		movs	r2, #32
 277 003a D21A     		subs	r2, r2, r3
 278 003c 3000     		movs	r0, r6
 279 003e D040     		lsrs	r0, r0, r2
 280 0040 3A00     		movs	r2, r7
 281 0042 9A40     		lsls	r2, r2, r3
 282 0044 0243     		orrs	r2, r0
 283              	.L11:
 284 0046 3000     		movs	r0, r6
 285 0048 9840     		lsls	r0, r0, r3
 286 004a 5C42     		rsbs	r4, r3, #0
 287 004c A446     		mov	ip, r4
 288 004e 3F24     		movs	r4, #63
 289 0050 A046     		mov	r8, r4
 290 0052 6446     		mov	r4, ip
 291 0054 4546     		mov	r5, r8
 292 0056 2C40     		ands	r4, r5
 293 0058 203C     		subs	r4, r4, #32
 294 005a A446     		mov	ip, r4
 295 005c 04D4     		bmi	.L12
 296 005e 3C00     		movs	r4, r7
 297 0060 6546     		mov	r5, ip
 298 0062 EC40     		lsrs	r4, r4, r5
 299 0064 A446     		mov	ip, r4
 300 0066 17E0     		b	.L13
 301              	.L12:
 302 0068 5C42     		rsbs	r4, r3, #0
 303 006a A446     		mov	ip, r4
 304 006c 3F24     		movs	r4, #63
 305 006e A046     		mov	r8, r4
 306 0070 6446     		mov	r4, ip
 307 0072 4546     		mov	r5, r8
 308 0074 2C40     		ands	r4, r5
 309 0076 A446     		mov	ip, r4
 310 0078 2024     		movs	r4, #32
 311 007a 6546     		mov	r5, ip
 312 007c 641B     		subs	r4, r4, r5
 313 007e A046     		mov	r8, r4
 314 0080 3C00     		movs	r4, r7
ARM GAS  C:\Users\Ray\AppData\Local\Temp\ccnKUjQ7.s 			page 8


 315 0082 4546     		mov	r5, r8
 316 0084 AC40     		lsls	r4, r4, r5
 317 0086 A046     		mov	r8, r4
 318 0088 3400     		movs	r4, r6
 319 008a 6546     		mov	r5, ip
 320 008c EC40     		lsrs	r4, r4, r5
 321 008e A446     		mov	ip, r4
 322 0090 4446     		mov	r4, r8
 323 0092 6546     		mov	r5, ip
 324 0094 2C43     		orrs	r4, r5
 325 0096 A446     		mov	ip, r4
 326              	.L13:
 327 0098 5B42     		rsbs	r3, r3, #0
 328 009a 3F26     		movs	r6, #63
 329 009c 3340     		ands	r3, r6
 330 009e 3E00     		movs	r6, r7
 331 00a0 DE40     		lsrs	r6, r6, r3
 332 00a2 6346     		mov	r3, ip
 333 00a4 0343     		orrs	r3, r0
 334 00a6 1800     		movs	r0, r3
 335 00a8 3300     		movs	r3, r6
 336 00aa 1343     		orrs	r3, r2
 337 00ac 009C     		ldr	r4, [sp]
 338 00ae 019D     		ldr	r5, [sp, #4]
 339 00b0 6040     		eors	r0, r4
 340 00b2 6B40     		eors	r3, r5
 341 00b4 0860     		str	r0, [r1]
 342 00b6 4B60     		str	r3, [r1, #4]
  80:strong-arm\src\threefish/threefish.c **** }
 343              		.loc 1 80 0
 344 00b8 02B0     		add	sp, sp, #8
 345              		@ sp needed
 346 00ba 04BC     		pop	{r2}
 347 00bc 9046     		mov	r8, r2
 348 00be F0BD     		pop	{r4, r5, r6, r7, pc}
 349              	.L15:
 350              		.align	2
 351              	.L14:
 352 00c0 00000000 		.word	.LANCHOR0
 353              		.cfi_endproc
 354              	.LFE4:
 355              		.size	mix8, .-mix8
 356              		.section	.text.unmix8,"ax",%progbits
 357              		.align	2
 358              		.code	16
 359              		.thumb_func
 360              		.type	unmix8, %function
 361              	unmix8:
 362              	.LFB5:
  81:strong-arm\src\threefish/threefish.c **** 
  82:strong-arm\src\threefish/threefish.c **** 
  83:strong-arm\src\threefish/threefish.c **** /* Inverse Mix function for N_w = 8 */
  84:strong-arm\src\threefish/threefish.c **** static void unmix8 (uint64_t *x0, uint64_t *x1, uint8_t roundnum, uint8_t j, uint64_t y0, uint64_t 
  85:strong-arm\src\threefish/threefish.c **** {
 363              		.loc 1 85 0
 364              		.cfi_startproc
 365              		@ args = 16, pretend = 0, frame = 0
ARM GAS  C:\Users\Ray\AppData\Local\Temp\ccnKUjQ7.s 			page 9


 366              		@ frame_needed = 0, uses_anonymous_args = 0
 367              	.LVL28:
 368 0000 F0B5     		push	{r4, r5, r6, r7, lr}
 369              		.cfi_def_cfa_offset 20
 370              		.cfi_offset 4, -20
 371              		.cfi_offset 5, -16
 372              		.cfi_offset 6, -12
 373              		.cfi_offset 7, -8
 374              		.cfi_offset 14, -4
 375 0002 5F46     		mov	r7, fp
 376 0004 5646     		mov	r6, r10
 377 0006 4D46     		mov	r5, r9
 378 0008 4446     		mov	r4, r8
 379 000a F0B4     		push	{r4, r5, r6, r7}
 380              		.cfi_def_cfa_offset 36
 381              		.cfi_offset 8, -36
 382              		.cfi_offset 9, -32
 383              		.cfi_offset 10, -28
 384              		.cfi_offset 11, -24
 385 000c 8446     		mov	ip, r0
 386 000e 8946     		mov	r9, r1
  86:strong-arm\src\threefish/threefish.c **** 	*x1 = ROR (y1 ^ y0, R8[roundnum&7][j]);
 387              		.loc 1 86 0
 388 0010 0B9D     		ldr	r5, [sp, #44]
 389 0012 0999     		ldr	r1, [sp, #36]
 390              	.LVL29:
 391 0014 4D40     		eors	r5, r1
 392 0016 0C9C     		ldr	r4, [sp, #48]
 393 0018 0A99     		ldr	r1, [sp, #40]
 394 001a 4C40     		eors	r4, r1
 395 001c A046     		mov	r8, r4
 396 001e 0726     		movs	r6, #7
 397 0020 3240     		ands	r2, r6
 398              	.LVL30:
 399 0022 9200     		lsls	r2, r2, #2
 400 0024 224E     		ldr	r6, .L21
 401 0026 B218     		adds	r2, r6, r2
 402 0028 D35C     		ldrb	r3, [r2, r3]
 403              	.LVL31:
 404 002a 2022     		movs	r2, #32
 405 002c 5242     		rsbs	r2, r2, #0
 406 002e 9A18     		adds	r2, r3, r2
 407 0030 02D4     		bmi	.L17
 408 0032 D440     		lsrs	r4, r4, r2
 409 0034 2200     		movs	r2, r4
 410 0036 06E0     		b	.L18
 411              	.L17:
 412 0038 2022     		movs	r2, #32
 413 003a D21A     		subs	r2, r2, r3
 414 003c 2600     		movs	r6, r4
 415 003e 9640     		lsls	r6, r6, r2
 416 0040 2A00     		movs	r2, r5
 417 0042 DA40     		lsrs	r2, r2, r3
 418 0044 3243     		orrs	r2, r6
 419              	.L18:
 420 0046 4446     		mov	r4, r8
 421 0048 DC40     		lsrs	r4, r4, r3
ARM GAS  C:\Users\Ray\AppData\Local\Temp\ccnKUjQ7.s 			page 10


 422 004a 5E42     		rsbs	r6, r3, #0
 423 004c 3F27     		movs	r7, #63
 424 004e 3E40     		ands	r6, r7
 425 0050 203E     		subs	r6, r6, #32
 426 0052 B246     		mov	r10, r6
 427 0054 04D4     		bmi	.L19
 428 0056 2900     		movs	r1, r5
 429 0058 5046     		mov	r0, r10
 430              	.LVL32:
 431 005a 8140     		lsls	r1, r1, r0
 432 005c 0F00     		movs	r7, r1
 433 005e 0EE0     		b	.L20
 434              	.LVL33:
 435              	.L19:
 436 0060 5E42     		rsbs	r6, r3, #0
 437 0062 3F27     		movs	r7, #63
 438 0064 3740     		ands	r7, r6
 439 0066 BA46     		mov	r10, r7
 440 0068 2026     		movs	r6, #32
 441 006a F61B     		subs	r6, r6, r7
 442 006c 2900     		movs	r1, r5
 443 006e F140     		lsrs	r1, r1, r6
 444 0070 8B46     		mov	fp, r1
 445 0072 4146     		mov	r1, r8
 446 0074 5046     		mov	r0, r10
 447              	.LVL34:
 448 0076 8140     		lsls	r1, r1, r0
 449 0078 0F00     		movs	r7, r1
 450 007a 5946     		mov	r1, fp
 451 007c 0F43     		orrs	r7, r1
 452              	.L20:
 453 007e 5B42     		rsbs	r3, r3, #0
 454 0080 3F21     		movs	r1, #63
 455 0082 0B40     		ands	r3, r1
 456 0084 9D40     		lsls	r5, r5, r3
 457 0086 2A43     		orrs	r2, r5
 458 0088 3B00     		movs	r3, r7
 459 008a 2343     		orrs	r3, r4
 460 008c 1600     		movs	r6, r2
 461 008e 1F00     		movs	r7, r3
 462 0090 4B46     		mov	r3, r9
 463 0092 1E60     		str	r6, [r3]
 464 0094 5F60     		str	r7, [r3, #4]
  87:strong-arm\src\threefish/threefish.c **** 	*x0 = y0 - *x1;
 465              		.loc 1 87 0
 466 0096 099C     		ldr	r4, [sp, #36]
 467 0098 0A9D     		ldr	r5, [sp, #40]
 468 009a A41B     		subs	r4, r4, r6
 469 009c BD41     		sbcs	r5, r5, r7
 470 009e 6346     		mov	r3, ip
 471 00a0 1C60     		str	r4, [r3]
 472 00a2 5D60     		str	r5, [r3, #4]
  88:strong-arm\src\threefish/threefish.c **** }
 473              		.loc 1 88 0
 474              		@ sp needed
 475              	.LVL35:
 476 00a4 3CBC     		pop	{r2, r3, r4, r5}
ARM GAS  C:\Users\Ray\AppData\Local\Temp\ccnKUjQ7.s 			page 11


 477 00a6 9046     		mov	r8, r2
 478 00a8 9946     		mov	r9, r3
 479 00aa A246     		mov	r10, r4
 480 00ac AB46     		mov	fp, r5
 481 00ae F0BD     		pop	{r4, r5, r6, r7, pc}
 482              	.L22:
 483              		.align	2
 484              	.L21:
 485 00b0 00000000 		.word	.LANCHOR0
 486              		.cfi_endproc
 487              	.LFE5:
 488              		.size	unmix8, .-unmix8
 489              		.section	.text.threefish512_encrypt_block,"ax",%progbits
 490              		.align	2
 491              		.global	threefish512_encrypt_block
 492              		.code	16
 493              		.thumb_func
 494              		.type	threefish512_encrypt_block, %function
 495              	threefish512_encrypt_block:
 496              	.LFB6:
  89:strong-arm\src\threefish/threefish.c **** 
  90:strong-arm\src\threefish/threefish.c **** 
  91:strong-arm\src\threefish/threefish.c **** void threefish512_encrypt_block (uint8_t ciphertext[static 64], uint8_t const key[static 64], uint8
  92:strong-arm\src\threefish/threefish.c **** {
 497              		.loc 1 92 0
 498              		.cfi_startproc
 499              		@ args = 0, pretend = 0, frame = 200
 500              		@ frame_needed = 0, uses_anonymous_args = 0
 501              	.LVL36:
 502 0000 F0B5     		push	{r4, r5, r6, r7, lr}
 503              		.cfi_def_cfa_offset 20
 504              		.cfi_offset 4, -20
 505              		.cfi_offset 5, -16
 506              		.cfi_offset 6, -12
 507              		.cfi_offset 7, -8
 508              		.cfi_offset 14, -4
 509 0002 B7B0     		sub	sp, sp, #220
 510              		.cfi_def_cfa_offset 240
 511 0004 0D90     		str	r0, [sp, #52]
 512 0006 1500     		movs	r5, r2
 513 0008 1C00     		movs	r4, r3
  93:strong-arm\src\threefish/threefish.c **** 	uint64_t k[9];
  94:strong-arm\src\threefish/threefish.c **** 	uint64_t t[3];
  95:strong-arm\src\threefish/threefish.c **** 	uint64_t v[8];
  96:strong-arm\src\threefish/threefish.c **** 
  97:strong-arm\src\threefish/threefish.c **** 	bytes_to_words (k, key, 8);
 514              		.loc 1 97 0
 515 000a 0822     		movs	r2, #8
 516              	.LVL37:
 517 000c 24A8     		add	r0, sp, #144
 518              	.LVL38:
 519 000e FFF7FEFF 		bl	bytes_to_words
 520              	.LVL39:
  98:strong-arm\src\threefish/threefish.c **** 	bytes_to_words (t, tweak, 2);
 521              		.loc 1 98 0
 522 0012 0222     		movs	r2, #2
 523 0014 2900     		movs	r1, r5
ARM GAS  C:\Users\Ray\AppData\Local\Temp\ccnKUjQ7.s 			page 12


 524 0016 1EA8     		add	r0, sp, #120
 525 0018 FFF7FEFF 		bl	bytes_to_words
 526              	.LVL40:
  99:strong-arm\src\threefish/threefish.c **** 	bytes_to_words (v, plaintext, 8);
 527              		.loc 1 99 0
 528 001c 0822     		movs	r2, #8
 529 001e 2100     		movs	r1, r4
 530 0020 0EA8     		add	r0, sp, #56
 531 0022 FFF7FEFF 		bl	bytes_to_words
 532              	.LVL41:
 100:strong-arm\src\threefish/threefish.c **** 
 101:strong-arm\src\threefish/threefish.c **** 	/* Begin Key Schedule */
 102:strong-arm\src\threefish/threefish.c **** 	k[8] = C240 ^ k[0] ^ k[1] ^ k[2] ^ k[3] ^ k[4] ^ k[5] ^ k[6] ^ k[7];
 533              		.loc 1 102 0
 534 0026 259B     		ldr	r3, [sp, #148]
 535 0028 0693     		str	r3, [sp, #24]
 536 002a 269B     		ldr	r3, [sp, #152]
 537 002c 0893     		str	r3, [sp, #32]
 538 002e 279B     		ldr	r3, [sp, #156]
 539 0030 0A93     		str	r3, [sp, #40]
 540 0032 089A     		ldr	r2, [sp, #32]
 541 0034 249B     		ldr	r3, [sp, #144]
 542 0036 5A40     		eors	r2, r3
 543 0038 069B     		ldr	r3, [sp, #24]
 544 003a 0A99     		ldr	r1, [sp, #40]
 545 003c 4B40     		eors	r3, r1
 546 003e 2899     		ldr	r1, [sp, #160]
 547 0040 0691     		str	r1, [sp, #24]
 548 0042 2999     		ldr	r1, [sp, #164]
 549 0044 0891     		str	r1, [sp, #32]
 550 0046 0699     		ldr	r1, [sp, #24]
 551 0048 4A40     		eors	r2, r1
 552 004a 0899     		ldr	r1, [sp, #32]
 553 004c 4B40     		eors	r3, r1
 554 004e 2A99     		ldr	r1, [sp, #168]
 555 0050 0691     		str	r1, [sp, #24]
 556 0052 2B99     		ldr	r1, [sp, #172]
 557 0054 0891     		str	r1, [sp, #32]
 558 0056 0699     		ldr	r1, [sp, #24]
 559 0058 4A40     		eors	r2, r1
 560 005a 0899     		ldr	r1, [sp, #32]
 561 005c 4B40     		eors	r3, r1
 562 005e 2C99     		ldr	r1, [sp, #176]
 563 0060 0691     		str	r1, [sp, #24]
 564 0062 2D99     		ldr	r1, [sp, #180]
 565 0064 0891     		str	r1, [sp, #32]
 566 0066 0699     		ldr	r1, [sp, #24]
 567 0068 4A40     		eors	r2, r1
 568 006a 0899     		ldr	r1, [sp, #32]
 569 006c 4B40     		eors	r3, r1
 570 006e 2E9C     		ldr	r4, [sp, #184]
 571 0070 2F9D     		ldr	r5, [sp, #188]
 572              	.LVL42:
 573 0072 6240     		eors	r2, r4
 574 0074 6B40     		eors	r3, r5
 575 0076 309E     		ldr	r6, [sp, #192]
 576 0078 319F     		ldr	r7, [sp, #196]
ARM GAS  C:\Users\Ray\AppData\Local\Temp\ccnKUjQ7.s 			page 13


 577 007a 7240     		eors	r2, r6
 578 007c 7B40     		eors	r3, r7
 579 007e 3299     		ldr	r1, [sp, #200]
 580 0080 0691     		str	r1, [sp, #24]
 581 0082 3399     		ldr	r1, [sp, #204]
 582 0084 0891     		str	r1, [sp, #32]
 583 0086 0699     		ldr	r1, [sp, #24]
 584 0088 4A40     		eors	r2, r1
 585 008a 0899     		ldr	r1, [sp, #32]
 586 008c 4B40     		eors	r3, r1
 587 008e 7149     		ldr	r1, .L34
 588 0090 4A40     		eors	r2, r1
 589 0092 7149     		ldr	r1, .L34+4
 590 0094 4B40     		eors	r3, r1
 591 0096 3492     		str	r2, [sp, #208]
 592 0098 3593     		str	r3, [sp, #212]
 103:strong-arm\src\threefish/threefish.c **** 	t[2] = t[0] ^ t[1];
 593              		.loc 1 103 0
 594 009a 2098     		ldr	r0, [sp, #128]
 595 009c 2199     		ldr	r1, [sp, #132]
 596 009e 1E9A     		ldr	r2, [sp, #120]
 597 00a0 4240     		eors	r2, r0
 598 00a2 1F9B     		ldr	r3, [sp, #124]
 599 00a4 4B40     		eors	r3, r1
 600 00a6 2292     		str	r2, [sp, #136]
 601 00a8 2393     		str	r3, [sp, #140]
 104:strong-arm\src\threefish/threefish.c **** 
 105:strong-arm\src\threefish/threefish.c **** 	k[5] += t[0];
 602              		.loc 1 105 0
 603 00aa 1E9A     		ldr	r2, [sp, #120]
 604 00ac 1F9B     		ldr	r3, [sp, #124]
 605 00ae 1219     		adds	r2, r2, r4
 606 00b0 6B41     		adcs	r3, r3, r5
 607 00b2 2E92     		str	r2, [sp, #184]
 608 00b4 2F93     		str	r3, [sp, #188]
 106:strong-arm\src\threefish/threefish.c **** 	k[6] += t[1];
 609              		.loc 1 106 0
 610 00b6 8019     		adds	r0, r0, r6
 611 00b8 7941     		adcs	r1, r1, r7
 612 00ba 3090     		str	r0, [sp, #192]
 613 00bc 3191     		str	r1, [sp, #196]
 614              	.LVL43:
 615              	.LBB2:
 107:strong-arm\src\threefish/threefish.c **** 
 108:strong-arm\src\threefish/threefish.c **** 	for (uint8_t roundnum = 0; roundnum < 72; ++roundnum)
 616              		.loc 1 108 0
 617 00be 0026     		movs	r6, #0
 618 00c0 AAE0     		b	.L24
 619              	.LVL44:
 620              	.L30:
 621              	.LBB3:
 109:strong-arm\src\threefish/threefish.c **** 	{
 110:strong-arm\src\threefish/threefish.c **** 		uint64_t extra;
 111:strong-arm\src\threefish/threefish.c **** 
 112:strong-arm\src\threefish/threefish.c **** 		/* Add subkey */
 113:strong-arm\src\threefish/threefish.c **** 		if ((roundnum & 3) == 0)
 622              		.loc 1 113 0
ARM GAS  C:\Users\Ray\AppData\Local\Temp\ccnKUjQ7.s 			page 14


 623 00c2 B307     		lsls	r3, r6, #30
 624 00c4 10D0     		beq	.L33
 625 00c6 6EE0     		b	.L26
 626              	.LVL45:
 627              	.L27:
 628              	.LBB4:
 629              	.LBB5:
 114:strong-arm\src\threefish/threefish.c **** 		{
 115:strong-arm\src\threefish/threefish.c **** 			for (int i = 0; i < 8; ++i)
 116:strong-arm\src\threefish/threefish.c **** 				v[i] += k[i];
 630              		.loc 1 116 0 discriminator 3
 631 00c8 C300     		lsls	r3, r0, #3
 632 00ca 24AA     		add	r2, sp, #144
 633 00cc D218     		adds	r2, r2, r3
 634 00ce 1468     		ldr	r4, [r2]
 635 00d0 5568     		ldr	r5, [r2, #4]
 636 00d2 0EAA     		add	r2, sp, #56
 637 00d4 9446     		mov	ip, r2
 638 00d6 6344     		add	r3, r3, ip
 639 00d8 1968     		ldr	r1, [r3]
 640 00da 5A68     		ldr	r2, [r3, #4]
 641 00dc 6418     		adds	r4, r4, r1
 642 00de 5541     		adcs	r5, r5, r2
 643 00e0 1C60     		str	r4, [r3]
 644 00e2 5D60     		str	r5, [r3, #4]
 115:strong-arm\src\threefish/threefish.c **** 				v[i] += k[i];
 645              		.loc 1 115 0 discriminator 3
 646 00e4 0130     		adds	r0, r0, #1
 647              	.LVL46:
 648 00e6 00E0     		b	.L25
 649              	.LVL47:
 650              	.L33:
 651              	.LBE5:
 652              	.LBE4:
 653 00e8 0020     		movs	r0, #0
 654              	.L25:
 655              	.LVL48:
 656              	.LBB7:
 657              	.LBB6:
 115:strong-arm\src\threefish/threefish.c **** 				v[i] += k[i];
 658              		.loc 1 115 0 is_stmt 0 discriminator 1
 659 00ea 0728     		cmp	r0, #7
 660 00ec ECDD     		ble	.L27
 661              	.LVL49:
 662              	.LBE6:
 117:strong-arm\src\threefish/threefish.c **** 
 118:strong-arm\src\threefish/threefish.c **** 			/* Update subkey */
 119:strong-arm\src\threefish/threefish.c **** 			uint8_t s = roundnum >> 2;
 120:strong-arm\src\threefish/threefish.c **** 			extra = k[0];
 663              		.loc 1 120 0 is_stmt 1
 664 00ee 249B     		ldr	r3, [sp, #144]
 665 00f0 259C     		ldr	r4, [sp, #148]
 666 00f2 0693     		str	r3, [sp, #24]
 667 00f4 0794     		str	r4, [sp, #28]
 668              	.LVL50:
 121:strong-arm\src\threefish/threefish.c **** 			k[0] = k[1];
 669              		.loc 1 121 0
ARM GAS  C:\Users\Ray\AppData\Local\Temp\ccnKUjQ7.s 			page 15


 670 00f6 2699     		ldr	r1, [sp, #152]
 671 00f8 279A     		ldr	r2, [sp, #156]
 672 00fa 2491     		str	r1, [sp, #144]
 673 00fc 2592     		str	r2, [sp, #148]
 122:strong-arm\src\threefish/threefish.c **** 			k[1] = k[2];
 674              		.loc 1 122 0
 675 00fe 2899     		ldr	r1, [sp, #160]
 676 0100 299A     		ldr	r2, [sp, #164]
 677 0102 2691     		str	r1, [sp, #152]
 678 0104 2792     		str	r2, [sp, #156]
 123:strong-arm\src\threefish/threefish.c **** 			k[2] = k[3];
 679              		.loc 1 123 0
 680 0106 2A99     		ldr	r1, [sp, #168]
 681 0108 2B9A     		ldr	r2, [sp, #172]
 682 010a 2891     		str	r1, [sp, #160]
 683 010c 2992     		str	r2, [sp, #164]
 124:strong-arm\src\threefish/threefish.c **** 			k[3] = k[4];
 684              		.loc 1 124 0
 685 010e 2C99     		ldr	r1, [sp, #176]
 686 0110 2D9A     		ldr	r2, [sp, #180]
 687 0112 2A91     		str	r1, [sp, #168]
 688 0114 2B92     		str	r2, [sp, #172]
 125:strong-arm\src\threefish/threefish.c **** 			k[4] = k[5] - t[0];
 689              		.loc 1 125 0
 690 0116 2E99     		ldr	r1, [sp, #184]
 691 0118 2F9A     		ldr	r2, [sp, #188]
 692 011a 0891     		str	r1, [sp, #32]
 693 011c 0992     		str	r2, [sp, #36]
 694 011e 1E9B     		ldr	r3, [sp, #120]
 695 0120 1F9C     		ldr	r4, [sp, #124]
 696              	.LVL51:
 697 0122 1800     		movs	r0, r3
 698              	.LVL52:
 699 0124 2100     		movs	r1, r4
 700 0126 089A     		ldr	r2, [sp, #32]
 701 0128 099B     		ldr	r3, [sp, #36]
 702 012a 0890     		str	r0, [sp, #32]
 703 012c 0991     		str	r1, [sp, #36]
 704 012e 121A     		subs	r2, r2, r0
 705 0130 8B41     		sbcs	r3, r3, r1
 706 0132 2C92     		str	r2, [sp, #176]
 707 0134 2D93     		str	r3, [sp, #180]
 126:strong-arm\src\threefish/threefish.c **** 			k[5] = k[6];
 708              		.loc 1 126 0
 709 0136 3099     		ldr	r1, [sp, #192]
 710 0138 319A     		ldr	r2, [sp, #196]
 711 013a 2E91     		str	r1, [sp, #184]
 712 013c 2F92     		str	r2, [sp, #188]
 127:strong-arm\src\threefish/threefish.c **** 			k[6] = k[7] - s + t[2];
 713              		.loc 1 127 0
 714 013e 3299     		ldr	r1, [sp, #200]
 715 0140 339A     		ldr	r2, [sp, #204]
 716 0142 0A91     		str	r1, [sp, #40]
 717 0144 0B92     		str	r2, [sp, #44]
 718 0146 B108     		lsrs	r1, r6, #2
 719 0148 0491     		str	r1, [sp, #16]
 720 014a 0021     		movs	r1, #0
ARM GAS  C:\Users\Ray\AppData\Local\Temp\ccnKUjQ7.s 			page 16


 721 014c 0591     		str	r1, [sp, #20]
 722 014e 0A9A     		ldr	r2, [sp, #40]
 723 0150 0B9B     		ldr	r3, [sp, #44]
 724 0152 0498     		ldr	r0, [sp, #16]
 725 0154 0599     		ldr	r1, [sp, #20]
 726 0156 121A     		subs	r2, r2, r0
 727 0158 8B41     		sbcs	r3, r3, r1
 728 015a 229C     		ldr	r4, [sp, #136]
 729 015c 239D     		ldr	r5, [sp, #140]
 730 015e 1219     		adds	r2, r2, r4
 731 0160 6B41     		adcs	r3, r3, r5
 732 0162 3092     		str	r2, [sp, #192]
 733 0164 3193     		str	r3, [sp, #196]
 128:strong-arm\src\threefish/threefish.c **** 			k[7] = k[8] + s + 1;
 734              		.loc 1 128 0
 735 0166 3499     		ldr	r1, [sp, #208]
 736 0168 359A     		ldr	r2, [sp, #212]
 737 016a 0A91     		str	r1, [sp, #40]
 738 016c 0B92     		str	r2, [sp, #44]
 739 016e 0800     		movs	r0, r1
 740 0170 1100     		movs	r1, r2
 741 0172 049A     		ldr	r2, [sp, #16]
 742 0174 059B     		ldr	r3, [sp, #20]
 743 0176 8018     		adds	r0, r0, r2
 744 0178 5941     		adcs	r1, r1, r3
 745 017a 0122     		movs	r2, #1
 746 017c 0023     		movs	r3, #0
 747 017e 1218     		adds	r2, r2, r0
 748 0180 4B41     		adcs	r3, r3, r1
 749 0182 3292     		str	r2, [sp, #200]
 750 0184 3393     		str	r3, [sp, #204]
 129:strong-arm\src\threefish/threefish.c **** 			k[8] = extra;
 751              		.loc 1 129 0
 752 0186 069A     		ldr	r2, [sp, #24]
 753 0188 079B     		ldr	r3, [sp, #28]
 754 018a 3492     		str	r2, [sp, #208]
 755 018c 3593     		str	r3, [sp, #212]
 756              	.LVL53:
 130:strong-arm\src\threefish/threefish.c **** 
 131:strong-arm\src\threefish/threefish.c **** 			extra = t[0];
 132:strong-arm\src\threefish/threefish.c **** 			t[0] = t[1];
 757              		.loc 1 132 0
 758 018e 209A     		ldr	r2, [sp, #128]
 759 0190 219B     		ldr	r3, [sp, #132]
 760 0192 0692     		str	r2, [sp, #24]
 761 0194 0793     		str	r3, [sp, #28]
 762 0196 1E92     		str	r2, [sp, #120]
 763 0198 1F93     		str	r3, [sp, #124]
 133:strong-arm\src\threefish/threefish.c **** 			t[1] = t[2];
 764              		.loc 1 133 0
 765 019a 2094     		str	r4, [sp, #128]
 766 019c 2195     		str	r5, [sp, #132]
 134:strong-arm\src\threefish/threefish.c **** 			t[2] = extra;
 767              		.loc 1 134 0
 768 019e 089B     		ldr	r3, [sp, #32]
 769 01a0 099C     		ldr	r4, [sp, #36]
 770 01a2 2293     		str	r3, [sp, #136]
ARM GAS  C:\Users\Ray\AppData\Local\Temp\ccnKUjQ7.s 			page 17


 771 01a4 2394     		str	r4, [sp, #140]
 772              	.LVL54:
 773              	.L26:
 774              	.LBE7:
 775 01a6 0024     		movs	r4, #0
 776 01a8 3700     		movs	r7, r6
 777 01aa 17E0     		b	.L28
 778              	.LVL55:
 779              	.L29:
 780              	.LBB8:
 135:strong-arm\src\threefish/threefish.c **** 		}
 136:strong-arm\src\threefish/threefish.c **** 
 137:strong-arm\src\threefish/threefish.c **** 		/* Mix */
 138:strong-arm\src\threefish/threefish.c **** 		for (int j = 0; j < 4; ++j)
 139:strong-arm\src\threefish/threefish.c **** 			mix8 (v+(2*j), v+(2*j)+1, roundnum, j, v[2*j], v[(2*j)+1]);
 781              		.loc 1 139 0 discriminator 3
 782 01ac 2001     		lsls	r0, r4, #4
 783 01ae 6200     		lsls	r2, r4, #1
 784 01b0 0132     		adds	r2, r2, #1
 785 01b2 E3B2     		uxtb	r3, r4
 786 01b4 0100     		movs	r1, r0
 787 01b6 0831     		adds	r1, r1, #8
 788 01b8 0EAD     		add	r5, sp, #56
 789 01ba AC46     		mov	ip, r5
 790 01bc 6144     		add	r1, r1, ip
 791 01be 6044     		add	r0, r0, ip
 792 01c0 D200     		lsls	r2, r2, #3
 793 01c2 6244     		add	r2, r2, ip
 794 01c4 1568     		ldr	r5, [r2]
 795 01c6 5668     		ldr	r6, [r2, #4]
 796 01c8 0295     		str	r5, [sp, #8]
 797 01ca 0396     		str	r6, [sp, #12]
 798 01cc 0568     		ldr	r5, [r0]
 799 01ce 4668     		ldr	r6, [r0, #4]
 800 01d0 0095     		str	r5, [sp]
 801 01d2 0196     		str	r6, [sp, #4]
 802 01d4 3A00     		movs	r2, r7
 803 01d6 FFF7FEFF 		bl	mix8
 804              	.LVL56:
 138:strong-arm\src\threefish/threefish.c **** 			mix8 (v+(2*j), v+(2*j)+1, roundnum, j, v[2*j], v[(2*j)+1]);
 805              		.loc 1 138 0 discriminator 3
 806 01da 0134     		adds	r4, r4, #1
 807              	.LVL57:
 808              	.L28:
 138:strong-arm\src\threefish/threefish.c **** 			mix8 (v+(2*j), v+(2*j)+1, roundnum, j, v[2*j], v[(2*j)+1]);
 809              		.loc 1 138 0 is_stmt 0 discriminator 1
 810 01dc 032C     		cmp	r4, #3
 811 01de E5DD     		ble	.L29
 812              	.LBE8:
 140:strong-arm\src\threefish/threefish.c **** 
 141:strong-arm\src\threefish/threefish.c **** 		/* Permute */
 142:strong-arm\src\threefish/threefish.c **** 		extra = v[0];
 813              		.loc 1 142 0 is_stmt 1 discriminator 2
 814 01e0 0E9A     		ldr	r2, [sp, #56]
 815 01e2 0F9B     		ldr	r3, [sp, #60]
 816              	.LVL58:
 143:strong-arm\src\threefish/threefish.c **** 		v[0] = v[2];
ARM GAS  C:\Users\Ray\AppData\Local\Temp\ccnKUjQ7.s 			page 18


 817              		.loc 1 143 0 discriminator 2
 818 01e4 1298     		ldr	r0, [sp, #72]
 819 01e6 1399     		ldr	r1, [sp, #76]
 820 01e8 0E90     		str	r0, [sp, #56]
 821 01ea 0F91     		str	r1, [sp, #60]
 144:strong-arm\src\threefish/threefish.c **** 		v[2] = v[4];
 822              		.loc 1 144 0 discriminator 2
 823 01ec 1698     		ldr	r0, [sp, #88]
 824 01ee 1799     		ldr	r1, [sp, #92]
 825 01f0 1290     		str	r0, [sp, #72]
 826 01f2 1391     		str	r1, [sp, #76]
 145:strong-arm\src\threefish/threefish.c **** 		v[4] = v[6];
 827              		.loc 1 145 0 discriminator 2
 828 01f4 1A98     		ldr	r0, [sp, #104]
 829 01f6 1B99     		ldr	r1, [sp, #108]
 830 01f8 1690     		str	r0, [sp, #88]
 831 01fa 1791     		str	r1, [sp, #92]
 146:strong-arm\src\threefish/threefish.c **** 		v[6] = extra;
 832              		.loc 1 146 0 discriminator 2
 833 01fc 1A92     		str	r2, [sp, #104]
 834 01fe 1B93     		str	r3, [sp, #108]
 147:strong-arm\src\threefish/threefish.c **** 		extra = v[3];
 835              		.loc 1 147 0 discriminator 2
 836 0200 149A     		ldr	r2, [sp, #80]
 837 0202 159B     		ldr	r3, [sp, #84]
 838              	.LVL59:
 148:strong-arm\src\threefish/threefish.c **** 		v[3] = v[7];
 839              		.loc 1 148 0 discriminator 2
 840 0204 1C98     		ldr	r0, [sp, #112]
 841 0206 1D99     		ldr	r1, [sp, #116]
 842 0208 0690     		str	r0, [sp, #24]
 843 020a 0791     		str	r1, [sp, #28]
 844 020c 1490     		str	r0, [sp, #80]
 845 020e 1591     		str	r1, [sp, #84]
 149:strong-arm\src\threefish/threefish.c **** 		v[7] = extra;
 846              		.loc 1 149 0 discriminator 2
 847 0210 1C92     		str	r2, [sp, #112]
 848 0212 1D93     		str	r3, [sp, #116]
 849              	.LBE3:
 108:strong-arm\src\threefish/threefish.c **** 	{
 850              		.loc 1 108 0 discriminator 2
 851 0214 7B1C     		adds	r3, r7, #1
 852 0216 DEB2     		uxtb	r6, r3
 853              	.LVL60:
 854              	.L24:
 108:strong-arm\src\threefish/threefish.c **** 	{
 855              		.loc 1 108 0 is_stmt 0 discriminator 1
 856 0218 472E     		cmp	r6, #71
 857 021a 00D8     		bhi	.LCB792
 858 021c 51E7     		b	.L30	@long jump
 859              	.LCB792:
 860 021e 0022     		movs	r2, #0
 861 0220 0EE0     		b	.L31
 862              	.LVL61:
 863              	.L32:
 864              	.LBE2:
 865              	.LBB9:
ARM GAS  C:\Users\Ray\AppData\Local\Temp\ccnKUjQ7.s 			page 19


 150:strong-arm\src\threefish/threefish.c **** 	}
 151:strong-arm\src\threefish/threefish.c **** 
 152:strong-arm\src\threefish/threefish.c **** 	/* Add last subkey */
 153:strong-arm\src\threefish/threefish.c **** 	for (int i = 0; i < 8; ++i)
 154:strong-arm\src\threefish/threefish.c **** 		v[i] += k[i];
 866              		.loc 1 154 0 is_stmt 1 discriminator 3
 867 0222 D300     		lsls	r3, r2, #3
 868 0224 24A9     		add	r1, sp, #144
 869 0226 C918     		adds	r1, r1, r3
 870 0228 0868     		ldr	r0, [r1]
 871 022a 4968     		ldr	r1, [r1, #4]
 872 022c 0EAC     		add	r4, sp, #56
 873 022e A446     		mov	ip, r4
 874 0230 6344     		add	r3, r3, ip
 875 0232 1C68     		ldr	r4, [r3]
 876 0234 5D68     		ldr	r5, [r3, #4]
 877 0236 0019     		adds	r0, r0, r4
 878 0238 6941     		adcs	r1, r1, r5
 879 023a 1860     		str	r0, [r3]
 880 023c 5960     		str	r1, [r3, #4]
 153:strong-arm\src\threefish/threefish.c **** 		v[i] += k[i];
 881              		.loc 1 153 0 discriminator 3
 882 023e 0132     		adds	r2, r2, #1
 883              	.LVL62:
 884              	.L31:
 153:strong-arm\src\threefish/threefish.c **** 		v[i] += k[i];
 885              		.loc 1 153 0 is_stmt 0 discriminator 1
 886 0240 072A     		cmp	r2, #7
 887 0242 EEDD     		ble	.L32
 888              	.LBE9:
 155:strong-arm\src\threefish/threefish.c **** 
 156:strong-arm\src\threefish/threefish.c **** 	words_to_bytes (ciphertext, v, 8);
 889              		.loc 1 156 0 is_stmt 1
 890 0244 0822     		movs	r2, #8
 891              	.LVL63:
 892 0246 0EA9     		add	r1, sp, #56
 893 0248 0D98     		ldr	r0, [sp, #52]
 894 024a FFF7FEFF 		bl	words_to_bytes
 895              	.LVL64:
 157:strong-arm\src\threefish/threefish.c **** }
 896              		.loc 1 157 0
 897 024e 37B0     		add	sp, sp, #220
 898              		@ sp needed
 899              	.LVL65:
 900 0250 F0BD     		pop	{r4, r5, r6, r7, pc}
 901              	.L35:
 902 0252 C046     		.align	2
 903              	.L34:
 904 0254 221AFCA9 		.word	-1443096030
 905 0258 DA1BD11B 		.word	466688986
 906              		.cfi_endproc
 907              	.LFE6:
 908              		.size	threefish512_encrypt_block, .-threefish512_encrypt_block
 909              		.section	.text.threefish512_decrypt_block,"ax",%progbits
 910              		.align	2
 911              		.global	threefish512_decrypt_block
 912              		.code	16
ARM GAS  C:\Users\Ray\AppData\Local\Temp\ccnKUjQ7.s 			page 20


 913              		.thumb_func
 914              		.type	threefish512_decrypt_block, %function
 915              	threefish512_decrypt_block:
 916              	.LFB7:
 158:strong-arm\src\threefish/threefish.c **** 
 159:strong-arm\src\threefish/threefish.c **** 
 160:strong-arm\src\threefish/threefish.c **** /* 
 161:strong-arm\src\threefish/threefish.c ****  * Decryption is the obvious inverse of encryption.  In other words, do everything backwards.
 162:strong-arm\src\threefish/threefish.c ****  * The only non-obvious thing here is reversing the Key Scheduling since we use a rolling key sched
 163:strong-arm\src\threefish/threefish.c ****  * implementation.
 164:strong-arm\src\threefish/threefish.c ****  */
 165:strong-arm\src\threefish/threefish.c **** void threefish512_decrypt_block (uint8_t plaintext[static 64], uint8_t const key[static 64], uint8_
 166:strong-arm\src\threefish/threefish.c **** {
 917              		.loc 1 166 0
 918              		.cfi_startproc
 919              		@ args = 0, pretend = 0, frame = 208
 920              		@ frame_needed = 0, uses_anonymous_args = 0
 921              	.LVL66:
 922 0000 F0B5     		push	{r4, r5, r6, r7, lr}
 923              		.cfi_def_cfa_offset 20
 924              		.cfi_offset 4, -20
 925              		.cfi_offset 5, -16
 926              		.cfi_offset 6, -12
 927              		.cfi_offset 7, -8
 928              		.cfi_offset 14, -4
 929 0002 B9B0     		sub	sp, sp, #228
 930              		.cfi_def_cfa_offset 248
 931 0004 0F90     		str	r0, [sp, #60]
 932 0006 1400     		movs	r4, r2
 933 0008 1D00     		movs	r5, r3
 167:strong-arm\src\threefish/threefish.c **** 	uint64_t k[9];
 168:strong-arm\src\threefish/threefish.c **** 	uint64_t t[3];
 169:strong-arm\src\threefish/threefish.c **** 	uint64_t v[8];
 170:strong-arm\src\threefish/threefish.c **** 
 171:strong-arm\src\threefish/threefish.c **** 	bytes_to_words (k, key, 8);
 934              		.loc 1 171 0
 935 000a 0822     		movs	r2, #8
 936              	.LVL67:
 937 000c 26A8     		add	r0, sp, #152
 938              	.LVL68:
 939 000e FFF7FEFF 		bl	bytes_to_words
 940              	.LVL69:
 172:strong-arm\src\threefish/threefish.c **** 	bytes_to_words (t, tweak, 2);
 941              		.loc 1 172 0
 942 0012 0222     		movs	r2, #2
 943 0014 2100     		movs	r1, r4
 944 0016 20A8     		add	r0, sp, #128
 945 0018 FFF7FEFF 		bl	bytes_to_words
 946              	.LVL70:
 173:strong-arm\src\threefish/threefish.c **** 	bytes_to_words (v, ciphertext, 8);
 947              		.loc 1 173 0
 948 001c 0822     		movs	r2, #8
 949 001e 2900     		movs	r1, r5
 950 0020 10A8     		add	r0, sp, #64
 951 0022 FFF7FEFF 		bl	bytes_to_words
 952              	.LVL71:
 174:strong-arm\src\threefish/threefish.c **** 
ARM GAS  C:\Users\Ray\AppData\Local\Temp\ccnKUjQ7.s 			page 21


 175:strong-arm\src\threefish/threefish.c **** 	/* Begin Key Schedule */
 176:strong-arm\src\threefish/threefish.c **** 	k[8] = C240 ^ k[0] ^ k[1] ^ k[2] ^ k[3] ^ k[4] ^ k[5] ^ k[6] ^ k[7];
 953              		.loc 1 176 0
 954 0026 279B     		ldr	r3, [sp, #156]
 955 0028 0493     		str	r3, [sp, #16]
 956 002a 289B     		ldr	r3, [sp, #160]
 957 002c 0A93     		str	r3, [sp, #40]
 958 002e 299B     		ldr	r3, [sp, #164]
 959 0030 0C93     		str	r3, [sp, #48]
 960 0032 0A9A     		ldr	r2, [sp, #40]
 961 0034 269B     		ldr	r3, [sp, #152]
 962 0036 5A40     		eors	r2, r3
 963 0038 049B     		ldr	r3, [sp, #16]
 964 003a 0C99     		ldr	r1, [sp, #48]
 965 003c 4B40     		eors	r3, r1
 966 003e 2A99     		ldr	r1, [sp, #168]
 967 0040 0491     		str	r1, [sp, #16]
 968 0042 2B99     		ldr	r1, [sp, #172]
 969 0044 0A91     		str	r1, [sp, #40]
 970 0046 0499     		ldr	r1, [sp, #16]
 971 0048 4A40     		eors	r2, r1
 972 004a 0A99     		ldr	r1, [sp, #40]
 973 004c 4B40     		eors	r3, r1
 974 004e 2C99     		ldr	r1, [sp, #176]
 975 0050 0491     		str	r1, [sp, #16]
 976 0052 2D99     		ldr	r1, [sp, #180]
 977 0054 0A91     		str	r1, [sp, #40]
 978 0056 0499     		ldr	r1, [sp, #16]
 979 0058 4A40     		eors	r2, r1
 980 005a 0A99     		ldr	r1, [sp, #40]
 981 005c 4B40     		eors	r3, r1
 982 005e 2E99     		ldr	r1, [sp, #184]
 983 0060 0491     		str	r1, [sp, #16]
 984 0062 2F99     		ldr	r1, [sp, #188]
 985 0064 0A91     		str	r1, [sp, #40]
 986 0066 0499     		ldr	r1, [sp, #16]
 987 0068 4A40     		eors	r2, r1
 988 006a 0A99     		ldr	r1, [sp, #40]
 989 006c 4B40     		eors	r3, r1
 990 006e 309C     		ldr	r4, [sp, #192]
 991 0070 319D     		ldr	r5, [sp, #196]
 992              	.LVL72:
 993 0072 6240     		eors	r2, r4
 994 0074 6B40     		eors	r3, r5
 995 0076 3298     		ldr	r0, [sp, #200]
 996 0078 3399     		ldr	r1, [sp, #204]
 997 007a 4240     		eors	r2, r0
 998 007c 0490     		str	r0, [sp, #16]
 999 007e 0591     		str	r1, [sp, #20]
 1000 0080 4B40     		eors	r3, r1
 1001 0082 349E     		ldr	r6, [sp, #208]
 1002 0084 359F     		ldr	r7, [sp, #212]
 1003 0086 7240     		eors	r2, r6
 1004 0088 0A96     		str	r6, [sp, #40]
 1005 008a 0B97     		str	r7, [sp, #44]
 1006 008c 7B40     		eors	r3, r7
 1007 008e 7849     		ldr	r1, .L46
ARM GAS  C:\Users\Ray\AppData\Local\Temp\ccnKUjQ7.s 			page 22


 1008 0090 4A40     		eors	r2, r1
 1009 0092 7849     		ldr	r1, .L46+4
 1010 0094 4B40     		eors	r3, r1
 1011 0096 3692     		str	r2, [sp, #216]
 1012 0098 3793     		str	r3, [sp, #220]
 177:strong-arm\src\threefish/threefish.c **** 	t[2] = t[0] ^ t[1];
 1013              		.loc 1 177 0
 1014 009a 209E     		ldr	r6, [sp, #128]
 1015 009c 219F     		ldr	r7, [sp, #132]
 1016 009e 2298     		ldr	r0, [sp, #136]
 1017 00a0 2399     		ldr	r1, [sp, #140]
 1018 00a2 3200     		movs	r2, r6
 1019 00a4 4240     		eors	r2, r0
 1020 00a6 3B00     		movs	r3, r7
 1021 00a8 4B40     		eors	r3, r1
 1022 00aa 2492     		str	r2, [sp, #144]
 1023 00ac 2593     		str	r3, [sp, #148]
 178:strong-arm\src\threefish/threefish.c **** 
 179:strong-arm\src\threefish/threefish.c **** 	k[5] += t[0];
 1024              		.loc 1 179 0
 1025 00ae 2200     		movs	r2, r4
 1026 00b0 2B00     		movs	r3, r5
 1027 00b2 9219     		adds	r2, r2, r6
 1028 00b4 7B41     		adcs	r3, r3, r7
 1029 00b6 3092     		str	r2, [sp, #192]
 1030 00b8 3193     		str	r3, [sp, #196]
 180:strong-arm\src\threefish/threefish.c **** 	k[6] += t[1];
 1031              		.loc 1 180 0
 1032 00ba 049B     		ldr	r3, [sp, #16]
 1033 00bc 059C     		ldr	r4, [sp, #20]
 1034 00be C018     		adds	r0, r0, r3
 1035 00c0 6141     		adcs	r1, r1, r4
 1036 00c2 3290     		str	r0, [sp, #200]
 1037 00c4 3391     		str	r1, [sp, #204]
 181:strong-arm\src\threefish/threefish.c **** 	k[7] += 18;
 1038              		.loc 1 181 0
 1039 00c6 1222     		movs	r2, #18
 1040 00c8 0023     		movs	r3, #0
 1041 00ca 0A9E     		ldr	r6, [sp, #40]
 1042 00cc 0B9F     		ldr	r7, [sp, #44]
 1043 00ce 9219     		adds	r2, r2, r6
 1044 00d0 7B41     		adcs	r3, r3, r7
 1045 00d2 3492     		str	r2, [sp, #208]
 1046 00d4 3593     		str	r3, [sp, #212]
 1047              	.LVL73:
 1048              	.LBB10:
 182:strong-arm\src\threefish/threefish.c **** 
 183:strong-arm\src\threefish/threefish.c **** 	/* Subtract last subkey */
 184:strong-arm\src\threefish/threefish.c **** 	for (int i = 0; i < 8; ++i)
 1049              		.loc 1 184 0
 1050 00d6 0022     		movs	r2, #0
 1051 00d8 10E0     		b	.L37
 1052              	.LVL74:
 1053              	.L38:
 185:strong-arm\src\threefish/threefish.c **** 		v[i] -= k[i];
 1054              		.loc 1 185 0 discriminator 3
 1055 00da D300     		lsls	r3, r2, #3
ARM GAS  C:\Users\Ray\AppData\Local\Temp\ccnKUjQ7.s 			page 23


 1056 00dc 26A9     		add	r1, sp, #152
 1057 00de C918     		adds	r1, r1, r3
 1058 00e0 0868     		ldr	r0, [r1]
 1059 00e2 4968     		ldr	r1, [r1, #4]
 1060 00e4 10AC     		add	r4, sp, #64
 1061 00e6 A446     		mov	ip, r4
 1062 00e8 6344     		add	r3, r3, ip
 1063 00ea 1C68     		ldr	r4, [r3]
 1064 00ec 5D68     		ldr	r5, [r3, #4]
 1065 00ee 241A     		subs	r4, r4, r0
 1066 00f0 8D41     		sbcs	r5, r5, r1
 1067 00f2 2000     		movs	r0, r4
 1068 00f4 2900     		movs	r1, r5
 1069 00f6 1860     		str	r0, [r3]
 1070 00f8 5960     		str	r1, [r3, #4]
 184:strong-arm\src\threefish/threefish.c **** 		v[i] -= k[i];
 1071              		.loc 1 184 0 discriminator 3
 1072 00fa 0132     		adds	r2, r2, #1
 1073              	.LVL75:
 1074              	.L37:
 184:strong-arm\src\threefish/threefish.c **** 		v[i] -= k[i];
 1075              		.loc 1 184 0 is_stmt 0 discriminator 1
 1076 00fc 072A     		cmp	r2, #7
 1077 00fe ECDD     		ble	.L38
 1078 0100 4726     		movs	r6, #71
 1079 0102 ABE0     		b	.L39
 1080              	.LVL76:
 1081              	.L45:
 1082              	.LBE10:
 1083              	.LBB11:
 1084              	.LBB12:
 186:strong-arm\src\threefish/threefish.c **** 
 187:strong-arm\src\threefish/threefish.c **** 	for (uint8_t roundnum = 71; roundnum != 255; --roundnum)
 188:strong-arm\src\threefish/threefish.c **** 	{
 189:strong-arm\src\threefish/threefish.c **** 		uint64_t extra;
 190:strong-arm\src\threefish/threefish.c **** 
 191:strong-arm\src\threefish/threefish.c **** 		/* Invert permutation */
 192:strong-arm\src\threefish/threefish.c **** 		extra = v[2];
 1085              		.loc 1 192 0 is_stmt 1
 1086 0104 149A     		ldr	r2, [sp, #80]
 1087 0106 159B     		ldr	r3, [sp, #84]
 1088              	.LVL77:
 193:strong-arm\src\threefish/threefish.c **** 		v[2] = v[0];
 1089              		.loc 1 193 0
 1090 0108 1098     		ldr	r0, [sp, #64]
 1091 010a 1199     		ldr	r1, [sp, #68]
 1092 010c 1490     		str	r0, [sp, #80]
 1093 010e 1591     		str	r1, [sp, #84]
 194:strong-arm\src\threefish/threefish.c **** 		v[0] = v[6];
 1094              		.loc 1 194 0
 1095 0110 1C98     		ldr	r0, [sp, #112]
 1096 0112 1D99     		ldr	r1, [sp, #116]
 1097 0114 1090     		str	r0, [sp, #64]
 1098 0116 1191     		str	r1, [sp, #68]
 195:strong-arm\src\threefish/threefish.c **** 		v[6] = v[4];
 1099              		.loc 1 195 0
 1100 0118 1898     		ldr	r0, [sp, #96]
ARM GAS  C:\Users\Ray\AppData\Local\Temp\ccnKUjQ7.s 			page 24


 1101 011a 1999     		ldr	r1, [sp, #100]
 1102 011c 1C90     		str	r0, [sp, #112]
 1103 011e 1D91     		str	r1, [sp, #116]
 196:strong-arm\src\threefish/threefish.c **** 		v[4] = extra;
 1104              		.loc 1 196 0
 1105 0120 1892     		str	r2, [sp, #96]
 1106 0122 1993     		str	r3, [sp, #100]
 197:strong-arm\src\threefish/threefish.c **** 		extra = v[3];
 1107              		.loc 1 197 0
 1108 0124 169A     		ldr	r2, [sp, #88]
 1109 0126 179B     		ldr	r3, [sp, #92]
 1110              	.LVL78:
 198:strong-arm\src\threefish/threefish.c **** 		v[3] = v[7];
 1111              		.loc 1 198 0
 1112 0128 1E98     		ldr	r0, [sp, #120]
 1113 012a 1F99     		ldr	r1, [sp, #124]
 1114 012c 0490     		str	r0, [sp, #16]
 1115 012e 0591     		str	r1, [sp, #20]
 1116 0130 1690     		str	r0, [sp, #88]
 1117 0132 1791     		str	r1, [sp, #92]
 199:strong-arm\src\threefish/threefish.c **** 		v[7] = extra;
 1118              		.loc 1 199 0
 1119 0134 1E92     		str	r2, [sp, #120]
 1120 0136 1F93     		str	r3, [sp, #124]
 1121              	.LVL79:
 1122              	.LBB13:
 200:strong-arm\src\threefish/threefish.c **** 
 201:strong-arm\src\threefish/threefish.c **** 		/* UnMIX */
 202:strong-arm\src\threefish/threefish.c **** 		for (int j = 0; j < 4; ++j)
 1123              		.loc 1 202 0
 1124 0138 0024     		movs	r4, #0
 1125 013a 3700     		movs	r7, r6
 1126 013c 17E0     		b	.L40
 1127              	.LVL80:
 1128              	.L41:
 203:strong-arm\src\threefish/threefish.c **** 			unmix8 (v+(2*j), v+(2*j)+1, roundnum, j, v[2*j], v[(2*j)+1]);
 1129              		.loc 1 203 0 discriminator 3
 1130 013e 2001     		lsls	r0, r4, #4
 1131 0140 6200     		lsls	r2, r4, #1
 1132 0142 0132     		adds	r2, r2, #1
 1133 0144 E3B2     		uxtb	r3, r4
 1134 0146 0100     		movs	r1, r0
 1135 0148 0831     		adds	r1, r1, #8
 1136 014a 10AD     		add	r5, sp, #64
 1137 014c AC46     		mov	ip, r5
 1138 014e 6144     		add	r1, r1, ip
 1139 0150 6044     		add	r0, r0, ip
 1140 0152 D200     		lsls	r2, r2, #3
 1141 0154 6244     		add	r2, r2, ip
 1142 0156 1568     		ldr	r5, [r2]
 1143 0158 5668     		ldr	r6, [r2, #4]
 1144 015a 0295     		str	r5, [sp, #8]
 1145 015c 0396     		str	r6, [sp, #12]
 1146 015e 0568     		ldr	r5, [r0]
 1147 0160 4668     		ldr	r6, [r0, #4]
 1148 0162 0095     		str	r5, [sp]
 1149 0164 0196     		str	r6, [sp, #4]
ARM GAS  C:\Users\Ray\AppData\Local\Temp\ccnKUjQ7.s 			page 25


 1150 0166 3A00     		movs	r2, r7
 1151 0168 FFF7FEFF 		bl	unmix8
 1152              	.LVL81:
 202:strong-arm\src\threefish/threefish.c **** 			unmix8 (v+(2*j), v+(2*j)+1, roundnum, j, v[2*j], v[(2*j)+1]);
 1153              		.loc 1 202 0 discriminator 3
 1154 016c 0134     		adds	r4, r4, #1
 1155              	.LVL82:
 1156              	.L40:
 202:strong-arm\src\threefish/threefish.c **** 			unmix8 (v+(2*j), v+(2*j)+1, roundnum, j, v[2*j], v[(2*j)+1]);
 1157              		.loc 1 202 0 is_stmt 0 discriminator 1
 1158 016e 032C     		cmp	r4, #3
 1159 0170 E5DD     		ble	.L41
 1160 0172 3E00     		movs	r6, r7
 1161              	.LVL83:
 1162              	.LBE13:
 204:strong-arm\src\threefish/threefish.c **** 
 205:strong-arm\src\threefish/threefish.c **** 		/* Subtract subkey */
 206:strong-arm\src\threefish/threefish.c **** 		if ((roundnum & 3) == 0)
 1163              		.loc 1 206 0 is_stmt 1
 1164 0174 BB07     		lsls	r3, r7, #30
 1165 0176 00D0     		beq	.LCB1078
 1166 0178 6EE0     		b	.L42	@long jump
 1167              	.LCB1078:
 1168              	.LBB14:
 207:strong-arm\src\threefish/threefish.c **** 		{
 208:strong-arm\src\threefish/threefish.c **** 			/* Update subkey */
 209:strong-arm\src\threefish/threefish.c **** 			uint8_t s = roundnum >> 2;
 1169              		.loc 1 209 0
 1170 017a B908     		lsrs	r1, r7, #2
 210:strong-arm\src\threefish/threefish.c **** 			extra = k[8];
 1171              		.loc 1 210 0
 1172 017c 369B     		ldr	r3, [sp, #216]
 1173 017e 379C     		ldr	r4, [sp, #220]
 1174 0180 0493     		str	r3, [sp, #16]
 1175 0182 0594     		str	r4, [sp, #20]
 1176              	.LVL84:
 211:strong-arm\src\threefish/threefish.c **** 			k[8] = k[7] - (s+1);
 1177              		.loc 1 211 0
 1178 0184 349B     		ldr	r3, [sp, #208]
 1179 0186 359C     		ldr	r4, [sp, #212]
 1180              	.LVL85:
 1181 0188 0A93     		str	r3, [sp, #40]
 1182 018a 0B94     		str	r4, [sp, #44]
 1183 018c 4B1C     		adds	r3, r1, #1
 1184 018e 0693     		str	r3, [sp, #24]
 1185 0190 DB17     		asrs	r3, r3, #31
 1186 0192 0793     		str	r3, [sp, #28]
 1187 0194 0A9A     		ldr	r2, [sp, #40]
 1188 0196 0B9B     		ldr	r3, [sp, #44]
 1189 0198 069C     		ldr	r4, [sp, #24]
 1190 019a 079D     		ldr	r5, [sp, #28]
 1191              	.LVL86:
 1192 019c 121B     		subs	r2, r2, r4
 1193 019e AB41     		sbcs	r3, r3, r5
 1194 01a0 3692     		str	r2, [sp, #216]
 1195 01a2 3793     		str	r3, [sp, #220]
 212:strong-arm\src\threefish/threefish.c **** 			k[7] = k[6] - t[1] + s;
ARM GAS  C:\Users\Ray\AppData\Local\Temp\ccnKUjQ7.s 			page 26


 1196              		.loc 1 212 0
 1197 01a4 329B     		ldr	r3, [sp, #200]
 1198 01a6 339C     		ldr	r4, [sp, #204]
 1199 01a8 0A93     		str	r3, [sp, #40]
 1200 01aa 0B94     		str	r4, [sp, #44]
 1201 01ac 229A     		ldr	r2, [sp, #136]
 1202 01ae 239B     		ldr	r3, [sp, #140]
 1203 01b0 0A9C     		ldr	r4, [sp, #40]
 1204 01b2 0B9D     		ldr	r5, [sp, #44]
 1205 01b4 0A92     		str	r2, [sp, #40]
 1206 01b6 0B93     		str	r3, [sp, #44]
 1207 01b8 A41A     		subs	r4, r4, r2
 1208 01ba 9D41     		sbcs	r5, r5, r3
 1209 01bc 2200     		movs	r2, r4
 1210 01be 2B00     		movs	r3, r5
 1211 01c0 0891     		str	r1, [sp, #32]
 1212 01c2 0021     		movs	r1, #0
 1213 01c4 0991     		str	r1, [sp, #36]
 1214 01c6 0898     		ldr	r0, [sp, #32]
 1215 01c8 0999     		ldr	r1, [sp, #36]
 1216 01ca 1218     		adds	r2, r2, r0
 1217 01cc 4B41     		adcs	r3, r3, r1
 1218 01ce 3492     		str	r2, [sp, #208]
 1219 01d0 3593     		str	r3, [sp, #212]
 213:strong-arm\src\threefish/threefish.c **** 			k[6] = k[5];
 1220              		.loc 1 213 0
 1221 01d2 309B     		ldr	r3, [sp, #192]
 1222 01d4 319C     		ldr	r4, [sp, #196]
 1223 01d6 3293     		str	r3, [sp, #200]
 1224 01d8 3394     		str	r4, [sp, #204]
 214:strong-arm\src\threefish/threefish.c **** 			k[5] = k[4] + t[2];
 1225              		.loc 1 214 0
 1226 01da 2E9B     		ldr	r3, [sp, #184]
 1227 01dc 2F9C     		ldr	r4, [sp, #188]
 1228 01de 2498     		ldr	r0, [sp, #144]
 1229 01e0 2599     		ldr	r1, [sp, #148]
 1230 01e2 1B18     		adds	r3, r3, r0
 1231 01e4 4C41     		adcs	r4, r4, r1
 1232 01e6 1A00     		movs	r2, r3
 1233 01e8 2300     		movs	r3, r4
 1234 01ea 3092     		str	r2, [sp, #192]
 1235 01ec 3193     		str	r3, [sp, #196]
 215:strong-arm\src\threefish/threefish.c **** 			k[4] = k[3];
 1236              		.loc 1 215 0
 1237 01ee 2C9B     		ldr	r3, [sp, #176]
 1238 01f0 2D9C     		ldr	r4, [sp, #180]
 1239 01f2 2E93     		str	r3, [sp, #184]
 1240 01f4 2F94     		str	r4, [sp, #188]
 216:strong-arm\src\threefish/threefish.c **** 			k[3] = k[2];
 1241              		.loc 1 216 0
 1242 01f6 2A9B     		ldr	r3, [sp, #168]
 1243 01f8 2B9C     		ldr	r4, [sp, #172]
 1244 01fa 2C93     		str	r3, [sp, #176]
 1245 01fc 2D94     		str	r4, [sp, #180]
 217:strong-arm\src\threefish/threefish.c **** 			k[2] = k[1];
 1246              		.loc 1 217 0
 1247 01fe 289B     		ldr	r3, [sp, #160]
ARM GAS  C:\Users\Ray\AppData\Local\Temp\ccnKUjQ7.s 			page 27


 1248 0200 299C     		ldr	r4, [sp, #164]
 1249 0202 0C93     		str	r3, [sp, #48]
 1250 0204 0D94     		str	r4, [sp, #52]
 1251 0206 2A93     		str	r3, [sp, #168]
 1252 0208 2B94     		str	r4, [sp, #172]
 218:strong-arm\src\threefish/threefish.c **** 			k[1] = k[0];
 1253              		.loc 1 218 0
 1254 020a 269B     		ldr	r3, [sp, #152]
 1255 020c 279C     		ldr	r4, [sp, #156]
 1256 020e 2893     		str	r3, [sp, #160]
 1257 0210 2994     		str	r4, [sp, #164]
 219:strong-arm\src\threefish/threefish.c **** 			k[0] = extra;
 1258              		.loc 1 219 0
 1259 0212 049B     		ldr	r3, [sp, #16]
 1260 0214 059C     		ldr	r4, [sp, #20]
 1261 0216 2693     		str	r3, [sp, #152]
 1262 0218 2794     		str	r4, [sp, #156]
 1263              	.LVL87:
 220:strong-arm\src\threefish/threefish.c **** 
 221:strong-arm\src\threefish/threefish.c **** 			extra = t[2];
 222:strong-arm\src\threefish/threefish.c **** 			t[2] = t[1];
 1264              		.loc 1 222 0
 1265 021a 0A9A     		ldr	r2, [sp, #40]
 1266 021c 0B9B     		ldr	r3, [sp, #44]
 1267 021e 2492     		str	r2, [sp, #144]
 1268 0220 2593     		str	r3, [sp, #148]
 223:strong-arm\src\threefish/threefish.c **** 			t[1] = t[0];
 1269              		.loc 1 223 0
 1270 0222 209B     		ldr	r3, [sp, #128]
 1271 0224 219C     		ldr	r4, [sp, #132]
 1272 0226 2293     		str	r3, [sp, #136]
 1273 0228 2394     		str	r4, [sp, #140]
 224:strong-arm\src\threefish/threefish.c **** 			t[0] = extra;
 1274              		.loc 1 224 0
 1275 022a 2090     		str	r0, [sp, #128]
 1276 022c 2191     		str	r1, [sp, #132]
 1277              	.LVL88:
 1278              	.LBB15:
 225:strong-arm\src\threefish/threefish.c **** 
 226:strong-arm\src\threefish/threefish.c **** 			/* Subtract */
 227:strong-arm\src\threefish/threefish.c **** 			for (int i = 0; i < 8; ++i)
 1279              		.loc 1 227 0
 1280 022e 0020     		movs	r0, #0
 1281              	.LVL89:
 1282 0230 10E0     		b	.L43
 1283              	.LVL90:
 1284              	.L44:
 228:strong-arm\src\threefish/threefish.c **** 				v[i] -= k[i];
 1285              		.loc 1 228 0 discriminator 3
 1286 0232 C300     		lsls	r3, r0, #3
 1287 0234 26AA     		add	r2, sp, #152
 1288 0236 D218     		adds	r2, r2, r3
 1289 0238 1468     		ldr	r4, [r2]
 1290 023a 5568     		ldr	r5, [r2, #4]
 1291 023c 10AA     		add	r2, sp, #64
 1292 023e 9446     		mov	ip, r2
 1293 0240 6344     		add	r3, r3, ip
ARM GAS  C:\Users\Ray\AppData\Local\Temp\ccnKUjQ7.s 			page 28


 1294 0242 1968     		ldr	r1, [r3]
 1295 0244 5A68     		ldr	r2, [r3, #4]
 1296 0246 091B     		subs	r1, r1, r4
 1297 0248 AA41     		sbcs	r2, r2, r5
 1298 024a 0C00     		movs	r4, r1
 1299 024c 1500     		movs	r5, r2
 1300 024e 1C60     		str	r4, [r3]
 1301 0250 5D60     		str	r5, [r3, #4]
 227:strong-arm\src\threefish/threefish.c **** 				v[i] -= k[i];
 1302              		.loc 1 227 0 discriminator 3
 1303 0252 0130     		adds	r0, r0, #1
 1304              	.LVL91:
 1305              	.L43:
 227:strong-arm\src\threefish/threefish.c **** 				v[i] -= k[i];
 1306              		.loc 1 227 0 is_stmt 0 discriminator 1
 1307 0254 0728     		cmp	r0, #7
 1308 0256 ECDD     		ble	.L44
 1309              	.LVL92:
 1310              	.L42:
 1311              	.LBE15:
 1312              	.LBE14:
 1313              	.LBE12:
 187:strong-arm\src\threefish/threefish.c **** 	{
 1314              		.loc 1 187 0 is_stmt 1 discriminator 2
 1315 0258 731E     		subs	r3, r6, #1
 1316 025a DEB2     		uxtb	r6, r3
 1317              	.LVL93:
 1318              	.L39:
 187:strong-arm\src\threefish/threefish.c **** 	{
 1319              		.loc 1 187 0 is_stmt 0 discriminator 1
 1320 025c FF2E     		cmp	r6, #255
 1321 025e 00D0     		beq	.LCB1192
 1322 0260 50E7     		b	.L45	@long jump
 1323              	.LCB1192:
 1324              	.LBE11:
 229:strong-arm\src\threefish/threefish.c **** 		}
 230:strong-arm\src\threefish/threefish.c **** 	}
 231:strong-arm\src\threefish/threefish.c **** 
 232:strong-arm\src\threefish/threefish.c **** 	words_to_bytes (plaintext, v, 8);
 1325              		.loc 1 232 0 is_stmt 1
 1326 0262 0822     		movs	r2, #8
 1327 0264 10A9     		add	r1, sp, #64
 1328 0266 0F98     		ldr	r0, [sp, #60]
 1329 0268 FFF7FEFF 		bl	words_to_bytes
 1330              	.LVL94:
 233:strong-arm\src\threefish/threefish.c **** }
 1331              		.loc 1 233 0
 1332 026c 39B0     		add	sp, sp, #228
 1333              		@ sp needed
 1334              	.LVL95:
 1335 026e F0BD     		pop	{r4, r5, r6, r7, pc}
 1336              	.L47:
 1337              		.align	2
 1338              	.L46:
 1339 0270 221AFCA9 		.word	-1443096030
 1340 0274 DA1BD11B 		.word	466688986
 1341              		.cfi_endproc
ARM GAS  C:\Users\Ray\AppData\Local\Temp\ccnKUjQ7.s 			page 29


 1342              	.LFE7:
 1343              		.size	threefish512_decrypt_block, .-threefish512_decrypt_block
 1344              		.global	C240
 1345              		.global	R8
 1346              		.section	.rodata
 1347              		.align	3
 1348              		.set	.LANCHOR0,. + 0
 1349              		.type	R8, %object
 1350              		.size	R8, 32
 1351              	R8:
 1352 0000 2E       		.byte	46
 1353 0001 24       		.byte	36
 1354 0002 13       		.byte	19
 1355 0003 25       		.byte	37
 1356 0004 21       		.byte	33
 1357 0005 1B       		.byte	27
 1358 0006 0E       		.byte	14
 1359 0007 2A       		.byte	42
 1360 0008 11       		.byte	17
 1361 0009 31       		.byte	49
 1362 000a 24       		.byte	36
 1363 000b 27       		.byte	39
 1364 000c 2C       		.byte	44
 1365 000d 09       		.byte	9
 1366 000e 36       		.byte	54
 1367 000f 38       		.byte	56
 1368 0010 27       		.byte	39
 1369 0011 1E       		.byte	30
 1370 0012 22       		.byte	34
 1371 0013 18       		.byte	24
 1372 0014 0D       		.byte	13
 1373 0015 32       		.byte	50
 1374 0016 0A       		.byte	10
 1375 0017 11       		.byte	17
 1376 0018 19       		.byte	25
 1377 0019 1D       		.byte	29
 1378 001a 27       		.byte	39
 1379 001b 2B       		.byte	43
 1380 001c 08       		.byte	8
 1381 001d 23       		.byte	35
 1382 001e 38       		.byte	56
 1383 001f 16       		.byte	22
 1384              		.type	C240, %object
 1385              		.size	C240, 8
 1386              	C240:
 1387 0020 221AFCA9 		.word	-1443096030
 1388 0024 DA1BD11B 		.word	466688986
 1389              		.text
 1390              	.Letext0:
 1391              		.file 2 "c:\\program files (x86)\\cypress\\psoc creator\\4.1\\psoc creator\\import\\gnu\\arm\\5.4.
 1392              		.file 3 "c:\\program files (x86)\\cypress\\psoc creator\\4.1\\psoc creator\\import\\gnu\\arm\\5.4.
 1393              		.section	.debug_info,"",%progbits
 1394              	.Ldebug_info0:
 1395 0000 9C060000 		.4byte	0x69c
 1396 0004 0400     		.2byte	0x4
 1397 0006 00000000 		.4byte	.Ldebug_abbrev0
 1398 000a 04       		.byte	0x4
ARM GAS  C:\Users\Ray\AppData\Local\Temp\ccnKUjQ7.s 			page 30


 1399 000b 01       		.uleb128 0x1
 1400 000c 3A010000 		.4byte	.LASF30
 1401 0010 0C       		.byte	0xc
 1402 0011 E2000000 		.4byte	.LASF31
 1403 0015 19020000 		.4byte	.LASF32
 1404 0019 30000000 		.4byte	.Ldebug_ranges0+0x30
 1405 001d 00000000 		.4byte	0
 1406 0021 00000000 		.4byte	.Ldebug_line0
 1407 0025 02       		.uleb128 0x2
 1408 0026 08       		.byte	0x8
 1409 0027 07       		.byte	0x7
 1410 0028 14010000 		.4byte	.LASF0
 1411 002c 02       		.uleb128 0x2
 1412 002d 01       		.byte	0x1
 1413 002e 06       		.byte	0x6
 1414 002f 9A020000 		.4byte	.LASF1
 1415 0033 03       		.uleb128 0x3
 1416 0034 0B000000 		.4byte	.LASF6
 1417 0038 02       		.byte	0x2
 1418 0039 1D       		.byte	0x1d
 1419 003a 3E000000 		.4byte	0x3e
 1420 003e 02       		.uleb128 0x2
 1421 003f 01       		.byte	0x1
 1422 0040 08       		.byte	0x8
 1423 0041 6B000000 		.4byte	.LASF2
 1424 0045 02       		.uleb128 0x2
 1425 0046 02       		.byte	0x2
 1426 0047 05       		.byte	0x5
 1427 0048 04020000 		.4byte	.LASF3
 1428 004c 02       		.uleb128 0x2
 1429 004d 02       		.byte	0x2
 1430 004e 07       		.byte	0x7
 1431 004f AC000000 		.4byte	.LASF4
 1432 0053 02       		.uleb128 0x2
 1433 0054 04       		.byte	0x4
 1434 0055 05       		.byte	0x5
 1435 0056 91020000 		.4byte	.LASF5
 1436 005a 03       		.uleb128 0x3
 1437 005b BF000000 		.4byte	.LASF7
 1438 005f 02       		.byte	0x2
 1439 0060 41       		.byte	0x41
 1440 0061 65000000 		.4byte	0x65
 1441 0065 02       		.uleb128 0x2
 1442 0066 04       		.byte	0x4
 1443 0067 07       		.byte	0x7
 1444 0068 94000000 		.4byte	.LASF8
 1445 006c 02       		.uleb128 0x2
 1446 006d 08       		.byte	0x8
 1447 006e 05       		.byte	0x5
 1448 006f D1010000 		.4byte	.LASF9
 1449 0073 03       		.uleb128 0x3
 1450 0074 0E020000 		.4byte	.LASF10
 1451 0078 02       		.byte	0x2
 1452 0079 5B       		.byte	0x5b
 1453 007a 25000000 		.4byte	0x25
 1454 007e 04       		.uleb128 0x4
 1455 007f 04       		.byte	0x4
ARM GAS  C:\Users\Ray\AppData\Local\Temp\ccnKUjQ7.s 			page 31


 1456 0080 05       		.byte	0x5
 1457 0081 696E7400 		.ascii	"int\000"
 1458 0085 02       		.uleb128 0x2
 1459 0086 04       		.byte	0x4
 1460 0087 07       		.byte	0x7
 1461 0088 07010000 		.4byte	.LASF11
 1462 008c 03       		.uleb128 0x3
 1463 008d 2B010000 		.4byte	.LASF12
 1464 0091 03       		.byte	0x3
 1465 0092 18       		.byte	0x18
 1466 0093 33000000 		.4byte	0x33
 1467 0097 03       		.uleb128 0x3
 1468 0098 88020000 		.4byte	.LASF13
 1469 009c 03       		.byte	0x3
 1470 009d 30       		.byte	0x30
 1471 009e 5A000000 		.4byte	0x5a
 1472 00a2 03       		.uleb128 0x3
 1473 00a3 2E000000 		.4byte	.LASF14
 1474 00a7 03       		.byte	0x3
 1475 00a8 3C       		.byte	0x3c
 1476 00a9 73000000 		.4byte	0x73
 1477 00ad 05       		.uleb128 0x5
 1478 00ae E9010000 		.4byte	.LASF33
 1479 00b2 01       		.byte	0x1
 1480 00b3 1C       		.byte	0x1c
 1481 00b4 A2000000 		.4byte	0xa2
 1482 00b8 00000000 		.4byte	.LFB0
 1483 00bc 2C000000 		.4byte	.LFE0-.LFB0
 1484 00c0 01       		.uleb128 0x1
 1485 00c1 9C       		.byte	0x9c
 1486 00c2 D6000000 		.4byte	0xd6
 1487 00c6 06       		.uleb128 0x6
 1488 00c7 73726300 		.ascii	"src\000"
 1489 00cb 01       		.byte	0x1
 1490 00cc 1C       		.byte	0x1c
 1491 00cd D6000000 		.4byte	0xd6
 1492 00d1 00000000 		.4byte	.LLST0
 1493 00d5 00       		.byte	0
 1494 00d6 07       		.uleb128 0x7
 1495 00d7 04       		.byte	0x4
 1496 00d8 DC000000 		.4byte	0xdc
 1497 00dc 08       		.uleb128 0x8
 1498 00dd 8C000000 		.4byte	0x8c
 1499 00e1 09       		.uleb128 0x9
 1500 00e2 15000000 		.4byte	.LASF15
 1501 00e6 01       		.byte	0x1
 1502 00e7 29       		.byte	0x29
 1503 00e8 00000000 		.4byte	.LFB1
 1504 00ec 1E000000 		.4byte	.LFE1-.LFB1
 1505 00f0 01       		.uleb128 0x1
 1506 00f1 9C       		.byte	0x9c
 1507 00f2 13010000 		.4byte	0x113
 1508 00f6 0A       		.uleb128 0xa
 1509 00f7 64737400 		.ascii	"dst\000"
 1510 00fb 01       		.byte	0x1
 1511 00fc 29       		.byte	0x29
 1512 00fd 13010000 		.4byte	0x113
ARM GAS  C:\Users\Ray\AppData\Local\Temp\ccnKUjQ7.s 			page 32


 1513 0101 01       		.uleb128 0x1
 1514 0102 50       		.byte	0x50
 1515 0103 06       		.uleb128 0x6
 1516 0104 73726300 		.ascii	"src\000"
 1517 0108 01       		.byte	0x1
 1518 0109 29       		.byte	0x29
 1519 010a A2000000 		.4byte	0xa2
 1520 010e 2C000000 		.4byte	.LLST1
 1521 0112 00       		.byte	0
 1522 0113 07       		.uleb128 0x7
 1523 0114 04       		.byte	0x4
 1524 0115 8C000000 		.4byte	0x8c
 1525 0119 09       		.uleb128 0x9
 1526 011a 5C000000 		.4byte	.LASF16
 1527 011e 01       		.byte	0x1
 1528 011f 36       		.byte	0x36
 1529 0120 00000000 		.4byte	.LFB2
 1530 0124 24000000 		.4byte	.LFE2-.LFB2
 1531 0128 01       		.uleb128 0x1
 1532 0129 9C       		.byte	0x9c
 1533 012a 6C010000 		.4byte	0x16c
 1534 012e 06       		.uleb128 0x6
 1535 012f 64737400 		.ascii	"dst\000"
 1536 0133 01       		.byte	0x1
 1537 0134 36       		.byte	0x36
 1538 0135 6C010000 		.4byte	0x16c
 1539 0139 54000000 		.4byte	.LLST2
 1540 013d 06       		.uleb128 0x6
 1541 013e 73726300 		.ascii	"src\000"
 1542 0142 01       		.byte	0x1
 1543 0143 36       		.byte	0x36
 1544 0144 D6000000 		.4byte	0xd6
 1545 0148 88000000 		.4byte	.LLST3
 1546 014c 0B       		.uleb128 0xb
 1547 014d FE010000 		.4byte	.LASF17
 1548 0151 01       		.byte	0x1
 1549 0152 36       		.byte	0x36
 1550 0153 97000000 		.4byte	0x97
 1551 0157 A6000000 		.4byte	.LLST4
 1552 015b 0C       		.uleb128 0xc
 1553 015c 14000000 		.4byte	.LVL8
 1554 0160 AD000000 		.4byte	0xad
 1555 0164 0D       		.uleb128 0xd
 1556 0165 01       		.uleb128 0x1
 1557 0166 50       		.byte	0x50
 1558 0167 02       		.uleb128 0x2
 1559 0168 75       		.byte	0x75
 1560 0169 00       		.sleb128 0
 1561 016a 00       		.byte	0
 1562 016b 00       		.byte	0
 1563 016c 07       		.uleb128 0x7
 1564 016d 04       		.byte	0x4
 1565 016e A2000000 		.4byte	0xa2
 1566 0172 09       		.uleb128 0x9
 1567 0173 CA000000 		.4byte	.LASF18
 1568 0177 01       		.byte	0x1
 1569 0178 40       		.byte	0x40
ARM GAS  C:\Users\Ray\AppData\Local\Temp\ccnKUjQ7.s 			page 33


 1570 0179 00000000 		.4byte	.LFB3
 1571 017d 1C000000 		.4byte	.LFE3-.LFB3
 1572 0181 01       		.uleb128 0x1
 1573 0182 9C       		.byte	0x9c
 1574 0183 C5010000 		.4byte	0x1c5
 1575 0187 06       		.uleb128 0x6
 1576 0188 64737400 		.ascii	"dst\000"
 1577 018c 01       		.byte	0x1
 1578 018d 40       		.byte	0x40
 1579 018e 13010000 		.4byte	0x113
 1580 0192 C4000000 		.4byte	.LLST5
 1581 0196 06       		.uleb128 0x6
 1582 0197 73726300 		.ascii	"src\000"
 1583 019b 01       		.byte	0x1
 1584 019c 40       		.byte	0x40
 1585 019d C5010000 		.4byte	0x1c5
 1586 01a1 E2000000 		.4byte	.LLST6
 1587 01a5 0B       		.uleb128 0xb
 1588 01a6 FE010000 		.4byte	.LASF17
 1589 01aa 01       		.byte	0x1
 1590 01ab 40       		.byte	0x40
 1591 01ac 97000000 		.4byte	0x97
 1592 01b0 18010000 		.4byte	.LLST7
 1593 01b4 0C       		.uleb128 0xc
 1594 01b5 12000000 		.4byte	.LVL18
 1595 01b9 E1000000 		.4byte	0xe1
 1596 01bd 0D       		.uleb128 0xd
 1597 01be 01       		.uleb128 0x1
 1598 01bf 50       		.byte	0x50
 1599 01c0 02       		.uleb128 0x2
 1600 01c1 75       		.byte	0x75
 1601 01c2 00       		.sleb128 0
 1602 01c3 00       		.byte	0
 1603 01c4 00       		.byte	0
 1604 01c5 07       		.uleb128 0x7
 1605 01c6 04       		.byte	0x4
 1606 01c7 CB010000 		.4byte	0x1cb
 1607 01cb 08       		.uleb128 0x8
 1608 01cc A2000000 		.4byte	0xa2
 1609 01d0 09       		.uleb128 0x9
 1610 01d1 E4010000 		.4byte	.LASF19
 1611 01d5 01       		.byte	0x1
 1612 01d6 4C       		.byte	0x4c
 1613 01d7 00000000 		.4byte	.LFB4
 1614 01db C4000000 		.4byte	.LFE4-.LFB4
 1615 01df 01       		.uleb128 0x1
 1616 01e0 9C       		.byte	0x9c
 1617 01e1 36020000 		.4byte	0x236
 1618 01e5 06       		.uleb128 0x6
 1619 01e6 793000   		.ascii	"y0\000"
 1620 01e9 01       		.byte	0x1
 1621 01ea 4C       		.byte	0x4c
 1622 01eb 6C010000 		.4byte	0x16c
 1623 01ef 36010000 		.4byte	.LLST8
 1624 01f3 0A       		.uleb128 0xa
 1625 01f4 793100   		.ascii	"y1\000"
 1626 01f7 01       		.byte	0x1
ARM GAS  C:\Users\Ray\AppData\Local\Temp\ccnKUjQ7.s 			page 34


 1627 01f8 4C       		.byte	0x4c
 1628 01f9 6C010000 		.4byte	0x16c
 1629 01fd 01       		.uleb128 0x1
 1630 01fe 51       		.byte	0x51
 1631 01ff 0B       		.uleb128 0xb
 1632 0200 D9000000 		.4byte	.LASF20
 1633 0204 01       		.byte	0x1
 1634 0205 4C       		.byte	0x4c
 1635 0206 8C000000 		.4byte	0x8c
 1636 020a 57010000 		.4byte	.LLST9
 1637 020e 06       		.uleb128 0x6
 1638 020f 6A00     		.ascii	"j\000"
 1639 0211 01       		.byte	0x1
 1640 0212 4C       		.byte	0x4c
 1641 0213 8C000000 		.4byte	0x8c
 1642 0217 78010000 		.4byte	.LLST10
 1643 021b 0A       		.uleb128 0xa
 1644 021c 783000   		.ascii	"x0\000"
 1645 021f 01       		.byte	0x1
 1646 0220 4C       		.byte	0x4c
 1647 0221 A2000000 		.4byte	0xa2
 1648 0225 02       		.uleb128 0x2
 1649 0226 91       		.byte	0x91
 1650 0227 00       		.sleb128 0
 1651 0228 0A       		.uleb128 0xa
 1652 0229 783100   		.ascii	"x1\000"
 1653 022c 01       		.byte	0x1
 1654 022d 4C       		.byte	0x4c
 1655 022e A2000000 		.4byte	0xa2
 1656 0232 02       		.uleb128 0x2
 1657 0233 91       		.byte	0x91
 1658 0234 08       		.sleb128 8
 1659 0235 00       		.byte	0
 1660 0236 09       		.uleb128 0x9
 1661 0237 33010000 		.4byte	.LASF21
 1662 023b 01       		.byte	0x1
 1663 023c 54       		.byte	0x54
 1664 023d 00000000 		.4byte	.LFB5
 1665 0241 B4000000 		.4byte	.LFE5-.LFB5
 1666 0245 01       		.uleb128 0x1
 1667 0246 9C       		.byte	0x9c
 1668 0247 9E020000 		.4byte	0x29e
 1669 024b 06       		.uleb128 0x6
 1670 024c 783000   		.ascii	"x0\000"
 1671 024f 01       		.byte	0x1
 1672 0250 54       		.byte	0x54
 1673 0251 6C010000 		.4byte	0x16c
 1674 0255 99010000 		.4byte	.LLST11
 1675 0259 06       		.uleb128 0x6
 1676 025a 783100   		.ascii	"x1\000"
 1677 025d 01       		.byte	0x1
 1678 025e 54       		.byte	0x54
 1679 025f 6C010000 		.4byte	0x16c
 1680 0263 CD010000 		.4byte	.LLST12
 1681 0267 0B       		.uleb128 0xb
 1682 0268 D9000000 		.4byte	.LASF20
 1683 026c 01       		.byte	0x1
ARM GAS  C:\Users\Ray\AppData\Local\Temp\ccnKUjQ7.s 			page 35


 1684 026d 54       		.byte	0x54
 1685 026e 8C000000 		.4byte	0x8c
 1686 0272 F9010000 		.4byte	.LLST13
 1687 0276 06       		.uleb128 0x6
 1688 0277 6A00     		.ascii	"j\000"
 1689 0279 01       		.byte	0x1
 1690 027a 54       		.byte	0x54
 1691 027b 8C000000 		.4byte	0x8c
 1692 027f 1A020000 		.4byte	.LLST14
 1693 0283 0A       		.uleb128 0xa
 1694 0284 793000   		.ascii	"y0\000"
 1695 0287 01       		.byte	0x1
 1696 0288 54       		.byte	0x54
 1697 0289 A2000000 		.4byte	0xa2
 1698 028d 02       		.uleb128 0x2
 1699 028e 91       		.byte	0x91
 1700 028f 00       		.sleb128 0
 1701 0290 0A       		.uleb128 0xa
 1702 0291 793100   		.ascii	"y1\000"
 1703 0294 01       		.byte	0x1
 1704 0295 54       		.byte	0x54
 1705 0296 A2000000 		.4byte	0xa2
 1706 029a 02       		.uleb128 0x2
 1707 029b 91       		.byte	0x91
 1708 029c 08       		.sleb128 8
 1709 029d 00       		.byte	0
 1710 029e 0E       		.uleb128 0xe
 1711 029f 37000000 		.4byte	.LASF27
 1712 02a3 01       		.byte	0x1
 1713 02a4 5B       		.byte	0x5b
 1714 02a5 00000000 		.4byte	.LFB6
 1715 02a9 5C020000 		.4byte	.LFE6-.LFB6
 1716 02ad 01       		.uleb128 0x1
 1717 02ae 9C       		.byte	0x9c
 1718 02af 62040000 		.4byte	0x462
 1719 02b3 0B       		.uleb128 0xb
 1720 02b4 00000000 		.4byte	.LASF22
 1721 02b8 01       		.byte	0x1
 1722 02b9 5B       		.byte	0x5b
 1723 02ba 13010000 		.4byte	0x113
 1724 02be 3B020000 		.4byte	.LLST15
 1725 02c2 06       		.uleb128 0x6
 1726 02c3 6B657900 		.ascii	"key\000"
 1727 02c7 01       		.byte	0x1
 1728 02c8 5B       		.byte	0x5b
 1729 02c9 D6000000 		.4byte	0xd6
 1730 02cd 5B020000 		.4byte	.LLST16
 1731 02d1 0B       		.uleb128 0xb
 1732 02d2 A6000000 		.4byte	.LASF23
 1733 02d6 01       		.byte	0x1
 1734 02d7 5B       		.byte	0x5b
 1735 02d8 D6000000 		.4byte	0xd6
 1736 02dc 7C020000 		.4byte	.LLST17
 1737 02e0 0B       		.uleb128 0xb
 1738 02e1 52000000 		.4byte	.LASF24
 1739 02e5 01       		.byte	0x1
 1740 02e6 5B       		.byte	0x5b
ARM GAS  C:\Users\Ray\AppData\Local\Temp\ccnKUjQ7.s 			page 36


 1741 02e7 D6000000 		.4byte	0xd6
 1742 02eb A8020000 		.4byte	.LLST18
 1743 02ef 0F       		.uleb128 0xf
 1744 02f0 6B00     		.ascii	"k\000"
 1745 02f2 01       		.byte	0x1
 1746 02f3 5D       		.byte	0x5d
 1747 02f4 62040000 		.4byte	0x462
 1748 02f8 03       		.uleb128 0x3
 1749 02f9 91       		.byte	0x91
 1750 02fa A07F     		.sleb128 -96
 1751 02fc 0F       		.uleb128 0xf
 1752 02fd 7400     		.ascii	"t\000"
 1753 02ff 01       		.byte	0x1
 1754 0300 5E       		.byte	0x5e
 1755 0301 79040000 		.4byte	0x479
 1756 0305 03       		.uleb128 0x3
 1757 0306 91       		.byte	0x91
 1758 0307 887F     		.sleb128 -120
 1759 0309 0F       		.uleb128 0xf
 1760 030a 7600     		.ascii	"v\000"
 1761 030c 01       		.byte	0x1
 1762 030d 5F       		.byte	0x5f
 1763 030e 89040000 		.4byte	0x489
 1764 0312 03       		.uleb128 0x3
 1765 0313 91       		.byte	0x91
 1766 0314 C87E     		.sleb128 -184
 1767 0316 10       		.uleb128 0x10
 1768 0317 BE000000 		.4byte	.LBB2
 1769 031b 64010000 		.4byte	.LBE2-.LBB2
 1770 031f C7030000 		.4byte	0x3c7
 1771 0323 11       		.uleb128 0x11
 1772 0324 D9000000 		.4byte	.LASF20
 1773 0328 01       		.byte	0x1
 1774 0329 6C       		.byte	0x6c
 1775 032a 8C000000 		.4byte	0x8c
 1776 032e D4020000 		.4byte	.LLST19
 1777 0332 12       		.uleb128 0x12
 1778 0333 C2000000 		.4byte	.LBB3
 1779 0337 52010000 		.4byte	.LBE3-.LBB3
 1780 033b 11       		.uleb128 0x11
 1781 033c 28000000 		.4byte	.LASF25
 1782 0340 01       		.byte	0x1
 1783 0341 6E       		.byte	0x6e
 1784 0342 A2000000 		.4byte	0xa2
 1785 0346 F3020000 		.4byte	.LLST20
 1786 034a 13       		.uleb128 0x13
 1787 034b 00000000 		.4byte	.Ldebug_ranges0+0
 1788 034f 74030000 		.4byte	0x374
 1789 0353 14       		.uleb128 0x14
 1790 0354 7300     		.ascii	"s\000"
 1791 0356 01       		.byte	0x1
 1792 0357 77       		.byte	0x77
 1793 0358 8C000000 		.4byte	0x8c
 1794 035c 35030000 		.4byte	.LLST21
 1795 0360 15       		.uleb128 0x15
 1796 0361 18000000 		.4byte	.Ldebug_ranges0+0x18
 1797 0365 14       		.uleb128 0x14
ARM GAS  C:\Users\Ray\AppData\Local\Temp\ccnKUjQ7.s 			page 37


 1798 0366 6900     		.ascii	"i\000"
 1799 0368 01       		.byte	0x1
 1800 0369 73       		.byte	0x73
 1801 036a 7E000000 		.4byte	0x7e
 1802 036e 4C030000 		.4byte	.LLST22
 1803 0372 00       		.byte	0
 1804 0373 00       		.byte	0
 1805 0374 12       		.uleb128 0x12
 1806 0375 AC010000 		.4byte	.LBB8
 1807 0379 34000000 		.4byte	.LBE8-.LBB8
 1808 037d 14       		.uleb128 0x14
 1809 037e 6A00     		.ascii	"j\000"
 1810 0380 01       		.byte	0x1
 1811 0381 8A       		.byte	0x8a
 1812 0382 7E000000 		.4byte	0x7e
 1813 0386 6A030000 		.4byte	.LLST23
 1814 038a 0C       		.uleb128 0xc
 1815 038b DA010000 		.4byte	.LVL56
 1816 038f D0010000 		.4byte	0x1d0
 1817 0393 0D       		.uleb128 0xd
 1818 0394 01       		.uleb128 0x1
 1819 0395 50       		.byte	0x50
 1820 0396 0A       		.uleb128 0xa
 1821 0397 74       		.byte	0x74
 1822 0398 00       		.sleb128 0
 1823 0399 34       		.byte	0x34
 1824 039a 24       		.byte	0x24
 1825 039b 91       		.byte	0x91
 1826 039c 00       		.sleb128 0
 1827 039d 22       		.byte	0x22
 1828 039e 08       		.byte	0x8
 1829 039f B8       		.byte	0xb8
 1830 03a0 1C       		.byte	0x1c
 1831 03a1 0D       		.uleb128 0xd
 1832 03a2 01       		.uleb128 0x1
 1833 03a3 51       		.byte	0x51
 1834 03a4 0A       		.uleb128 0xa
 1835 03a5 74       		.byte	0x74
 1836 03a6 00       		.sleb128 0
 1837 03a7 34       		.byte	0x34
 1838 03a8 24       		.byte	0x24
 1839 03a9 91       		.byte	0x91
 1840 03aa 00       		.sleb128 0
 1841 03ab 22       		.byte	0x22
 1842 03ac 08       		.byte	0x8
 1843 03ad B0       		.byte	0xb0
 1844 03ae 1C       		.byte	0x1c
 1845 03af 0D       		.uleb128 0xd
 1846 03b0 01       		.uleb128 0x1
 1847 03b1 52       		.byte	0x52
 1848 03b2 02       		.uleb128 0x2
 1849 03b3 76       		.byte	0x76
 1850 03b4 00       		.sleb128 0
 1851 03b5 0D       		.uleb128 0xd
 1852 03b6 01       		.uleb128 0x1
 1853 03b7 53       		.byte	0x53
 1854 03b8 02       		.uleb128 0x2
ARM GAS  C:\Users\Ray\AppData\Local\Temp\ccnKUjQ7.s 			page 38


 1855 03b9 74       		.byte	0x74
 1856 03ba 00       		.sleb128 0
 1857 03bb 0D       		.uleb128 0xd
 1858 03bc 02       		.uleb128 0x2
 1859 03bd 7D       		.byte	0x7d
 1860 03be 00       		.sleb128 0
 1861 03bf 03       		.uleb128 0x3
 1862 03c0 F5       		.byte	0xf5
 1863 03c1 05       		.uleb128 0x5
 1864 03c2 25       		.uleb128 0x25
 1865 03c3 00       		.byte	0
 1866 03c4 00       		.byte	0
 1867 03c5 00       		.byte	0
 1868 03c6 00       		.byte	0
 1869 03c7 10       		.uleb128 0x10
 1870 03c8 22020000 		.4byte	.LBB9
 1871 03cc 22000000 		.4byte	.LBE9-.LBB9
 1872 03d0 E2030000 		.4byte	0x3e2
 1873 03d4 14       		.uleb128 0x14
 1874 03d5 6900     		.ascii	"i\000"
 1875 03d7 01       		.byte	0x1
 1876 03d8 99       		.byte	0x99
 1877 03d9 7E000000 		.4byte	0x7e
 1878 03dd 7D030000 		.4byte	.LLST24
 1879 03e1 00       		.byte	0
 1880 03e2 16       		.uleb128 0x16
 1881 03e3 12000000 		.4byte	.LVL39
 1882 03e7 19010000 		.4byte	0x119
 1883 03eb 03040000 		.4byte	0x403
 1884 03ef 0D       		.uleb128 0xd
 1885 03f0 01       		.uleb128 0x1
 1886 03f1 50       		.byte	0x50
 1887 03f2 03       		.uleb128 0x3
 1888 03f3 91       		.byte	0x91
 1889 03f4 A07F     		.sleb128 -96
 1890 03f6 0D       		.uleb128 0xd
 1891 03f7 01       		.uleb128 0x1
 1892 03f8 51       		.byte	0x51
 1893 03f9 03       		.uleb128 0x3
 1894 03fa F3       		.byte	0xf3
 1895 03fb 01       		.uleb128 0x1
 1896 03fc 51       		.byte	0x51
 1897 03fd 0D       		.uleb128 0xd
 1898 03fe 01       		.uleb128 0x1
 1899 03ff 52       		.byte	0x52
 1900 0400 01       		.uleb128 0x1
 1901 0401 38       		.byte	0x38
 1902 0402 00       		.byte	0
 1903 0403 16       		.uleb128 0x16
 1904 0404 1C000000 		.4byte	.LVL40
 1905 0408 19010000 		.4byte	0x119
 1906 040c 23040000 		.4byte	0x423
 1907 0410 0D       		.uleb128 0xd
 1908 0411 01       		.uleb128 0x1
 1909 0412 50       		.byte	0x50
 1910 0413 03       		.uleb128 0x3
 1911 0414 91       		.byte	0x91
ARM GAS  C:\Users\Ray\AppData\Local\Temp\ccnKUjQ7.s 			page 39


 1912 0415 887F     		.sleb128 -120
 1913 0417 0D       		.uleb128 0xd
 1914 0418 01       		.uleb128 0x1
 1915 0419 51       		.byte	0x51
 1916 041a 02       		.uleb128 0x2
 1917 041b 75       		.byte	0x75
 1918 041c 00       		.sleb128 0
 1919 041d 0D       		.uleb128 0xd
 1920 041e 01       		.uleb128 0x1
 1921 041f 52       		.byte	0x52
 1922 0420 01       		.uleb128 0x1
 1923 0421 32       		.byte	0x32
 1924 0422 00       		.byte	0
 1925 0423 16       		.uleb128 0x16
 1926 0424 26000000 		.4byte	.LVL41
 1927 0428 19010000 		.4byte	0x119
 1928 042c 43040000 		.4byte	0x443
 1929 0430 0D       		.uleb128 0xd
 1930 0431 01       		.uleb128 0x1
 1931 0432 50       		.byte	0x50
 1932 0433 03       		.uleb128 0x3
 1933 0434 91       		.byte	0x91
 1934 0435 C87E     		.sleb128 -184
 1935 0437 0D       		.uleb128 0xd
 1936 0438 01       		.uleb128 0x1
 1937 0439 51       		.byte	0x51
 1938 043a 02       		.uleb128 0x2
 1939 043b 74       		.byte	0x74
 1940 043c 00       		.sleb128 0
 1941 043d 0D       		.uleb128 0xd
 1942 043e 01       		.uleb128 0x1
 1943 043f 52       		.byte	0x52
 1944 0440 01       		.uleb128 0x1
 1945 0441 38       		.byte	0x38
 1946 0442 00       		.byte	0
 1947 0443 0C       		.uleb128 0xc
 1948 0444 4E020000 		.4byte	.LVL64
 1949 0448 72010000 		.4byte	0x172
 1950 044c 0D       		.uleb128 0xd
 1951 044d 01       		.uleb128 0x1
 1952 044e 50       		.byte	0x50
 1953 044f 04       		.uleb128 0x4
 1954 0450 91       		.byte	0x91
 1955 0451 C47E     		.sleb128 -188
 1956 0453 06       		.byte	0x6
 1957 0454 0D       		.uleb128 0xd
 1958 0455 01       		.uleb128 0x1
 1959 0456 51       		.byte	0x51
 1960 0457 03       		.uleb128 0x3
 1961 0458 91       		.byte	0x91
 1962 0459 C87E     		.sleb128 -184
 1963 045b 0D       		.uleb128 0xd
 1964 045c 01       		.uleb128 0x1
 1965 045d 52       		.byte	0x52
 1966 045e 01       		.uleb128 0x1
 1967 045f 38       		.byte	0x38
 1968 0460 00       		.byte	0
ARM GAS  C:\Users\Ray\AppData\Local\Temp\ccnKUjQ7.s 			page 40


 1969 0461 00       		.byte	0
 1970 0462 17       		.uleb128 0x17
 1971 0463 A2000000 		.4byte	0xa2
 1972 0467 72040000 		.4byte	0x472
 1973 046b 18       		.uleb128 0x18
 1974 046c 72040000 		.4byte	0x472
 1975 0470 08       		.byte	0x8
 1976 0471 00       		.byte	0
 1977 0472 02       		.uleb128 0x2
 1978 0473 04       		.byte	0x4
 1979 0474 07       		.byte	0x7
 1980 0475 C8010000 		.4byte	.LASF26
 1981 0479 17       		.uleb128 0x17
 1982 047a A2000000 		.4byte	0xa2
 1983 047e 89040000 		.4byte	0x489
 1984 0482 18       		.uleb128 0x18
 1985 0483 72040000 		.4byte	0x472
 1986 0487 02       		.byte	0x2
 1987 0488 00       		.byte	0
 1988 0489 17       		.uleb128 0x17
 1989 048a A2000000 		.4byte	0xa2
 1990 048e 99040000 		.4byte	0x499
 1991 0492 18       		.uleb128 0x18
 1992 0493 72040000 		.4byte	0x472
 1993 0497 07       		.byte	0x7
 1994 0498 00       		.byte	0
 1995 0499 0E       		.uleb128 0xe
 1996 049a 79000000 		.4byte	.LASF28
 1997 049e 01       		.byte	0x1
 1998 049f A5       		.byte	0xa5
 1999 04a0 00000000 		.4byte	.LFB7
 2000 04a4 78020000 		.4byte	.LFE7-.LFB7
 2001 04a8 01       		.uleb128 0x1
 2002 04a9 9C       		.byte	0x9c
 2003 04aa 63060000 		.4byte	0x663
 2004 04ae 0B       		.uleb128 0xb
 2005 04af 52000000 		.4byte	.LASF24
 2006 04b3 01       		.byte	0x1
 2007 04b4 A5       		.byte	0xa5
 2008 04b5 13010000 		.4byte	0x113
 2009 04b9 90030000 		.4byte	.LLST25
 2010 04bd 06       		.uleb128 0x6
 2011 04be 6B657900 		.ascii	"key\000"
 2012 04c2 01       		.byte	0x1
 2013 04c3 A5       		.byte	0xa5
 2014 04c4 D6000000 		.4byte	0xd6
 2015 04c8 B0030000 		.4byte	.LLST26
 2016 04cc 0B       		.uleb128 0xb
 2017 04cd A6000000 		.4byte	.LASF23
 2018 04d1 01       		.byte	0x1
 2019 04d2 A5       		.byte	0xa5
 2020 04d3 D6000000 		.4byte	0xd6
 2021 04d7 D1030000 		.4byte	.LLST27
 2022 04db 0B       		.uleb128 0xb
 2023 04dc 00000000 		.4byte	.LASF22
 2024 04e0 01       		.byte	0x1
 2025 04e1 A5       		.byte	0xa5
ARM GAS  C:\Users\Ray\AppData\Local\Temp\ccnKUjQ7.s 			page 41


 2026 04e2 D6000000 		.4byte	0xd6
 2027 04e6 FD030000 		.4byte	.LLST28
 2028 04ea 0F       		.uleb128 0xf
 2029 04eb 6B00     		.ascii	"k\000"
 2030 04ed 01       		.byte	0x1
 2031 04ee A7       		.byte	0xa7
 2032 04ef 62040000 		.4byte	0x462
 2033 04f3 03       		.uleb128 0x3
 2034 04f4 91       		.byte	0x91
 2035 04f5 A07F     		.sleb128 -96
 2036 04f7 0F       		.uleb128 0xf
 2037 04f8 7400     		.ascii	"t\000"
 2038 04fa 01       		.byte	0x1
 2039 04fb A8       		.byte	0xa8
 2040 04fc 79040000 		.4byte	0x479
 2041 0500 03       		.uleb128 0x3
 2042 0501 91       		.byte	0x91
 2043 0502 887F     		.sleb128 -120
 2044 0504 0F       		.uleb128 0xf
 2045 0505 7600     		.ascii	"v\000"
 2046 0507 01       		.byte	0x1
 2047 0508 A9       		.byte	0xa9
 2048 0509 89040000 		.4byte	0x489
 2049 050d 03       		.uleb128 0x3
 2050 050e 91       		.byte	0x91
 2051 050f C87E     		.sleb128 -184
 2052 0511 10       		.uleb128 0x10
 2053 0512 D6000000 		.4byte	.LBB10
 2054 0516 2E000000 		.4byte	.LBE10-.LBB10
 2055 051a 2C050000 		.4byte	0x52c
 2056 051e 14       		.uleb128 0x14
 2057 051f 6900     		.ascii	"i\000"
 2058 0521 01       		.byte	0x1
 2059 0522 B8       		.byte	0xb8
 2060 0523 7E000000 		.4byte	0x7e
 2061 0527 29040000 		.4byte	.LLST29
 2062 052b 00       		.byte	0
 2063 052c 10       		.uleb128 0x10
 2064 052d 04010000 		.4byte	.LBB11
 2065 0531 5E010000 		.4byte	.LBE11-.LBB11
 2066 0535 E3050000 		.4byte	0x5e3
 2067 0539 11       		.uleb128 0x11
 2068 053a D9000000 		.4byte	.LASF20
 2069 053e 01       		.byte	0x1
 2070 053f BB       		.byte	0xbb
 2071 0540 8C000000 		.4byte	0x8c
 2072 0544 48040000 		.4byte	.LLST30
 2073 0548 12       		.uleb128 0x12
 2074 0549 04010000 		.4byte	.LBB12
 2075 054d 54010000 		.4byte	.LBE12-.LBB12
 2076 0551 11       		.uleb128 0x11
 2077 0552 28000000 		.4byte	.LASF25
 2078 0556 01       		.byte	0x1
 2079 0557 BD       		.byte	0xbd
 2080 0558 A2000000 		.4byte	0xa2
 2081 055c 66040000 		.4byte	.LLST31
 2082 0560 10       		.uleb128 0x10
ARM GAS  C:\Users\Ray\AppData\Local\Temp\ccnKUjQ7.s 			page 42


 2083 0561 38010000 		.4byte	.LBB13
 2084 0565 3C000000 		.4byte	.LBE13-.LBB13
 2085 0569 B5050000 		.4byte	0x5b5
 2086 056d 14       		.uleb128 0x14
 2087 056e 6A00     		.ascii	"j\000"
 2088 0570 01       		.byte	0x1
 2089 0571 CA       		.byte	0xca
 2090 0572 7E000000 		.4byte	0x7e
 2091 0576 B8040000 		.4byte	.LLST32
 2092 057a 0C       		.uleb128 0xc
 2093 057b 6C010000 		.4byte	.LVL81
 2094 057f 36020000 		.4byte	0x236
 2095 0583 0D       		.uleb128 0xd
 2096 0584 01       		.uleb128 0x1
 2097 0585 50       		.byte	0x50
 2098 0586 0A       		.uleb128 0xa
 2099 0587 74       		.byte	0x74
 2100 0588 00       		.sleb128 0
 2101 0589 34       		.byte	0x34
 2102 058a 24       		.byte	0x24
 2103 058b 91       		.byte	0x91
 2104 058c 00       		.sleb128 0
 2105 058d 22       		.byte	0x22
 2106 058e 08       		.byte	0x8
 2107 058f B8       		.byte	0xb8
 2108 0590 1C       		.byte	0x1c
 2109 0591 0D       		.uleb128 0xd
 2110 0592 01       		.uleb128 0x1
 2111 0593 51       		.byte	0x51
 2112 0594 0A       		.uleb128 0xa
 2113 0595 74       		.byte	0x74
 2114 0596 00       		.sleb128 0
 2115 0597 34       		.byte	0x34
 2116 0598 24       		.byte	0x24
 2117 0599 91       		.byte	0x91
 2118 059a 00       		.sleb128 0
 2119 059b 22       		.byte	0x22
 2120 059c 08       		.byte	0x8
 2121 059d B0       		.byte	0xb0
 2122 059e 1C       		.byte	0x1c
 2123 059f 0D       		.uleb128 0xd
 2124 05a0 01       		.uleb128 0x1
 2125 05a1 52       		.byte	0x52
 2126 05a2 02       		.uleb128 0x2
 2127 05a3 76       		.byte	0x76
 2128 05a4 00       		.sleb128 0
 2129 05a5 0D       		.uleb128 0xd
 2130 05a6 01       		.uleb128 0x1
 2131 05a7 53       		.byte	0x53
 2132 05a8 02       		.uleb128 0x2
 2133 05a9 74       		.byte	0x74
 2134 05aa 00       		.sleb128 0
 2135 05ab 0D       		.uleb128 0xd
 2136 05ac 02       		.uleb128 0x2
 2137 05ad 7D       		.byte	0x7d
 2138 05ae 00       		.sleb128 0
 2139 05af 03       		.uleb128 0x3
ARM GAS  C:\Users\Ray\AppData\Local\Temp\ccnKUjQ7.s 			page 43


 2140 05b0 F5       		.byte	0xf5
 2141 05b1 05       		.uleb128 0x5
 2142 05b2 25       		.uleb128 0x25
 2143 05b3 00       		.byte	0
 2144 05b4 00       		.byte	0
 2145 05b5 12       		.uleb128 0x12
 2146 05b6 7A010000 		.4byte	.LBB14
 2147 05ba DE000000 		.4byte	.LBE14-.LBB14
 2148 05be 0F       		.uleb128 0xf
 2149 05bf 7300     		.ascii	"s\000"
 2150 05c1 01       		.byte	0x1
 2151 05c2 D1       		.byte	0xd1
 2152 05c3 8C000000 		.4byte	0x8c
 2153 05c7 01       		.uleb128 0x1
 2154 05c8 51       		.byte	0x51
 2155 05c9 12       		.uleb128 0x12
 2156 05ca 2E020000 		.4byte	.LBB15
 2157 05ce 2A000000 		.4byte	.LBE15-.LBB15
 2158 05d2 14       		.uleb128 0x14
 2159 05d3 6900     		.ascii	"i\000"
 2160 05d5 01       		.byte	0x1
 2161 05d6 E3       		.byte	0xe3
 2162 05d7 7E000000 		.4byte	0x7e
 2163 05db D7040000 		.4byte	.LLST33
 2164 05df 00       		.byte	0
 2165 05e0 00       		.byte	0
 2166 05e1 00       		.byte	0
 2167 05e2 00       		.byte	0
 2168 05e3 16       		.uleb128 0x16
 2169 05e4 12000000 		.4byte	.LVL69
 2170 05e8 19010000 		.4byte	0x119
 2171 05ec 04060000 		.4byte	0x604
 2172 05f0 0D       		.uleb128 0xd
 2173 05f1 01       		.uleb128 0x1
 2174 05f2 50       		.byte	0x50
 2175 05f3 03       		.uleb128 0x3
 2176 05f4 91       		.byte	0x91
 2177 05f5 A07F     		.sleb128 -96
 2178 05f7 0D       		.uleb128 0xd
 2179 05f8 01       		.uleb128 0x1
 2180 05f9 51       		.byte	0x51
 2181 05fa 03       		.uleb128 0x3
 2182 05fb F3       		.byte	0xf3
 2183 05fc 01       		.uleb128 0x1
 2184 05fd 51       		.byte	0x51
 2185 05fe 0D       		.uleb128 0xd
 2186 05ff 01       		.uleb128 0x1
 2187 0600 52       		.byte	0x52
 2188 0601 01       		.uleb128 0x1
 2189 0602 38       		.byte	0x38
 2190 0603 00       		.byte	0
 2191 0604 16       		.uleb128 0x16
 2192 0605 1C000000 		.4byte	.LVL70
 2193 0609 19010000 		.4byte	0x119
 2194 060d 24060000 		.4byte	0x624
 2195 0611 0D       		.uleb128 0xd
 2196 0612 01       		.uleb128 0x1
ARM GAS  C:\Users\Ray\AppData\Local\Temp\ccnKUjQ7.s 			page 44


 2197 0613 50       		.byte	0x50
 2198 0614 03       		.uleb128 0x3
 2199 0615 91       		.byte	0x91
 2200 0616 887F     		.sleb128 -120
 2201 0618 0D       		.uleb128 0xd
 2202 0619 01       		.uleb128 0x1
 2203 061a 51       		.byte	0x51
 2204 061b 02       		.uleb128 0x2
 2205 061c 74       		.byte	0x74
 2206 061d 00       		.sleb128 0
 2207 061e 0D       		.uleb128 0xd
 2208 061f 01       		.uleb128 0x1
 2209 0620 52       		.byte	0x52
 2210 0621 01       		.uleb128 0x1
 2211 0622 32       		.byte	0x32
 2212 0623 00       		.byte	0
 2213 0624 16       		.uleb128 0x16
 2214 0625 26000000 		.4byte	.LVL71
 2215 0629 19010000 		.4byte	0x119
 2216 062d 44060000 		.4byte	0x644
 2217 0631 0D       		.uleb128 0xd
 2218 0632 01       		.uleb128 0x1
 2219 0633 50       		.byte	0x50
 2220 0634 03       		.uleb128 0x3
 2221 0635 91       		.byte	0x91
 2222 0636 C87E     		.sleb128 -184
 2223 0638 0D       		.uleb128 0xd
 2224 0639 01       		.uleb128 0x1
 2225 063a 51       		.byte	0x51
 2226 063b 02       		.uleb128 0x2
 2227 063c 75       		.byte	0x75
 2228 063d 00       		.sleb128 0
 2229 063e 0D       		.uleb128 0xd
 2230 063f 01       		.uleb128 0x1
 2231 0640 52       		.byte	0x52
 2232 0641 01       		.uleb128 0x1
 2233 0642 38       		.byte	0x38
 2234 0643 00       		.byte	0
 2235 0644 0C       		.uleb128 0xc
 2236 0645 6C020000 		.4byte	.LVL94
 2237 0649 72010000 		.4byte	0x172
 2238 064d 0D       		.uleb128 0xd
 2239 064e 01       		.uleb128 0x1
 2240 064f 50       		.byte	0x50
 2241 0650 04       		.uleb128 0x4
 2242 0651 91       		.byte	0x91
 2243 0652 C47E     		.sleb128 -188
 2244 0654 06       		.byte	0x6
 2245 0655 0D       		.uleb128 0xd
 2246 0656 01       		.uleb128 0x1
 2247 0657 51       		.byte	0x51
 2248 0658 03       		.uleb128 0x3
 2249 0659 91       		.byte	0x91
 2250 065a C87E     		.sleb128 -184
 2251 065c 0D       		.uleb128 0xd
 2252 065d 01       		.uleb128 0x1
 2253 065e 52       		.byte	0x52
ARM GAS  C:\Users\Ray\AppData\Local\Temp\ccnKUjQ7.s 			page 45


 2254 065f 01       		.uleb128 0x1
 2255 0660 38       		.byte	0x38
 2256 0661 00       		.byte	0
 2257 0662 00       		.byte	0
 2258 0663 17       		.uleb128 0x17
 2259 0664 DC000000 		.4byte	0xdc
 2260 0668 79060000 		.4byte	0x679
 2261 066c 18       		.uleb128 0x18
 2262 066d 72040000 		.4byte	0x472
 2263 0671 07       		.byte	0x7
 2264 0672 18       		.uleb128 0x18
 2265 0673 72040000 		.4byte	0x472
 2266 0677 03       		.byte	0x3
 2267 0678 00       		.byte	0
 2268 0679 19       		.uleb128 0x19
 2269 067a 523800   		.ascii	"R8\000"
 2270 067d 01       		.byte	0x1
 2271 067e 06       		.byte	0x6
 2272 067f 89060000 		.4byte	0x689
 2273 0683 05       		.uleb128 0x5
 2274 0684 03       		.byte	0x3
 2275 0685 00000000 		.4byte	R8
 2276 0689 08       		.uleb128 0x8
 2277 068a 63060000 		.4byte	0x663
 2278 068e 1A       		.uleb128 0x1a
 2279 068f DF010000 		.4byte	.LASF29
 2280 0693 01       		.byte	0x1
 2281 0694 12       		.byte	0x12
 2282 0695 CB010000 		.4byte	0x1cb
 2283 0699 05       		.uleb128 0x5
 2284 069a 03       		.byte	0x3
 2285 069b 00000000 		.4byte	C240
 2286 069f 00       		.byte	0
 2287              		.section	.debug_abbrev,"",%progbits
 2288              	.Ldebug_abbrev0:
 2289 0000 01       		.uleb128 0x1
 2290 0001 11       		.uleb128 0x11
 2291 0002 01       		.byte	0x1
 2292 0003 25       		.uleb128 0x25
 2293 0004 0E       		.uleb128 0xe
 2294 0005 13       		.uleb128 0x13
 2295 0006 0B       		.uleb128 0xb
 2296 0007 03       		.uleb128 0x3
 2297 0008 0E       		.uleb128 0xe
 2298 0009 1B       		.uleb128 0x1b
 2299 000a 0E       		.uleb128 0xe
 2300 000b 55       		.uleb128 0x55
 2301 000c 17       		.uleb128 0x17
 2302 000d 11       		.uleb128 0x11
 2303 000e 01       		.uleb128 0x1
 2304 000f 10       		.uleb128 0x10
 2305 0010 17       		.uleb128 0x17
 2306 0011 00       		.byte	0
 2307 0012 00       		.byte	0
 2308 0013 02       		.uleb128 0x2
 2309 0014 24       		.uleb128 0x24
 2310 0015 00       		.byte	0
ARM GAS  C:\Users\Ray\AppData\Local\Temp\ccnKUjQ7.s 			page 46


 2311 0016 0B       		.uleb128 0xb
 2312 0017 0B       		.uleb128 0xb
 2313 0018 3E       		.uleb128 0x3e
 2314 0019 0B       		.uleb128 0xb
 2315 001a 03       		.uleb128 0x3
 2316 001b 0E       		.uleb128 0xe
 2317 001c 00       		.byte	0
 2318 001d 00       		.byte	0
 2319 001e 03       		.uleb128 0x3
 2320 001f 16       		.uleb128 0x16
 2321 0020 00       		.byte	0
 2322 0021 03       		.uleb128 0x3
 2323 0022 0E       		.uleb128 0xe
 2324 0023 3A       		.uleb128 0x3a
 2325 0024 0B       		.uleb128 0xb
 2326 0025 3B       		.uleb128 0x3b
 2327 0026 0B       		.uleb128 0xb
 2328 0027 49       		.uleb128 0x49
 2329 0028 13       		.uleb128 0x13
 2330 0029 00       		.byte	0
 2331 002a 00       		.byte	0
 2332 002b 04       		.uleb128 0x4
 2333 002c 24       		.uleb128 0x24
 2334 002d 00       		.byte	0
 2335 002e 0B       		.uleb128 0xb
 2336 002f 0B       		.uleb128 0xb
 2337 0030 3E       		.uleb128 0x3e
 2338 0031 0B       		.uleb128 0xb
 2339 0032 03       		.uleb128 0x3
 2340 0033 08       		.uleb128 0x8
 2341 0034 00       		.byte	0
 2342 0035 00       		.byte	0
 2343 0036 05       		.uleb128 0x5
 2344 0037 2E       		.uleb128 0x2e
 2345 0038 01       		.byte	0x1
 2346 0039 03       		.uleb128 0x3
 2347 003a 0E       		.uleb128 0xe
 2348 003b 3A       		.uleb128 0x3a
 2349 003c 0B       		.uleb128 0xb
 2350 003d 3B       		.uleb128 0x3b
 2351 003e 0B       		.uleb128 0xb
 2352 003f 27       		.uleb128 0x27
 2353 0040 19       		.uleb128 0x19
 2354 0041 49       		.uleb128 0x49
 2355 0042 13       		.uleb128 0x13
 2356 0043 11       		.uleb128 0x11
 2357 0044 01       		.uleb128 0x1
 2358 0045 12       		.uleb128 0x12
 2359 0046 06       		.uleb128 0x6
 2360 0047 40       		.uleb128 0x40
 2361 0048 18       		.uleb128 0x18
 2362 0049 9742     		.uleb128 0x2117
 2363 004b 19       		.uleb128 0x19
 2364 004c 01       		.uleb128 0x1
 2365 004d 13       		.uleb128 0x13
 2366 004e 00       		.byte	0
 2367 004f 00       		.byte	0
ARM GAS  C:\Users\Ray\AppData\Local\Temp\ccnKUjQ7.s 			page 47


 2368 0050 06       		.uleb128 0x6
 2369 0051 05       		.uleb128 0x5
 2370 0052 00       		.byte	0
 2371 0053 03       		.uleb128 0x3
 2372 0054 08       		.uleb128 0x8
 2373 0055 3A       		.uleb128 0x3a
 2374 0056 0B       		.uleb128 0xb
 2375 0057 3B       		.uleb128 0x3b
 2376 0058 0B       		.uleb128 0xb
 2377 0059 49       		.uleb128 0x49
 2378 005a 13       		.uleb128 0x13
 2379 005b 02       		.uleb128 0x2
 2380 005c 17       		.uleb128 0x17
 2381 005d 00       		.byte	0
 2382 005e 00       		.byte	0
 2383 005f 07       		.uleb128 0x7
 2384 0060 0F       		.uleb128 0xf
 2385 0061 00       		.byte	0
 2386 0062 0B       		.uleb128 0xb
 2387 0063 0B       		.uleb128 0xb
 2388 0064 49       		.uleb128 0x49
 2389 0065 13       		.uleb128 0x13
 2390 0066 00       		.byte	0
 2391 0067 00       		.byte	0
 2392 0068 08       		.uleb128 0x8
 2393 0069 26       		.uleb128 0x26
 2394 006a 00       		.byte	0
 2395 006b 49       		.uleb128 0x49
 2396 006c 13       		.uleb128 0x13
 2397 006d 00       		.byte	0
 2398 006e 00       		.byte	0
 2399 006f 09       		.uleb128 0x9
 2400 0070 2E       		.uleb128 0x2e
 2401 0071 01       		.byte	0x1
 2402 0072 03       		.uleb128 0x3
 2403 0073 0E       		.uleb128 0xe
 2404 0074 3A       		.uleb128 0x3a
 2405 0075 0B       		.uleb128 0xb
 2406 0076 3B       		.uleb128 0x3b
 2407 0077 0B       		.uleb128 0xb
 2408 0078 27       		.uleb128 0x27
 2409 0079 19       		.uleb128 0x19
 2410 007a 11       		.uleb128 0x11
 2411 007b 01       		.uleb128 0x1
 2412 007c 12       		.uleb128 0x12
 2413 007d 06       		.uleb128 0x6
 2414 007e 40       		.uleb128 0x40
 2415 007f 18       		.uleb128 0x18
 2416 0080 9742     		.uleb128 0x2117
 2417 0082 19       		.uleb128 0x19
 2418 0083 01       		.uleb128 0x1
 2419 0084 13       		.uleb128 0x13
 2420 0085 00       		.byte	0
 2421 0086 00       		.byte	0
 2422 0087 0A       		.uleb128 0xa
 2423 0088 05       		.uleb128 0x5
 2424 0089 00       		.byte	0
ARM GAS  C:\Users\Ray\AppData\Local\Temp\ccnKUjQ7.s 			page 48


 2425 008a 03       		.uleb128 0x3
 2426 008b 08       		.uleb128 0x8
 2427 008c 3A       		.uleb128 0x3a
 2428 008d 0B       		.uleb128 0xb
 2429 008e 3B       		.uleb128 0x3b
 2430 008f 0B       		.uleb128 0xb
 2431 0090 49       		.uleb128 0x49
 2432 0091 13       		.uleb128 0x13
 2433 0092 02       		.uleb128 0x2
 2434 0093 18       		.uleb128 0x18
 2435 0094 00       		.byte	0
 2436 0095 00       		.byte	0
 2437 0096 0B       		.uleb128 0xb
 2438 0097 05       		.uleb128 0x5
 2439 0098 00       		.byte	0
 2440 0099 03       		.uleb128 0x3
 2441 009a 0E       		.uleb128 0xe
 2442 009b 3A       		.uleb128 0x3a
 2443 009c 0B       		.uleb128 0xb
 2444 009d 3B       		.uleb128 0x3b
 2445 009e 0B       		.uleb128 0xb
 2446 009f 49       		.uleb128 0x49
 2447 00a0 13       		.uleb128 0x13
 2448 00a1 02       		.uleb128 0x2
 2449 00a2 17       		.uleb128 0x17
 2450 00a3 00       		.byte	0
 2451 00a4 00       		.byte	0
 2452 00a5 0C       		.uleb128 0xc
 2453 00a6 898201   		.uleb128 0x4109
 2454 00a9 01       		.byte	0x1
 2455 00aa 11       		.uleb128 0x11
 2456 00ab 01       		.uleb128 0x1
 2457 00ac 31       		.uleb128 0x31
 2458 00ad 13       		.uleb128 0x13
 2459 00ae 00       		.byte	0
 2460 00af 00       		.byte	0
 2461 00b0 0D       		.uleb128 0xd
 2462 00b1 8A8201   		.uleb128 0x410a
 2463 00b4 00       		.byte	0
 2464 00b5 02       		.uleb128 0x2
 2465 00b6 18       		.uleb128 0x18
 2466 00b7 9142     		.uleb128 0x2111
 2467 00b9 18       		.uleb128 0x18
 2468 00ba 00       		.byte	0
 2469 00bb 00       		.byte	0
 2470 00bc 0E       		.uleb128 0xe
 2471 00bd 2E       		.uleb128 0x2e
 2472 00be 01       		.byte	0x1
 2473 00bf 3F       		.uleb128 0x3f
 2474 00c0 19       		.uleb128 0x19
 2475 00c1 03       		.uleb128 0x3
 2476 00c2 0E       		.uleb128 0xe
 2477 00c3 3A       		.uleb128 0x3a
 2478 00c4 0B       		.uleb128 0xb
 2479 00c5 3B       		.uleb128 0x3b
 2480 00c6 0B       		.uleb128 0xb
 2481 00c7 27       		.uleb128 0x27
ARM GAS  C:\Users\Ray\AppData\Local\Temp\ccnKUjQ7.s 			page 49


 2482 00c8 19       		.uleb128 0x19
 2483 00c9 11       		.uleb128 0x11
 2484 00ca 01       		.uleb128 0x1
 2485 00cb 12       		.uleb128 0x12
 2486 00cc 06       		.uleb128 0x6
 2487 00cd 40       		.uleb128 0x40
 2488 00ce 18       		.uleb128 0x18
 2489 00cf 9742     		.uleb128 0x2117
 2490 00d1 19       		.uleb128 0x19
 2491 00d2 01       		.uleb128 0x1
 2492 00d3 13       		.uleb128 0x13
 2493 00d4 00       		.byte	0
 2494 00d5 00       		.byte	0
 2495 00d6 0F       		.uleb128 0xf
 2496 00d7 34       		.uleb128 0x34
 2497 00d8 00       		.byte	0
 2498 00d9 03       		.uleb128 0x3
 2499 00da 08       		.uleb128 0x8
 2500 00db 3A       		.uleb128 0x3a
 2501 00dc 0B       		.uleb128 0xb
 2502 00dd 3B       		.uleb128 0x3b
 2503 00de 0B       		.uleb128 0xb
 2504 00df 49       		.uleb128 0x49
 2505 00e0 13       		.uleb128 0x13
 2506 00e1 02       		.uleb128 0x2
 2507 00e2 18       		.uleb128 0x18
 2508 00e3 00       		.byte	0
 2509 00e4 00       		.byte	0
 2510 00e5 10       		.uleb128 0x10
 2511 00e6 0B       		.uleb128 0xb
 2512 00e7 01       		.byte	0x1
 2513 00e8 11       		.uleb128 0x11
 2514 00e9 01       		.uleb128 0x1
 2515 00ea 12       		.uleb128 0x12
 2516 00eb 06       		.uleb128 0x6
 2517 00ec 01       		.uleb128 0x1
 2518 00ed 13       		.uleb128 0x13
 2519 00ee 00       		.byte	0
 2520 00ef 00       		.byte	0
 2521 00f0 11       		.uleb128 0x11
 2522 00f1 34       		.uleb128 0x34
 2523 00f2 00       		.byte	0
 2524 00f3 03       		.uleb128 0x3
 2525 00f4 0E       		.uleb128 0xe
 2526 00f5 3A       		.uleb128 0x3a
 2527 00f6 0B       		.uleb128 0xb
 2528 00f7 3B       		.uleb128 0x3b
 2529 00f8 0B       		.uleb128 0xb
 2530 00f9 49       		.uleb128 0x49
 2531 00fa 13       		.uleb128 0x13
 2532 00fb 02       		.uleb128 0x2
 2533 00fc 17       		.uleb128 0x17
 2534 00fd 00       		.byte	0
 2535 00fe 00       		.byte	0
 2536 00ff 12       		.uleb128 0x12
 2537 0100 0B       		.uleb128 0xb
 2538 0101 01       		.byte	0x1
ARM GAS  C:\Users\Ray\AppData\Local\Temp\ccnKUjQ7.s 			page 50


 2539 0102 11       		.uleb128 0x11
 2540 0103 01       		.uleb128 0x1
 2541 0104 12       		.uleb128 0x12
 2542 0105 06       		.uleb128 0x6
 2543 0106 00       		.byte	0
 2544 0107 00       		.byte	0
 2545 0108 13       		.uleb128 0x13
 2546 0109 0B       		.uleb128 0xb
 2547 010a 01       		.byte	0x1
 2548 010b 55       		.uleb128 0x55
 2549 010c 17       		.uleb128 0x17
 2550 010d 01       		.uleb128 0x1
 2551 010e 13       		.uleb128 0x13
 2552 010f 00       		.byte	0
 2553 0110 00       		.byte	0
 2554 0111 14       		.uleb128 0x14
 2555 0112 34       		.uleb128 0x34
 2556 0113 00       		.byte	0
 2557 0114 03       		.uleb128 0x3
 2558 0115 08       		.uleb128 0x8
 2559 0116 3A       		.uleb128 0x3a
 2560 0117 0B       		.uleb128 0xb
 2561 0118 3B       		.uleb128 0x3b
 2562 0119 0B       		.uleb128 0xb
 2563 011a 49       		.uleb128 0x49
 2564 011b 13       		.uleb128 0x13
 2565 011c 02       		.uleb128 0x2
 2566 011d 17       		.uleb128 0x17
 2567 011e 00       		.byte	0
 2568 011f 00       		.byte	0
 2569 0120 15       		.uleb128 0x15
 2570 0121 0B       		.uleb128 0xb
 2571 0122 01       		.byte	0x1
 2572 0123 55       		.uleb128 0x55
 2573 0124 17       		.uleb128 0x17
 2574 0125 00       		.byte	0
 2575 0126 00       		.byte	0
 2576 0127 16       		.uleb128 0x16
 2577 0128 898201   		.uleb128 0x4109
 2578 012b 01       		.byte	0x1
 2579 012c 11       		.uleb128 0x11
 2580 012d 01       		.uleb128 0x1
 2581 012e 31       		.uleb128 0x31
 2582 012f 13       		.uleb128 0x13
 2583 0130 01       		.uleb128 0x1
 2584 0131 13       		.uleb128 0x13
 2585 0132 00       		.byte	0
 2586 0133 00       		.byte	0
 2587 0134 17       		.uleb128 0x17
 2588 0135 01       		.uleb128 0x1
 2589 0136 01       		.byte	0x1
 2590 0137 49       		.uleb128 0x49
 2591 0138 13       		.uleb128 0x13
 2592 0139 01       		.uleb128 0x1
 2593 013a 13       		.uleb128 0x13
 2594 013b 00       		.byte	0
 2595 013c 00       		.byte	0
ARM GAS  C:\Users\Ray\AppData\Local\Temp\ccnKUjQ7.s 			page 51


 2596 013d 18       		.uleb128 0x18
 2597 013e 21       		.uleb128 0x21
 2598 013f 00       		.byte	0
 2599 0140 49       		.uleb128 0x49
 2600 0141 13       		.uleb128 0x13
 2601 0142 2F       		.uleb128 0x2f
 2602 0143 0B       		.uleb128 0xb
 2603 0144 00       		.byte	0
 2604 0145 00       		.byte	0
 2605 0146 19       		.uleb128 0x19
 2606 0147 34       		.uleb128 0x34
 2607 0148 00       		.byte	0
 2608 0149 03       		.uleb128 0x3
 2609 014a 08       		.uleb128 0x8
 2610 014b 3A       		.uleb128 0x3a
 2611 014c 0B       		.uleb128 0xb
 2612 014d 3B       		.uleb128 0x3b
 2613 014e 0B       		.uleb128 0xb
 2614 014f 49       		.uleb128 0x49
 2615 0150 13       		.uleb128 0x13
 2616 0151 3F       		.uleb128 0x3f
 2617 0152 19       		.uleb128 0x19
 2618 0153 02       		.uleb128 0x2
 2619 0154 18       		.uleb128 0x18
 2620 0155 00       		.byte	0
 2621 0156 00       		.byte	0
 2622 0157 1A       		.uleb128 0x1a
 2623 0158 34       		.uleb128 0x34
 2624 0159 00       		.byte	0
 2625 015a 03       		.uleb128 0x3
 2626 015b 0E       		.uleb128 0xe
 2627 015c 3A       		.uleb128 0x3a
 2628 015d 0B       		.uleb128 0xb
 2629 015e 3B       		.uleb128 0x3b
 2630 015f 0B       		.uleb128 0xb
 2631 0160 49       		.uleb128 0x49
 2632 0161 13       		.uleb128 0x13
 2633 0162 3F       		.uleb128 0x3f
 2634 0163 19       		.uleb128 0x19
 2635 0164 02       		.uleb128 0x2
 2636 0165 18       		.uleb128 0x18
 2637 0166 00       		.byte	0
 2638 0167 00       		.byte	0
 2639 0168 00       		.byte	0
 2640              		.section	.debug_loc,"",%progbits
 2641              	.Ldebug_loc0:
 2642              	.LLST0:
 2643 0000 00000000 		.4byte	.LVL0
 2644 0004 06000000 		.4byte	.LVL1
 2645 0008 0100     		.2byte	0x1
 2646 000a 50       		.byte	0x50
 2647 000b 06000000 		.4byte	.LVL1
 2648 000f 26000000 		.4byte	.LVL2
 2649 0013 0100     		.2byte	0x1
 2650 0015 53       		.byte	0x53
 2651 0016 26000000 		.4byte	.LVL2
 2652 001a 2C000000 		.4byte	.LFE0
ARM GAS  C:\Users\Ray\AppData\Local\Temp\ccnKUjQ7.s 			page 52


 2653 001e 0400     		.2byte	0x4
 2654 0020 F3       		.byte	0xf3
 2655 0021 01       		.uleb128 0x1
 2656 0022 50       		.byte	0x50
 2657 0023 9F       		.byte	0x9f
 2658 0024 00000000 		.4byte	0
 2659 0028 00000000 		.4byte	0
 2660              	.LLST1:
 2661 002c 00000000 		.4byte	.LVL3
 2662 0030 0C000000 		.4byte	.LVL4
 2663 0034 0600     		.2byte	0x6
 2664 0036 52       		.byte	0x52
 2665 0037 93       		.byte	0x93
 2666 0038 04       		.uleb128 0x4
 2667 0039 53       		.byte	0x53
 2668 003a 93       		.byte	0x93
 2669 003b 04       		.uleb128 0x4
 2670 003c 0C000000 		.4byte	.LVL4
 2671 0040 1E000000 		.4byte	.LFE1
 2672 0044 0600     		.2byte	0x6
 2673 0046 F3       		.byte	0xf3
 2674 0047 03       		.uleb128 0x3
 2675 0048 F5       		.byte	0xf5
 2676 0049 02       		.uleb128 0x2
 2677 004a 25       		.uleb128 0x25
 2678 004b 9F       		.byte	0x9f
 2679 004c 00000000 		.4byte	0
 2680 0050 00000000 		.4byte	0
 2681              	.LLST2:
 2682 0054 00000000 		.4byte	.LVL5
 2683 0058 0A000000 		.4byte	.LVL6
 2684 005c 0100     		.2byte	0x1
 2685 005e 50       		.byte	0x50
 2686 005f 0A000000 		.4byte	.LVL6
 2687 0063 0E000000 		.4byte	.LVL7
 2688 0067 0100     		.2byte	0x1
 2689 0069 56       		.byte	0x56
 2690 006a 0E000000 		.4byte	.LVL7
 2691 006e 1E000000 		.4byte	.LVL11
 2692 0072 0100     		.2byte	0x1
 2693 0074 57       		.byte	0x57
 2694 0075 1E000000 		.4byte	.LVL11
 2695 0079 22000000 		.4byte	.LVL14
 2696 007d 0100     		.2byte	0x1
 2697 007f 56       		.byte	0x56
 2698 0080 00000000 		.4byte	0
 2699 0084 00000000 		.4byte	0
 2700              	.LLST3:
 2701 0088 00000000 		.4byte	.LVL5
 2702 008c 0A000000 		.4byte	.LVL6
 2703 0090 0100     		.2byte	0x1
 2704 0092 51       		.byte	0x51
 2705 0093 0A000000 		.4byte	.LVL6
 2706 0097 22000000 		.4byte	.LVL13
 2707 009b 0100     		.2byte	0x1
 2708 009d 55       		.byte	0x55
 2709 009e 00000000 		.4byte	0
ARM GAS  C:\Users\Ray\AppData\Local\Temp\ccnKUjQ7.s 			page 53


 2710 00a2 00000000 		.4byte	0
 2711              	.LLST4:
 2712 00a6 00000000 		.4byte	.LVL5
 2713 00aa 0A000000 		.4byte	.LVL6
 2714 00ae 0100     		.2byte	0x1
 2715 00b0 52       		.byte	0x52
 2716 00b1 0A000000 		.4byte	.LVL6
 2717 00b5 22000000 		.4byte	.LVL12
 2718 00b9 0100     		.2byte	0x1
 2719 00bb 54       		.byte	0x54
 2720 00bc 00000000 		.4byte	0
 2721 00c0 00000000 		.4byte	0
 2722              	.LLST5:
 2723 00c4 00000000 		.4byte	.LVL15
 2724 00c8 0A000000 		.4byte	.LVL16
 2725 00cc 0100     		.2byte	0x1
 2726 00ce 50       		.byte	0x50
 2727 00cf 0A000000 		.4byte	.LVL16
 2728 00d3 1A000000 		.4byte	.LVL22
 2729 00d7 0100     		.2byte	0x1
 2730 00d9 55       		.byte	0x55
 2731 00da 00000000 		.4byte	0
 2732 00de 00000000 		.4byte	0
 2733              	.LLST6:
 2734 00e2 00000000 		.4byte	.LVL15
 2735 00e6 0A000000 		.4byte	.LVL16
 2736 00ea 0100     		.2byte	0x1
 2737 00ec 51       		.byte	0x51
 2738 00ed 0A000000 		.4byte	.LVL16
 2739 00f1 0C000000 		.4byte	.LVL17
 2740 00f5 0100     		.2byte	0x1
 2741 00f7 56       		.byte	0x56
 2742 00f8 0C000000 		.4byte	.LVL17
 2743 00fc 12000000 		.4byte	.LVL18
 2744 0100 0300     		.2byte	0x3
 2745 0102 76       		.byte	0x76
 2746 0103 78       		.sleb128 -8
 2747 0104 9F       		.byte	0x9f
 2748 0105 12000000 		.4byte	.LVL18
 2749 0109 1A000000 		.4byte	.LVL23
 2750 010d 0100     		.2byte	0x1
 2751 010f 56       		.byte	0x56
 2752 0110 00000000 		.4byte	0
 2753 0114 00000000 		.4byte	0
 2754              	.LLST7:
 2755 0118 00000000 		.4byte	.LVL15
 2756 011c 0A000000 		.4byte	.LVL16
 2757 0120 0100     		.2byte	0x1
 2758 0122 52       		.byte	0x52
 2759 0123 0A000000 		.4byte	.LVL16
 2760 0127 1A000000 		.4byte	.LVL21
 2761 012b 0100     		.2byte	0x1
 2762 012d 54       		.byte	0x54
 2763 012e 00000000 		.4byte	0
 2764 0132 00000000 		.4byte	0
 2765              	.LLST8:
 2766 0136 00000000 		.4byte	.LVL24
ARM GAS  C:\Users\Ray\AppData\Local\Temp\ccnKUjQ7.s 			page 54


 2767 013a 1E000000 		.4byte	.LVL25
 2768 013e 0100     		.2byte	0x1
 2769 0140 50       		.byte	0x50
 2770 0141 1E000000 		.4byte	.LVL25
 2771 0145 C4000000 		.4byte	.LFE4
 2772 0149 0400     		.2byte	0x4
 2773 014b F3       		.byte	0xf3
 2774 014c 01       		.uleb128 0x1
 2775 014d 50       		.byte	0x50
 2776 014e 9F       		.byte	0x9f
 2777 014f 00000000 		.4byte	0
 2778 0153 00000000 		.4byte	0
 2779              	.LLST9:
 2780 0157 00000000 		.4byte	.LVL24
 2781 015b 20000000 		.4byte	.LVL26
 2782 015f 0100     		.2byte	0x1
 2783 0161 52       		.byte	0x52
 2784 0162 20000000 		.4byte	.LVL26
 2785 0166 C4000000 		.4byte	.LFE4
 2786 016a 0400     		.2byte	0x4
 2787 016c F3       		.byte	0xf3
 2788 016d 01       		.uleb128 0x1
 2789 016e 52       		.byte	0x52
 2790 016f 9F       		.byte	0x9f
 2791 0170 00000000 		.4byte	0
 2792 0174 00000000 		.4byte	0
 2793              	.LLST10:
 2794 0178 00000000 		.4byte	.LVL24
 2795 017c 28000000 		.4byte	.LVL27
 2796 0180 0100     		.2byte	0x1
 2797 0182 53       		.byte	0x53
 2798 0183 28000000 		.4byte	.LVL27
 2799 0187 C4000000 		.4byte	.LFE4
 2800 018b 0400     		.2byte	0x4
 2801 018d F3       		.byte	0xf3
 2802 018e 01       		.uleb128 0x1
 2803 018f 53       		.byte	0x53
 2804 0190 9F       		.byte	0x9f
 2805 0191 00000000 		.4byte	0
 2806 0195 00000000 		.4byte	0
 2807              	.LLST11:
 2808 0199 00000000 		.4byte	.LVL28
 2809 019d 5A000000 		.4byte	.LVL32
 2810 01a1 0100     		.2byte	0x1
 2811 01a3 50       		.byte	0x50
 2812 01a4 5A000000 		.4byte	.LVL32
 2813 01a8 60000000 		.4byte	.LVL33
 2814 01ac 0100     		.2byte	0x1
 2815 01ae 5C       		.byte	0x5c
 2816 01af 60000000 		.4byte	.LVL33
 2817 01b3 76000000 		.4byte	.LVL34
 2818 01b7 0100     		.2byte	0x1
 2819 01b9 50       		.byte	0x50
 2820 01ba 76000000 		.4byte	.LVL34
 2821 01be B4000000 		.4byte	.LFE5
 2822 01c2 0100     		.2byte	0x1
 2823 01c4 5C       		.byte	0x5c
ARM GAS  C:\Users\Ray\AppData\Local\Temp\ccnKUjQ7.s 			page 55


 2824 01c5 00000000 		.4byte	0
 2825 01c9 00000000 		.4byte	0
 2826              	.LLST12:
 2827 01cd 00000000 		.4byte	.LVL28
 2828 01d1 14000000 		.4byte	.LVL29
 2829 01d5 0100     		.2byte	0x1
 2830 01d7 51       		.byte	0x51
 2831 01d8 14000000 		.4byte	.LVL29
 2832 01dc A4000000 		.4byte	.LVL35
 2833 01e0 0100     		.2byte	0x1
 2834 01e2 59       		.byte	0x59
 2835 01e3 A4000000 		.4byte	.LVL35
 2836 01e7 B4000000 		.4byte	.LFE5
 2837 01eb 0400     		.2byte	0x4
 2838 01ed F3       		.byte	0xf3
 2839 01ee 01       		.uleb128 0x1
 2840 01ef 51       		.byte	0x51
 2841 01f0 9F       		.byte	0x9f
 2842 01f1 00000000 		.4byte	0
 2843 01f5 00000000 		.4byte	0
 2844              	.LLST13:
 2845 01f9 00000000 		.4byte	.LVL28
 2846 01fd 22000000 		.4byte	.LVL30
 2847 0201 0100     		.2byte	0x1
 2848 0203 52       		.byte	0x52
 2849 0204 22000000 		.4byte	.LVL30
 2850 0208 B4000000 		.4byte	.LFE5
 2851 020c 0400     		.2byte	0x4
 2852 020e F3       		.byte	0xf3
 2853 020f 01       		.uleb128 0x1
 2854 0210 52       		.byte	0x52
 2855 0211 9F       		.byte	0x9f
 2856 0212 00000000 		.4byte	0
 2857 0216 00000000 		.4byte	0
 2858              	.LLST14:
 2859 021a 00000000 		.4byte	.LVL28
 2860 021e 2A000000 		.4byte	.LVL31
 2861 0222 0100     		.2byte	0x1
 2862 0224 53       		.byte	0x53
 2863 0225 2A000000 		.4byte	.LVL31
 2864 0229 B4000000 		.4byte	.LFE5
 2865 022d 0400     		.2byte	0x4
 2866 022f F3       		.byte	0xf3
 2867 0230 01       		.uleb128 0x1
 2868 0231 53       		.byte	0x53
 2869 0232 9F       		.byte	0x9f
 2870 0233 00000000 		.4byte	0
 2871 0237 00000000 		.4byte	0
 2872              	.LLST15:
 2873 023b 00000000 		.4byte	.LVL36
 2874 023f 0E000000 		.4byte	.LVL38
 2875 0243 0100     		.2byte	0x1
 2876 0245 50       		.byte	0x50
 2877 0246 0E000000 		.4byte	.LVL38
 2878 024a 5C020000 		.4byte	.LFE6
 2879 024e 0300     		.2byte	0x3
 2880 0250 91       		.byte	0x91
ARM GAS  C:\Users\Ray\AppData\Local\Temp\ccnKUjQ7.s 			page 56


 2881 0251 C47E     		.sleb128 -188
 2882 0253 00000000 		.4byte	0
 2883 0257 00000000 		.4byte	0
 2884              	.LLST16:
 2885 025b 00000000 		.4byte	.LVL36
 2886 025f 11000000 		.4byte	.LVL39-1
 2887 0263 0100     		.2byte	0x1
 2888 0265 51       		.byte	0x51
 2889 0266 11000000 		.4byte	.LVL39-1
 2890 026a 5C020000 		.4byte	.LFE6
 2891 026e 0400     		.2byte	0x4
 2892 0270 F3       		.byte	0xf3
 2893 0271 01       		.uleb128 0x1
 2894 0272 51       		.byte	0x51
 2895 0273 9F       		.byte	0x9f
 2896 0274 00000000 		.4byte	0
 2897 0278 00000000 		.4byte	0
 2898              	.LLST17:
 2899 027c 00000000 		.4byte	.LVL36
 2900 0280 0C000000 		.4byte	.LVL37
 2901 0284 0100     		.2byte	0x1
 2902 0286 52       		.byte	0x52
 2903 0287 0C000000 		.4byte	.LVL37
 2904 028b C2000000 		.4byte	.LVL44
 2905 028f 0100     		.2byte	0x1
 2906 0291 55       		.byte	0x55
 2907 0292 C2000000 		.4byte	.LVL44
 2908 0296 5C020000 		.4byte	.LFE6
 2909 029a 0400     		.2byte	0x4
 2910 029c F3       		.byte	0xf3
 2911 029d 01       		.uleb128 0x1
 2912 029e 52       		.byte	0x52
 2913 029f 9F       		.byte	0x9f
 2914 02a0 00000000 		.4byte	0
 2915 02a4 00000000 		.4byte	0
 2916              	.LLST18:
 2917 02a8 00000000 		.4byte	.LVL36
 2918 02ac 11000000 		.4byte	.LVL39-1
 2919 02b0 0100     		.2byte	0x1
 2920 02b2 53       		.byte	0x53
 2921 02b3 11000000 		.4byte	.LVL39-1
 2922 02b7 72000000 		.4byte	.LVL42
 2923 02bb 0100     		.2byte	0x1
 2924 02bd 54       		.byte	0x54
 2925 02be 72000000 		.4byte	.LVL42
 2926 02c2 5C020000 		.4byte	.LFE6
 2927 02c6 0400     		.2byte	0x4
 2928 02c8 F3       		.byte	0xf3
 2929 02c9 01       		.uleb128 0x1
 2930 02ca 53       		.byte	0x53
 2931 02cb 9F       		.byte	0x9f
 2932 02cc 00000000 		.4byte	0
 2933 02d0 00000000 		.4byte	0
 2934              	.LLST19:
 2935 02d4 BE000000 		.4byte	.LVL43
 2936 02d8 C2000000 		.4byte	.LVL44
 2937 02dc 0200     		.2byte	0x2
ARM GAS  C:\Users\Ray\AppData\Local\Temp\ccnKUjQ7.s 			page 57


 2938 02de 30       		.byte	0x30
 2939 02df 9F       		.byte	0x9f
 2940 02e0 C2000000 		.4byte	.LVL44
 2941 02e4 50020000 		.4byte	.LVL65
 2942 02e8 0100     		.2byte	0x1
 2943 02ea 56       		.byte	0x56
 2944 02eb 00000000 		.4byte	0
 2945 02ef 00000000 		.4byte	0
 2946              	.LLST20:
 2947 02f3 F6000000 		.4byte	.LVL50
 2948 02f7 22010000 		.4byte	.LVL51
 2949 02fb 0600     		.2byte	0x6
 2950 02fd 53       		.byte	0x53
 2951 02fe 93       		.byte	0x93
 2952 02ff 04       		.uleb128 0x4
 2953 0300 54       		.byte	0x54
 2954 0301 93       		.byte	0x93
 2955 0302 04       		.uleb128 0x4
 2956 0303 22010000 		.4byte	.LVL51
 2957 0307 8E010000 		.4byte	.LVL53
 2958 030b 0300     		.2byte	0x3
 2959 030d 91       		.byte	0x91
 2960 030e A87E     		.sleb128 -216
 2961 0310 8E010000 		.4byte	.LVL53
 2962 0314 A6010000 		.4byte	.LVL54
 2963 0318 0300     		.2byte	0x3
 2964 031a 91       		.byte	0x91
 2965 031b B07E     		.sleb128 -208
 2966 031d E4010000 		.4byte	.LVL58
 2967 0321 18020000 		.4byte	.LVL60
 2968 0325 0600     		.2byte	0x6
 2969 0327 52       		.byte	0x52
 2970 0328 93       		.byte	0x93
 2971 0329 04       		.uleb128 0x4
 2972 032a 53       		.byte	0x53
 2973 032b 93       		.byte	0x93
 2974 032c 04       		.uleb128 0x4
 2975 032d 00000000 		.4byte	0
 2976 0331 00000000 		.4byte	0
 2977              	.LLST21:
 2978 0335 EE000000 		.4byte	.LVL49
 2979 0339 A6010000 		.4byte	.LVL54
 2980 033d 0500     		.2byte	0x5
 2981 033f 76       		.byte	0x76
 2982 0340 00       		.sleb128 0
 2983 0341 32       		.byte	0x32
 2984 0342 25       		.byte	0x25
 2985 0343 9F       		.byte	0x9f
 2986 0344 00000000 		.4byte	0
 2987 0348 00000000 		.4byte	0
 2988              	.LLST22:
 2989 034c C8000000 		.4byte	.LVL45
 2990 0350 E8000000 		.4byte	.LVL47
 2991 0354 0100     		.2byte	0x1
 2992 0356 50       		.byte	0x50
 2993 0357 EA000000 		.4byte	.LVL48
 2994 035b 24010000 		.4byte	.LVL52
ARM GAS  C:\Users\Ray\AppData\Local\Temp\ccnKUjQ7.s 			page 58


 2995 035f 0100     		.2byte	0x1
 2996 0361 50       		.byte	0x50
 2997 0362 00000000 		.4byte	0
 2998 0366 00000000 		.4byte	0
 2999              	.LLST23:
 3000 036a AC010000 		.4byte	.LVL55
 3001 036e 18020000 		.4byte	.LVL60
 3002 0372 0100     		.2byte	0x1
 3003 0374 54       		.byte	0x54
 3004 0375 00000000 		.4byte	0
 3005 0379 00000000 		.4byte	0
 3006              	.LLST24:
 3007 037d 22020000 		.4byte	.LVL61
 3008 0381 46020000 		.4byte	.LVL63
 3009 0385 0100     		.2byte	0x1
 3010 0387 52       		.byte	0x52
 3011 0388 00000000 		.4byte	0
 3012 038c 00000000 		.4byte	0
 3013              	.LLST25:
 3014 0390 00000000 		.4byte	.LVL66
 3015 0394 0E000000 		.4byte	.LVL68
 3016 0398 0100     		.2byte	0x1
 3017 039a 50       		.byte	0x50
 3018 039b 0E000000 		.4byte	.LVL68
 3019 039f 78020000 		.4byte	.LFE7
 3020 03a3 0300     		.2byte	0x3
 3021 03a5 91       		.byte	0x91
 3022 03a6 C47E     		.sleb128 -188
 3023 03a8 00000000 		.4byte	0
 3024 03ac 00000000 		.4byte	0
 3025              	.LLST26:
 3026 03b0 00000000 		.4byte	.LVL66
 3027 03b4 11000000 		.4byte	.LVL69-1
 3028 03b8 0100     		.2byte	0x1
 3029 03ba 51       		.byte	0x51
 3030 03bb 11000000 		.4byte	.LVL69-1
 3031 03bf 78020000 		.4byte	.LFE7
 3032 03c3 0400     		.2byte	0x4
 3033 03c5 F3       		.byte	0xf3
 3034 03c6 01       		.uleb128 0x1
 3035 03c7 51       		.byte	0x51
 3036 03c8 9F       		.byte	0x9f
 3037 03c9 00000000 		.4byte	0
 3038 03cd 00000000 		.4byte	0
 3039              	.LLST27:
 3040 03d1 00000000 		.4byte	.LVL66
 3041 03d5 0C000000 		.4byte	.LVL67
 3042 03d9 0100     		.2byte	0x1
 3043 03db 52       		.byte	0x52
 3044 03dc 0C000000 		.4byte	.LVL67
 3045 03e0 72000000 		.4byte	.LVL72
 3046 03e4 0100     		.2byte	0x1
 3047 03e6 54       		.byte	0x54
 3048 03e7 72000000 		.4byte	.LVL72
 3049 03eb 78020000 		.4byte	.LFE7
 3050 03ef 0400     		.2byte	0x4
 3051 03f1 F3       		.byte	0xf3
ARM GAS  C:\Users\Ray\AppData\Local\Temp\ccnKUjQ7.s 			page 59


 3052 03f2 01       		.uleb128 0x1
 3053 03f3 52       		.byte	0x52
 3054 03f4 9F       		.byte	0x9f
 3055 03f5 00000000 		.4byte	0
 3056 03f9 00000000 		.4byte	0
 3057              	.LLST28:
 3058 03fd 00000000 		.4byte	.LVL66
 3059 0401 11000000 		.4byte	.LVL69-1
 3060 0405 0100     		.2byte	0x1
 3061 0407 53       		.byte	0x53
 3062 0408 11000000 		.4byte	.LVL69-1
 3063 040c 04010000 		.4byte	.LVL76
 3064 0410 0100     		.2byte	0x1
 3065 0412 55       		.byte	0x55
 3066 0413 04010000 		.4byte	.LVL76
 3067 0417 78020000 		.4byte	.LFE7
 3068 041b 0400     		.2byte	0x4
 3069 041d F3       		.byte	0xf3
 3070 041e 01       		.uleb128 0x1
 3071 041f 53       		.byte	0x53
 3072 0420 9F       		.byte	0x9f
 3073 0421 00000000 		.4byte	0
 3074 0425 00000000 		.4byte	0
 3075              	.LLST29:
 3076 0429 D6000000 		.4byte	.LVL73
 3077 042d DA000000 		.4byte	.LVL74
 3078 0431 0200     		.2byte	0x2
 3079 0433 30       		.byte	0x30
 3080 0434 9F       		.byte	0x9f
 3081 0435 DA000000 		.4byte	.LVL74
 3082 0439 04010000 		.4byte	.LVL76
 3083 043d 0100     		.2byte	0x1
 3084 043f 52       		.byte	0x52
 3085 0440 00000000 		.4byte	0
 3086 0444 00000000 		.4byte	0
 3087              	.LLST30:
 3088 0448 04010000 		.4byte	.LVL76
 3089 044c 74010000 		.4byte	.LVL83
 3090 0450 0100     		.2byte	0x1
 3091 0452 56       		.byte	0x56
 3092 0453 5C020000 		.4byte	.LVL93
 3093 0457 6E020000 		.4byte	.LVL95
 3094 045b 0100     		.2byte	0x1
 3095 045d 56       		.byte	0x56
 3096 045e 00000000 		.4byte	0
 3097 0462 00000000 		.4byte	0
 3098              	.LLST31:
 3099 0466 08010000 		.4byte	.LVL77
 3100 046a 3E010000 		.4byte	.LVL80
 3101 046e 0600     		.2byte	0x6
 3102 0470 52       		.byte	0x52
 3103 0471 93       		.byte	0x93
 3104 0472 04       		.uleb128 0x4
 3105 0473 53       		.byte	0x53
 3106 0474 93       		.byte	0x93
 3107 0475 04       		.uleb128 0x4
 3108 0476 84010000 		.4byte	.LVL84
ARM GAS  C:\Users\Ray\AppData\Local\Temp\ccnKUjQ7.s 			page 60


 3109 047a 88010000 		.4byte	.LVL85
 3110 047e 0600     		.2byte	0x6
 3111 0480 53       		.byte	0x53
 3112 0481 93       		.byte	0x93
 3113 0482 04       		.uleb128 0x4
 3114 0483 54       		.byte	0x54
 3115 0484 93       		.byte	0x93
 3116 0485 04       		.uleb128 0x4
 3117 0486 88010000 		.4byte	.LVL85
 3118 048a 1A020000 		.4byte	.LVL87
 3119 048e 0300     		.2byte	0x3
 3120 0490 91       		.byte	0x91
 3121 0491 987E     		.sleb128 -232
 3122 0493 1A020000 		.4byte	.LVL87
 3123 0497 30020000 		.4byte	.LVL89
 3124 049b 0600     		.2byte	0x6
 3125 049d 50       		.byte	0x50
 3126 049e 93       		.byte	0x93
 3127 049f 04       		.uleb128 0x4
 3128 04a0 51       		.byte	0x51
 3129 04a1 93       		.byte	0x93
 3130 04a2 04       		.uleb128 0x4
 3131 04a3 30020000 		.4byte	.LVL89
 3132 04a7 58020000 		.4byte	.LVL92
 3133 04ab 0300     		.2byte	0x3
 3134 04ad 91       		.byte	0x91
 3135 04ae 887F     		.sleb128 -120
 3136 04b0 00000000 		.4byte	0
 3137 04b4 00000000 		.4byte	0
 3138              	.LLST32:
 3139 04b8 38010000 		.4byte	.LVL79
 3140 04bc 3E010000 		.4byte	.LVL80
 3141 04c0 0200     		.2byte	0x2
 3142 04c2 30       		.byte	0x30
 3143 04c3 9F       		.byte	0x9f
 3144 04c4 3E010000 		.4byte	.LVL80
 3145 04c8 9C010000 		.4byte	.LVL86
 3146 04cc 0100     		.2byte	0x1
 3147 04ce 54       		.byte	0x54
 3148 04cf 00000000 		.4byte	0
 3149 04d3 00000000 		.4byte	0
 3150              	.LLST33:
 3151 04d7 2E020000 		.4byte	.LVL88
 3152 04db 32020000 		.4byte	.LVL90
 3153 04df 0200     		.2byte	0x2
 3154 04e1 30       		.byte	0x30
 3155 04e2 9F       		.byte	0x9f
 3156 04e3 32020000 		.4byte	.LVL90
 3157 04e7 58020000 		.4byte	.LVL92
 3158 04eb 0100     		.2byte	0x1
 3159 04ed 50       		.byte	0x50
 3160 04ee 00000000 		.4byte	0
 3161 04f2 00000000 		.4byte	0
 3162              		.section	.debug_aranges,"",%progbits
 3163 0000 54000000 		.4byte	0x54
 3164 0004 0200     		.2byte	0x2
 3165 0006 00000000 		.4byte	.Ldebug_info0
ARM GAS  C:\Users\Ray\AppData\Local\Temp\ccnKUjQ7.s 			page 61


 3166 000a 04       		.byte	0x4
 3167 000b 00       		.byte	0
 3168 000c 0000     		.2byte	0
 3169 000e 0000     		.2byte	0
 3170 0010 00000000 		.4byte	.LFB0
 3171 0014 2C000000 		.4byte	.LFE0-.LFB0
 3172 0018 00000000 		.4byte	.LFB1
 3173 001c 1E000000 		.4byte	.LFE1-.LFB1
 3174 0020 00000000 		.4byte	.LFB2
 3175 0024 24000000 		.4byte	.LFE2-.LFB2
 3176 0028 00000000 		.4byte	.LFB3
 3177 002c 1C000000 		.4byte	.LFE3-.LFB3
 3178 0030 00000000 		.4byte	.LFB4
 3179 0034 C4000000 		.4byte	.LFE4-.LFB4
 3180 0038 00000000 		.4byte	.LFB5
 3181 003c B4000000 		.4byte	.LFE5-.LFB5
 3182 0040 00000000 		.4byte	.LFB6
 3183 0044 5C020000 		.4byte	.LFE6-.LFB6
 3184 0048 00000000 		.4byte	.LFB7
 3185 004c 78020000 		.4byte	.LFE7-.LFB7
 3186 0050 00000000 		.4byte	0
 3187 0054 00000000 		.4byte	0
 3188              		.section	.debug_ranges,"",%progbits
 3189              	.Ldebug_ranges0:
 3190 0000 C8000000 		.4byte	.LBB4
 3191 0004 E8000000 		.4byte	.LBE4
 3192 0008 EA000000 		.4byte	.LBB7
 3193 000c A6010000 		.4byte	.LBE7
 3194 0010 00000000 		.4byte	0
 3195 0014 00000000 		.4byte	0
 3196 0018 C8000000 		.4byte	.LBB5
 3197 001c E8000000 		.4byte	.LBE5
 3198 0020 EA000000 		.4byte	.LBB6
 3199 0024 EE000000 		.4byte	.LBE6
 3200 0028 00000000 		.4byte	0
 3201 002c 00000000 		.4byte	0
 3202 0030 00000000 		.4byte	.LFB0
 3203 0034 2C000000 		.4byte	.LFE0
 3204 0038 00000000 		.4byte	.LFB1
 3205 003c 1E000000 		.4byte	.LFE1
 3206 0040 00000000 		.4byte	.LFB2
 3207 0044 24000000 		.4byte	.LFE2
 3208 0048 00000000 		.4byte	.LFB3
 3209 004c 1C000000 		.4byte	.LFE3
 3210 0050 00000000 		.4byte	.LFB4
 3211 0054 C4000000 		.4byte	.LFE4
 3212 0058 00000000 		.4byte	.LFB5
 3213 005c B4000000 		.4byte	.LFE5
 3214 0060 00000000 		.4byte	.LFB6
 3215 0064 5C020000 		.4byte	.LFE6
 3216 0068 00000000 		.4byte	.LFB7
 3217 006c 78020000 		.4byte	.LFE7
 3218 0070 00000000 		.4byte	0
 3219 0074 00000000 		.4byte	0
 3220              		.section	.debug_line,"",%progbits
 3221              	.Ldebug_line0:
 3222 0000 FF020000 		.section	.debug_str,"MS",%progbits,1
ARM GAS  C:\Users\Ray\AppData\Local\Temp\ccnKUjQ7.s 			page 62


 3222      02003801 
 3222      00000201 
 3222      FB0E0D00 
 3222      01010101 
 3223              	.LASF22:
 3224 0000 63697068 		.ascii	"ciphertext\000"
 3224      65727465 
 3224      787400
 3225              	.LASF6:
 3226 000b 5F5F7569 		.ascii	"__uint8_t\000"
 3226      6E74385F 
 3226      7400
 3227              	.LASF15:
 3228 0015 7061636B 		.ascii	"pack_uint64_little\000"
 3228      5F75696E 
 3228      7436345F 
 3228      6C697474 
 3228      6C6500
 3229              	.LASF25:
 3230 0028 65787472 		.ascii	"extra\000"
 3230      6100
 3231              	.LASF14:
 3232 002e 75696E74 		.ascii	"uint64_t\000"
 3232      36345F74 
 3232      00
 3233              	.LASF27:
 3234 0037 74687265 		.ascii	"threefish512_encrypt_block\000"
 3234      65666973 
 3234      68353132 
 3234      5F656E63 
 3234      72797074 
 3235              	.LASF24:
 3236 0052 706C6169 		.ascii	"plaintext\000"
 3236      6E746578 
 3236      7400
 3237              	.LASF16:
 3238 005c 62797465 		.ascii	"bytes_to_words\000"
 3238      735F746F 
 3238      5F776F72 
 3238      647300
 3239              	.LASF2:
 3240 006b 756E7369 		.ascii	"unsigned char\000"
 3240      676E6564 
 3240      20636861 
 3240      7200
 3241              	.LASF28:
 3242 0079 74687265 		.ascii	"threefish512_decrypt_block\000"
 3242      65666973 
 3242      68353132 
 3242      5F646563 
 3242      72797074 
 3243              	.LASF8:
 3244 0094 6C6F6E67 		.ascii	"long unsigned int\000"
 3244      20756E73 
 3244      69676E65 
 3244      6420696E 
 3244      7400
ARM GAS  C:\Users\Ray\AppData\Local\Temp\ccnKUjQ7.s 			page 63


 3245              	.LASF23:
 3246 00a6 74776561 		.ascii	"tweak\000"
 3246      6B00
 3247              	.LASF4:
 3248 00ac 73686F72 		.ascii	"short unsigned int\000"
 3248      7420756E 
 3248      7369676E 
 3248      65642069 
 3248      6E7400
 3249              	.LASF7:
 3250 00bf 5F5F7569 		.ascii	"__uint32_t\000"
 3250      6E743332 
 3250      5F7400
 3251              	.LASF18:
 3252 00ca 776F7264 		.ascii	"words_to_bytes\000"
 3252      735F746F 
 3252      5F627974 
 3252      657300
 3253              	.LASF20:
 3254 00d9 726F756E 		.ascii	"roundnum\000"
 3254      646E756D 
 3254      00
 3255              	.LASF31:
 3256 00e2 7374726F 		.ascii	"strong-arm\\src\\threefish\\threefish.c\000"
 3256      6E672D61 
 3256      726D5C73 
 3256      72635C74 
 3256      68726565 
 3257              	.LASF11:
 3258 0107 756E7369 		.ascii	"unsigned int\000"
 3258      676E6564 
 3258      20696E74 
 3258      00
 3259              	.LASF0:
 3260 0114 6C6F6E67 		.ascii	"long long unsigned int\000"
 3260      206C6F6E 
 3260      6720756E 
 3260      7369676E 
 3260      65642069 
 3261              	.LASF12:
 3262 012b 75696E74 		.ascii	"uint8_t\000"
 3262      385F7400 
 3263              	.LASF21:
 3264 0133 756E6D69 		.ascii	"unmix8\000"
 3264      783800
 3265              	.LASF30:
 3266 013a 474E5520 		.ascii	"GNU C11 5.4.1 20160609 (release) [ARM/embedded-5-br"
 3266      43313120 
 3266      352E342E 
 3266      31203230 
 3266      31363036 
 3267 016d 616E6368 		.ascii	"anch revision 237715] -mcpu=cortex-m0 -mthumb -g -O"
 3267      20726576 
 3267      6973696F 
 3267      6E203233 
 3267      37373135 
 3268 01a0 67202D66 		.ascii	"g -ffunction-sections -ffat-lto-objects\000"
ARM GAS  C:\Users\Ray\AppData\Local\Temp\ccnKUjQ7.s 			page 64


 3268      66756E63 
 3268      74696F6E 
 3268      2D736563 
 3268      74696F6E 
 3269              	.LASF26:
 3270 01c8 73697A65 		.ascii	"sizetype\000"
 3270      74797065 
 3270      00
 3271              	.LASF9:
 3272 01d1 6C6F6E67 		.ascii	"long long int\000"
 3272      206C6F6E 
 3272      6720696E 
 3272      7400
 3273              	.LASF29:
 3274 01df 43323430 		.ascii	"C240\000"
 3274      00
 3275              	.LASF19:
 3276 01e4 6D697838 		.ascii	"mix8\000"
 3276      00
 3277              	.LASF33:
 3278 01e9 756E7061 		.ascii	"unpack_uint64_little\000"
 3278      636B5F75 
 3278      696E7436 
 3278      345F6C69 
 3278      74746C65 
 3279              	.LASF17:
 3280 01fe 636F756E 		.ascii	"count\000"
 3280      7400
 3281              	.LASF3:
 3282 0204 73686F72 		.ascii	"short int\000"
 3282      7420696E 
 3282      7400
 3283              	.LASF10:
 3284 020e 5F5F7569 		.ascii	"__uint64_t\000"
 3284      6E743634 
 3284      5F7400
 3285              	.LASF32:
 3286 0219 5C5C5642 		.ascii	"\\\\VBOXSVR\\raywang\\Dropbox (MIT)\\CTFs\\eCTF\\20"
 3286      4F585356 
 3286      525C7261 
 3286      7977616E 
 3286      675C4472 
 3287 0245 31382D65 		.ascii	"18-ectf-milestones-demo\\Milestones Demo Workspace\\"
 3287      6374662D 
 3287      6D696C65 
 3287      73746F6E 
 3287      65732D64 
 3288 0277 7374726F 		.ascii	"strong-arm.cylib\000"
 3288      6E672D61 
 3288      726D2E63 
 3288      796C6962 
 3288      00
 3289              	.LASF13:
 3290 0288 75696E74 		.ascii	"uint32_t\000"
 3290      33325F74 
 3290      00
 3291              	.LASF5:
ARM GAS  C:\Users\Ray\AppData\Local\Temp\ccnKUjQ7.s 			page 65


 3292 0291 6C6F6E67 		.ascii	"long int\000"
 3292      20696E74 
 3292      00
 3293              	.LASF1:
 3294 029a 7369676E 		.ascii	"signed char\000"
 3294      65642063 
 3294      68617200 
 3295              		.ident	"GCC: (GNU Tools for ARM Embedded Processors) 5.4.1 20160609 (release) [ARM/embedded-5-bran
