ARM GAS  C:\Users\Ray\AppData\Local\Temp\ccL2yTiy.s 			page 1


   1              		.syntax unified
   2              		.cpu cortex-m0
   3              		.fpu softvfp
   4              		.eabi_attribute 20, 1
   5              		.eabi_attribute 21, 1
   6              		.eabi_attribute 23, 3
   7              		.eabi_attribute 24, 1
   8              		.eabi_attribute 25, 1
   9              		.eabi_attribute 26, 1
  10              		.eabi_attribute 30, 1
  11              		.eabi_attribute 34, 0
  12              		.eabi_attribute 18, 4
  13              		.thumb
  14              		.syntax unified
  15              		.file	"util.c"
  16              		.text
  17              	.Ltext0:
  18              		.cfi_sections	.debug_frame
  19              		.section	.text.error_state,"ax",%progbits
  20              		.align	2
  21              		.global	error_state
  22              		.code	16
  23              		.thumb_func
  24              		.type	error_state, %function
  25              	error_state:
  26              	.LFB0:
  27              		.file 1 "strong-arm\\src\\private\\util.c"
   1:strong-arm\src\private/util.c **** #include "util.h"
   2:strong-arm\src\private/util.c **** 
   3:strong-arm\src\private/util.c **** #ifdef TARGET_STM32F4
   4:strong-arm\src\private/util.c **** 	#include <stm32f4xx.h>
   5:strong-arm\src\private/util.c **** #endif
   6:strong-arm\src\private/util.c **** 
   7:strong-arm\src\private/util.c **** 
   8:strong-arm\src\private/util.c **** // TODO: Go into low power mode, blink LED? Maybe even poweroff?
   9:strong-arm\src\private/util.c **** void error_state (void)
  10:strong-arm\src\private/util.c **** {
  28              		.loc 1 10 0
  29              		.cfi_startproc
  30              		@ Volatile: function does not return.
  31              		@ args = 0, pretend = 0, frame = 0
  32              		@ frame_needed = 0, uses_anonymous_args = 0
  33              		@ link register save eliminated.
  34              	.L2:
  35 0000 FEE7     		b	.L2
  36              		.cfi_endproc
  37              	.LFE0:
  38              		.size	error_state, .-error_state
  39 0002 C046     		.section	.text.blog2,"ax",%progbits
  40              		.align	2
  41              		.global	blog2
  42              		.code	16
  43              		.thumb_func
  44              		.type	blog2, %function
  45              	blog2:
  46              	.LFB1:
  11:strong-arm\src\private/util.c **** 	// Disable interrupts
ARM GAS  C:\Users\Ray\AppData\Local\Temp\ccL2yTiy.s 			page 2


  12:strong-arm\src\private/util.c **** #ifdef TARGET_STM32F4
  13:strong-arm\src\private/util.c **** 	__disable_irq ();
  14:strong-arm\src\private/util.c **** #endif
  15:strong-arm\src\private/util.c **** 
  16:strong-arm\src\private/util.c **** 	while (1)
  17:strong-arm\src\private/util.c **** 	{
  18:strong-arm\src\private/util.c **** 	}
  19:strong-arm\src\private/util.c **** }
  20:strong-arm\src\private/util.c **** 
  21:strong-arm\src\private/util.c **** uint32_t blog2 (uint32_t a)
  22:strong-arm\src\private/util.c **** {
  47              		.loc 1 22 0
  48              		.cfi_startproc
  49              		@ args = 0, pretend = 0, frame = 40
  50              		@ frame_needed = 0, uses_anonymous_args = 0
  51              	.LVL0:
  52              		.loc 1 22 0
  53 0000 70B5     		push	{r4, r5, r6, lr}
  54              		.cfi_def_cfa_offset 16
  55              		.cfi_offset 4, -16
  56              		.cfi_offset 5, -12
  57              		.cfi_offset 6, -8
  58              		.cfi_offset 14, -4
  59 0002 8AB0     		sub	sp, sp, #40
  60              		.cfi_def_cfa_offset 56
  61 0004 0100     		movs	r1, r0
  23:strong-arm\src\private/util.c **** 	const uint32_t b[] = {0x2, 0xC, 0xF0, 0xFF00, 0xFFFF0000};
  62              		.loc 1 23 0
  63 0006 05AC     		add	r4, sp, #20
  64 0008 0F4B     		ldr	r3, .L7
  65 000a 2200     		movs	r2, r4
  66 000c 1800     		movs	r0, r3
  67              	.LVL1:
  68 000e 70C8     		ldmia	r0!, {r4, r5, r6}
  69 0010 70C2     		stmia	r2!, {r4, r5, r6}
  70 0012 30C8     		ldmia	r0!, {r4, r5}
  71 0014 30C2     		stmia	r2!, {r4, r5}
  24:strong-arm\src\private/util.c **** 	const uint32_t S[] = {1, 2, 4, 8, 16};
  72              		.loc 1 24 0
  73 0016 6A46     		mov	r2, sp
  74 0018 1433     		adds	r3, r3, #20
  75 001a 31CB     		ldmia	r3!, {r0, r4, r5}
  76 001c 31C2     		stmia	r2!, {r0, r4, r5}
  77 001e 11CB     		ldmia	r3!, {r0, r4}
  78 0020 11C2     		stmia	r2!, {r0, r4}
  79              	.LVL2:
  80              	.LBB2:
  25:strong-arm\src\private/util.c **** 	uint32_t r = 0;
  26:strong-arm\src\private/util.c **** 
  27:strong-arm\src\private/util.c **** 	for (int i = 4; i >= 0; --i)
  81              		.loc 1 27 0
  82 0022 0423     		movs	r3, #4
  83              	.LBE2:
  25:strong-arm\src\private/util.c **** 	uint32_t r = 0;
  84              		.loc 1 25 0
  85 0024 0020     		movs	r0, #0
  86              	.LBB3:
ARM GAS  C:\Users\Ray\AppData\Local\Temp\ccL2yTiy.s 			page 3


  87              		.loc 1 27 0
  88 0026 0AE0     		b	.L4
  89              	.LVL3:
  90              	.L6:
  28:strong-arm\src\private/util.c **** 	{
  29:strong-arm\src\private/util.c **** 		if (a & b[i])
  91              		.loc 1 29 0
  92 0028 9A00     		lsls	r2, r3, #2
  93 002a 05AC     		add	r4, sp, #20
  94 002c 1259     		ldr	r2, [r2, r4]
  95 002e 0A42     		tst	r2, r1
  96 0030 04D0     		beq	.L5
  30:strong-arm\src\private/util.c **** 		{
  31:strong-arm\src\private/util.c **** 			a >>= S[i];
  97              		.loc 1 31 0
  98 0032 9A00     		lsls	r2, r3, #2
  99 0034 6C46     		mov	r4, sp
 100 0036 1259     		ldr	r2, [r2, r4]
 101 0038 D140     		lsrs	r1, r1, r2
 102              	.LVL4:
  32:strong-arm\src\private/util.c **** 			r |= S[i];
 103              		.loc 1 32 0
 104 003a 1043     		orrs	r0, r2
 105              	.LVL5:
 106              	.L5:
  27:strong-arm\src\private/util.c **** 	{
 107              		.loc 1 27 0 discriminator 2
 108 003c 013B     		subs	r3, r3, #1
 109              	.LVL6:
 110              	.L4:
  27:strong-arm\src\private/util.c **** 	{
 111              		.loc 1 27 0 is_stmt 0 discriminator 1
 112 003e 002B     		cmp	r3, #0
 113 0040 F2DA     		bge	.L6
 114              	.LBE3:
  33:strong-arm\src\private/util.c **** 		} 
  34:strong-arm\src\private/util.c **** 	}
  35:strong-arm\src\private/util.c **** 
  36:strong-arm\src\private/util.c **** 	return r;
  37:strong-arm\src\private/util.c **** }
 115              		.loc 1 37 0 is_stmt 1
 116 0042 0AB0     		add	sp, sp, #40
 117              		@ sp needed
 118 0044 70BD     		pop	{r4, r5, r6, pc}
 119              	.L8:
 120 0046 C046     		.align	2
 121              	.L7:
 122 0048 00000000 		.word	.LANCHOR0
 123              		.cfi_endproc
 124              	.LFE1:
 125              		.size	blog2, .-blog2
 126              		.section	.rodata
 127              		.align	2
 128              		.set	.LANCHOR0,. + 0
 129              	.LC0:
 130 0000 02000000 		.word	2
 131 0004 0C000000 		.word	12
ARM GAS  C:\Users\Ray\AppData\Local\Temp\ccL2yTiy.s 			page 4


 132 0008 F0000000 		.word	240
 133 000c 00FF0000 		.word	65280
 134 0010 0000FFFF 		.word	-65536
 135              	.LC1:
 136 0014 01000000 		.word	1
 137 0018 02000000 		.word	2
 138 001c 04000000 		.word	4
 139 0020 08000000 		.word	8
 140 0024 10000000 		.word	16
 141              		.text
 142              	.Letext0:
 143              		.file 2 "c:\\program files (x86)\\cypress\\psoc creator\\4.1\\psoc creator\\import\\gnu\\arm\\5.4.
 144              		.file 3 "c:\\program files (x86)\\cypress\\psoc creator\\4.1\\psoc creator\\import\\gnu\\arm\\5.4.